
d6f85138-131c-4f86-b746-a066b2536e69.elf:     file format elf64-littleaarch64
d6f85138-131c-4f86-b746-a066b2536e69.elf
architecture: aarch64, flags 0x00000150:
HAS_SYMS, DYNAMIC, D_PAGED
start address 0x0000000000000020

Program Header:
    LOAD off    0x0000000000010000 vaddr 0x0000000000000000 paddr 0x0000000000000000 align 2**16
         filesz 0x000000000000c854 memsz 0x000000000000c854 flags r-x
    LOAD off    0x000000000001c858 vaddr 0x000000000000c858 paddr 0x000000000000c858 align 2**16
         filesz 0x00000000000028e4 memsz 0x00000000000028e4 flags r--
    LOAD off    0x0000000000020000 vaddr 0x0000000000010000 paddr 0x0000000000010000 align 2**16
         filesz 0x00000000000001bc memsz 0x000000000000ade0 flags rw-
 DYNAMIC off    0x000000000001edf8 vaddr 0x000000000000edf8 paddr 0x000000000000edf8 align 2**3
         filesz 0x0000000000000100 memsz 0x0000000000000100 flags rw-

Dynamic Section:
  HASH                 0x000000000000f0f0
  STRTAB               0x000000000000f048
  SYMTAB               0x000000000000eef8
  STRSZ                0x00000000000000a7
  SYMENT               0x0000000000000018
  DEBUG                0x0000000000000000
  RELA                 0x000000000000ea38
  RELASZ               0x0000000000000348
  RELAENT              0x0000000000000018
  FLAGS_1              0x0000000008000000
  RELACOUNT            0x0000000000000018
private flags = 0:

Sections:
Idx Name          Size      VMA               LMA               File off  Algn
  0 .ta_head      00000020  0000000000000000  0000000000000000  00010000  2**3
                  CONTENTS, ALLOC, LOAD, DATA
  1 .text         0000c834  0000000000000020  0000000000000020  00010020  2**2
                  CONTENTS, ALLOC, LOAD, READONLY, CODE
  2 .rodata       000021e0  000000000000c858  000000000000c858  0001c858  2**3
                  CONTENTS, ALLOC, LOAD, READONLY, DATA
  3 .dynsym       00000150  000000000000eef8  000000000000eef8  0001eef8  2**3
                  CONTENTS, ALLOC, LOAD, READONLY, DATA
  4 .rela.dyn     00000240  000000000000ea38  000000000000ea38  0001ea38  2**3
                  CONTENTS, ALLOC, LOAD, READONLY, DATA
  5 .got          00000078  000000000000ec78  000000000000ec78  0001ec78  2**3
                  CONTENTS, ALLOC, LOAD, DATA
  6 .rela.got     00000108  000000000000ecf0  000000000000ecf0  0001ecf0  2**3
                  CONTENTS, ALLOC, LOAD, READONLY, DATA
  7 .dynamic      00000100  000000000000edf8  000000000000edf8  0001edf8  2**3
                  CONTENTS, ALLOC, LOAD, DATA
  8 .dynstr       000000a7  000000000000f048  000000000000f048  0001f048  2**0
                  CONTENTS, ALLOC, LOAD, READONLY, DATA
  9 .hash         0000004c  000000000000f0f0  000000000000f0f0  0001f0f0  2**3
                  CONTENTS, ALLOC, LOAD, READONLY, DATA
 10 .data         000001bc  0000000000010000  0000000000010000  00020000  2**3
                  CONTENTS, ALLOC, LOAD, DATA
 11 .bss          0000ac20  00000000000101c0  00000000000101c0  000201bc  2**3
                  ALLOC
 12 .debug_info   00017f97  0000000000000000  0000000000000000  000201bc  2**0
                  CONTENTS, READONLY, DEBUGGING
 13 .debug_abbrev 0000498c  0000000000000000  0000000000000000  00038153  2**0
                  CONTENTS, READONLY, DEBUGGING
 14 .debug_loc    0001d459  0000000000000000  0000000000000000  0003cadf  2**0
                  CONTENTS, READONLY, DEBUGGING
 15 .debug_aranges 00000800  0000000000000000  0000000000000000  00059f38  2**0
                  CONTENTS, READONLY, DEBUGGING
 16 .debug_macro  00005587  0000000000000000  0000000000000000  0005a738  2**0
                  CONTENTS, READONLY, DEBUGGING
 17 .debug_line   00006f17  0000000000000000  0000000000000000  0005fcbf  2**0
                  CONTENTS, READONLY, DEBUGGING
 18 .debug_str    00010a09  0000000000000000  0000000000000000  00066bd6  2**0
                  CONTENTS, READONLY, DEBUGGING
 19 .comment      0000002d  0000000000000000  0000000000000000  000775df  2**0
                  CONTENTS, READONLY
 20 .debug_frame  00003308  0000000000000000  0000000000000000  00077610  2**3
                  CONTENTS, READONLY, DEBUGGING
 21 .debug_ranges 00000d20  0000000000000000  0000000000000000  0007a918  2**0
                  CONTENTS, READONLY, DEBUGGING
SYMBOL TABLE:
0000000000000000 l    d  .ta_head	0000000000000000 .ta_head
0000000000000020 l    d  .text	0000000000000000 .text
000000000000c858 l    d  .rodata	0000000000000000 .rodata
000000000000ea38 l    d  .rela.dyn	0000000000000000 .rela.dyn
000000000000ec78 l    d  .got	0000000000000000 .got
000000000000ecf0 l    d  .rela.got	0000000000000000 .rela.got
000000000000edf8 l    d  .dynamic	0000000000000000 .dynamic
000000000000eef8 l    d  .dynsym	0000000000000000 .dynsym
000000000000f048 l    d  .dynstr	0000000000000000 .dynstr
000000000000f0f0 l    d  .hash	0000000000000000 .hash
0000000000010000 l    d  .data	0000000000000000 .data
00000000000101c0 l    d  .bss	0000000000000000 .bss
0000000000000000 l    d  .debug_info	0000000000000000 .debug_info
0000000000000000 l    d  .debug_abbrev	0000000000000000 .debug_abbrev
0000000000000000 l    d  .debug_loc	0000000000000000 .debug_loc
0000000000000000 l    d  .debug_aranges	0000000000000000 .debug_aranges
0000000000000000 l    d  .debug_macro	0000000000000000 .debug_macro
0000000000000000 l    d  .debug_line	0000000000000000 .debug_line
0000000000000000 l    d  .debug_str	0000000000000000 .debug_str
0000000000000000 l    d  .comment	0000000000000000 .comment
0000000000000000 l    d  .debug_frame	0000000000000000 .debug_frame
0000000000000000 l    d  .debug_ranges	0000000000000000 .debug_ranges
0000000000000000 l    df *ABS*	0000000000000000 user_ta_header.c
000000000000c940 l     O .rodata	0000000000000004 __compound_literal.5
000000000000c944 l     O .rodata	0000000000000004 __compound_literal.4
000000000000c948 l     O .rodata	0000000000000004 __compound_literal.3
000000000000c94c l     O .rodata	0000000000000001 __compound_literal.2
000000000000c94d l     O .rodata	0000000000000001 __compound_literal.1
000000000000c94e l     O .rodata	0000000000000001 __compound_literal.0
0000000000000000 l    df *ABS*	0000000000000000 TA.c
000000000000c858 l     O .rodata	0000000000000014 __func__.3772
000000000000c870 l     O .rodata	0000000000000015 __func__.3776
000000000000c888 l     O .rodata	0000000000000019 __func__.3782
000000000000c8a8 l     O .rodata	000000000000001a __func__.3786
000000000000c8c8 l     O .rodata	000000000000001b __func__.3794
0000000000000000 l    df *ABS*	0000000000000000 crypto.c
0000000000000000 l    df *ABS*	0000000000000000 test.c
000000000000c8e8 l     O .rodata	0000000000000013 __func__.3816
000000000000c900 l     O .rodata	0000000000000013 __func__.3824
000000000000c918 l     O .rodata	000000000000001f __func__.3834
0000000000000000 l    df *ABS*	0000000000000000 tee_api.c
00000000000181c0 l     O .bss	0000000000000008 tee_api_instance_data
000000000000c970 l     O .rodata	0000000000000013 __func__.4257
000000000000c988 l     O .rodata	0000000000000014 __func__.4269
000000000000c9a0 l     O .rodata	0000000000000017 __func__.4280
000000000000c9b8 l     O .rodata	0000000000000015 __func__.4286
000000000000c9d0 l     O .rodata	0000000000000012 __func__.4319
000000000000c9e8 l     O .rodata	0000000000000009 __func__.4324
000000000000c9f8 l     O .rodata	0000000000000018 __func__.4329
000000000000ca10 l     O .rodata	0000000000000018 __func__.4334
000000000000ca28 l     O .rodata	000000000000000f __func__.4339
0000000000000000 l    df *ABS*	0000000000000000 tee_api_objects.c
000000000000ca38 l     O .rodata	0000000000000012 __func__.4141
000000000000ca50 l     O .rodata	0000000000000013 __func__.4147
000000000000ca68 l     O .rodata	0000000000000019 __func__.4160
000000000000ca88 l     O .rodata	0000000000000018 __func__.4154
000000000000caa0 l     O .rodata	000000000000001d __func__.4171
000000000000cac0 l     O .rodata	000000000000001c __func__.4183
000000000000cae0 l     O .rodata	0000000000000010 __func__.4188
000000000000caf0 l     O .rodata	000000000000001c __func__.4196
000000000000cb10 l     O .rodata	0000000000000018 __func__.4202
000000000000cb28 l     O .rodata	0000000000000019 __func__.4208
000000000000cb48 l     O .rodata	000000000000001c __func__.4217
000000000000cb68 l     O .rodata	0000000000000015 __func__.4224
000000000000cb80 l     O .rodata	0000000000000017 __func__.4231
000000000000cb98 l     O .rodata	000000000000001a __func__.4247
000000000000cbb8 l     O .rodata	0000000000000019 __func__.4238
000000000000cbd8 l     O .rodata	0000000000000010 __func__.4256
000000000000cbe8 l     O .rodata	0000000000000019 __func__.4267
000000000000cc08 l     O .rodata	000000000000001b __func__.4282
000000000000cc28 l     O .rodata	0000000000000024 __func__.4292
000000000000cc50 l     O .rodata	0000000000000023 __func__.4287
000000000000cc78 l     O .rodata	000000000000001b __func__.4300
000000000000cc98 l     O .rodata	0000000000000027 __func__.4306
000000000000ccc0 l     O .rodata	0000000000000023 __func__.4311
000000000000cce8 l     O .rodata	0000000000000024 __func__.4316
000000000000cd10 l     O .rodata	0000000000000024 __func__.4322
000000000000cd38 l     O .rodata	000000000000001c __func__.4334
000000000000cd58 l     O .rodata	0000000000000013 __func__.4344
000000000000cd70 l     O .rodata	0000000000000014 __func__.4352
000000000000cd88 l     O .rodata	0000000000000017 __func__.4359
000000000000cda0 l     O .rodata	0000000000000013 __func__.4373
0000000000000000 l    df *ABS*	0000000000000000 tee_api_operations.c
00000000000023c4 l     F .text	000000000000006c init_hash_operation
0000000000005320 l     F .text	00000000000002a4 tee_buffer_update
000000000000cdb8 l     O .rodata	0000000000000014 __func__.4362
000000000000cdd0 l     O .rodata	0000000000000012 __func__.4411
000000000000cde8 l     O .rodata	0000000000000012 __func__.4302
000000000000ce00 l     O .rodata	0000000000000016 __func__.4202
000000000000ce18 l     O .rodata	0000000000000015 __func__.4307
000000000000ce30 l     O .rodata	000000000000001d __func__.4322
000000000000ce50 l     O .rodata	0000000000000013 __func__.4327
000000000000ce68 l     O .rodata	0000000000000014 __func__.4336
000000000000ce80 l     O .rodata	0000000000000015 __func__.4347
000000000000ce98 l     O .rodata	0000000000000012 __func__.4353
000000000000ceb0 l     O .rodata	0000000000000011 __func__.4369
000000000000cec8 l     O .rodata	0000000000000012 __func__.4380
000000000000cee0 l     O .rodata	000000000000000f __func__.4387
000000000000cef0 l     O .rodata	0000000000000011 __func__.4433
000000000000cf08 l     O .rodata	0000000000000012 __func__.4447
000000000000cf20 l     O .rodata	000000000000000c __func__.4453
000000000000cf30 l     O .rodata	000000000000000e __func__.4460
000000000000cf40 l     O .rodata	0000000000000014 __func__.4471
000000000000cf58 l     O .rodata	0000000000000014 __func__.4483
000000000000cf70 l     O .rodata	000000000000000b __func__.4494
000000000000cf80 l     O .rodata	0000000000000010 __func__.4501
000000000000cf90 l     O .rodata	000000000000000d __func__.4513
000000000000cfa0 l     O .rodata	0000000000000013 __func__.4530
000000000000cfb8 l     O .rodata	0000000000000013 __func__.4546
000000000000cfd0 l     O .rodata	0000000000000016 __func__.4559
000000000000cfe8 l     O .rodata	0000000000000016 __func__.4572
000000000000d000 l     O .rodata	0000000000000019 __func__.4585
000000000000d020 l     O .rodata	000000000000001b __func__.4597
000000000000d040 l     O .rodata	000000000000000e __func__.4607
000000000000d050 l     O .rodata	0000000000000013 __func__.4613
0000000000000000 l    df *ABS*	0000000000000000 tee_api_panic.c
0000000000000000 l    df *ABS*	0000000000000000 user_ta_entry.c
00000000000055e4 l     F .text	0000000000000028 ta_header_get_session
000000000000560c l     F .text	000000000000007c ta_header_remove_session
000000000000d068 l     O .rodata	000000000000000d __func__.4289
000000000001add4 l     O .bss	0000000000000004 ta_ref_count
000000000001add8 l     O .bss	0000000000000001 context_init
0000000000010178 l     O .data	0000000000000010 ta_sessions
0000000000000000 l    df *ABS*	0000000000000000 utee_syscalls_a64.o
0000000000000000 l    df *ABS*	0000000000000000 gprof_a64.o
0000000000000000 l    df *ABS*	0000000000000000 tee_user_mem.c
0000000000005c20 l     F .text	0000000000000058 print_buf
0000000000005c78 l     F .text	0000000000000128 check_elem
000000000000d078 l     O .rodata	000000000000000b __func__.3880
000000000000d088 l     O .rodata	000000000000000f __func__.3875
000000000000d098 l     O .rodata	0000000000000013 __func__.3900
000000000000d0b0 l     O .rodata	0000000000000012 __func__.3917
000000000000d0c8 l     O .rodata	0000000000000018 __func__.3925
000000000000d0e0 l     O .rodata	0000000000000010 __func__.3885
000000000000d0f0 l     O .rodata	0000000000000014 __func__.3930
0000000000018210 l     O .bss	0000000000000008 heap_level
0000000000018218 l     O .bss	0000000000000010 global_stats
0000000000000000 l    df *ABS*	0000000000000000 assert.c
0000000000000000 l    df *ABS*	0000000000000000 tee_api_arith.c
0000000000006914 l     F .text	0000000000000050 TEE_BigInt_Panic
000000000000d108 l     O .rodata	0000000000000011 __func__.4065
0000000000018228 l     O .bss	0000000000001b40 mempool_u32
0000000000000000 l    df *ABS*	0000000000000000 utee_misc.c
0000000000000000 l    df *ABS*	0000000000000000 trace_ext.c
000000000000d120 l     O .rodata	000000000000000a prefix.3606
000000000000d130 l     O .rodata	0000000000000011 failed.3607
0000000000000000 l    df *ABS*	0000000000000000 bget_malloc.c
0000000000006b18 l     F .text	000000000000004c raw_malloc_return_hook
0000000000006b64 l     F .text	0000000000000110 create_free_block
000000000000d148 l     O .rodata	0000000000000012 __func__.3421
000000000000d160 l     O .rodata	0000000000000005 __func__.3289
000000000000d168 l     O .rodata	0000000000000006 __func__.3303
000000000000d170 l     O .rodata	0000000000000005 __func__.3318
000000000000d178 l     O .rodata	0000000000000006 __func__.3311
000000000000d180 l     O .rodata	0000000000000006 __func__.3326
000000000000d188 l     O .rodata	0000000000000007 __func__.3335
000000000000d190 l     O .rodata	000000000000000d __func__.3454
000000000000d1a0 l     O .rodata	000000000000000c __func__.3430
000000000000d1b0 l     O .rodata	000000000000000b __func__.3440
000000000000d1c0 l     O .rodata	0000000000000010 __func__.3506
000000000000d1d0 l     O .rodata	000000000000000e __func__.3460
000000000000d1e0 l     O .rodata	0000000000000013 __func__.3374
0000000000019d68 l     O .bss	0000000000000008 totalloc
0000000000019d70 l     O .bss	0000000000000038 mstats
0000000000019da8 l     O .bss	0000000000000008 numget
0000000000019db0 l     O .bss	0000000000000008 numrel
0000000000019db8 l     O .bss	0000000000000008 malloc_pool_len
0000000000019dc0 l     O .bss	0000000000000008 malloc_pool
0000000000010198 l     O .data	0000000000000020 freelist
0000000000000000 l    df *ABS*	0000000000000000 snprintf.c
0000000000000000 l    df *ABS*	0000000000000000 memcmp.c
0000000000000000 l    df *ABS*	0000000000000000 memcpy.c
0000000000000000 l    df *ABS*	0000000000000000 memmove.c
0000000000000000 l    df *ABS*	0000000000000000 memset.c
0000000000000000 l    df *ABS*	0000000000000000 strlen.c
0000000000000000 l    df *ABS*	0000000000000000 snprintk.c
000000000000d1f8 l     O .rodata	0000000000000011 HEXDIGITS
000000000000d210 l     O .rodata	0000000000000011 hexdigits
0000000000000000 l    df *ABS*	0000000000000000 strlcpy.c
0000000000000000 l    df *ABS*	0000000000000000 buf_compare_ct.c
0000000000000000 l    df *ABS*	0000000000000000 trace.c
000000000000d228 l     O .rodata	000000000000002d lvl_strs.3167
0000000000000000 l    df *ABS*	0000000000000000 memchr.c
0000000000000000 l    df *ABS*	0000000000000000 mpa_misc.c
0000000000000000 l    df *ABS*	0000000000000000 mpa_montgomery.c
0000000000000000 l    df *ABS*	0000000000000000 mpa_primetest.c
000000000000dec0 l     O .rodata	0000000000000010 const_miller_rabin_proof_limit
000000000000ded0 l     O .rodata	000000000000001c proof_a.3545
000000000000def0 l     O .rodata	000000000000000c const_two
000000000000df00 l     O .rodata	00000000000000b8 const_small_prime_factors
0000000000000000 l    df *ABS*	0000000000000000 mpa_conv.c
0000000000000000 l    df *ABS*	0000000000000000 mpa_div.c
0000000000000000 l    df *ABS*	0000000000000000 mpa_gcd.c
0000000000009f58 l     F .text	0000000000000080 __mpa_divby2
0000000000009fd8 l     F .text	000000000000016c __mpa_gcd.part.0
000000000000a144 l     F .text	0000000000000380 __mpa_egcd
0000000000000000 l    df *ABS*	0000000000000000 mpa_mem_static.c
0000000000000000 l    df *ABS*	0000000000000000 mpa_mul.c
0000000000000000 l    df *ABS*	0000000000000000 mpa_random.c
0000000000019dc8 l     O .bss	0000000000000008 get_rng_array
0000000000000000 l    df *ABS*	0000000000000000 mpa_shift.c
0000000000000000 l    df *ABS*	0000000000000000 mpa_addsub.c
0000000000000000 l    df *ABS*	0000000000000000 mpa_cmp.c
0000000000000000 l    df *ABS*	0000000000000000 mpa_expmod.c
0000000000000000 l    df *ABS*	0000000000000000 mpa_init.c
0000000000000000 l    df *ABS*	0000000000000000 mpa_io.c
000000000000be60 l     F .text	0000000000000044 __mpa_word_to_hexstr
000000000000bea4 l     F .text	0000000000000114 __mpa_mpanum_to_hexstr
000000000000bfb8 l     F .text	000000000000003c __mpa_isspace
000000000000dfc0 l     O .rodata	000000000000000c __func__.3619
000000000000dfd0 l     O .rodata	000000000000000c __func__.3633
0000000000019dd0 l     O .bss	0000000000001002 buf.3605
0000000000000000 l    df *ABS*	0000000000000000 mpa_modulus.c
0000000000000000 l    df *ABS*	0000000000000000 
000000000000edf8 l     O *ABS*	0000000000000000 _DYNAMIC
000000000000ec90 l     O *ABS*	0000000000000000 _GLOBAL_OFFSET_TABLE_
0000000000005bf8 g     F .text	000000000000000c utee_se_channel_transmit
000000000000bddc g     F .text	000000000000001c mpa_init_static
0000000000001670 g     F .text	000000000000016c TEE_PopulateTransientObject
0000000000008ca0 g     F .text	0000000000000054 mpa_copy
0000000000006854 g     F .text	000000000000001c TEE_BigIntConvertToFMM
0000000000006734 g     F .text	000000000000000c TEE_BigIntSquareMod
00000000000063b4 g     F .text	0000000000000004 TEE_BigIntShiftRight
00000000000095a8 g     F .text	0000000000000074 mpa_get_S32
0000000000008d24 g     F .text	0000000000000044 mpa_highest_bit_index
0000000000005ac0 g     F .text	000000000000000c utee_storage_obj_create
0000000000005bd4 g     F .text	000000000000000c utee_se_session_close
00000000000058c8 g     F .text	000000000000000c utee_return
0000000000003530 g     F .text	00000000000000c8 TEE_DigestUpdate
0000000000005b74 g     F .text	000000000000000c utee_se_service_get_readers
0000000000000f90 g     F .text	0000000000000008 TEE_Realloc
0000000000009698 g     F .text	0000000000000148 __mpa_div_q_r_internal_word
0000000000006050 g     F .text	00000000000000bc tee_user_mem_realloc
000000000000315c g     F .text	00000000000001b8 TEE_SetOperationKey2
000000000000b658 g     F .text	000000000000019c mpa_sub
00000000000069f0 g     F .text	0000000000000128 printf
0000000000005eec g     F .text	0000000000000164 tee_user_mem_free
00000000000058d4 g     F .text	000000000000000c utee_log
000000000000dfb8 g     O .rodata	0000000000000004 NR_STORED_PRIMES
00000000000017dc g     F .text	00000000000000a4 TEE_InitRefAttribute
0000000000000b30 g     F .text	00000000000000dc TEE_InvokeTACommand
0000000000008dac g     F .text	000000000000001c mpa_can_hold
000000000000a97c g     F .text	0000000000000098 __mpa_abs_mul_word
0000000000004344 g     F .text	00000000000001d0 TEE_AEEncryptFinal
0000000000010048 g     O .data	0000000000000004 public_key
0000000000000794 g     F .text	00000000000001c0 local_encrypt_and_decrypt_test
0000000000009148 g     F .text	0000000000000088 mpa_montgomery_mul
000000000000887c g     F .text	0000000000000054 vsnprintk
0000000000008dc8 g     F .text	000000000000000c mpa_parity
0000000000007c50 g     F .text	000000000000004c memmove
000000000000b1e0 g     F .text	0000000000000020 __mpa_full_adder_ackum
0000000000007b30 g     F .text	0000000000000078 snprintf
00000000000063b0 g     F .text	0000000000000004 TEE_BigIntCmpS32
0000000000001880 g     F .text	00000000000000a0 TEE_InitValueAttribute
00000000000063ec g     F .text	000000000000000c TEE_BigIntAdd
00000000000058f8 g     F .text	000000000000000c utee_get_property_name_to_index
000000000000c950 g     O .rodata	0000000000000008 ta_heap_size
000000000000dfbc g     O .rodata	0000000000000004 MAX_TABULATED_PRIME
000000000000062c g     F .text	0000000000000168 TA_decrypt_command
0000000000001594 g     F .text	00000000000000dc TEE_ResetTransientObject
000000000000696c g     F .text	0000000000000004 utee_malloc
000000000000597c g     F .text	000000000000000c utee_cryp_state_alloc
0000000000005a84 g     F .text	000000000000000c utee_authenc_enc_final
000000000000a95c g     F .text	0000000000000020 __mpa_mul_add_word_cum
00000000000036cc g     F .text	000000000000014c TEE_CipherInit
0000000000006404 g     F .text	0000000000000004 TEE_BigIntNeg
0000000000009e68 g     F .text	00000000000000f0 mpa_div
0000000000000020 g       .text	0000000000000000 __text_start
0000000000002004 g     F .text	000000000000007c TEE_StartPersistentObjectEnumerator
000000000000d258 g     O .rodata	000000000000000c const_one
0000000000007ac4 g     F .text	000000000000006c malloc_buffer_overlaps_heap
000000000000bb60 g     F .text	0000000000000018 __mpa_abs_less_than
00000000000065c4 g     F .text	00000000000000a8 TEE_BigIntSubMod
0000000000003fa8 g     F .text	00000000000000ec TEE_AEInit
000000000000acbc g     F .text	0000000000000114 mpa_get_random
0000000000006988 g     F .text	0000000000000004 get_rng_array
00000000000089f0 g     F .text	000000000000022c trace_printf
0000000000005b5c g     F .text	000000000000000c utee_se_service_open
0000000000007c30 g     F .text	0000000000000020 memcpy
0000000000005994 g     F .text	000000000000000c utee_cryp_state_free
0000000000008c70 g     F .text	0000000000000030 mpa_wipe
0000000000006870 g     F .text	0000000000000094 TEE_BigIntConvertFromFMM
00000000000055d4 g     F .text	0000000000000010 TEE_Panic
0000000000005bec g     F .text	000000000000000c utee_se_channel_get_select_resp
0000000000003314 g     F .text	000000000000021c TEE_CopyOperation
00000000000069bc g     F .text	0000000000000034 puts
0000000000006904 g     F .text	0000000000000010 TEE_BigIntComputeFMM
000000000000961c g     F .text	0000000000000014 mpa_set_word
00000000000073bc g     F .text	0000000000000038 malloc_get_stats
000000000000aecc g     F .text	0000000000000190 mpa_shift_left
00000000000059dc g     F .text	000000000000000c utee_cipher_final
000000000000ab08 g     F .text	00000000000000e4 mpa_mul
0000000000000f24 g     F .text	0000000000000064 TEE_GetREETime
0000000000001eb8 g     F .text	0000000000000084 TEE_AllocatePersistentObjectEnumerator
0000000000010098 g     O .data	00000000000000d8 ta_props
00000000000046d4 g     F .text	000000000000023c TEE_AsymmetricEncrypt
00000000000073f4 g     F .text	0000000000000038 malloc
0000000000005a18 g     F .text	000000000000000c utee_cryp_obj_close
0000000000005b98 g     F .text	000000000000000c utee_se_reader_open_session
0000000000007ba8 g     F .text	0000000000000054 vsnprintf
0000000000001af4 g     F .text	00000000000000b0 TEE_GenerateKey
00000000000101b8 g     O .data	0000000000000004 trace_level
0000000000006964 g     F .text	0000000000000008 utee_get_ta_exec_id
00000000000063ac g     F .text	0000000000000004 TEE_BigIntCmp
0000000000006970 g     F .text	0000000000000004 utee_realloc
000000000000c938 g     O .rodata	0000000000000008 ta_num_props
0000000000007184 g     F .text	000000000000009c bgetr
0000000000005a78 g     F .text	000000000000000c utee_authenc_update_payload
0000000000003818 g     F .text	0000000000000184 TEE_CipherUpdate
0000000000006348 g     F .text	0000000000000040 TEE_BigIntConvertToOctetString
0000000000002ddc g     F .text	0000000000000170 TEE_GetOperationInfoMultiple
0000000000005c10 g     F .text	000000000000000c utee_cache_operation
0000000000005a60 g     F .text	000000000000000c utee_authenc_init
00000000000063b8 g     F .text	000000000000001c TEE_BigIntGetBit
000000000000c958 g     O .rodata	0000000000000008 trace_ext_prefix
000000000000b200 g     F .text	00000000000000f4 __mpa_abs_add
0000000000006e50 g     F .text	0000000000000088 bgetz
0000000000000d20 g     F .text	000000000000000c TEE_GetInstanceData
0000000000000da8 g     F .text	0000000000000068 TEE_Wait
0000000000005b2c g     F .text	000000000000000c utee_storage_obj_write
000000000000a8f8 g     F .text	000000000000004c mpa_free_static_temp_var
00000000000091d0 g     F .text	00000000000003ac mpa_is_prob_prime
0000000000005c04 g     F .text	000000000000000c utee_se_channel_close
000000000000abec g     F .text	00000000000000c4 mpa_mul_word
0000000000000fa4 g     F .text	0000000000000008 TEE_CacheFlush
0000000000000054 g     F .text	0000000000000024 TA_DestroyEntryPoint
000000000000622c g     F .text	0000000000000044 _assert_log
000000000000630c g     F .text	0000000000000014 TEE_BigIntFMMContextSizeInU32
0000000000003ec0 g     F .text	00000000000000e8 TEE_MACCompareFinal
0000000000001e24 g     F .text	0000000000000094 TEE_RenamePersistentObject
00000000000035f8 g     F .text	00000000000000d4 TEE_DigestDoFinal
00000000000097e0 g     F .text	0000000000000688 __mpa_div_q_r
0000000000006280 g     F .text	000000000000002c _TEE_MathAPI_Init
0000000000005b14 g     F .text	000000000000000c utee_storage_next_enum
00000000000101c0 g     O .bss	0000000000008000 ta_heap
0000000000006740 g     F .text	000000000000006c TEE_BigIntInvMod
00000000000000b0 g     F .text	0000000000000024 TA_CloseSessionEntryPoint
0000000000004910 g     F .text	0000000000000240 TEE_AsymmetricDecrypt
0000000000001ba4 g     F .text	00000000000000c0 TEE_OpenPersistentObject
0000000000005988 g     F .text	000000000000000c utee_cryp_state_copy
00000000000000d4 g     F .text	0000000000000088 TA_InvokeCommandEntryPoint
000000000000c318 g     F .text	0000000000000110 mpa_set_oct_str
0000000000005bc8 g     F .text	000000000000000c utee_se_session_open_channel
000000000000add0 g     F .text	0000000000000098 __mpa_shift_words_left
0000000000005a0c g     F .text	000000000000000c utee_cryp_obj_alloc
0000000000005970 g     F .text	000000000000000c utee_set_ta_time
0000000000005a00 g     F .text	000000000000000c utee_cryp_obj_get_attr
0000000000001a70 g     F .text	0000000000000084 TEE_CopyObjectAttributes
0000000000008e58 g     F .text	0000000000000090 __mpa_montgomery_sub_ack
0000000000007438 g     F .text	000000000000004c calloc
0000000000000f88 g     F .text	0000000000000008 TEE_Malloc
000000000000594c g     F .text	000000000000000c utee_mask_cancellation
0000000000005a24 g     F .text	000000000000000c utee_cryp_obj_reset
0000000000000d00 g     F .text	0000000000000014 TEE_CheckMemoryAccessRights
000000000001ade0 g       .bss	0000000000000000 __gprof_buf_end
000000000000b7f4 g     F .text	000000000000002c mpa_neg
000000000000d288 g     O .rodata	0000000000000c38 PRIME_TABLE
000000000000212c g     F .text	0000000000000090 TEE_ReadObjectData
00000000000011d0 g     F .text	00000000000000d4 TEE_GetObjectBufferAttribute
0000000000000078 g     F .text	0000000000000038 TA_OpenSessionEntryPoint
000000000000a4c4 g     F .text	0000000000000120 mpa_gcd
0000000000008cf4 g     F .text	0000000000000030 mpa_abs
0000000000005b08 g     F .text	000000000000000c utee_storage_start_enum
0000000000002430 g     F .text	000000000000009c TEE_FreeOperation
000000000000bffc g     F .text	0000000000000298 mpa_set_str
0000000000005ad8 g     F .text	000000000000000c utee_storage_obj_rename
00000000000181c8 g     O .bss	0000000000000004 ta_param_types
0000000000000fb4 g     F .text	000000000000004c __utee_from_attr
0000000000006830 g     F .text	0000000000000024 TEE_BigIntIsProbablePrime
000000000000a8e8 g     F .text	0000000000000010 mpa_alloc_static_temp_var
0000000000001d60 g     F .text	0000000000000070 TEE_CloseAndDeletePersistentObject1
000000000000acb0 g     F .text	000000000000000c mpa_set_random_generator
00000000000058ec g     F .text	000000000000000c utee_get_property
0000000000004514 g     F .text	00000000000001c0 TEE_AEDecryptFinal
00000000000062ac g     F .text	0000000000000004 TEE_BigIntInit
0000000000000d2c g     F .text	0000000000000008 TEE_MemMove
0000000000006320 g     F .text	0000000000000028 TEE_BigIntConvertFromOctetString
0000000000010170 g     O .data	0000000000000008 _ref__utee_mcount
0000000000003b6c g     F .text	0000000000000100 TEE_MACInit
0000000000004b50 g     F .text	0000000000000234 TEE_AsymmetricSignDigest
0000000000008c20 g     F .text	000000000000002c memchr
0000000000000c38 g     F .text	0000000000000064 TEE_UnmaskCancellation
0000000000001000 g     F .text	0000000000000074 TEE_GetObjectInfo
000000000000c6bc g     F .text	0000000000000084 mpa_mul_mod
0000000000005acc g     F .text	000000000000000c utee_storage_obj_del
00000000000041cc g     F .text	0000000000000178 TEE_AEUpdate
0000000000005b44 g     F .text	000000000000000c utee_storage_obj_seek
00000000000014b8 g     F .text	00000000000000dc TEE_FreeTransientObject
000000000000900c g     F .text	000000000000013c mpa_compute_fmm_context
00000000000059ac g     F .text	000000000000000c utee_hash_update
000000000000a7d0 g     F .text	0000000000000018 mpa_init_scratch_mem_sync
0000000000005c1c  w    F .text	0000000000000004 __utee_mcount
0000000000002d44 g     F .text	0000000000000098 TEE_GetOperationInfo
0000000000006488 g     F .text	0000000000000094 TEE_BigIntMod
0000000000005be0 g     F .text	000000000000000c utee_se_channel_select_next
0000000000005910 g     F .text	000000000000000c utee_close_ta_session
0000000000006424 g     F .text	0000000000000064 TEE_BigIntDiv
0000000000008944 g     F .text	0000000000000038 strlcpy
00000000000073a4 g     F .text	0000000000000018 malloc_reset_stats
00000000000059d0 g     F .text	000000000000000c utee_cipher_update
00000000000010e0 g     F .text	0000000000000070 TEE_RestrictObjectUsage1
0000000000005bbc g     F .text	000000000000000c utee_se_session_get_atr
0000000000007484 g     F .text	0000000000000038 realloc
000000000000b2f4 g     F .text	00000000000000cc __mpa_abs_add_ackum
0000000000005aa8 g     F .text	000000000000000c utee_asymm_verify
0000000000006408 g     F .text	000000000000000c TEE_BigIntMul
0000000000002f4c g     F .text	00000000000000f8 TEE_ResetOperation
0000000000009630 g     F .text	0000000000000018 mpa_get_word
0000000000000d3c g     F .text	0000000000000008 TEE_MemFill
0000000000007bfc g     F .text	0000000000000034 memcmp
000000000000784c g     F .text	00000000000000f8 malloc_add_pool
0000000000003c6c g     F .text	0000000000000170 TEE_MACUpdate
00000000000089e0 g     F .text	0000000000000010 trace_get_level
0000000000005a54 g     F .text	000000000000000c utee_cryp_random_number_generate
0000000000001150 g     F .text	0000000000000080 TEE_RestrictObjectUsage
00000000000062fc g     F .text	0000000000000010 TEE_BigIntFMMSizeInU32
00000000000062b0 g     F .text	0000000000000014 TEE_BigIntInitFMM
0000000000005a9c g     F .text	000000000000000c utee_asymm_operate
00000000000013c4 g     F .text	0000000000000064 TEE_CloseObject
0000000000005688 g     F .text	0000000000000240 __utee_entry
000000000000c854 g       .text	0000000000000000 __text_end
00000000000067ac g     F .text	0000000000000078 TEE_BigIntRelativePrime
0000000000007220 g     F .text	00000000000000dc bpool
000000000000957c g     F .text	000000000000002c mpa_set_S32
000000000000bdf8 g     F .text	0000000000000068 mpa_init_static_fmm_context
0000000000000c0c g     F .text	000000000000002c TEE_GetCancellationFlag
0000000000005b68 g     F .text	000000000000000c utee_se_service_close
0000000000005da0 g     F .text	000000000000014c tee_user_mem_alloc
0000000000010188 g     O .data	0000000000000010 user_mem_head
0000000000000eb8 g     F .text	000000000000006c TEE_SetTAPersistentTime
000000000000b820 g     F .text	000000000000013c mpa_add_word
0000000000005b80 g     F .text	000000000000000c utee_se_reader_get_prop
0000000000007c9c g     F .text	000000000000001c memset
0000000000000e10 g     F .text	00000000000000a8 TEE_GetTAPersistentTime
0000000000000318 g     F .text	00000000000001b0 encrypt_using_private_key
0000000000008c1c g     F .text	0000000000000004 dhex_dump
0000000000001c64 g     F .text	00000000000000fc TEE_CreatePersistentObject
0000000000000c9c g     F .text	0000000000000064 TEE_MaskCancellation
000000000000b1bc g     F .text	0000000000000024 __mpa_full_sub
0000000000004094 g     F .text	0000000000000138 TEE_AEUpdateAAD
0000000000005b20 g     F .text	000000000000000c utee_storage_obj_read
0000000000002248 g     F .text	0000000000000084 TEE_TruncateObjectData
0000000000006974 g     F .text	0000000000000010 utee_calloc
0000000000005a30 g     F .text	000000000000000c utee_cryp_obj_populate
000000000000bb78 g     F .text	0000000000000068 mpa_cmp
000000000000c740 g     F .text	0000000000000114 mpa_inv_mod
000000000000b95c g     F .text	0000000000000138 mpa_sub_word
000000000000a944 g     F .text	0000000000000018 __mpa_mul_add_word
000000000000b4c4 g     F .text	0000000000000194 mpa_add
000000000000bc64 g     F .text	0000000000000178 mpa_exp_mod
0000000000001074 g     F .text	000000000000006c TEE_GetObjectInfo1
000000000000ae68 g     F .text	0000000000000064 __mpa_shift_words_right
00000000000089bc g     F .text	0000000000000024 trace_set_level
0000000000005bb0 g     F .text	000000000000000c utee_se_session_is_closed
00000000000059e8 g     F .text	000000000000000c utee_cryp_obj_get_info
00000000000012a4 g     F .text	0000000000000120 TEE_GetObjectValueAttribute
0000000000003044 g     F .text	0000000000000118 TEE_SetOperationKey
0000000000005ae4 g     F .text	000000000000000c utee_storage_alloc_enum
0000000000005afc g     F .text	000000000000000c utee_storage_reset_enum
0000000000005b38 g     F .text	000000000000000c utee_storage_obj_trunc
000000000000c59c g     F .text	0000000000000018 mpa_mod
000000000000bb44 g     F .text	000000000000001c __mpa_abs_greater_than
000000000000638c g     F .text	0000000000000020 TEE_BigIntConvertToS32
00000000000063f8 g     F .text	000000000000000c TEE_BigIntSub
0000000000005928 g     F .text	000000000000000c utee_get_cancellation_flag
00000000000059a0 g     F .text	000000000000000c utee_hash_init
0000000000000954 g     F .text	0000000000000008 tahead_get_trace_level
000000000000095c g     F .text	0000000000000078 __utee_from_param
00000000000022cc g     F .text	00000000000000f8 TEE_SeekObjectData
000000000000d268 g     O .rodata	0000000000000010 Const_1_LShift_Base
00000000000009d4 g     F .text	000000000000006c __utee_to_param
00000000000074bc g     F .text	0000000000000390 memalign
000000000000399c g     F .text	00000000000001d0 TEE_CipherDoFinal
0000000000006388 g     F .text	0000000000000004 TEE_BigIntConvertFromS32
000000000000c638 g     F .text	0000000000000084 mpa_sub_mod
00000000000059f4 g     F .text	000000000000000c utee_cryp_obj_restrict_usage
0000000000007944 g     F .text	0000000000000180 malloc_buffer_is_within_alloced
0000000000005a3c g     F .text	000000000000000c utee_cryp_obj_copy
000000000000b05c g     F .text	0000000000000144 mpa_shift_right
00000000000062c4 g     F .text	0000000000000038 TEE_BigIntInitFMMContext
0000000000005a48 g     F .text	000000000000000c utee_cryp_derive_key
0000000000008ee8 g     F .text	0000000000000124 __mpa_montgomery_mul
000000000000c428 g     F .text	0000000000000174 mpa_get_oct_str
000000000000bbe0 g     F .text	0000000000000084 mpa_cmp_short
0000000000005a90 g     F .text	000000000000000c utee_authenc_dec_final
00000000000021bc g     F .text	000000000000008c TEE_WriteObjectData
0000000000001fa0 g     F .text	0000000000000064 TEE_ResetPersistentObjectEnumerator
000000000000ba94 g     F .text	00000000000000b0 __mpa_abs_cmp
0000000000006414 g     F .text	0000000000000010 TEE_BigIntSquare
0000000000000020 g     F .text	0000000000000034 TA_CreateEntryPoint
00000000000088d0 g     F .text	0000000000000074 snprintk
00000000000063d4 g     F .text	0000000000000018 TEE_BigIntGetBitCount
000000000000666c g     F .text	00000000000000c8 TEE_BigIntMulMod
00000000000055c4 g     F .text	0000000000000010 __TEE_Panic
0000000000004fa8 g     F .text	0000000000000318 TEE_DeriveKey
00000000000181d0 g     O .bss	0000000000000040 ta_params
000000000000aa14 g     F .text	00000000000000f4 __mpa_abs_mul
0000000000006c74 g     F .text	00000000000001dc bget
0000000000001428 g     F .text	0000000000000090 TEE_AllocateTransientObject
0000000000000f98 g     F .text	0000000000000004 TEE_Free
0000000000005b8c g     F .text	000000000000000c utee_se_reader_get_name
0000000000000fac g     F .text	0000000000000008 TEE_CacheInvalidate
00000000000059c4 g     F .text	000000000000000c utee_cipher_init
0000000000006270 g     F .text	0000000000000010 _assert_break
000000000000651c g     F .text	00000000000000a8 TEE_BigIntAddMod
0000000000005af0 g     F .text	000000000000000c utee_storage_free_enum
0000000000005a6c g     F .text	000000000000000c utee_authenc_update_aad
0000000000008d68 g     F .text	0000000000000044 mpa_get_bit
00000000000024cc g     F .text	0000000000000878 TEE_AllocateOperation
000000000000a7e8 g     F .text	0000000000000018 mpa_init_scratch_mem
00000000000052c0 g     F .text	0000000000000060 TEE_GenerateRandom
0000000000000d34 g     F .text	0000000000000008 TEE_MemCompare
0000000000007cd4 g     F .text	0000000000000ba8 __vsnprintf
0000000000001f3c g     F .text	0000000000000064 TEE_FreePersistentObjectEnumerator
00000000000058e0 g     F .text	000000000000000c utee_panic
0000000000000a40 g     F .text	0000000000000090 TEE_OpenTASession
000000000000015c g     F .text	00000000000001bc decrypt_using_public_key
000000000000698c g     F .text	0000000000000028 trace_ext_puts
00000000000061b4 g     F .text	0000000000000078 tee_user_mem_garbage
00000000000069b4 g     F .text	0000000000000008 trace_ext_get_thread_id
0000000000001dd0 g     F .text	0000000000000054 TEE_CloseAndDeletePersistentObject
00000000000004c8 g     F .text	0000000000000164 TA_encrypt_command
0000000000000f9c g     F .text	0000000000000008 TEE_CacheClean
0000000000005904 g     F .text	000000000000000c utee_open_ta_session
000000000000897c g     F .text	0000000000000040 buf_compare_ct
0000000000009648 g     F .text	0000000000000050 __mpa_div_dword
0000000000008c4c g     F .text	0000000000000024 __mpa_set_unused_digits_to_zero
000000000000d278 g     O .rodata	000000000000000c const_largest_deci_base
000000000000bff4 g     F .text	0000000000000008 mpa_get_str_size
0000000000010050 g     O .data	0000000000000041 private_key
0000000000006118 g     F .text	000000000000009c tee_user_mem_check_heap
0000000000001920 g     F .text	0000000000000150 TEE_CopyObjectAttributes1
00000000000059b8 g     F .text	000000000000000c utee_hash_final
0000000000007cb8 g     F .text	000000000000001c strlen
0000000000006824 g     F .text	000000000000000c TEE_BigIntComputeExtendedGcd
000000000000a5e4 g     F .text	00000000000001ec mpa_extended_gcd
000000000000c5b4 g     F .text	0000000000000084 mpa_add_mod
0000000000005ab4 g     F .text	000000000000000c utee_storage_obj_open
000000000000591c g     F .text	000000000000000c utee_invoke_ta_command
000000000000c294 g     F .text	0000000000000084 mpa_get_str
0000000000005958 g     F .text	000000000000000c utee_wait
0000000000006984 g     F .text	0000000000000004 utee_free
000000000000610c g     F .text	000000000000000c tee_user_mem_mark_heap
0000000000000d44 g     F .text	0000000000000064 TEE_GetSystemTime
0000000000000000 g     O .ta_head	0000000000000020 ta_head
0000000000006ed8 g     F .text	00000000000002ac brel
000000000000a800 g     F .text	00000000000000e8 mpa_alloc_static_temp_var_size
0000000000005964 g     F .text	000000000000000c utee_get_time
0000000000010000 g     O .data	0000000000000041 modulus
0000000000008de0 g     F .text	0000000000000078 __mpa_montgomery_mul_add
0000000000000d14 g     F .text	000000000000000c TEE_SetInstanceData
0000000000005940 g     F .text	000000000000000c utee_unmask_cancellation
0000000000005934 g     F .text	000000000000000c utee_check_access_rights
0000000000005ba4 g     F .text	000000000000000c utee_se_reader_close_sessions
0000000000002080 g     F .text	00000000000000ac TEE_GetNextPersistentObject
0000000000005b50 g     F .text	000000000000000c utee_cryp_obj_generate_key
0000000000008dd4 g     F .text	000000000000000c mpa_constant_one
0000000000000ad0 g     F .text	0000000000000060 TEE_CloseTASession
0000000000004d84 g     F .text	0000000000000224 TEE_AsymmetricVerifyDigest
000000000000b1a0 g     F .text	000000000000001c __mpa_full_adder
000000000000b3c0 g     F .text	0000000000000104 __mpa_abs_sub
000000000001ade0 g       .bss	0000000000000000 __gprof_buf_start
000000000000742c g     F .text	000000000000000c free
00000000000072fc g     F .text	00000000000000a8 bstats
0000000000003ddc g     F .text	00000000000000e4 TEE_MACComputeFinal



Disassembly of section .text:

0000000000000020 <TA_CreateEntryPoint>:
TA_CreateEntryPoint():
/home/ursus/devel/optee/RSA/ta/TA.c:36
      20:	a9bf7bfd 	stp	x29, x30, [sp,#-16]!
/home/ursus/devel/optee/RSA/ta/TA.c:37
      24:	52800023 	mov	w3, #0x1                   	// #1
      28:	52800062 	mov	w2, #0x3                   	// #3
      2c:	528004a1 	mov	w1, #0x25                  	// #37
/home/ursus/devel/optee/RSA/ta/TA.c:36
      30:	910003fd 	mov	x29, sp
/home/ursus/devel/optee/RSA/ta/TA.c:37
      34:	b0000064 	adrp	x4, d000 <__func__.4585>
      38:	913f7084 	add	x4, x4, #0xfdc
      3c:	90000060 	adrp	x0, c000 <mpa_set_str+0x4>
      40:	91216000 	add	x0, x0, #0x858
      44:	9400226b 	bl	89f0 <trace_printf>
/home/ursus/devel/optee/RSA/ta/TA.c:39
      48:	52800000 	mov	w0, #0x0                   	// #0
      4c:	a8c17bfd 	ldp	x29, x30, [sp],#16
      50:	d65f03c0 	ret

0000000000000054 <TA_DestroyEntryPoint>:
TA_DestroyEntryPoint():
/home/ursus/devel/optee/RSA/ta/TA.c:43
      54:	90000060 	adrp	x0, c000 <mpa_set_str+0x4>
      58:	91216000 	add	x0, x0, #0x858
      5c:	d0000064 	adrp	x4, e000 <__func__.3633+0x30>
      60:	52800023 	mov	w3, #0x1                   	// #1
      64:	91004484 	add	x4, x4, #0x11
      68:	52800062 	mov	w2, #0x3                   	// #3
      6c:	52800561 	mov	w1, #0x2b                  	// #43
      70:	91006000 	add	x0, x0, #0x18
      74:	1400225f 	b	89f0 <trace_printf>

0000000000000078 <TA_OpenSessionEntryPoint>:
TA_OpenSessionEntryPoint():
/home/ursus/devel/optee/RSA/ta/TA.c:47
      78:	a9bf7bfd 	stp	x29, x30, [sp,#-16]!
/home/ursus/devel/optee/RSA/ta/TA.c:49
      7c:	90000060 	adrp	x0, c000 <mpa_set_str+0x4>
      80:	91216000 	add	x0, x0, #0x858
      84:	52800023 	mov	w3, #0x1                   	// #1
/home/ursus/devel/optee/RSA/ta/TA.c:47
      88:	910003fd 	mov	x29, sp
/home/ursus/devel/optee/RSA/ta/TA.c:49
      8c:	52800062 	mov	w2, #0x3                   	// #3
      90:	52800621 	mov	w1, #0x31                  	// #49
      94:	9100c000 	add	x0, x0, #0x30
      98:	d0000064 	adrp	x4, e000 <__func__.3633+0x30>
      9c:	91011884 	add	x4, x4, #0x46
      a0:	94002254 	bl	89f0 <trace_printf>
/home/ursus/devel/optee/RSA/ta/TA.c:58
      a4:	52800000 	mov	w0, #0x0                   	// #0
      a8:	a8c17bfd 	ldp	x29, x30, [sp],#16
      ac:	d65f03c0 	ret

00000000000000b0 <TA_CloseSessionEntryPoint>:
TA_CloseSessionEntryPoint():
/home/ursus/devel/optee/RSA/ta/TA.c:63
      b0:	90000060 	adrp	x0, c000 <mpa_set_str+0x4>
      b4:	91216000 	add	x0, x0, #0x858
      b8:	d0000064 	adrp	x4, e000 <__func__.3633+0x30>
      bc:	52800023 	mov	w3, #0x1                   	// #1
      c0:	9101ec84 	add	x4, x4, #0x7b
      c4:	52800062 	mov	w2, #0x3                   	// #3
      c8:	528007e1 	mov	w1, #0x3f                  	// #63
      cc:	91014000 	add	x0, x0, #0x50
      d0:	14002248 	b	89f0 <trace_printf>

00000000000000d4 <TA_InvokeCommandEntryPoint>:
TA_InvokeCommandEntryPoint():
/home/ursus/devel/optee/RSA/ta/TA.c:70
      d4:	a9be7bfd 	stp	x29, x30, [sp,#-32]!
/home/ursus/devel/optee/RSA/ta/TA.c:78
      d8:	90000060 	adrp	x0, c000 <mpa_set_str+0x4>
      dc:	91216000 	add	x0, x0, #0x858
      e0:	d0000064 	adrp	x4, e000 <__func__.3633+0x30>
/home/ursus/devel/optee/RSA/ta/TA.c:70
      e4:	910003fd 	mov	x29, sp
      e8:	a90153f3 	stp	x19, x20, [sp,#16]
/home/ursus/devel/optee/RSA/ta/TA.c:78
      ec:	9102c084 	add	x4, x4, #0xb0
/home/ursus/devel/optee/RSA/ta/TA.c:70
      f0:	2a0103f3 	mov	w19, w1
      f4:	aa0303f4 	mov	x20, x3
/home/ursus/devel/optee/RSA/ta/TA.c:78
      f8:	52800062 	mov	w2, #0x3                   	// #3
      fc:	52800023 	mov	w3, #0x1                   	// #1
     100:	528009c1 	mov	w1, #0x4e                  	// #78
     104:	9101c000 	add	x0, x0, #0x70
     108:	9400223a 	bl	89f0 <trace_printf>
/home/ursus/devel/optee/RSA/ta/TA.c:79
     10c:	7100067f 	cmp	w19, #0x1
     110:	54000160 	b.eq	13c <TA_InvokeCommandEntryPoint+0x68>
     114:	340000b3 	cbz	w19, 128 <TA_InvokeCommandEntryPoint+0x54>
     118:	71000a7f 	cmp	w19, #0x2
     11c:	54000180 	b.eq	14c <TA_InvokeCommandEntryPoint+0x78>
/home/ursus/devel/optee/RSA/ta/TA.c:90
     120:	129fff20 	mov	w0, #0xffff0006            	// #-65530
     124:	14000003 	b	130 <TA_InvokeCommandEntryPoint+0x5c>
/home/ursus/devel/optee/RSA/ta/TA.c:81
     128:	9400019b 	bl	794 <local_encrypt_and_decrypt_test>
/home/ursus/devel/optee/RSA/ta/TA.c:82
     12c:	52800000 	mov	w0, #0x0                   	// #0
/home/ursus/devel/optee/RSA/ta/TA.c:93
     130:	a94153f3 	ldp	x19, x20, [sp,#16]
     134:	a8c27bfd 	ldp	x29, x30, [sp],#32
     138:	d65f03c0 	ret
/home/ursus/devel/optee/RSA/ta/TA.c:84
     13c:	aa1403e0 	mov	x0, x20
/home/ursus/devel/optee/RSA/ta/TA.c:93
     140:	a94153f3 	ldp	x19, x20, [sp,#16]
     144:	a8c27bfd 	ldp	x29, x30, [sp],#32
/home/ursus/devel/optee/RSA/ta/TA.c:84
     148:	140000e0 	b	4c8 <TA_encrypt_command>
/home/ursus/devel/optee/RSA/ta/TA.c:87
     14c:	aa1403e0 	mov	x0, x20
/home/ursus/devel/optee/RSA/ta/TA.c:93
     150:	a94153f3 	ldp	x19, x20, [sp,#16]
     154:	a8c27bfd 	ldp	x29, x30, [sp],#32
/home/ursus/devel/optee/RSA/ta/TA.c:87
     158:	14000135 	b	62c <TA_decrypt_command>

000000000000015c <decrypt_using_public_key>:
decrypt_using_public_key():
/home/ursus/devel/optee/RSA/ta/crypto.c:58
     15c:	a9b37bfd 	stp	x29, x30, [sp,#-208]!
     160:	910003fd 	mov	x29, sp
     164:	f90023f9 	str	x25, [sp,#64]
     168:	aa0003f9 	mov	x25, x0
/home/ursus/devel/optee/RSA/ta/crypto.c:73
     16c:	52802600 	mov	w0, #0x130                 	// #304
/home/ursus/devel/optee/RSA/ta/crypto.c:58
     170:	a90363f7 	stp	x23, x24, [sp,#48]
/home/ursus/devel/optee/RSA/ta/crypto.c:73
     174:	72ba0000 	movk	w0, #0xd000, lsl #16
/home/ursus/devel/optee/RSA/ta/crypto.c:58
     178:	aa0203f7 	mov	x23, x2
/home/ursus/devel/optee/RSA/ta/crypto.c:78
     17c:	52804602 	mov	w2, #0x230                 	// #560
/home/ursus/devel/optee/RSA/ta/crypto.c:73
     180:	b9008ba0 	str	w0, [x29,#136]
/home/ursus/devel/optee/RSA/ta/crypto.c:78
     184:	72ba0002 	movk	w2, #0xd000, lsl #16
/home/ursus/devel/optee/RSA/ta/crypto.c:74
     188:	90000080 	adrp	x0, 10000 <modulus>
     18c:	91000000 	add	x0, x0, #0x0
/home/ursus/devel/optee/RSA/ta/crypto.c:78
     190:	b900a3a2 	str	w2, [x29,#160]
/home/ursus/devel/optee/RSA/ta/crypto.c:79
     194:	91012002 	add	x2, x0, #0x48
/home/ursus/devel/optee/RSA/ta/crypto.c:74
     198:	f9004ba0 	str	x0, [x29,#144]
/home/ursus/devel/optee/RSA/ta/crypto.c:79
     19c:	f90057a2 	str	x2, [x29,#168]
/home/ursus/devel/optee/RSA/ta/crypto.c:84
     1a0:	91014000 	add	x0, x0, #0x50
/home/ursus/devel/optee/RSA/ta/crypto.c:83
     1a4:	52806602 	mov	w2, #0x330                 	// #816
/home/ursus/devel/optee/RSA/ta/crypto.c:58
     1a8:	2a0103f8 	mov	w24, w1
/home/ursus/devel/optee/RSA/ta/crypto.c:83
     1ac:	72b80002 	movk	w2, #0xc000, lsl #16
/home/ursus/devel/optee/RSA/ta/crypto.c:75
     1b0:	52800801 	mov	w1, #0x40                  	// #64
/home/ursus/devel/optee/RSA/ta/crypto.c:84
     1b4:	f90063a0 	str	x0, [x29,#192]
/home/ursus/devel/optee/RSA/ta/crypto.c:89
     1b8:	52800600 	mov	w0, #0x30                  	// #48
/home/ursus/devel/optee/RSA/ta/crypto.c:58
     1bc:	a90153f3 	stp	x19, x20, [sp,#16]
/home/ursus/devel/optee/RSA/ta/crypto.c:89
     1c0:	72b42000 	movk	w0, #0xa100, lsl #16
/home/ursus/devel/optee/RSA/ta/crypto.c:58
     1c4:	a9025bf5 	stp	x21, x22, [sp,#32]
/home/ursus/devel/optee/RSA/ta/crypto.c:69
     1c8:	52804013 	mov	w19, #0x200                 	// #512
/home/ursus/devel/optee/RSA/ta/crypto.c:80
     1cc:	52800074 	mov	w20, #0x3                   	// #3
/home/ursus/devel/optee/RSA/ta/crypto.c:75
     1d0:	b9009ba1 	str	w1, [x29,#152]
/home/ursus/devel/optee/RSA/ta/crypto.c:85
     1d4:	b900cba1 	str	w1, [x29,#200]
/home/ursus/devel/optee/RSA/ta/crypto.c:58
     1d8:	aa0303f6 	mov	x22, x3
/home/ursus/devel/optee/RSA/ta/crypto.c:83
     1dc:	b900bba2 	str	w2, [x29,#184]
/home/ursus/devel/optee/RSA/ta/crypto.c:89
     1e0:	2a1303e1 	mov	w1, w19
/home/ursus/devel/optee/RSA/ta/crypto.c:69
     1e4:	b90057b3 	str	w19, [x29,#84]
/home/ursus/devel/optee/RSA/ta/crypto.c:89
     1e8:	910163a2 	add	x2, x29, #0x58
/home/ursus/devel/optee/RSA/ta/crypto.c:64
     1ec:	a905ffbf 	stp	xzr, xzr, [x29,#88]
/home/ursus/devel/optee/RSA/ta/crypto.c:80
     1f0:	b900b3b4 	str	w20, [x29,#176]
/home/ursus/devel/optee/RSA/ta/crypto.c:89
     1f4:	9400048d 	bl	1428 <TEE_AllocateTransientObject>
/home/ursus/devel/optee/RSA/ta/crypto.c:90
     1f8:	34000060 	cbz	w0, 204 <decrypt_using_public_key+0xa8>
/home/ursus/devel/optee/RSA/ta/crypto.c:129
     1fc:	129fff33 	mov	w19, #0xffff0006            	// #-65530
     200:	14000025 	b	294 <decrypt_using_public_key+0x138>
/home/ursus/devel/optee/RSA/ta/crypto.c:95
     204:	f9402fa0 	ldr	x0, [x29,#88]
     208:	2a1403e2 	mov	w2, w20
     20c:	910223a1 	add	x1, x29, #0x88
     210:	94000518 	bl	1670 <TEE_PopulateTransientObject>
/home/ursus/devel/optee/RSA/ta/crypto.c:96
     214:	35ffff40 	cbnz	w0, 1fc <decrypt_using_public_key+0xa0>
/home/ursus/devel/optee/RSA/ta/crypto.c:100
     218:	52800001 	mov	w1, #0x0                   	// #0
     21c:	2a1303e0 	mov	w0, w19
     220:	9400035a 	bl	f88 <TEE_Malloc>
     224:	aa0003f4 	mov	x20, x0
/home/ursus/devel/optee/RSA/ta/crypto.c:101
     228:	b94057a0 	ldr	w0, [x29,#84]
     22c:	52800001 	mov	w1, #0x0                   	// #0
     230:	94000356 	bl	f88 <TEE_Malloc>
     234:	aa0003f5 	mov	x21, x0
/home/ursus/devel/optee/RSA/ta/crypto.c:102
     238:	f100029f 	cmp	x20, #0x0
     23c:	fa401804 	ccmp	x0, #0x0, #0x4, ne
     240:	54fffde0 	b.eq	1fc <decrypt_using_public_key+0xa0>
/home/ursus/devel/optee/RSA/ta/crypto.c:106
     244:	2a1803e2 	mov	w2, w24
     248:	aa1903e1 	mov	x1, x25
     24c:	aa1403e0 	mov	x0, x20
     250:	940002b7 	bl	d2c <TEE_MemMove>
/home/ursus/devel/optee/RSA/ta/crypto.c:110
     254:	f9402fa0 	ldr	x0, [x29,#88]
     258:	9101a3a1 	add	x1, x29, #0x68
/home/ursus/devel/optee/RSA/ta/crypto.c:115
     25c:	52800013 	mov	w19, #0x0                   	// #0
/home/ursus/devel/optee/RSA/ta/crypto.c:110
     260:	94000368 	bl	1000 <TEE_GetObjectInfo>
/home/ursus/devel/optee/RSA/ta/crypto.c:113
     264:	b94073a3 	ldr	w3, [x29,#112]
     268:	52802601 	mov	w1, #0x130                 	// #304
     26c:	52800022 	mov	w2, #0x1                   	// #1
     270:	72ac0001 	movk	w1, #0x6000, lsl #16
     274:	910183a0 	add	x0, x29, #0x60
     278:	94000895 	bl	24cc <TEE_AllocateOperation>
/home/ursus/devel/optee/RSA/ta/crypto.c:114
     27c:	350000c0 	cbnz	w0, 294 <decrypt_using_public_key+0x138>
/home/ursus/devel/optee/RSA/ta/crypto.c:119
     280:	a94583a1 	ldp	x1, x0, [x29,#88]
     284:	94000b70 	bl	3044 <TEE_SetOperationKey>
/home/ursus/devel/optee/RSA/ta/crypto.c:120
     288:	34000140 	cbz	w0, 2b0 <decrypt_using_public_key+0x154>
/home/ursus/devel/optee/RSA/ta/crypto.c:121
     28c:	f94033a0 	ldr	x0, [x29,#96]
     290:	94000868 	bl	2430 <TEE_FreeOperation>
/home/ursus/devel/optee/RSA/ta/crypto.c:143
     294:	2a1303e0 	mov	w0, w19
     298:	f94023f9 	ldr	x25, [sp,#64]
     29c:	a94153f3 	ldp	x19, x20, [sp,#16]
     2a0:	a9425bf5 	ldp	x21, x22, [sp,#32]
     2a4:	a94363f7 	ldp	x23, x24, [sp,#48]
     2a8:	a8cd7bfd 	ldp	x29, x30, [sp],#208
     2ac:	d65f03c0 	ret
/home/ursus/devel/optee/RSA/ta/crypto.c:126
     2b0:	f94033a0 	ldr	x0, [x29,#96]
     2b4:	910153a6 	add	x6, x29, #0x54
     2b8:	aa1503e5 	mov	x5, x21
     2bc:	2a1803e4 	mov	w4, w24
     2c0:	aa1403e3 	mov	x3, x20
     2c4:	52800002 	mov	w2, #0x0                   	// #0
     2c8:	d2800001 	mov	x1, #0x0                   	// #0
     2cc:	94001191 	bl	4910 <TEE_AsymmetricDecrypt>
/home/ursus/devel/optee/RSA/ta/crypto.c:127
     2d0:	34000080 	cbz	w0, 2e0 <decrypt_using_public_key+0x184>
/home/ursus/devel/optee/RSA/ta/crypto.c:128
     2d4:	f94033a0 	ldr	x0, [x29,#96]
     2d8:	94000856 	bl	2430 <TEE_FreeOperation>
     2dc:	17ffffc8 	b	1fc <decrypt_using_public_key+0xa0>
/home/ursus/devel/optee/RSA/ta/crypto.c:133
     2e0:	b94057b3 	ldr	w19, [x29,#84]
     2e4:	aa1503e1 	mov	x1, x21
     2e8:	aa1703e0 	mov	x0, x23
     2ec:	2a1303e2 	mov	w2, w19
     2f0:	94001e50 	bl	7c30 <memcpy>
/home/ursus/devel/optee/RSA/ta/crypto.c:137
     2f4:	f94033a0 	ldr	x0, [x29,#96]
/home/ursus/devel/optee/RSA/ta/crypto.c:134
     2f8:	b90002d3 	str	w19, [x22]
/home/ursus/devel/optee/RSA/ta/crypto.c:142
     2fc:	52800033 	mov	w19, #0x1                   	// #1
/home/ursus/devel/optee/RSA/ta/crypto.c:137
     300:	9400084c 	bl	2430 <TEE_FreeOperation>
/home/ursus/devel/optee/RSA/ta/crypto.c:138
     304:	f9402fa0 	ldr	x0, [x29,#88]
     308:	9400046c 	bl	14b8 <TEE_FreeTransientObject>
/home/ursus/devel/optee/RSA/ta/crypto.c:139
     30c:	aa1403e0 	mov	x0, x20
     310:	94000322 	bl	f98 <TEE_Free>
/home/ursus/devel/optee/RSA/ta/crypto.c:142
     314:	17ffffe0 	b	294 <decrypt_using_public_key+0x138>

0000000000000318 <encrypt_using_private_key>:
encrypt_using_private_key():
/home/ursus/devel/optee/RSA/ta/crypto.c:146
     318:	a9b47bfd 	stp	x29, x30, [sp,#-192]!
     31c:	910003fd 	mov	x29, sp
     320:	a90153f3 	stp	x19, x20, [sp,#16]
     324:	aa0003f4 	mov	x20, x0
/home/ursus/devel/optee/RSA/ta/crypto.c:152
     328:	52802000 	mov	w0, #0x100                 	// #256
/home/ursus/devel/optee/RSA/ta/crypto.c:146
     32c:	a90363f7 	stp	x23, x24, [sp,#48]
/home/ursus/devel/optee/RSA/ta/crypto.c:152
     330:	b90047a0 	str	w0, [x29,#68]
/home/ursus/devel/optee/RSA/ta/crypto.c:158
     334:	52802600 	mov	w0, #0x130                 	// #304
     338:	72ba0000 	movk	w0, #0xd000, lsl #16
/home/ursus/devel/optee/RSA/ta/crypto.c:146
     33c:	aa0203f7 	mov	x23, x2
/home/ursus/devel/optee/RSA/ta/crypto.c:162
     340:	52804602 	mov	w2, #0x230                 	// #560
/home/ursus/devel/optee/RSA/ta/crypto.c:158
     344:	b9007ba0 	str	w0, [x29,#120]
/home/ursus/devel/optee/RSA/ta/crypto.c:162
     348:	72ba0002 	movk	w2, #0xd000, lsl #16
/home/ursus/devel/optee/RSA/ta/crypto.c:159
     34c:	90000080 	adrp	x0, 10000 <modulus>
     350:	91000000 	add	x0, x0, #0x0
/home/ursus/devel/optee/RSA/ta/crypto.c:162
     354:	b90093a2 	str	w2, [x29,#144]
/home/ursus/devel/optee/RSA/ta/crypto.c:163
     358:	91012002 	add	x2, x0, #0x48
/home/ursus/devel/optee/RSA/ta/crypto.c:159
     35c:	f90043a0 	str	x0, [x29,#128]
/home/ursus/devel/optee/RSA/ta/crypto.c:163
     360:	f9004fa2 	str	x2, [x29,#152]
/home/ursus/devel/optee/RSA/ta/crypto.c:167
     364:	91014000 	add	x0, x0, #0x50
/home/ursus/devel/optee/RSA/ta/crypto.c:166
     368:	52806602 	mov	w2, #0x330                 	// #816
/home/ursus/devel/optee/RSA/ta/crypto.c:146
     36c:	a9025bf5 	stp	x21, x22, [sp,#32]
/home/ursus/devel/optee/RSA/ta/crypto.c:166
     370:	72b80002 	movk	w2, #0xc000, lsl #16
/home/ursus/devel/optee/RSA/ta/crypto.c:146
     374:	2a0103f6 	mov	w22, w1
/home/ursus/devel/optee/RSA/ta/crypto.c:167
     378:	f9005ba0 	str	x0, [x29,#176]
/home/ursus/devel/optee/RSA/ta/crypto.c:160
     37c:	52800801 	mov	w1, #0x40                  	// #64
/home/ursus/devel/optee/RSA/ta/crypto.c:171
     380:	52800600 	mov	w0, #0x30                  	// #48
/home/ursus/devel/optee/RSA/ta/crypto.c:164
     384:	52800073 	mov	w19, #0x3                   	// #3
/home/ursus/devel/optee/RSA/ta/crypto.c:160
     388:	b9008ba1 	str	w1, [x29,#136]
/home/ursus/devel/optee/RSA/ta/crypto.c:146
     38c:	aa0303f8 	mov	x24, x3
/home/ursus/devel/optee/RSA/ta/crypto.c:168
     390:	b900bba1 	str	w1, [x29,#184]
/home/ursus/devel/optee/RSA/ta/crypto.c:171
     394:	72b42000 	movk	w0, #0xa100, lsl #16
/home/ursus/devel/optee/RSA/ta/crypto.c:166
     398:	b900aba2 	str	w2, [x29,#168]
/home/ursus/devel/optee/RSA/ta/crypto.c:171
     39c:	52808001 	mov	w1, #0x400                 	// #1024
/home/ursus/devel/optee/RSA/ta/crypto.c:155
     3a0:	a904ffbf 	stp	xzr, xzr, [x29,#72]
/home/ursus/devel/optee/RSA/ta/crypto.c:171
     3a4:	910123a2 	add	x2, x29, #0x48
/home/ursus/devel/optee/RSA/ta/crypto.c:164
     3a8:	b900a3b3 	str	w19, [x29,#160]
/home/ursus/devel/optee/RSA/ta/crypto.c:171
     3ac:	9400041f 	bl	1428 <TEE_AllocateTransientObject>
/home/ursus/devel/optee/RSA/ta/crypto.c:172
     3b0:	34000100 	cbz	w0, 3d0 <encrypt_using_private_key+0xb8>
/home/ursus/devel/optee/RSA/ta/crypto.c:173
     3b4:	129fff34 	mov	w20, #0xffff0006            	// #-65530
/home/ursus/devel/optee/RSA/ta/crypto.c:226
     3b8:	2a1403e0 	mov	w0, w20
     3bc:	a94153f3 	ldp	x19, x20, [sp,#16]
     3c0:	a9425bf5 	ldp	x21, x22, [sp,#32]
     3c4:	a94363f7 	ldp	x23, x24, [sp,#48]
     3c8:	a8cc7bfd 	ldp	x29, x30, [sp],#192
     3cc:	d65f03c0 	ret
/home/ursus/devel/optee/RSA/ta/crypto.c:177
     3d0:	f94027a0 	ldr	x0, [x29,#72]
     3d4:	2a1303e2 	mov	w2, w19
     3d8:	9101e3a1 	add	x1, x29, #0x78
     3dc:	940004a5 	bl	1670 <TEE_PopulateTransientObject>
/home/ursus/devel/optee/RSA/ta/crypto.c:178
     3e0:	35fffea0 	cbnz	w0, 3b4 <encrypt_using_private_key+0x9c>
/home/ursus/devel/optee/RSA/ta/crypto.c:183
     3e4:	52800001 	mov	w1, #0x0                   	// #0
     3e8:	2a1603e0 	mov	w0, w22
     3ec:	940002e7 	bl	f88 <TEE_Malloc>
     3f0:	aa0003f5 	mov	x21, x0
/home/ursus/devel/optee/RSA/ta/crypto.c:184
     3f4:	b94047a0 	ldr	w0, [x29,#68]
     3f8:	52800001 	mov	w1, #0x0                   	// #0
     3fc:	940002e3 	bl	f88 <TEE_Malloc>
     400:	aa0003f3 	mov	x19, x0
/home/ursus/devel/optee/RSA/ta/crypto.c:185
     404:	f10002bf 	cmp	x21, #0x0
     408:	fa401804 	ccmp	x0, #0x0, #0x4, ne
     40c:	54fffd40 	b.eq	3b4 <encrypt_using_private_key+0x9c>
/home/ursus/devel/optee/RSA/ta/crypto.c:188
     410:	2a1603e2 	mov	w2, w22
     414:	aa1403e1 	mov	x1, x20
     418:	aa1503e0 	mov	x0, x21
     41c:	94000244 	bl	d2c <TEE_MemMove>
/home/ursus/devel/optee/RSA/ta/crypto.c:191
     420:	f94027a0 	ldr	x0, [x29,#72]
     424:	910163a1 	add	x1, x29, #0x58
/home/ursus/devel/optee/RSA/ta/crypto.c:196
     428:	52800014 	mov	w20, #0x0                   	// #0
/home/ursus/devel/optee/RSA/ta/crypto.c:191
     42c:	940002f5 	bl	1000 <TEE_GetObjectInfo>
/home/ursus/devel/optee/RSA/ta/crypto.c:194
     430:	b94063a3 	ldr	w3, [x29,#96]
     434:	52802601 	mov	w1, #0x130                 	// #304
     438:	52800002 	mov	w2, #0x0                   	// #0
     43c:	72ac0001 	movk	w1, #0x6000, lsl #16
     440:	910143a0 	add	x0, x29, #0x50
     444:	94000822 	bl	24cc <TEE_AllocateOperation>
/home/ursus/devel/optee/RSA/ta/crypto.c:195
     448:	35fffb80 	cbnz	w0, 3b8 <encrypt_using_private_key+0xa0>
/home/ursus/devel/optee/RSA/ta/crypto.c:200
     44c:	a94483a1 	ldp	x1, x0, [x29,#72]
     450:	94000afd 	bl	3044 <TEE_SetOperationKey>
/home/ursus/devel/optee/RSA/ta/crypto.c:201
     454:	34000080 	cbz	w0, 464 <encrypt_using_private_key+0x14c>
/home/ursus/devel/optee/RSA/ta/crypto.c:209
     458:	f9402ba0 	ldr	x0, [x29,#80]
     45c:	940007f5 	bl	2430 <TEE_FreeOperation>
/home/ursus/devel/optee/RSA/ta/crypto.c:210
     460:	17ffffd6 	b	3b8 <encrypt_using_private_key+0xa0>
/home/ursus/devel/optee/RSA/ta/crypto.c:207
     464:	f9402ba0 	ldr	x0, [x29,#80]
     468:	910113a6 	add	x6, x29, #0x44
     46c:	aa1303e5 	mov	x5, x19
     470:	2a1603e4 	mov	w4, w22
     474:	aa1503e3 	mov	x3, x21
     478:	52800002 	mov	w2, #0x0                   	// #0
     47c:	d2800001 	mov	x1, #0x0                   	// #0
     480:	94001095 	bl	46d4 <TEE_AsymmetricEncrypt>
/home/ursus/devel/optee/RSA/ta/crypto.c:208
     484:	35fffea0 	cbnz	w0, 458 <encrypt_using_private_key+0x140>
/home/ursus/devel/optee/RSA/ta/crypto.c:214
     488:	b94047b5 	ldr	w21, [x29,#68]
     48c:	aa1303e1 	mov	x1, x19
     490:	aa1703e0 	mov	x0, x23
     494:	2a1503f4 	mov	w20, w21
     498:	aa1403e2 	mov	x2, x20
     49c:	94001de5 	bl	7c30 <memcpy>
/home/ursus/devel/optee/RSA/ta/crypto.c:219
     4a0:	f9402ba0 	ldr	x0, [x29,#80]
/home/ursus/devel/optee/RSA/ta/crypto.c:215
     4a4:	b9000315 	str	w21, [x24]
/home/ursus/devel/optee/RSA/ta/crypto.c:216
     4a8:	38346aff 	strb	wzr, [x23,x20]
/home/ursus/devel/optee/RSA/ta/crypto.c:225
     4ac:	52800034 	mov	w20, #0x1                   	// #1
/home/ursus/devel/optee/RSA/ta/crypto.c:219
     4b0:	940007e0 	bl	2430 <TEE_FreeOperation>
/home/ursus/devel/optee/RSA/ta/crypto.c:220
     4b4:	f94027a0 	ldr	x0, [x29,#72]
     4b8:	94000400 	bl	14b8 <TEE_FreeTransientObject>
/home/ursus/devel/optee/RSA/ta/crypto.c:221
     4bc:	aa1303e0 	mov	x0, x19
     4c0:	940002b6 	bl	f98 <TEE_Free>
/home/ursus/devel/optee/RSA/ta/crypto.c:225
     4c4:	17ffffbd 	b	3b8 <encrypt_using_private_key+0xa0>

00000000000004c8 <TA_encrypt_command>:
TA_encrypt_command():
/home/ursus/devel/optee/RSA/ta/test.c:36
     4c8:	a9ab7bfd 	stp	x29, x30, [sp,#-336]!
     4cc:	910003fd 	mov	x29, sp
     4d0:	a90153f3 	stp	x19, x20, [sp,#16]
/home/ursus/devel/optee/RSA/ta/test.c:46
     4d4:	90000073 	adrp	x19, c000 <mpa_set_str+0x4>
/home/ursus/devel/optee/RSA/ta/test.c:36
     4d8:	a9025bf5 	stp	x21, x22, [sp,#32]
     4dc:	aa0003f5 	mov	x21, x0
     4e0:	f9001bf7 	str	x23, [sp,#48]
/home/ursus/devel/optee/RSA/ta/test.c:46
     4e4:	9123a273 	add	x19, x19, #0x8e8
/home/ursus/devel/optee/RSA/ta/test.c:47
     4e8:	910143b4 	add	x20, x29, #0x50
/home/ursus/devel/optee/RSA/ta/test.c:39
     4ec:	f9400016 	ldr	x22, [x0]
/home/ursus/devel/optee/RSA/ta/test.c:40
     4f0:	aa1603e0 	mov	x0, x22
     4f4:	94001df1 	bl	7cb8 <strlen>
/home/ursus/devel/optee/RSA/ta/test.c:46
     4f8:	d0000064 	adrp	x4, e000 <__func__.3633+0x30>
     4fc:	91033484 	add	x4, x4, #0xcd
/home/ursus/devel/optee/RSA/ta/test.c:40
     500:	aa0003f7 	mov	x23, x0
/home/ursus/devel/optee/RSA/ta/test.c:46
     504:	52800023 	mov	w3, #0x1                   	// #1
     508:	aa1303e0 	mov	x0, x19
     50c:	52800062 	mov	w2, #0x3                   	// #3
     510:	528005c1 	mov	w1, #0x2e                  	// #46
     514:	94002137 	bl	89f0 <trace_printf>
/home/ursus/devel/optee/RSA/ta/test.c:47
     518:	910133a3 	add	x3, x29, #0x4c
     51c:	aa1403e2 	mov	x2, x20
     520:	2a1703e1 	mov	w1, w23
     524:	aa1603e0 	mov	x0, x22
     528:	97ffff7c 	bl	318 <encrypt_using_private_key>
/home/ursus/devel/optee/RSA/ta/test.c:48
     52c:	b9804fa2 	ldrsw	x2, [x29,#76]
     530:	aa1403e1 	mov	x1, x20
     534:	f9400aa0 	ldr	x0, [x21,#16]
     538:	94001dbe 	bl	7c30 <memcpy>
/home/ursus/devel/optee/RSA/ta/test.c:49
     53c:	b90022bf 	str	wzr, [x21,#32]
/home/ursus/devel/optee/RSA/ta/test.c:50
     540:	d0000075 	adrp	x21, e000 <__func__.3633+0x30>
     544:	9116f6b5 	add	x21, x21, #0x5bd
     548:	aa1303e0 	mov	x0, x19
     54c:	aa1503e4 	mov	x4, x21
     550:	52800023 	mov	w3, #0x1                   	// #1
     554:	52800062 	mov	w2, #0x3                   	// #3
     558:	52800641 	mov	w1, #0x32                  	// #50
     55c:	94002125 	bl	89f0 <trace_printf>
/home/ursus/devel/optee/RSA/ta/test.c:51
     560:	aa1603e5 	mov	x5, x22
     564:	aa1303e0 	mov	x0, x19
     568:	52800023 	mov	w3, #0x1                   	// #1
     56c:	52800062 	mov	w2, #0x3                   	// #3
     570:	52800661 	mov	w1, #0x33                  	// #51
     574:	d0000064 	adrp	x4, e000 <__func__.3633+0x30>
     578:	91045084 	add	x4, x4, #0x114
     57c:	9400211d 	bl	89f0 <trace_printf>
/home/ursus/devel/optee/RSA/ta/test.c:52
     580:	2a1703e5 	mov	w5, w23
     584:	aa1303e0 	mov	x0, x19
     588:	52800023 	mov	w3, #0x1                   	// #1
     58c:	52800062 	mov	w2, #0x3                   	// #3
     590:	52800681 	mov	w1, #0x34                  	// #52
     594:	d0000064 	adrp	x4, e000 <__func__.3633+0x30>
     598:	9104b084 	add	x4, x4, #0x12c
     59c:	94002115 	bl	89f0 <trace_printf>
/home/ursus/devel/optee/RSA/ta/test.c:53
     5a0:	aa1403e5 	mov	x5, x20
     5a4:	aa1303e0 	mov	x0, x19
     5a8:	52800023 	mov	w3, #0x1                   	// #1
     5ac:	52800062 	mov	w2, #0x3                   	// #3
     5b0:	528006a1 	mov	w1, #0x35                  	// #53
     5b4:	d0000064 	adrp	x4, e000 <__func__.3633+0x30>
     5b8:	91051084 	add	x4, x4, #0x144
     5bc:	9400210d 	bl	89f0 <trace_printf>
/home/ursus/devel/optee/RSA/ta/test.c:54
     5c0:	b9404fa5 	ldr	w5, [x29,#76]
     5c4:	aa1303e0 	mov	x0, x19
     5c8:	52800023 	mov	w3, #0x1                   	// #1
     5cc:	52800062 	mov	w2, #0x3                   	// #3
     5d0:	528006c1 	mov	w1, #0x36                  	// #54
     5d4:	d0000064 	adrp	x4, e000 <__func__.3633+0x30>
     5d8:	91057084 	add	x4, x4, #0x15c
     5dc:	94002105 	bl	89f0 <trace_printf>
/home/ursus/devel/optee/RSA/ta/test.c:55
     5e0:	aa1503e4 	mov	x4, x21
     5e4:	aa1303e0 	mov	x0, x19
     5e8:	52800023 	mov	w3, #0x1                   	// #1
     5ec:	52800062 	mov	w2, #0x3                   	// #3
     5f0:	528006e1 	mov	w1, #0x37                  	// #55
     5f4:	940020ff 	bl	89f0 <trace_printf>
/home/ursus/devel/optee/RSA/ta/test.c:56
     5f8:	aa1303e0 	mov	x0, x19
     5fc:	52800023 	mov	w3, #0x1                   	// #1
     600:	52800062 	mov	w2, #0x3                   	// #3
     604:	52800701 	mov	w1, #0x38                  	// #56
     608:	d0000064 	adrp	x4, e000 <__func__.3633+0x30>
     60c:	9105d084 	add	x4, x4, #0x174
     610:	940020f8 	bl	89f0 <trace_printf>
/home/ursus/devel/optee/RSA/ta/test.c:59
     614:	f9401bf7 	ldr	x23, [sp,#48]
     618:	a94153f3 	ldp	x19, x20, [sp,#16]
     61c:	52800000 	mov	w0, #0x0                   	// #0
     620:	a9425bf5 	ldp	x21, x22, [sp,#32]
     624:	a8d57bfd 	ldp	x29, x30, [sp],#336
     628:	d65f03c0 	ret

000000000000062c <TA_decrypt_command>:
TA_decrypt_command():
/home/ursus/devel/optee/RSA/ta/test.c:62
     62c:	a9ab7bfd 	stp	x29, x30, [sp,#-336]!
/home/ursus/devel/optee/RSA/ta/test.c:72
     630:	d0000064 	adrp	x4, e000 <__func__.3633+0x30>
     634:	9106dc84 	add	x4, x4, #0x1b7
     638:	52800023 	mov	w3, #0x1                   	// #1
/home/ursus/devel/optee/RSA/ta/test.c:62
     63c:	910003fd 	mov	x29, sp
     640:	a9025bf5 	stp	x21, x22, [sp,#32]
     644:	aa0003f5 	mov	x21, x0
     648:	a90153f3 	stp	x19, x20, [sp,#16]
/home/ursus/devel/optee/RSA/ta/test.c:72
     64c:	90000073 	adrp	x19, c000 <mpa_set_str+0x4>
/home/ursus/devel/optee/RSA/ta/test.c:62
     650:	a90363f7 	stp	x23, x24, [sp,#48]
/home/ursus/devel/optee/RSA/ta/test.c:72
     654:	9123a273 	add	x19, x19, #0x8e8
     658:	91006273 	add	x19, x19, #0x18
/home/ursus/devel/optee/RSA/ta/test.c:73
     65c:	910143b4 	add	x20, x29, #0x50
/home/ursus/devel/optee/RSA/ta/test.c:66
     660:	b9400ab6 	ldr	w22, [x21,#8]
/home/ursus/devel/optee/RSA/ta/test.c:72
     664:	aa1303e0 	mov	x0, x19
/home/ursus/devel/optee/RSA/ta/test.c:65
     668:	f94002b7 	ldr	x23, [x21]
/home/ursus/devel/optee/RSA/ta/test.c:72
     66c:	52800062 	mov	w2, #0x3                   	// #3
     670:	52800901 	mov	w1, #0x48                  	// #72
     674:	940020df 	bl	89f0 <trace_printf>
/home/ursus/devel/optee/RSA/ta/test.c:73
     678:	910133a3 	add	x3, x29, #0x4c
     67c:	aa1403e2 	mov	x2, x20
     680:	2a1603e1 	mov	w1, w22
     684:	aa1703e0 	mov	x0, x23
     688:	97fffeb5 	bl	15c <decrypt_using_public_key>
/home/ursus/devel/optee/RSA/ta/test.c:74
     68c:	b9804fa2 	ldrsw	x2, [x29,#76]
     690:	aa1403e1 	mov	x1, x20
     694:	f9400aa0 	ldr	x0, [x21,#16]
     698:	94001d66 	bl	7c30 <memcpy>
/home/ursus/devel/optee/RSA/ta/test.c:76
     69c:	b90022bf 	str	wzr, [x21,#32]
/home/ursus/devel/optee/RSA/ta/test.c:75
     6a0:	b9404fa0 	ldr	w0, [x29,#76]
/home/ursus/devel/optee/RSA/ta/test.c:77
     6a4:	52800023 	mov	w3, #0x1                   	// #1
/home/ursus/devel/optee/RSA/ta/test.c:75
     6a8:	b9001aa0 	str	w0, [x21,#24]
/home/ursus/devel/optee/RSA/ta/test.c:77
     6ac:	d0000075 	adrp	x21, e000 <__func__.3633+0x30>
     6b0:	9116f6b5 	add	x21, x21, #0x5bd
     6b4:	aa1303e0 	mov	x0, x19
     6b8:	aa1503e4 	mov	x4, x21
     6bc:	52800062 	mov	w2, #0x3                   	// #3
     6c0:	528009a1 	mov	w1, #0x4d                  	// #77
     6c4:	940020cb 	bl	89f0 <trace_printf>
/home/ursus/devel/optee/RSA/ta/test.c:78
     6c8:	aa1703e5 	mov	x5, x23
     6cc:	aa1303e0 	mov	x0, x19
     6d0:	52800023 	mov	w3, #0x1                   	// #1
     6d4:	52800062 	mov	w2, #0x3                   	// #3
     6d8:	528009c1 	mov	w1, #0x4e                  	// #78
     6dc:	d0000064 	adrp	x4, e000 <__func__.3633+0x30>
     6e0:	9107f884 	add	x4, x4, #0x1fe
     6e4:	940020c3 	bl	89f0 <trace_printf>
/home/ursus/devel/optee/RSA/ta/test.c:79
     6e8:	2a1603e5 	mov	w5, w22
     6ec:	aa1303e0 	mov	x0, x19
     6f0:	52800023 	mov	w3, #0x1                   	// #1
     6f4:	52800062 	mov	w2, #0x3                   	// #3
     6f8:	528009e1 	mov	w1, #0x4f                  	// #79
     6fc:	d0000064 	adrp	x4, e000 <__func__.3633+0x30>
     700:	91086484 	add	x4, x4, #0x219
     704:	940020bb 	bl	89f0 <trace_printf>
/home/ursus/devel/optee/RSA/ta/test.c:80
     708:	aa1403e5 	mov	x5, x20
     70c:	aa1303e0 	mov	x0, x19
     710:	52800023 	mov	w3, #0x1                   	// #1
     714:	52800062 	mov	w2, #0x3                   	// #3
     718:	52800a01 	mov	w1, #0x50                  	// #80
     71c:	d0000064 	adrp	x4, e000 <__func__.3633+0x30>
     720:	9108d084 	add	x4, x4, #0x234
     724:	940020b3 	bl	89f0 <trace_printf>
/home/ursus/devel/optee/RSA/ta/test.c:81
     728:	b9404fa5 	ldr	w5, [x29,#76]
     72c:	aa1303e0 	mov	x0, x19
     730:	52800023 	mov	w3, #0x1                   	// #1
     734:	52800062 	mov	w2, #0x3                   	// #3
     738:	52800a21 	mov	w1, #0x51                  	// #81
     73c:	d0000064 	adrp	x4, e000 <__func__.3633+0x30>
     740:	91093c84 	add	x4, x4, #0x24f
     744:	940020ab 	bl	89f0 <trace_printf>
/home/ursus/devel/optee/RSA/ta/test.c:82
     748:	aa1503e4 	mov	x4, x21
     74c:	aa1303e0 	mov	x0, x19
     750:	52800023 	mov	w3, #0x1                   	// #1
     754:	52800062 	mov	w2, #0x3                   	// #3
     758:	52800a41 	mov	w1, #0x52                  	// #82
     75c:	940020a5 	bl	89f0 <trace_printf>
/home/ursus/devel/optee/RSA/ta/test.c:83
     760:	aa1303e0 	mov	x0, x19
     764:	52800023 	mov	w3, #0x1                   	// #1
     768:	52800062 	mov	w2, #0x3                   	// #3
     76c:	52800a61 	mov	w1, #0x53                  	// #83
     770:	d0000064 	adrp	x4, e000 <__func__.3633+0x30>
     774:	9105d084 	add	x4, x4, #0x174
     778:	9400209e 	bl	89f0 <trace_printf>
/home/ursus/devel/optee/RSA/ta/test.c:86
     77c:	52800000 	mov	w0, #0x0                   	// #0
     780:	a94153f3 	ldp	x19, x20, [sp,#16]
     784:	a9425bf5 	ldp	x21, x22, [sp,#32]
     788:	a94363f7 	ldp	x23, x24, [sp,#48]
     78c:	a8d57bfd 	ldp	x29, x30, [sp],#336
     790:	d65f03c0 	ret

0000000000000794 <local_encrypt_and_decrypt_test>:
local_encrypt_and_decrypt_test():
/home/ursus/devel/optee/RSA/ta/test.c:89
     794:	d109c3ff 	sub	sp, sp, #0x270
/home/ursus/devel/optee/RSA/ta/test.c:92
     798:	d0000061 	adrp	x1, e000 <__func__.3633+0x30>
     79c:	910d6821 	add	x1, x1, #0x35a
     7a0:	d2800362 	mov	x2, #0x1b                  	// #27
/home/ursus/devel/optee/RSA/ta/test.c:89
     7a4:	a9007bfd 	stp	x29, x30, [sp]
     7a8:	910003fd 	mov	x29, sp
     7ac:	a90363f7 	stp	x23, x24, [sp,#48]
/home/ursus/devel/optee/RSA/ta/test.c:92
     7b0:	910143b7 	add	x23, x29, #0x50
/home/ursus/devel/optee/RSA/ta/test.c:89
     7b4:	a90153f3 	stp	x19, x20, [sp,#16]
/home/ursus/devel/optee/RSA/ta/test.c:92
     7b8:	aa1703e0 	mov	x0, x23
/home/ursus/devel/optee/RSA/ta/test.c:89
     7bc:	a9025bf5 	stp	x21, x22, [sp,#32]
/home/ursus/devel/optee/RSA/ta/test.c:92
     7c0:	94001d1c 	bl	7c30 <memcpy>
/home/ursus/devel/optee/RSA/ta/test.c:93
     7c4:	aa1703e0 	mov	x0, x23
     7c8:	94001d3c 	bl	7cb8 <strlen>
/home/ursus/devel/optee/RSA/ta/test.c:99
     7cc:	90000073 	adrp	x19, c000 <mpa_set_str+0x4>
     7d0:	d0000064 	adrp	x4, e000 <__func__.3633+0x30>
     7d4:	9123a273 	add	x19, x19, #0x8e8
     7d8:	9109a884 	add	x4, x4, #0x26a
     7dc:	9100c273 	add	x19, x19, #0x30
/home/ursus/devel/optee/RSA/ta/test.c:100
     7e0:	9101c3b4 	add	x20, x29, #0x70
/home/ursus/devel/optee/RSA/ta/test.c:93
     7e4:	aa0003f8 	mov	x24, x0
/home/ursus/devel/optee/RSA/ta/test.c:99
     7e8:	52800023 	mov	w3, #0x1                   	// #1
     7ec:	aa1303e0 	mov	x0, x19
     7f0:	52800062 	mov	w2, #0x3                   	// #3
     7f4:	52800c61 	mov	w1, #0x63                  	// #99
     7f8:	9400207e 	bl	89f0 <trace_printf>
/home/ursus/devel/optee/RSA/ta/test.c:100
     7fc:	910123a3 	add	x3, x29, #0x48
     800:	aa1403e2 	mov	x2, x20
     804:	2a1803e1 	mov	w1, w24
     808:	aa1703e0 	mov	x0, x23
     80c:	97fffec3 	bl	318 <encrypt_using_private_key>
/home/ursus/devel/optee/RSA/ta/test.c:101
     810:	9105c3b6 	add	x22, x29, #0x170
     814:	b9404ba1 	ldr	w1, [x29,#72]
     818:	910133a3 	add	x3, x29, #0x4c
     81c:	aa1603e2 	mov	x2, x22
     820:	aa1403e0 	mov	x0, x20
/home/ursus/devel/optee/RSA/ta/test.c:102
     824:	d0000075 	adrp	x21, e000 <__func__.3633+0x30>
     828:	9116f6b5 	add	x21, x21, #0x5bd
/home/ursus/devel/optee/RSA/ta/test.c:101
     82c:	97fffe4c 	bl	15c <decrypt_using_public_key>
/home/ursus/devel/optee/RSA/ta/test.c:102
     830:	aa1503e4 	mov	x4, x21
     834:	aa1303e0 	mov	x0, x19
     838:	52800023 	mov	w3, #0x1                   	// #1
     83c:	52800062 	mov	w2, #0x3                   	// #3
     840:	52800cc1 	mov	w1, #0x66                  	// #102
     844:	9400206b 	bl	89f0 <trace_printf>
/home/ursus/devel/optee/RSA/ta/test.c:103
     848:	aa1703e5 	mov	x5, x23
     84c:	aa1303e0 	mov	x0, x19
     850:	52800023 	mov	w3, #0x1                   	// #1
     854:	52800062 	mov	w2, #0x3                   	// #3
     858:	52800ce1 	mov	w1, #0x67                  	// #103
     85c:	d0000064 	adrp	x4, e000 <__func__.3633+0x30>
     860:	910ac884 	add	x4, x4, #0x2b2
     864:	94002063 	bl	89f0 <trace_printf>
/home/ursus/devel/optee/RSA/ta/test.c:104
     868:	2a1803e5 	mov	w5, w24
     86c:	aa1303e0 	mov	x0, x19
     870:	52800023 	mov	w3, #0x1                   	// #1
     874:	52800062 	mov	w2, #0x3                   	// #3
     878:	52800d01 	mov	w1, #0x68                  	// #104
     87c:	d0000064 	adrp	x4, e000 <__func__.3633+0x30>
     880:	910b3884 	add	x4, x4, #0x2ce
     884:	9400205b 	bl	89f0 <trace_printf>
/home/ursus/devel/optee/RSA/ta/test.c:105
     888:	aa1403e5 	mov	x5, x20
     88c:	aa1303e0 	mov	x0, x19
     890:	52800023 	mov	w3, #0x1                   	// #1
     894:	52800062 	mov	w2, #0x3                   	// #3
     898:	52800d21 	mov	w1, #0x69                  	// #105
     89c:	d0000064 	adrp	x4, e000 <__func__.3633+0x30>
     8a0:	910ba884 	add	x4, x4, #0x2ea
     8a4:	94002053 	bl	89f0 <trace_printf>
/home/ursus/devel/optee/RSA/ta/test.c:106
     8a8:	b9404ba5 	ldr	w5, [x29,#72]
     8ac:	aa1303e0 	mov	x0, x19
     8b0:	52800023 	mov	w3, #0x1                   	// #1
     8b4:	52800062 	mov	w2, #0x3                   	// #3
     8b8:	52800d41 	mov	w1, #0x6a                  	// #106
     8bc:	d0000064 	adrp	x4, e000 <__func__.3633+0x30>
     8c0:	910c1884 	add	x4, x4, #0x306
     8c4:	9400204b 	bl	89f0 <trace_printf>
/home/ursus/devel/optee/RSA/ta/test.c:107
     8c8:	aa1603e5 	mov	x5, x22
     8cc:	aa1303e0 	mov	x0, x19
     8d0:	52800023 	mov	w3, #0x1                   	// #1
     8d4:	52800062 	mov	w2, #0x3                   	// #3
     8d8:	52800d61 	mov	w1, #0x6b                  	// #107
     8dc:	d0000064 	adrp	x4, e000 <__func__.3633+0x30>
     8e0:	910c8884 	add	x4, x4, #0x322
     8e4:	94002043 	bl	89f0 <trace_printf>
/home/ursus/devel/optee/RSA/ta/test.c:108
     8e8:	b9404fa5 	ldr	w5, [x29,#76]
     8ec:	aa1303e0 	mov	x0, x19
     8f0:	52800023 	mov	w3, #0x1                   	// #1
     8f4:	52800062 	mov	w2, #0x3                   	// #3
     8f8:	52800d81 	mov	w1, #0x6c                  	// #108
     8fc:	d0000064 	adrp	x4, e000 <__func__.3633+0x30>
     900:	910cf884 	add	x4, x4, #0x33e
     904:	9400203b 	bl	89f0 <trace_printf>
/home/ursus/devel/optee/RSA/ta/test.c:109
     908:	aa1503e4 	mov	x4, x21
     90c:	aa1303e0 	mov	x0, x19
     910:	52800023 	mov	w3, #0x1                   	// #1
     914:	52800062 	mov	w2, #0x3                   	// #3
     918:	52800da1 	mov	w1, #0x6d                  	// #109
     91c:	94002035 	bl	89f0 <trace_printf>
/home/ursus/devel/optee/RSA/ta/test.c:110
     920:	aa1303e0 	mov	x0, x19
     924:	52800023 	mov	w3, #0x1                   	// #1
     928:	52800062 	mov	w2, #0x3                   	// #3
     92c:	52800dc1 	mov	w1, #0x6e                  	// #110
     930:	d0000064 	adrp	x4, e000 <__func__.3633+0x30>
     934:	9105d084 	add	x4, x4, #0x174
     938:	9400202e 	bl	89f0 <trace_printf>
/home/ursus/devel/optee/RSA/ta/test.c:112
     93c:	a9407bfd 	ldp	x29, x30, [sp]
     940:	a94153f3 	ldp	x19, x20, [sp,#16]
     944:	a9425bf5 	ldp	x21, x22, [sp,#32]
     948:	a94363f7 	ldp	x23, x24, [sp,#48]
     94c:	9109c3ff 	add	sp, sp, #0x270
     950:	d65f03c0 	ret

0000000000000954 <tahead_get_trace_level>:
tahead_get_trace_level():
/home/ursus/devel/optee/optee_os/out/arm/export-ta_arm64/src/user_ta_header.c:133
     954:	52800080 	mov	w0, #0x4                   	// #4
     958:	d65f03c0 	ret

000000000000095c <__utee_from_param>:
__utee_from_param():
/home/ursus/devel/optee/optee_os/lib/libutee/tee_api.c:47
     95c:	90000065 	adrp	x5, c000 <mpa_set_str+0x4>
     960:	912580a5 	add	x5, x5, #0x960
/home/ursus/devel/optee/optee_os/lib/libutee/tee_api.c:45
     964:	2a0103e3 	mov	w3, w1
     968:	52800004 	mov	w4, #0x0                   	// #0
     96c:	f8008403 	str	x3, [x0],#8
/home/ursus/devel/optee/optee_os/lib/libutee/tee_api.c:47
     970:	1ac42423 	lsr	w3, w1, w4
     974:	12000c63 	and	w3, w3, #0xf
     978:	51000463 	sub	w3, w3, #0x1
     97c:	7100187f 	cmp	w3, #0x6
     980:	54000268 	b.hi	9cc <__utee_from_param+0x70>
     984:	386348a3 	ldrb	w3, [x5,w3,uxtw]
     988:	10000066 	adr	x6, 994 <__utee_from_param+0x38>
     98c:	8b2388c3 	add	x3, x6, w3, sxtb #2
     990:	d61f0060 	br	x3
/home/ursus/devel/optee/optee_os/lib/libutee/tee_api.c:51
     994:	b9400043 	ldr	w3, [x2]
     998:	f9000003 	str	x3, [x0]
/home/ursus/devel/optee/optee_os/lib/libutee/tee_api.c:52
     99c:	b9400443 	ldr	w3, [x2,#4]
/home/ursus/devel/optee/optee_os/lib/libutee/tee_api.c:58
     9a0:	f9000403 	str	x3, [x0,#8]
     9a4:	11001084 	add	w4, w4, #0x4
     9a8:	91004042 	add	x2, x2, #0x10
     9ac:	91004000 	add	x0, x0, #0x10
/home/ursus/devel/optee/optee_os/lib/libutee/tee_api.c:46 (discriminator 2)
     9b0:	7100409f 	cmp	w4, #0x10
     9b4:	54fffde1 	b.ne	970 <__utee_from_param+0x14>
/home/ursus/devel/optee/optee_os/lib/libutee/tee_api.c:66
     9b8:	d65f03c0 	ret
/home/ursus/devel/optee/optee_os/lib/libutee/tee_api.c:57
     9bc:	f9400043 	ldr	x3, [x2]
     9c0:	f9000003 	str	x3, [x0]
/home/ursus/devel/optee/optee_os/lib/libutee/tee_api.c:58
     9c4:	b9400843 	ldr	w3, [x2,#8]
     9c8:	17fffff6 	b	9a0 <__utee_from_param+0x44>
/home/ursus/devel/optee/optee_os/lib/libutee/tee_api.c:62
     9cc:	a9007c1f 	stp	xzr, xzr, [x0]
/home/ursus/devel/optee/optee_os/lib/libutee/tee_api.c:63
     9d0:	17fffff5 	b	9a4 <__utee_from_param+0x48>

00000000000009d4 <__utee_to_param>:
__utee_to_param():
/home/ursus/devel/optee/optee_os/lib/libutee/tee_api.c:72
     9d4:	f8408446 	ldr	x6, [x2],#8
/home/ursus/devel/optee/optee_os/lib/libutee/tee_api.c:78
     9d8:	90000065 	adrp	x5, c000 <mpa_set_str+0x4>
     9dc:	9125a0a5 	add	x5, x5, #0x968
/home/ursus/devel/optee/optee_os/lib/libutee/tee_api.c:72
     9e0:	52800004 	mov	w4, #0x0                   	// #0
     9e4:	2a0603e9 	mov	w9, w6
/home/ursus/devel/optee/optee_os/lib/libutee/tee_api.c:78
     9e8:	1ac42523 	lsr	w3, w9, w4
     9ec:	12000c63 	and	w3, w3, #0xf
     9f0:	51000463 	sub	w3, w3, #0x1
     9f4:	7100187f 	cmp	w3, #0x6
/home/ursus/devel/optee/optee_os/lib/libutee/tee_api.c:76
     9f8:	a9401c48 	ldp	x8, x7, [x2]
/home/ursus/devel/optee/optee_os/lib/libutee/tee_api.c:78
     9fc:	540000c8 	b.hi	a14 <__utee_to_param+0x40>
     a00:	386348a3 	ldrb	w3, [x5,w3,uxtw]
     a04:	1000006a 	adr	x10, a10 <__utee_to_param+0x3c>
     a08:	8b238943 	add	x3, x10, w3, sxtb #2
     a0c:	d61f0060 	br	x3
/home/ursus/devel/optee/optee_os/lib/libutee/tee_api.c:83
     a10:	29001c08 	stp	w8, w7, [x0]
     a14:	11001084 	add	w4, w4, #0x4
     a18:	91004042 	add	x2, x2, #0x10
     a1c:	91004000 	add	x0, x0, #0x10
/home/ursus/devel/optee/optee_os/lib/libutee/tee_api.c:74 (discriminator 2)
     a20:	7100409f 	cmp	w4, #0x10
     a24:	54fffe21 	b.ne	9e8 <__utee_to_param+0x14>
/home/ursus/devel/optee/optee_os/lib/libutee/tee_api.c:96
     a28:	b4000041 	cbz	x1, a30 <__utee_to_param+0x5c>
/home/ursus/devel/optee/optee_os/lib/libutee/tee_api.c:97
     a2c:	b9000026 	str	w6, [x1]
     a30:	d65f03c0 	ret
/home/ursus/devel/optee/optee_os/lib/libutee/tee_api.c:88
     a34:	f9000008 	str	x8, [x0]
/home/ursus/devel/optee/optee_os/lib/libutee/tee_api.c:89
     a38:	b9000807 	str	w7, [x0,#8]
/home/ursus/devel/optee/optee_os/lib/libutee/tee_api.c:90
     a3c:	17fffff6 	b	a14 <__utee_to_param+0x40>

0000000000000a40 <TEE_OpenTASession>:
TEE_OpenTASession():
/home/ursus/devel/optee/optee_os/lib/libutee/tee_api.c:106
     a40:	a9b77bfd 	stp	x29, x30, [sp,#-144]!
     a44:	910003fd 	mov	x29, sp
     a48:	a90153f3 	stp	x19, x20, [sp,#16]
/home/ursus/devel/optee/optee_os/lib/libutee/tee_api.c:111
     a4c:	910123b3 	add	x19, x29, #0x48
/home/ursus/devel/optee/optee_os/lib/libutee/tee_api.c:106
     a50:	a9025bf5 	stp	x21, x22, [sp,#32]
     a54:	aa0303f4 	mov	x20, x3
     a58:	a90363f7 	stp	x23, x24, [sp,#48]
     a5c:	aa0003f6 	mov	x22, x0
     a60:	aa0503f8 	mov	x24, x5
     a64:	2a0103f7 	mov	w23, w1
     a68:	aa0403f5 	mov	x21, x4
     a6c:	2a0203e1 	mov	w1, w2
/home/ursus/devel/optee/optee_os/lib/libutee/tee_api.c:111
     a70:	aa1303e0 	mov	x0, x19
     a74:	aa0303e2 	mov	x2, x3
     a78:	97ffffb9 	bl	95c <__utee_from_param>
/home/ursus/devel/optee/optee_os/lib/libutee/tee_api.c:112
     a7c:	aa1803e4 	mov	x4, x24
     a80:	910113a3 	add	x3, x29, #0x44
     a84:	aa1303e2 	mov	x2, x19
     a88:	2a1703e1 	mov	w1, w23
     a8c:	aa1603e0 	mov	x0, x22
     a90:	9400139d 	bl	5904 <utee_open_ta_session>
/home/ursus/devel/optee/optee_os/lib/libutee/tee_api.c:114
     a94:	aa1303e2 	mov	x2, x19
/home/ursus/devel/optee/optee_os/lib/libutee/tee_api.c:112
     a98:	2a0003f6 	mov	w22, w0
/home/ursus/devel/optee/optee_os/lib/libutee/tee_api.c:114
     a9c:	d2800001 	mov	x1, #0x0                   	// #0
     aa0:	aa1403e0 	mov	x0, x20
     aa4:	97ffffcc 	bl	9d4 <__utee_to_param>
/home/ursus/devel/optee/optee_os/lib/libutee/tee_api.c:120
     aa8:	34000056 	cbz	w22, ab0 <TEE_OpenTASession+0x70>
/home/ursus/devel/optee/optee_os/lib/libutee/tee_api.c:121
     aac:	b90047bf 	str	wzr, [x29,#68]
/home/ursus/devel/optee/optee_os/lib/libutee/tee_api.c:123
     ab0:	b94047a0 	ldr	w0, [x29,#68]
/home/ursus/devel/optee/optee_os/lib/libutee/tee_api.c:125
     ab4:	a94153f3 	ldp	x19, x20, [sp,#16]
     ab8:	a94363f7 	ldp	x23, x24, [sp,#48]
/home/ursus/devel/optee/optee_os/lib/libutee/tee_api.c:123
     abc:	f90002a0 	str	x0, [x21]
/home/ursus/devel/optee/optee_os/lib/libutee/tee_api.c:125
     ac0:	2a1603e0 	mov	w0, w22
     ac4:	a9425bf5 	ldp	x21, x22, [sp,#32]
     ac8:	a8c97bfd 	ldp	x29, x30, [sp],#144
     acc:	d65f03c0 	ret

0000000000000ad0 <TEE_CloseTASession>:
TEE_CloseTASession():
/home/ursus/devel/optee/optee_os/lib/libutee/tee_api.c:129
     ad0:	b40002e0 	cbz	x0, b2c <TEE_CloseTASession+0x5c>
/home/ursus/devel/optee/optee_os/lib/libutee/tee_api.c:128
     ad4:	a9be7bfd 	stp	x29, x30, [sp,#-32]!
     ad8:	910003fd 	mov	x29, sp
     adc:	f9000bf3 	str	x19, [sp,#16]
/home/ursus/devel/optee/optee_os/lib/libutee/tee_api.c:130
     ae0:	9400138c 	bl	5910 <utee_close_ta_session>
     ae4:	2a0003f3 	mov	w19, w0
/home/ursus/devel/optee/optee_os/lib/libutee/tee_api.c:132
     ae8:	340001c0 	cbz	w0, b20 <TEE_CloseTASession+0x50>
/home/ursus/devel/optee/optee_os/lib/libutee/tee_api.c:133
     aec:	2a0003e5 	mov	w5, w0
     af0:	52800023 	mov	w3, #0x1                   	// #1
     af4:	52800022 	mov	w2, #0x1                   	// #1
     af8:	528010a1 	mov	w1, #0x85                  	// #133
     afc:	d0000064 	adrp	x4, e000 <__func__.3633+0x30>
     b00:	90000060 	adrp	x0, c000 <mpa_set_str+0x4>
     b04:	91112884 	add	x4, x4, #0x44a
     b08:	9125c000 	add	x0, x0, #0x970
     b0c:	94001fb9 	bl	89f0 <trace_printf>
     b10:	2a1303e0 	mov	w0, w19
/home/ursus/devel/optee/optee_os/lib/libutee/tee_api.c:135
     b14:	f9400bf3 	ldr	x19, [sp,#16]
     b18:	a8c27bfd 	ldp	x29, x30, [sp],#32
/home/ursus/devel/optee/optee_os/lib/libutee/tee_api.c:133
     b1c:	140012aa 	b	55c4 <__TEE_Panic>
/home/ursus/devel/optee/optee_os/lib/libutee/tee_api.c:135
     b20:	f9400bf3 	ldr	x19, [sp,#16]
     b24:	a8c27bfd 	ldp	x29, x30, [sp],#32
     b28:	d65f03c0 	ret
     b2c:	d65f03c0 	ret

0000000000000b30 <TEE_InvokeTACommand>:
TEE_InvokeTACommand():
/home/ursus/devel/optee/optee_os/lib/libutee/tee_api.c:142
     b30:	a9b77bfd 	stp	x29, x30, [sp,#-144]!
     b34:	910003fd 	mov	x29, sp
     b38:	a90153f3 	stp	x19, x20, [sp,#16]
/home/ursus/devel/optee/optee_os/lib/libutee/tee_api.c:147
     b3c:	910123b4 	add	x20, x29, #0x48
/home/ursus/devel/optee/optee_os/lib/libutee/tee_api.c:142
     b40:	a9025bf5 	stp	x21, x22, [sp,#32]
     b44:	aa0003f3 	mov	x19, x0
     b48:	a90363f7 	stp	x23, x24, [sp,#48]
     b4c:	aa0403f6 	mov	x22, x4
     b50:	aa0503f5 	mov	x21, x5
     b54:	2a0103f7 	mov	w23, w1
     b58:	2a0203f8 	mov	w24, w2
/home/ursus/devel/optee/optee_os/lib/libutee/tee_api.c:147
     b5c:	2a0303e1 	mov	w1, w3
     b60:	aa0403e2 	mov	x2, x4
     b64:	aa1403e0 	mov	x0, x20
     b68:	97ffff7d 	bl	95c <__utee_from_param>
/home/ursus/devel/optee/optee_os/lib/libutee/tee_api.c:148
     b6c:	910113a4 	add	x4, x29, #0x44
     b70:	aa1403e3 	mov	x3, x20
     b74:	2a1803e2 	mov	w2, w24
     b78:	2a1703e1 	mov	w1, w23
     b7c:	aa1303e0 	mov	x0, x19
     b80:	94001367 	bl	591c <utee_invoke_ta_command>
/home/ursus/devel/optee/optee_os/lib/libutee/tee_api.c:151
     b84:	aa1403e2 	mov	x2, x20
/home/ursus/devel/optee/optee_os/lib/libutee/tee_api.c:148
     b88:	2a0003f3 	mov	w19, w0
/home/ursus/devel/optee/optee_os/lib/libutee/tee_api.c:151
     b8c:	d2800001 	mov	x1, #0x0                   	// #0
     b90:	aa1603e0 	mov	x0, x22
     b94:	97ffff90 	bl	9d4 <__utee_to_param>
     b98:	b94047a0 	ldr	w0, [x29,#68]
/home/ursus/devel/optee/optee_os/lib/libutee/tee_api.c:153
     b9c:	b4000055 	cbz	x21, ba4 <TEE_InvokeTACommand+0x74>
/home/ursus/devel/optee/optee_os/lib/libutee/tee_api.c:154
     ba0:	b90002a0 	str	w0, [x21]
/home/ursus/devel/optee/optee_os/lib/libutee/tee_api.c:156
     ba4:	7100101f 	cmp	w0, #0x4
     ba8:	54000260 	b.eq	bf4 <TEE_InvokeTACommand+0xc4>
/home/ursus/devel/optee/optee_os/lib/libutee/tee_api.c:160
     bac:	7100027f 	cmp	w19, #0x0
     bb0:	129ffe60 	mov	w0, #0xffff000c            	// #-65524
     bb4:	7a401264 	ccmp	w19, w0, #0x4, ne
     bb8:	1299fb60 	mov	w0, #0xffff3024            	// #-53212
     bbc:	7a401264 	ccmp	w19, w0, #0x4, ne
     bc0:	540001a0 	b.eq	bf4 <TEE_InvokeTACommand+0xc4>
/home/ursus/devel/optee/optee_os/lib/libutee/tee_api.c:162
     bc4:	2a1303e5 	mov	w5, w19
     bc8:	d0000064 	adrp	x4, e000 <__func__.3633+0x30>
     bcc:	91112884 	add	x4, x4, #0x44a
     bd0:	52800023 	mov	w3, #0x1                   	// #1
     bd4:	52800022 	mov	w2, #0x1                   	// #1
     bd8:	52801441 	mov	w1, #0xa2                  	// #162
     bdc:	90000060 	adrp	x0, c000 <mpa_set_str+0x4>
     be0:	9125c000 	add	x0, x0, #0x970
     be4:	91006000 	add	x0, x0, #0x18
     be8:	94001f82 	bl	89f0 <trace_printf>
     bec:	2a1303e0 	mov	w0, w19
     bf0:	94001275 	bl	55c4 <__TEE_Panic>
/home/ursus/devel/optee/optee_os/lib/libutee/tee_api.c:165
     bf4:	2a1303e0 	mov	w0, w19
     bf8:	a94153f3 	ldp	x19, x20, [sp,#16]
     bfc:	a9425bf5 	ldp	x21, x22, [sp,#32]
     c00:	a94363f7 	ldp	x23, x24, [sp,#48]
     c04:	a8c97bfd 	ldp	x29, x30, [sp],#144
     c08:	d65f03c0 	ret

0000000000000c0c <TEE_GetCancellationFlag>:
TEE_GetCancellationFlag():
/home/ursus/devel/optee/optee_os/lib/libutee/tee_api.c:170
     c0c:	a9be7bfd 	stp	x29, x30, [sp,#-32]!
     c10:	910003fd 	mov	x29, sp
/home/ursus/devel/optee/optee_os/lib/libutee/tee_api.c:172
     c14:	910073a0 	add	x0, x29, #0x1c
     c18:	94001344 	bl	5928 <utee_get_cancellation_flag>
/home/ursus/devel/optee/optee_os/lib/libutee/tee_api.c:174
     c1c:	34000040 	cbz	w0, c24 <TEE_GetCancellationFlag+0x18>
/home/ursus/devel/optee/optee_os/lib/libutee/tee_api.c:175
     c20:	b9001fbf 	str	wzr, [x29,#28]
/home/ursus/devel/optee/optee_os/lib/libutee/tee_api.c:176
     c24:	b9401fa0 	ldr	w0, [x29,#28]
/home/ursus/devel/optee/optee_os/lib/libutee/tee_api.c:177
     c28:	a8c27bfd 	ldp	x29, x30, [sp],#32
/home/ursus/devel/optee/optee_os/lib/libutee/tee_api.c:176
     c2c:	7100001f 	cmp	w0, #0x0
/home/ursus/devel/optee/optee_os/lib/libutee/tee_api.c:177
     c30:	1a9f07e0 	cset	w0, ne
     c34:	d65f03c0 	ret

0000000000000c38 <TEE_UnmaskCancellation>:
TEE_UnmaskCancellation():
/home/ursus/devel/optee/optee_os/lib/libutee/tee_api.c:180
     c38:	a9bd7bfd 	stp	x29, x30, [sp,#-48]!
     c3c:	910003fd 	mov	x29, sp
     c40:	f9000bf3 	str	x19, [sp,#16]
/home/ursus/devel/optee/optee_os/lib/libutee/tee_api.c:182
     c44:	9100b3a0 	add	x0, x29, #0x2c
     c48:	9400133e 	bl	5940 <utee_unmask_cancellation>
/home/ursus/devel/optee/optee_os/lib/libutee/tee_api.c:184
     c4c:	340001c0 	cbz	w0, c84 <TEE_UnmaskCancellation+0x4c>
/home/ursus/devel/optee/optee_os/lib/libutee/tee_api.c:185
     c50:	2a0003e5 	mov	w5, w0
     c54:	d0000064 	adrp	x4, e000 <__func__.3633+0x30>
     c58:	91112884 	add	x4, x4, #0x44a
     c5c:	2a0003f3 	mov	w19, w0
     c60:	52800023 	mov	w3, #0x1                   	// #1
     c64:	52800022 	mov	w2, #0x1                   	// #1
     c68:	52801721 	mov	w1, #0xb9                  	// #185
     c6c:	90000060 	adrp	x0, c000 <mpa_set_str+0x4>
     c70:	9125c000 	add	x0, x0, #0x970
     c74:	9100c000 	add	x0, x0, #0x30
     c78:	94001f5e 	bl	89f0 <trace_printf>
     c7c:	2a1303e0 	mov	w0, w19
     c80:	94001251 	bl	55c4 <__TEE_Panic>
/home/ursus/devel/optee/optee_os/lib/libutee/tee_api.c:186
     c84:	b9402fa0 	ldr	w0, [x29,#44]
/home/ursus/devel/optee/optee_os/lib/libutee/tee_api.c:187
     c88:	f9400bf3 	ldr	x19, [sp,#16]
/home/ursus/devel/optee/optee_os/lib/libutee/tee_api.c:186
     c8c:	7100001f 	cmp	w0, #0x0
/home/ursus/devel/optee/optee_os/lib/libutee/tee_api.c:187
     c90:	1a9f07e0 	cset	w0, ne
     c94:	a8c37bfd 	ldp	x29, x30, [sp],#48
     c98:	d65f03c0 	ret

0000000000000c9c <TEE_MaskCancellation>:
TEE_MaskCancellation():
/home/ursus/devel/optee/optee_os/lib/libutee/tee_api.c:190
     c9c:	a9bd7bfd 	stp	x29, x30, [sp,#-48]!
     ca0:	910003fd 	mov	x29, sp
     ca4:	f9000bf3 	str	x19, [sp,#16]
/home/ursus/devel/optee/optee_os/lib/libutee/tee_api.c:192
     ca8:	9100b3a0 	add	x0, x29, #0x2c
     cac:	94001328 	bl	594c <utee_mask_cancellation>
/home/ursus/devel/optee/optee_os/lib/libutee/tee_api.c:194
     cb0:	340001c0 	cbz	w0, ce8 <TEE_MaskCancellation+0x4c>
/home/ursus/devel/optee/optee_os/lib/libutee/tee_api.c:195
     cb4:	2a0003e5 	mov	w5, w0
     cb8:	d0000064 	adrp	x4, e000 <__func__.3633+0x30>
     cbc:	91112884 	add	x4, x4, #0x44a
     cc0:	2a0003f3 	mov	w19, w0
     cc4:	52800023 	mov	w3, #0x1                   	// #1
     cc8:	52800022 	mov	w2, #0x1                   	// #1
     ccc:	52801861 	mov	w1, #0xc3                  	// #195
     cd0:	90000060 	adrp	x0, c000 <mpa_set_str+0x4>
     cd4:	9125c000 	add	x0, x0, #0x970
     cd8:	91012000 	add	x0, x0, #0x48
     cdc:	94001f45 	bl	89f0 <trace_printf>
     ce0:	2a1303e0 	mov	w0, w19
     ce4:	94001238 	bl	55c4 <__TEE_Panic>
/home/ursus/devel/optee/optee_os/lib/libutee/tee_api.c:196
     ce8:	b9402fa0 	ldr	w0, [x29,#44]
/home/ursus/devel/optee/optee_os/lib/libutee/tee_api.c:197
     cec:	f9400bf3 	ldr	x19, [sp,#16]
/home/ursus/devel/optee/optee_os/lib/libutee/tee_api.c:196
     cf0:	7100001f 	cmp	w0, #0x0
/home/ursus/devel/optee/optee_os/lib/libutee/tee_api.c:197
     cf4:	1a9f07e0 	cset	w0, ne
     cf8:	a8c37bfd 	ldp	x29, x30, [sp],#48
     cfc:	d65f03c0 	ret

0000000000000d00 <TEE_CheckMemoryAccessRights>:
TEE_CheckMemoryAccessRights():
/home/ursus/devel/optee/optee_os/lib/libutee/tee_api.c:206
     d00:	34000062 	cbz	w2, d0c <TEE_CheckMemoryAccessRights+0xc>
/home/ursus/devel/optee/optee_os/lib/libutee/tee_api.c:210
     d04:	2a0203e2 	mov	w2, w2
     d08:	1400130b 	b	5934 <utee_check_access_rights>
/home/ursus/devel/optee/optee_os/lib/libutee/tee_api.c:222
     d0c:	52800000 	mov	w0, #0x0                   	// #0
     d10:	d65f03c0 	ret

0000000000000d14 <TEE_SetInstanceData>:
TEE_SetInstanceData():
/home/ursus/devel/optee/optee_os/lib/libutee/tee_api.c:226
     d14:	900000c1 	adrp	x1, 18000 <ta_heap+0x7e40>
     d18:	f900e020 	str	x0, [x1,#448]
     d1c:	d65f03c0 	ret

0000000000000d20 <TEE_GetInstanceData>:
TEE_GetInstanceData():
/home/ursus/devel/optee/optee_os/lib/libutee/tee_api.c:232
     d20:	900000c0 	adrp	x0, 18000 <ta_heap+0x7e40>
     d24:	f940e000 	ldr	x0, [x0,#448]
     d28:	d65f03c0 	ret

0000000000000d2c <TEE_MemMove>:
TEE_MemMove():
/home/ursus/devel/optee/optee_os/lib/libutee/tee_api.c:236
     d2c:	2a0203e2 	mov	w2, w2
     d30:	14001bc8 	b	7c50 <memmove>

0000000000000d34 <TEE_MemCompare>:
TEE_MemCompare():
/home/ursus/devel/optee/optee_os/lib/libutee/tee_api.c:241
     d34:	2a0203e2 	mov	w2, w2
     d38:	14001bb1 	b	7bfc <memcmp>

0000000000000d3c <TEE_MemFill>:
TEE_MemFill():
/home/ursus/devel/optee/optee_os/lib/libutee/tee_api.c:246
     d3c:	2a0203e2 	mov	w2, w2
     d40:	14001bd7 	b	7c9c <memset>

0000000000000d44 <TEE_GetSystemTime>:
TEE_GetSystemTime():
/home/ursus/devel/optee/optee_os/lib/libutee/tee_api.c:252
     d44:	a9be7bfd 	stp	x29, x30, [sp,#-32]!
/home/ursus/devel/optee/optee_os/lib/libutee/tee_api.c:253
     d48:	aa0003e1 	mov	x1, x0
     d4c:	d2800000 	mov	x0, #0x0                   	// #0
/home/ursus/devel/optee/optee_os/lib/libutee/tee_api.c:252
     d50:	910003fd 	mov	x29, sp
     d54:	f9000bf3 	str	x19, [sp,#16]
/home/ursus/devel/optee/optee_os/lib/libutee/tee_api.c:253
     d58:	94001303 	bl	5964 <utee_get_time>
/home/ursus/devel/optee/optee_os/lib/libutee/tee_api.c:255
     d5c:	34000200 	cbz	w0, d9c <TEE_GetSystemTime+0x58>
     d60:	2a0003f3 	mov	w19, w0
/home/ursus/devel/optee/optee_os/lib/libutee/tee_api.c:256
     d64:	2a0003e5 	mov	w5, w0
     d68:	90000060 	adrp	x0, c000 <mpa_set_str+0x4>
     d6c:	9125c000 	add	x0, x0, #0x970
     d70:	52800023 	mov	w3, #0x1                   	// #1
     d74:	52800022 	mov	w2, #0x1                   	// #1
     d78:	52802001 	mov	w1, #0x100                 	// #256
     d7c:	91018000 	add	x0, x0, #0x60
     d80:	d0000064 	adrp	x4, e000 <__func__.3633+0x30>
     d84:	91112884 	add	x4, x4, #0x44a
     d88:	94001f1a 	bl	89f0 <trace_printf>
     d8c:	2a1303e0 	mov	w0, w19
/home/ursus/devel/optee/optee_os/lib/libutee/tee_api.c:257
     d90:	f9400bf3 	ldr	x19, [sp,#16]
     d94:	a8c27bfd 	ldp	x29, x30, [sp],#32
/home/ursus/devel/optee/optee_os/lib/libutee/tee_api.c:256
     d98:	1400120b 	b	55c4 <__TEE_Panic>
/home/ursus/devel/optee/optee_os/lib/libutee/tee_api.c:257
     d9c:	f9400bf3 	ldr	x19, [sp,#16]
     da0:	a8c27bfd 	ldp	x29, x30, [sp],#32
     da4:	d65f03c0 	ret

0000000000000da8 <TEE_Wait>:
TEE_Wait():
/home/ursus/devel/optee/optee_os/lib/libutee/tee_api.c:260
     da8:	a9be7bfd 	stp	x29, x30, [sp,#-32]!
/home/ursus/devel/optee/optee_os/lib/libutee/tee_api.c:261
     dac:	2a0003e0 	mov	w0, w0
/home/ursus/devel/optee/optee_os/lib/libutee/tee_api.c:260
     db0:	910003fd 	mov	x29, sp
     db4:	f9000bf3 	str	x19, [sp,#16]
/home/ursus/devel/optee/optee_os/lib/libutee/tee_api.c:261
     db8:	940012e8 	bl	5958 <utee_wait>
     dbc:	2a0003f3 	mov	w19, w0
/home/ursus/devel/optee/optee_os/lib/libutee/tee_api.c:263
     dc0:	7100001f 	cmp	w0, #0x0
     dc4:	129fffa0 	mov	w0, #0xffff0002            	// #-65534
     dc8:	7a401264 	ccmp	w19, w0, #0x4, ne
     dcc:	540001a0 	b.eq	e00 <TEE_Wait+0x58>
/home/ursus/devel/optee/optee_os/lib/libutee/tee_api.c:264
     dd0:	2a1303e5 	mov	w5, w19
     dd4:	d0000064 	adrp	x4, e000 <__func__.3633+0x30>
     dd8:	91112884 	add	x4, x4, #0x44a
     ddc:	52800023 	mov	w3, #0x1                   	// #1
     de0:	52800022 	mov	w2, #0x1                   	// #1
     de4:	52802101 	mov	w1, #0x108                 	// #264
     de8:	90000060 	adrp	x0, c000 <mpa_set_str+0x4>
     dec:	9125c000 	add	x0, x0, #0x970
     df0:	9101e000 	add	x0, x0, #0x78
     df4:	94001eff 	bl	89f0 <trace_printf>
     df8:	2a1303e0 	mov	w0, w19
     dfc:	940011f2 	bl	55c4 <__TEE_Panic>
/home/ursus/devel/optee/optee_os/lib/libutee/tee_api.c:267
     e00:	2a1303e0 	mov	w0, w19
     e04:	f9400bf3 	ldr	x19, [sp,#16]
     e08:	a8c27bfd 	ldp	x29, x30, [sp],#32
     e0c:	d65f03c0 	ret

0000000000000e10 <TEE_GetTAPersistentTime>:
TEE_GetTAPersistentTime():
/home/ursus/devel/optee/optee_os/lib/libutee/tee_api.c:270
     e10:	a9be7bfd 	stp	x29, x30, [sp,#-32]!
/home/ursus/devel/optee/optee_os/lib/libutee/tee_api.c:273
     e14:	aa0003e1 	mov	x1, x0
/home/ursus/devel/optee/optee_os/lib/libutee/tee_api.c:270
     e18:	910003fd 	mov	x29, sp
     e1c:	a90153f3 	stp	x19, x20, [sp,#16]
     e20:	aa0003f4 	mov	x20, x0
/home/ursus/devel/optee/optee_os/lib/libutee/tee_api.c:273
     e24:	d2800020 	mov	x0, #0x1                   	// #1
     e28:	940012cf 	bl	5964 <utee_get_time>
/home/ursus/devel/optee/optee_os/lib/libutee/tee_api.c:275
     e2c:	7100001f 	cmp	w0, #0x0
/home/ursus/devel/optee/optee_os/lib/libutee/tee_api.c:273
     e30:	2a0003f3 	mov	w19, w0
/home/ursus/devel/optee/optee_os/lib/libutee/tee_api.c:275
     e34:	1a9f07e1 	cset	w1, ne
     e38:	1299fe00 	mov	w0, #0xffff300f            	// #-53233
     e3c:	6b00027f 	cmp	w19, w0
     e40:	1a9f07e0 	cset	w0, ne
     e44:	6a00003f 	tst	w1, w0
     e48:	54000040 	b.eq	e50 <TEE_GetTAPersistentTime+0x40>
/home/ursus/devel/optee/optee_os/lib/libutee/tee_api.c:277
     e4c:	29007e9f 	stp	wzr, wzr, [x20]
/home/ursus/devel/optee/optee_os/lib/libutee/tee_api.c:281
     e50:	11402e62 	add	w2, w19, #0xb, lsl #12
     e54:	7100045f 	cmp	w2, #0x1
     e58:	1a9f97e2 	cset	w2, hi
/home/ursus/devel/optee/optee_os/lib/libutee/tee_api.c:280
     e5c:	6a02003f 	tst	w1, w2
     e60:	54000240 	b.eq	ea8 <TEE_GetTAPersistentTime+0x98>
/home/ursus/devel/optee/optee_os/lib/libutee/tee_api.c:283
     e64:	129ffe61 	mov	w1, #0xffff000c            	// #-65524
     e68:	6b01027f 	cmp	w19, w1
     e6c:	1a9f07e1 	cset	w1, ne
     e70:	6a01001f 	tst	w0, w1
     e74:	540001a0 	b.eq	ea8 <TEE_GetTAPersistentTime+0x98>
/home/ursus/devel/optee/optee_os/lib/libutee/tee_api.c:285
     e78:	2a1303e5 	mov	w5, w19
     e7c:	d0000064 	adrp	x4, e000 <__func__.3633+0x30>
     e80:	91112884 	add	x4, x4, #0x44a
     e84:	52800023 	mov	w3, #0x1                   	// #1
     e88:	52800022 	mov	w2, #0x1                   	// #1
     e8c:	528023a1 	mov	w1, #0x11d                 	// #285
     e90:	90000060 	adrp	x0, c000 <mpa_set_str+0x4>
     e94:	9125c000 	add	x0, x0, #0x970
     e98:	91022000 	add	x0, x0, #0x88
     e9c:	94001ed5 	bl	89f0 <trace_printf>
     ea0:	2a1303e0 	mov	w0, w19
     ea4:	940011c8 	bl	55c4 <__TEE_Panic>
/home/ursus/devel/optee/optee_os/lib/libutee/tee_api.c:288
     ea8:	2a1303e0 	mov	w0, w19
     eac:	a94153f3 	ldp	x19, x20, [sp,#16]
     eb0:	a8c27bfd 	ldp	x29, x30, [sp],#32
     eb4:	d65f03c0 	ret

0000000000000eb8 <TEE_SetTAPersistentTime>:
TEE_SetTAPersistentTime():
/home/ursus/devel/optee/optee_os/lib/libutee/tee_api.c:291
     eb8:	a9be7bfd 	stp	x29, x30, [sp,#-32]!
     ebc:	910003fd 	mov	x29, sp
     ec0:	f9000bf3 	str	x19, [sp,#16]
/home/ursus/devel/optee/optee_os/lib/libutee/tee_api.c:294
     ec4:	940012ab 	bl	5970 <utee_set_ta_time>
     ec8:	2a0003f3 	mov	w19, w0
/home/ursus/devel/optee/optee_os/lib/libutee/tee_api.c:297
     ecc:	7100001f 	cmp	w0, #0x0
     ed0:	129ffe60 	mov	w0, #0xffff000c            	// #-65524
     ed4:	7a401264 	ccmp	w19, w0, #0x4, ne
     ed8:	1299f7c0 	mov	w0, #0xffff3041            	// #-53183
     edc:	7a401264 	ccmp	w19, w0, #0x4, ne
     ee0:	540001a0 	b.eq	f14 <TEE_SetTAPersistentTime+0x5c>
/home/ursus/devel/optee/optee_os/lib/libutee/tee_api.c:299
     ee4:	2a1303e5 	mov	w5, w19
     ee8:	d0000064 	adrp	x4, e000 <__func__.3633+0x30>
     eec:	91112884 	add	x4, x4, #0x44a
     ef0:	52800023 	mov	w3, #0x1                   	// #1
     ef4:	52800022 	mov	w2, #0x1                   	// #1
     ef8:	52802561 	mov	w1, #0x12b                 	// #299
     efc:	90000060 	adrp	x0, c000 <mpa_set_str+0x4>
     f00:	9125c000 	add	x0, x0, #0x970
     f04:	91028000 	add	x0, x0, #0xa0
     f08:	94001eba 	bl	89f0 <trace_printf>
     f0c:	2a1303e0 	mov	w0, w19
     f10:	940011ad 	bl	55c4 <__TEE_Panic>
/home/ursus/devel/optee/optee_os/lib/libutee/tee_api.c:302
     f14:	2a1303e0 	mov	w0, w19
     f18:	f9400bf3 	ldr	x19, [sp,#16]
     f1c:	a8c27bfd 	ldp	x29, x30, [sp],#32
     f20:	d65f03c0 	ret

0000000000000f24 <TEE_GetREETime>:
TEE_GetREETime():
/home/ursus/devel/optee/optee_os/lib/libutee/tee_api.c:305
     f24:	a9be7bfd 	stp	x29, x30, [sp,#-32]!
/home/ursus/devel/optee/optee_os/lib/libutee/tee_api.c:306
     f28:	aa0003e1 	mov	x1, x0
     f2c:	d2800040 	mov	x0, #0x2                   	// #2
/home/ursus/devel/optee/optee_os/lib/libutee/tee_api.c:305
     f30:	910003fd 	mov	x29, sp
     f34:	f9000bf3 	str	x19, [sp,#16]
/home/ursus/devel/optee/optee_os/lib/libutee/tee_api.c:306
     f38:	9400128b 	bl	5964 <utee_get_time>
/home/ursus/devel/optee/optee_os/lib/libutee/tee_api.c:308
     f3c:	34000200 	cbz	w0, f7c <TEE_GetREETime+0x58>
     f40:	2a0003f3 	mov	w19, w0
/home/ursus/devel/optee/optee_os/lib/libutee/tee_api.c:309
     f44:	2a0003e5 	mov	w5, w0
     f48:	90000060 	adrp	x0, c000 <mpa_set_str+0x4>
     f4c:	9125c000 	add	x0, x0, #0x970
     f50:	52800023 	mov	w3, #0x1                   	// #1
     f54:	52800022 	mov	w2, #0x1                   	// #1
     f58:	528026a1 	mov	w1, #0x135                 	// #309
     f5c:	9102e000 	add	x0, x0, #0xb8
     f60:	d0000064 	adrp	x4, e000 <__func__.3633+0x30>
     f64:	91112884 	add	x4, x4, #0x44a
     f68:	94001ea2 	bl	89f0 <trace_printf>
     f6c:	2a1303e0 	mov	w0, w19
/home/ursus/devel/optee/optee_os/lib/libutee/tee_api.c:310
     f70:	f9400bf3 	ldr	x19, [sp,#16]
     f74:	a8c27bfd 	ldp	x29, x30, [sp],#32
/home/ursus/devel/optee/optee_os/lib/libutee/tee_api.c:309
     f78:	14001193 	b	55c4 <__TEE_Panic>
/home/ursus/devel/optee/optee_os/lib/libutee/tee_api.c:310
     f7c:	f9400bf3 	ldr	x19, [sp,#16]
     f80:	a8c27bfd 	ldp	x29, x30, [sp],#32
     f84:	d65f03c0 	ret

0000000000000f88 <TEE_Malloc>:
TEE_Malloc():
/home/ursus/devel/optee/optee_os/lib/libutee/tee_api.c:314
     f88:	2a0003e0 	mov	w0, w0
     f8c:	14001385 	b	5da0 <tee_user_mem_alloc>

0000000000000f90 <TEE_Realloc>:
TEE_Realloc():
/home/ursus/devel/optee/optee_os/lib/libutee/tee_api.c:323
     f90:	2a0103e1 	mov	w1, w1
     f94:	1400142f 	b	6050 <tee_user_mem_realloc>

0000000000000f98 <TEE_Free>:
TEE_Free():
/home/ursus/devel/optee/optee_os/lib/libutee/tee_api.c:328
     f98:	140013d5 	b	5eec <tee_user_mem_free>

0000000000000f9c <TEE_CacheClean>:
TEE_CacheClean():
/home/ursus/devel/optee/optee_os/lib/libutee/tee_api.c:334
     f9c:	d2800002 	mov	x2, #0x0                   	// #0
     fa0:	1400131c 	b	5c10 <utee_cache_operation>

0000000000000fa4 <TEE_CacheFlush>:
TEE_CacheFlush():
/home/ursus/devel/optee/optee_os/lib/libutee/tee_api.c:338
     fa4:	d2800022 	mov	x2, #0x1                   	// #1
     fa8:	1400131a 	b	5c10 <utee_cache_operation>

0000000000000fac <TEE_CacheInvalidate>:
TEE_CacheInvalidate():
/home/ursus/devel/optee/optee_os/lib/libutee/tee_api.c:343
     fac:	d2800042 	mov	x2, #0x2                   	// #2
     fb0:	14001318 	b	5c10 <utee_cache_operation>

0000000000000fb4 <__utee_from_attr>:
__utee_from_attr():
/home/ursus/devel/optee/optee_os/lib/libutee/tee_api_objects.c:41
     fb4:	52800303 	mov	w3, #0x18                  	// #24
     fb8:	9ba30442 	umaddl	x2, w2, w3, x1
/home/ursus/devel/optee/optee_os/lib/libutee/tee_api_objects.c:44 (discriminator 1)
     fbc:	eb02003f 	cmp	x1, x2
     fc0:	54000041 	b.ne	fc8 <__utee_from_attr+0x14>
/home/ursus/devel/optee/optee_os/lib/libutee/tee_api_objects.c:54
     fc4:	d65f03c0 	ret
/home/ursus/devel/optee/optee_os/lib/libutee/tee_api_objects.c:45
     fc8:	b9400023 	ldr	w3, [x1]
     fcc:	b9001003 	str	w3, [x0,#16]
/home/ursus/devel/optee/optee_os/lib/libutee/tee_api_objects.c:46
     fd0:	36e80103 	tbz	w3, #29, ff0 <__utee_from_attr+0x3c>
/home/ursus/devel/optee/optee_os/lib/libutee/tee_api_objects.c:47
     fd4:	b9400823 	ldr	w3, [x1,#8]
     fd8:	f9000003 	str	x3, [x0]
/home/ursus/devel/optee/optee_os/lib/libutee/tee_api_objects.c:48
     fdc:	b9400c23 	ldr	w3, [x1,#12]
/home/ursus/devel/optee/optee_os/lib/libutee/tee_api_objects.c:51
     fe0:	f9000403 	str	x3, [x0,#8]
     fe4:	91006021 	add	x1, x1, #0x18
     fe8:	91006000 	add	x0, x0, #0x18
     fec:	17fffff4 	b	fbc <__utee_from_attr+0x8>
/home/ursus/devel/optee/optee_os/lib/libutee/tee_api_objects.c:50
     ff0:	f9400423 	ldr	x3, [x1,#8]
     ff4:	f9000003 	str	x3, [x0]
/home/ursus/devel/optee/optee_os/lib/libutee/tee_api_objects.c:51
     ff8:	b9401023 	ldr	w3, [x1,#16]
     ffc:	17fffff9 	b	fe0 <__utee_from_attr+0x2c>

0000000000001000 <TEE_GetObjectInfo>:
TEE_GetObjectInfo():
/home/ursus/devel/optee/optee_os/lib/libutee/tee_api_objects.c:64
    1000:	a9be7bfd 	stp	x29, x30, [sp,#-32]!
    1004:	910003fd 	mov	x29, sp
    1008:	a90153f3 	stp	x19, x20, [sp,#16]
    100c:	aa0103f3 	mov	x19, x1
/home/ursus/devel/optee/optee_os/lib/libutee/tee_api_objects.c:67
    1010:	94001276 	bl	59e8 <utee_cryp_obj_get_info>
/home/ursus/devel/optee/optee_os/lib/libutee/tee_api_objects.c:69
    1014:	340001a0 	cbz	w0, 1048 <TEE_GetObjectInfo+0x48>
/home/ursus/devel/optee/optee_os/lib/libutee/tee_api_objects.c:70
    1018:	2a0003e5 	mov	w5, w0
    101c:	b0000064 	adrp	x4, e000 <__func__.3633+0x30>
    1020:	91112884 	add	x4, x4, #0x44a
    1024:	52800023 	mov	w3, #0x1                   	// #1
    1028:	52800022 	mov	w2, #0x1                   	// #1
    102c:	528008c1 	mov	w1, #0x46                  	// #70
    1030:	2a0003f4 	mov	w20, w0
    1034:	f0000040 	adrp	x0, c000 <mpa_set_str+0x4>
    1038:	9128e000 	add	x0, x0, #0xa38
    103c:	94001e6d 	bl	89f0 <trace_printf>
    1040:	2a1403e0 	mov	w0, w20
    1044:	94001160 	bl	55c4 <__TEE_Panic>
/home/ursus/devel/optee/optee_os/lib/libutee/tee_api_objects.c:72
    1048:	b9400261 	ldr	w1, [x19]
    104c:	528017c0 	mov	w0, #0xbe                  	// #190
    1050:	72b40000 	movk	w0, #0xa000, lsl #16
    1054:	6b00003f 	cmp	w1, w0
    1058:	54000081 	b.ne	1068 <TEE_GetObjectInfo+0x68>
/home/ursus/devel/optee/optee_os/lib/libutee/tee_api_objects.c:74
    105c:	2900fe7f 	stp	wzr, wzr, [x19,#4]
/home/ursus/devel/optee/optee_os/lib/libutee/tee_api_objects.c:76
    1060:	2901fe7f 	stp	wzr, wzr, [x19,#12]
/home/ursus/devel/optee/optee_os/lib/libutee/tee_api_objects.c:78
    1064:	2902fe7f 	stp	wzr, wzr, [x19,#20]
/home/ursus/devel/optee/optee_os/lib/libutee/tee_api_objects.c:80
    1068:	a94153f3 	ldp	x19, x20, [sp,#16]
    106c:	a8c27bfd 	ldp	x29, x30, [sp],#32
    1070:	d65f03c0 	ret

0000000000001074 <TEE_GetObjectInfo1>:
TEE_GetObjectInfo1():
/home/ursus/devel/optee/optee_os/lib/libutee/tee_api_objects.c:83
    1074:	a9be7bfd 	stp	x29, x30, [sp,#-32]!
    1078:	910003fd 	mov	x29, sp
    107c:	f9000bf3 	str	x19, [sp,#16]
/home/ursus/devel/optee/optee_os/lib/libutee/tee_api_objects.c:86
    1080:	9400125a 	bl	59e8 <utee_cryp_obj_get_info>
/home/ursus/devel/optee/optee_os/lib/libutee/tee_api_objects.c:89
    1084:	121e7801 	and	w1, w0, #0xfffffffd
    1088:	7100001f 	cmp	w0, #0x0
/home/ursus/devel/optee/optee_os/lib/libutee/tee_api_objects.c:86
    108c:	2a0003f3 	mov	w19, w0
/home/ursus/devel/optee/optee_os/lib/libutee/tee_api_objects.c:89
    1090:	52800020 	mov	w0, #0x1                   	// #1
    1094:	72be0200 	movk	w0, #0xf010, lsl #16
    1098:	7a401024 	ccmp	w1, w0, #0x4, ne
    109c:	540001a0 	b.eq	10d0 <TEE_GetObjectInfo1+0x5c>
/home/ursus/devel/optee/optee_os/lib/libutee/tee_api_objects.c:91
    10a0:	2a1303e5 	mov	w5, w19
    10a4:	b0000064 	adrp	x4, e000 <__func__.3633+0x30>
    10a8:	91112884 	add	x4, x4, #0x44a
    10ac:	52800023 	mov	w3, #0x1                   	// #1
    10b0:	52800022 	mov	w2, #0x1                   	// #1
    10b4:	52800b61 	mov	w1, #0x5b                  	// #91
    10b8:	f0000040 	adrp	x0, c000 <mpa_set_str+0x4>
    10bc:	9128e000 	add	x0, x0, #0xa38
    10c0:	91006000 	add	x0, x0, #0x18
    10c4:	94001e4b 	bl	89f0 <trace_printf>
    10c8:	2a1303e0 	mov	w0, w19
    10cc:	9400113e 	bl	55c4 <__TEE_Panic>
/home/ursus/devel/optee/optee_os/lib/libutee/tee_api_objects.c:94
    10d0:	2a1303e0 	mov	w0, w19
    10d4:	f9400bf3 	ldr	x19, [sp,#16]
    10d8:	a8c27bfd 	ldp	x29, x30, [sp],#32
    10dc:	d65f03c0 	ret

00000000000010e0 <TEE_RestrictObjectUsage1>:
TEE_RestrictObjectUsage1():
/home/ursus/devel/optee/optee_os/lib/libutee/tee_api_objects.c:118
    10e0:	a9be7bfd 	stp	x29, x30, [sp,#-32]!
/home/ursus/devel/optee/optee_os/lib/libutee/tee_api_objects.c:121
    10e4:	2a0103e1 	mov	w1, w1
/home/ursus/devel/optee/optee_os/lib/libutee/tee_api_objects.c:118
    10e8:	910003fd 	mov	x29, sp
    10ec:	f9000bf3 	str	x19, [sp,#16]
/home/ursus/devel/optee/optee_os/lib/libutee/tee_api_objects.c:121
    10f0:	94001241 	bl	59f4 <utee_cryp_obj_restrict_usage>
/home/ursus/devel/optee/optee_os/lib/libutee/tee_api_objects.c:124
    10f4:	121e7801 	and	w1, w0, #0xfffffffd
    10f8:	7100001f 	cmp	w0, #0x0
/home/ursus/devel/optee/optee_os/lib/libutee/tee_api_objects.c:121
    10fc:	2a0003f3 	mov	w19, w0
/home/ursus/devel/optee/optee_os/lib/libutee/tee_api_objects.c:124
    1100:	52800020 	mov	w0, #0x1                   	// #1
    1104:	72be0200 	movk	w0, #0xf010, lsl #16
    1108:	7a401024 	ccmp	w1, w0, #0x4, ne
    110c:	540001a0 	b.eq	1140 <TEE_RestrictObjectUsage1+0x60>
/home/ursus/devel/optee/optee_os/lib/libutee/tee_api_objects.c:126
    1110:	2a1303e5 	mov	w5, w19
    1114:	b0000064 	adrp	x4, e000 <__func__.3633+0x30>
    1118:	91112884 	add	x4, x4, #0x44a
    111c:	52800023 	mov	w3, #0x1                   	// #1
    1120:	52800022 	mov	w2, #0x1                   	// #1
    1124:	52800fc1 	mov	w1, #0x7e                  	// #126
    1128:	f0000040 	adrp	x0, c000 <mpa_set_str+0x4>
    112c:	9128e000 	add	x0, x0, #0xa38
    1130:	9100c000 	add	x0, x0, #0x30
    1134:	94001e2f 	bl	89f0 <trace_printf>
    1138:	2a1303e0 	mov	w0, w19
    113c:	94001122 	bl	55c4 <__TEE_Panic>
/home/ursus/devel/optee/optee_os/lib/libutee/tee_api_objects.c:129
    1140:	2a1303e0 	mov	w0, w19
    1144:	f9400bf3 	ldr	x19, [sp,#16]
    1148:	a8c27bfd 	ldp	x29, x30, [sp],#32
    114c:	d65f03c0 	ret

0000000000001150 <TEE_RestrictObjectUsage>:
TEE_RestrictObjectUsage():
/home/ursus/devel/optee/optee_os/lib/libutee/tee_api_objects.c:103
    1150:	a9bc7bfd 	stp	x29, x30, [sp,#-64]!
    1154:	910003fd 	mov	x29, sp
    1158:	a90153f3 	stp	x19, x20, [sp,#16]
    115c:	aa0003f3 	mov	x19, x0
    1160:	2a0103f4 	mov	w20, w1
/home/ursus/devel/optee/optee_os/lib/libutee/tee_api_objects.c:107
    1164:	910083a1 	add	x1, x29, #0x20
    1168:	94001220 	bl	59e8 <utee_cryp_obj_get_info>
/home/ursus/devel/optee/optee_os/lib/libutee/tee_api_objects.c:108
    116c:	b94023a1 	ldr	w1, [x29,#32]
    1170:	528017c0 	mov	w0, #0xbe                  	// #190
    1174:	72b40000 	movk	w0, #0xa000, lsl #16
    1178:	6b00003f 	cmp	w1, w0
    117c:	54000240 	b.eq	11c4 <TEE_RestrictObjectUsage+0x74>
/home/ursus/devel/optee/optee_os/lib/libutee/tee_api_objects.c:111
    1180:	aa1303e0 	mov	x0, x19
    1184:	2a1403e1 	mov	w1, w20
    1188:	97ffffd6 	bl	10e0 <TEE_RestrictObjectUsage1>
    118c:	2a0003f3 	mov	w19, w0
/home/ursus/devel/optee/optee_os/lib/libutee/tee_api_objects.c:113
    1190:	340001a0 	cbz	w0, 11c4 <TEE_RestrictObjectUsage+0x74>
/home/ursus/devel/optee/optee_os/lib/libutee/tee_api_objects.c:114
    1194:	2a0003e5 	mov	w5, w0
    1198:	b0000064 	adrp	x4, e000 <__func__.3633+0x30>
    119c:	91112884 	add	x4, x4, #0x44a
    11a0:	52800023 	mov	w3, #0x1                   	// #1
    11a4:	52800022 	mov	w2, #0x1                   	// #1
    11a8:	52800e41 	mov	w1, #0x72                  	// #114
    11ac:	f0000040 	adrp	x0, c000 <mpa_set_str+0x4>
    11b0:	9128e000 	add	x0, x0, #0xa38
    11b4:	91014000 	add	x0, x0, #0x50
    11b8:	94001e0e 	bl	89f0 <trace_printf>
    11bc:	2a1303e0 	mov	w0, w19
    11c0:	94001101 	bl	55c4 <__TEE_Panic>
/home/ursus/devel/optee/optee_os/lib/libutee/tee_api_objects.c:115
    11c4:	a94153f3 	ldp	x19, x20, [sp,#16]
    11c8:	a8c47bfd 	ldp	x29, x30, [sp],#64
    11cc:	d65f03c0 	ret

00000000000011d0 <TEE_GetObjectBufferAttribute>:
TEE_GetObjectBufferAttribute():
/home/ursus/devel/optee/optee_os/lib/libutee/tee_api_objects.c:134
    11d0:	a9b97bfd 	stp	x29, x30, [sp,#-112]!
    11d4:	910003fd 	mov	x29, sp
    11d8:	a90153f3 	stp	x19, x20, [sp,#16]
    11dc:	aa0303f4 	mov	x20, x3
    11e0:	a9025bf5 	stp	x21, x22, [sp,#32]
    11e4:	aa0003f6 	mov	x22, x0
    11e8:	f9001bf7 	str	x23, [sp,#48]
    11ec:	2a0103f5 	mov	w21, w1
    11f0:	aa0203f7 	mov	x23, x2
/home/ursus/devel/optee/optee_os/lib/libutee/tee_api_objects.c:139
    11f4:	910143a1 	add	x1, x29, #0x50
    11f8:	940011fc 	bl	59e8 <utee_cryp_obj_get_info>
    11fc:	2a0003f3 	mov	w19, w0
/home/ursus/devel/optee/optee_os/lib/libutee/tee_api_objects.c:140
    1200:	350001a0 	cbnz	w0, 1234 <TEE_GetObjectBufferAttribute+0x64>
/home/ursus/devel/optee/optee_os/lib/libutee/tee_api_objects.c:145
    1204:	129fff33 	mov	w19, #0xffff0006            	// #-65530
/home/ursus/devel/optee/optee_os/lib/libutee/tee_api_objects.c:144
    1208:	37e80175 	tbnz	w21, #29, 1234 <TEE_GetObjectBufferAttribute+0x64>
/home/ursus/devel/optee/optee_os/lib/libutee/tee_api_objects.c:149
    120c:	9101c3a3 	add	x3, x29, #0x70
    1210:	b9400280 	ldr	w0, [x20]
/home/ursus/devel/optee/optee_os/lib/libutee/tee_api_objects.c:150
    1214:	aa1703e2 	mov	x2, x23
    1218:	2a1503e1 	mov	w1, w21
/home/ursus/devel/optee/optee_os/lib/libutee/tee_api_objects.c:149
    121c:	f81d8c60 	str	x0, [x3,#-40]!
/home/ursus/devel/optee/optee_os/lib/libutee/tee_api_objects.c:150
    1220:	aa1603e0 	mov	x0, x22
    1224:	940011f7 	bl	5a00 <utee_cryp_obj_get_attr>
    1228:	2a0003f3 	mov	w19, w0
/home/ursus/devel/optee/optee_os/lib/libutee/tee_api_objects.c:152
    122c:	f94027a0 	ldr	x0, [x29,#72]
    1230:	b9000280 	str	w0, [x20]
/home/ursus/devel/optee/optee_os/lib/libutee/tee_api_objects.c:156
    1234:	529fff00 	mov	w0, #0xfff8                	// #65528
    1238:	0b000260 	add	w0, w19, w0
/home/ursus/devel/optee/optee_os/lib/libutee/tee_api_objects.c:155
    123c:	721c781f 	tst	w0, #0xfffffff7
    1240:	7a401a64 	ccmp	w19, #0x0, #0x4, ne
    1244:	54000240 	b.eq	128c <TEE_GetObjectBufferAttribute+0xbc>
/home/ursus/devel/optee/optee_os/lib/libutee/tee_api_objects.c:158
    1248:	121e7a61 	and	w1, w19, #0xfffffffd
    124c:	52800020 	mov	w0, #0x1                   	// #1
    1250:	72be0200 	movk	w0, #0xf010, lsl #16
    1254:	6b00003f 	cmp	w1, w0
    1258:	540001a0 	b.eq	128c <TEE_GetObjectBufferAttribute+0xbc>
/home/ursus/devel/optee/optee_os/lib/libutee/tee_api_objects.c:160
    125c:	2a1303e5 	mov	w5, w19
    1260:	b0000064 	adrp	x4, e000 <__func__.3633+0x30>
    1264:	91112884 	add	x4, x4, #0x44a
    1268:	52800023 	mov	w3, #0x1                   	// #1
    126c:	52800022 	mov	w2, #0x1                   	// #1
    1270:	52801401 	mov	w1, #0xa0                  	// #160
    1274:	f0000040 	adrp	x0, c000 <mpa_set_str+0x4>
    1278:	9128e000 	add	x0, x0, #0xa38
    127c:	9101a000 	add	x0, x0, #0x68
    1280:	94001ddc 	bl	89f0 <trace_printf>
    1284:	2a1303e0 	mov	w0, w19
    1288:	940010cf 	bl	55c4 <__TEE_Panic>
/home/ursus/devel/optee/optee_os/lib/libutee/tee_api_objects.c:163
    128c:	2a1303e0 	mov	w0, w19
    1290:	f9401bf7 	ldr	x23, [sp,#48]
    1294:	a94153f3 	ldp	x19, x20, [sp,#16]
    1298:	a9425bf5 	ldp	x21, x22, [sp,#32]
    129c:	a8c77bfd 	ldp	x29, x30, [sp],#112
    12a0:	d65f03c0 	ret

00000000000012a4 <TEE_GetObjectValueAttribute>:
TEE_GetObjectValueAttribute():
/home/ursus/devel/optee/optee_os/lib/libutee/tee_api_objects.c:168
    12a4:	a9b97bfd 	stp	x29, x30, [sp,#-112]!
    12a8:	910003fd 	mov	x29, sp
    12ac:	a9025bf5 	stp	x21, x22, [sp,#32]
    12b0:	2a0103f6 	mov	w22, w1
/home/ursus/devel/optee/optee_os/lib/libutee/tee_api_objects.c:172
    12b4:	d2800101 	mov	x1, #0x8                   	// #8
/home/ursus/devel/optee/optee_os/lib/libutee/tee_api_objects.c:168
    12b8:	a90153f3 	stp	x19, x20, [sp,#16]
/home/ursus/devel/optee/optee_os/lib/libutee/tee_api_objects.c:172
    12bc:	f90027a1 	str	x1, [x29,#72]
/home/ursus/devel/optee/optee_os/lib/libutee/tee_api_objects.c:168
    12c0:	aa0203f5 	mov	x21, x2
    12c4:	f9001bf7 	str	x23, [sp,#48]
    12c8:	aa0303f4 	mov	x20, x3
/home/ursus/devel/optee/optee_os/lib/libutee/tee_api_objects.c:174
    12cc:	910143a1 	add	x1, x29, #0x50
/home/ursus/devel/optee/optee_os/lib/libutee/tee_api_objects.c:168
    12d0:	aa0003f7 	mov	x23, x0
/home/ursus/devel/optee/optee_os/lib/libutee/tee_api_objects.c:174
    12d4:	940011c5 	bl	59e8 <utee_cryp_obj_get_info>
    12d8:	2a0003f3 	mov	w19, w0
/home/ursus/devel/optee/optee_os/lib/libutee/tee_api_objects.c:175
    12dc:	35000120 	cbnz	w0, 1300 <TEE_GetObjectValueAttribute+0x5c>
/home/ursus/devel/optee/optee_os/lib/libutee/tee_api_objects.c:180
    12e0:	129fff33 	mov	w19, #0xffff0006            	// #-65530
/home/ursus/devel/optee/optee_os/lib/libutee/tee_api_objects.c:179
    12e4:	36e800f6 	tbz	w22, #29, 1300 <TEE_GetObjectValueAttribute+0x5c>
/home/ursus/devel/optee/optee_os/lib/libutee/tee_api_objects.c:184
    12e8:	910123a3 	add	x3, x29, #0x48
    12ec:	910103a2 	add	x2, x29, #0x40
    12f0:	2a1603e1 	mov	w1, w22
    12f4:	aa1703e0 	mov	x0, x23
    12f8:	940011c2 	bl	5a00 <utee_cryp_obj_get_attr>
    12fc:	2a0003f3 	mov	w19, w0
/home/ursus/devel/optee/optee_os/lib/libutee/tee_api_objects.c:188
    1300:	7100027f 	cmp	w19, #0x0
    1304:	129ffee0 	mov	w0, #0xffff0008            	// #-65528
    1308:	7a401264 	ccmp	w19, w0, #0x4, ne
    130c:	54000240 	b.eq	1354 <TEE_GetObjectValueAttribute+0xb0>
/home/ursus/devel/optee/optee_os/lib/libutee/tee_api_objects.c:190
    1310:	121e7a61 	and	w1, w19, #0xfffffffd
    1314:	52800020 	mov	w0, #0x1                   	// #1
    1318:	72be0200 	movk	w0, #0xf010, lsl #16
    131c:	6b00003f 	cmp	w1, w0
    1320:	540001a0 	b.eq	1354 <TEE_GetObjectValueAttribute+0xb0>
/home/ursus/devel/optee/optee_os/lib/libutee/tee_api_objects.c:192
    1324:	2a1303e5 	mov	w5, w19
    1328:	b0000064 	adrp	x4, e000 <__func__.3633+0x30>
    132c:	91112884 	add	x4, x4, #0x44a
    1330:	52800023 	mov	w3, #0x1                   	// #1
    1334:	52800022 	mov	w2, #0x1                   	// #1
    1338:	52801801 	mov	w1, #0xc0                  	// #192
    133c:	f0000040 	adrp	x0, c000 <mpa_set_str+0x4>
    1340:	9128e000 	add	x0, x0, #0xa38
    1344:	91022000 	add	x0, x0, #0x88
    1348:	94001daa 	bl	89f0 <trace_printf>
    134c:	2a1303e0 	mov	w0, w19
    1350:	9400109d 	bl	55c4 <__TEE_Panic>
/home/ursus/devel/optee/optee_os/lib/libutee/tee_api_objects.c:194
    1354:	f94027a0 	ldr	x0, [x29,#72]
    1358:	f100201f 	cmp	x0, #0x8
    135c:	540001a0 	b.eq	1390 <TEE_GetObjectValueAttribute+0xec>
/home/ursus/devel/optee/optee_os/lib/libutee/tee_api_objects.c:195
    1360:	b0000064 	adrp	x4, e000 <__func__.3633+0x30>
    1364:	91112884 	add	x4, x4, #0x44a
    1368:	52800005 	mov	w5, #0x0                   	// #0
    136c:	52800023 	mov	w3, #0x1                   	// #1
    1370:	52800022 	mov	w2, #0x1                   	// #1
    1374:	52801861 	mov	w1, #0xc3                  	// #195
    1378:	f0000040 	adrp	x0, c000 <mpa_set_str+0x4>
    137c:	9128e000 	add	x0, x0, #0xa38
    1380:	91022000 	add	x0, x0, #0x88
    1384:	94001d9b 	bl	89f0 <trace_printf>
    1388:	52800000 	mov	w0, #0x0                   	// #0
    138c:	9400108e 	bl	55c4 <__TEE_Panic>
/home/ursus/devel/optee/optee_os/lib/libutee/tee_api_objects.c:197
    1390:	350000f3 	cbnz	w19, 13ac <TEE_GetObjectValueAttribute+0x108>
/home/ursus/devel/optee/optee_os/lib/libutee/tee_api_objects.c:198
    1394:	b4000075 	cbz	x21, 13a0 <TEE_GetObjectValueAttribute+0xfc>
/home/ursus/devel/optee/optee_os/lib/libutee/tee_api_objects.c:199
    1398:	b94043a0 	ldr	w0, [x29,#64]
    139c:	b90002a0 	str	w0, [x21]
/home/ursus/devel/optee/optee_os/lib/libutee/tee_api_objects.c:200
    13a0:	b4000074 	cbz	x20, 13ac <TEE_GetObjectValueAttribute+0x108>
/home/ursus/devel/optee/optee_os/lib/libutee/tee_api_objects.c:201
    13a4:	b94047a0 	ldr	w0, [x29,#68]
    13a8:	b9000280 	str	w0, [x20]
/home/ursus/devel/optee/optee_os/lib/libutee/tee_api_objects.c:205
    13ac:	2a1303e0 	mov	w0, w19
    13b0:	f9401bf7 	ldr	x23, [sp,#48]
    13b4:	a94153f3 	ldp	x19, x20, [sp,#16]
    13b8:	a9425bf5 	ldp	x21, x22, [sp,#32]
    13bc:	a8c77bfd 	ldp	x29, x30, [sp],#112
    13c0:	d65f03c0 	ret

00000000000013c4 <TEE_CloseObject>:
TEE_CloseObject():
/home/ursus/devel/optee/optee_os/lib/libutee/tee_api_objects.c:211
    13c4:	b4000300 	cbz	x0, 1424 <TEE_CloseObject+0x60>
/home/ursus/devel/optee/optee_os/lib/libutee/tee_api_objects.c:208
    13c8:	a9be7bfd 	stp	x29, x30, [sp,#-32]!
    13cc:	910003fd 	mov	x29, sp
    13d0:	f9000bf3 	str	x19, [sp,#16]
/home/ursus/devel/optee/optee_os/lib/libutee/tee_api_objects.c:214
    13d4:	94001191 	bl	5a18 <utee_cryp_obj_close>
    13d8:	2a0003f3 	mov	w19, w0
/home/ursus/devel/optee/optee_os/lib/libutee/tee_api_objects.c:215
    13dc:	340001e0 	cbz	w0, 1418 <TEE_CloseObject+0x54>
/home/ursus/devel/optee/optee_os/lib/libutee/tee_api_objects.c:216
    13e0:	2a0003e5 	mov	w5, w0
    13e4:	f0000040 	adrp	x0, c000 <mpa_set_str+0x4>
    13e8:	9128e000 	add	x0, x0, #0xa38
    13ec:	52800023 	mov	w3, #0x1                   	// #1
    13f0:	52800022 	mov	w2, #0x1                   	// #1
    13f4:	52801b01 	mov	w1, #0xd8                  	// #216
    13f8:	9102a000 	add	x0, x0, #0xa8
    13fc:	b0000064 	adrp	x4, e000 <__func__.3633+0x30>
    1400:	91112884 	add	x4, x4, #0x44a
    1404:	94001d7b 	bl	89f0 <trace_printf>
    1408:	2a1303e0 	mov	w0, w19
/home/ursus/devel/optee/optee_os/lib/libutee/tee_api_objects.c:217
    140c:	f9400bf3 	ldr	x19, [sp,#16]
    1410:	a8c27bfd 	ldp	x29, x30, [sp],#32
/home/ursus/devel/optee/optee_os/lib/libutee/tee_api_objects.c:216
    1414:	1400106c 	b	55c4 <__TEE_Panic>
/home/ursus/devel/optee/optee_os/lib/libutee/tee_api_objects.c:217
    1418:	f9400bf3 	ldr	x19, [sp,#16]
    141c:	a8c27bfd 	ldp	x29, x30, [sp],#32
    1420:	d65f03c0 	ret
    1424:	d65f03c0 	ret

0000000000001428 <TEE_AllocateTransientObject>:
TEE_AllocateTransientObject():
/home/ursus/devel/optee/optee_os/lib/libutee/tee_api_objects.c:224
    1428:	a9bd7bfd 	stp	x29, x30, [sp,#-48]!
/home/ursus/devel/optee/optee_os/lib/libutee/tee_api_objects.c:228
    142c:	2a0103e1 	mov	w1, w1
    1430:	2a0003e0 	mov	w0, w0
/home/ursus/devel/optee/optee_os/lib/libutee/tee_api_objects.c:224
    1434:	910003fd 	mov	x29, sp
    1438:	a90153f3 	stp	x19, x20, [sp,#16]
    143c:	aa0203f4 	mov	x20, x2
/home/ursus/devel/optee/optee_os/lib/libutee/tee_api_objects.c:228
    1440:	9100b3a2 	add	x2, x29, #0x2c
    1444:	94001172 	bl	5a0c <utee_cryp_obj_alloc>
    1448:	2a0003f3 	mov	w19, w0
/home/ursus/devel/optee/optee_os/lib/libutee/tee_api_objects.c:230
    144c:	7100001f 	cmp	w0, #0x0
    1450:	129ffe60 	mov	w0, #0xffff000c            	// #-65524
    1454:	7a401264 	ccmp	w19, w0, #0x4, ne
    1458:	54000280 	b.eq	14a8 <TEE_AllocateTransientObject+0x80>
/home/ursus/devel/optee/optee_os/lib/libutee/tee_api_objects.c:231
    145c:	129ffea0 	mov	w0, #0xffff000a            	// #-65526
    1460:	6b00027f 	cmp	w19, w0
    1464:	540001a0 	b.eq	1498 <TEE_AllocateTransientObject+0x70>
/home/ursus/devel/optee/optee_os/lib/libutee/tee_api_objects.c:233
    1468:	2a1303e5 	mov	w5, w19
    146c:	b0000064 	adrp	x4, e000 <__func__.3633+0x30>
    1470:	91112884 	add	x4, x4, #0x44a
    1474:	52800023 	mov	w3, #0x1                   	// #1
    1478:	52800022 	mov	w2, #0x1                   	// #1
    147c:	52801d21 	mov	w1, #0xe9                  	// #233
    1480:	f0000040 	adrp	x0, c000 <mpa_set_str+0x4>
    1484:	9128e000 	add	x0, x0, #0xa38
    1488:	9102e000 	add	x0, x0, #0xb8
    148c:	94001d59 	bl	89f0 <trace_printf>
    1490:	2a1303e0 	mov	w0, w19
    1494:	9400104c 	bl	55c4 <__TEE_Panic>
/home/ursus/devel/optee/optee_os/lib/libutee/tee_api_objects.c:239
    1498:	2a1303e0 	mov	w0, w19
    149c:	a94153f3 	ldp	x19, x20, [sp,#16]
    14a0:	a8c37bfd 	ldp	x29, x30, [sp],#48
    14a4:	d65f03c0 	ret
/home/ursus/devel/optee/optee_os/lib/libutee/tee_api_objects.c:235
    14a8:	35ffff93 	cbnz	w19, 1498 <TEE_AllocateTransientObject+0x70>
/home/ursus/devel/optee/optee_os/lib/libutee/tee_api_objects.c:236
    14ac:	b9402fa0 	ldr	w0, [x29,#44]
    14b0:	f9000280 	str	x0, [x20]
/home/ursus/devel/optee/optee_os/lib/libutee/tee_api_objects.c:238
    14b4:	17fffff9 	b	1498 <TEE_AllocateTransientObject+0x70>

00000000000014b8 <TEE_FreeTransientObject>:
TEE_FreeTransientObject():
/home/ursus/devel/optee/optee_os/lib/libutee/tee_api_objects.c:246
    14b8:	b40006c0 	cbz	x0, 1590 <TEE_FreeTransientObject+0xd8>
/home/ursus/devel/optee/optee_os/lib/libutee/tee_api_objects.c:242
    14bc:	a9bc7bfd 	stp	x29, x30, [sp,#-64]!
    14c0:	910003fd 	mov	x29, sp
    14c4:	a90153f3 	stp	x19, x20, [sp,#16]
/home/ursus/devel/optee/optee_os/lib/libutee/tee_api_objects.c:249
    14c8:	910083a1 	add	x1, x29, #0x20
    14cc:	aa0003f3 	mov	x19, x0
    14d0:	94001146 	bl	59e8 <utee_cryp_obj_get_info>
    14d4:	2a0003f4 	mov	w20, w0
/home/ursus/devel/optee/optee_os/lib/libutee/tee_api_objects.c:250
    14d8:	340001a0 	cbz	w0, 150c <TEE_FreeTransientObject+0x54>
/home/ursus/devel/optee/optee_os/lib/libutee/tee_api_objects.c:251
    14dc:	2a0003e5 	mov	w5, w0
    14e0:	b0000064 	adrp	x4, e000 <__func__.3633+0x30>
    14e4:	91112884 	add	x4, x4, #0x44a
    14e8:	52800023 	mov	w3, #0x1                   	// #1
    14ec:	52800022 	mov	w2, #0x1                   	// #1
    14f0:	52801f61 	mov	w1, #0xfb                  	// #251
    14f4:	f0000040 	adrp	x0, c000 <mpa_set_str+0x4>
    14f8:	9128e000 	add	x0, x0, #0xa38
    14fc:	91036000 	add	x0, x0, #0xd8
    1500:	94001d3c 	bl	89f0 <trace_printf>
    1504:	2a1403e0 	mov	w0, w20
    1508:	9400102f 	bl	55c4 <__TEE_Panic>
/home/ursus/devel/optee/optee_os/lib/libutee/tee_api_objects.c:253
    150c:	b9403ba0 	ldr	w0, [x29,#56]
    1510:	368001a0 	tbz	w0, #16, 1544 <TEE_FreeTransientObject+0x8c>
/home/ursus/devel/optee/optee_os/lib/libutee/tee_api_objects.c:254
    1514:	b0000064 	adrp	x4, e000 <__func__.3633+0x30>
    1518:	91112884 	add	x4, x4, #0x44a
    151c:	52800005 	mov	w5, #0x0                   	// #0
    1520:	52800023 	mov	w3, #0x1                   	// #1
    1524:	52800022 	mov	w2, #0x1                   	// #1
    1528:	52801fc1 	mov	w1, #0xfe                  	// #254
    152c:	f0000040 	adrp	x0, c000 <mpa_set_str+0x4>
    1530:	9128e000 	add	x0, x0, #0xa38
    1534:	91036000 	add	x0, x0, #0xd8
    1538:	94001d2e 	bl	89f0 <trace_printf>
    153c:	52800000 	mov	w0, #0x0                   	// #0
    1540:	94001021 	bl	55c4 <__TEE_Panic>
/home/ursus/devel/optee/optee_os/lib/libutee/tee_api_objects.c:256
    1544:	aa1303e0 	mov	x0, x19
    1548:	94001134 	bl	5a18 <utee_cryp_obj_close>
    154c:	2a0003f3 	mov	w19, w0
/home/ursus/devel/optee/optee_os/lib/libutee/tee_api_objects.c:257
    1550:	340001a0 	cbz	w0, 1584 <TEE_FreeTransientObject+0xcc>
/home/ursus/devel/optee/optee_os/lib/libutee/tee_api_objects.c:258
    1554:	2a0003e5 	mov	w5, w0
    1558:	b0000064 	adrp	x4, e000 <__func__.3633+0x30>
    155c:	91112884 	add	x4, x4, #0x44a
    1560:	52800023 	mov	w3, #0x1                   	// #1
    1564:	52800022 	mov	w2, #0x1                   	// #1
    1568:	52802041 	mov	w1, #0x102                 	// #258
    156c:	f0000040 	adrp	x0, c000 <mpa_set_str+0x4>
    1570:	9128e000 	add	x0, x0, #0xa38
    1574:	91036000 	add	x0, x0, #0xd8
    1578:	94001d1e 	bl	89f0 <trace_printf>
    157c:	2a1303e0 	mov	w0, w19
    1580:	94001011 	bl	55c4 <__TEE_Panic>
/home/ursus/devel/optee/optee_os/lib/libutee/tee_api_objects.c:259
    1584:	a94153f3 	ldp	x19, x20, [sp,#16]
    1588:	a8c47bfd 	ldp	x29, x30, [sp],#64
    158c:	d65f03c0 	ret
    1590:	d65f03c0 	ret

0000000000001594 <TEE_ResetTransientObject>:
TEE_ResetTransientObject():
/home/ursus/devel/optee/optee_os/lib/libutee/tee_api_objects.c:266
    1594:	b40006c0 	cbz	x0, 166c <TEE_ResetTransientObject+0xd8>
/home/ursus/devel/optee/optee_os/lib/libutee/tee_api_objects.c:262
    1598:	a9bc7bfd 	stp	x29, x30, [sp,#-64]!
    159c:	910003fd 	mov	x29, sp
    15a0:	a90153f3 	stp	x19, x20, [sp,#16]
/home/ursus/devel/optee/optee_os/lib/libutee/tee_api_objects.c:269
    15a4:	910083a1 	add	x1, x29, #0x20
    15a8:	aa0003f3 	mov	x19, x0
    15ac:	9400110f 	bl	59e8 <utee_cryp_obj_get_info>
    15b0:	2a0003f4 	mov	w20, w0
/home/ursus/devel/optee/optee_os/lib/libutee/tee_api_objects.c:270
    15b4:	340001a0 	cbz	w0, 15e8 <TEE_ResetTransientObject+0x54>
/home/ursus/devel/optee/optee_os/lib/libutee/tee_api_objects.c:271
    15b8:	2a0003e5 	mov	w5, w0
    15bc:	b0000064 	adrp	x4, e000 <__func__.3633+0x30>
    15c0:	91112884 	add	x4, x4, #0x44a
    15c4:	52800023 	mov	w3, #0x1                   	// #1
    15c8:	52800022 	mov	w2, #0x1                   	// #1
    15cc:	528021e1 	mov	w1, #0x10f                 	// #271
    15d0:	f0000040 	adrp	x0, c000 <mpa_set_str+0x4>
    15d4:	9128e000 	add	x0, x0, #0xa38
    15d8:	9103c000 	add	x0, x0, #0xf0
    15dc:	94001d05 	bl	89f0 <trace_printf>
    15e0:	2a1403e0 	mov	w0, w20
    15e4:	94000ff8 	bl	55c4 <__TEE_Panic>
/home/ursus/devel/optee/optee_os/lib/libutee/tee_api_objects.c:273
    15e8:	b9403ba0 	ldr	w0, [x29,#56]
    15ec:	368001a0 	tbz	w0, #16, 1620 <TEE_ResetTransientObject+0x8c>
/home/ursus/devel/optee/optee_os/lib/libutee/tee_api_objects.c:274
    15f0:	b0000064 	adrp	x4, e000 <__func__.3633+0x30>
    15f4:	91112884 	add	x4, x4, #0x44a
    15f8:	52800005 	mov	w5, #0x0                   	// #0
    15fc:	52800023 	mov	w3, #0x1                   	// #1
    1600:	52800022 	mov	w2, #0x1                   	// #1
    1604:	52802241 	mov	w1, #0x112                 	// #274
    1608:	f0000040 	adrp	x0, c000 <mpa_set_str+0x4>
    160c:	9128e000 	add	x0, x0, #0xa38
    1610:	9103c000 	add	x0, x0, #0xf0
    1614:	94001cf7 	bl	89f0 <trace_printf>
    1618:	52800000 	mov	w0, #0x0                   	// #0
    161c:	94000fea 	bl	55c4 <__TEE_Panic>
/home/ursus/devel/optee/optee_os/lib/libutee/tee_api_objects.c:276
    1620:	aa1303e0 	mov	x0, x19
    1624:	94001100 	bl	5a24 <utee_cryp_obj_reset>
    1628:	2a0003f3 	mov	w19, w0
/home/ursus/devel/optee/optee_os/lib/libutee/tee_api_objects.c:277
    162c:	340001a0 	cbz	w0, 1660 <TEE_ResetTransientObject+0xcc>
/home/ursus/devel/optee/optee_os/lib/libutee/tee_api_objects.c:278
    1630:	2a0003e5 	mov	w5, w0
    1634:	b0000064 	adrp	x4, e000 <__func__.3633+0x30>
    1638:	91112884 	add	x4, x4, #0x44a
    163c:	52800023 	mov	w3, #0x1                   	// #1
    1640:	52800022 	mov	w2, #0x1                   	// #1
    1644:	528022c1 	mov	w1, #0x116                 	// #278
    1648:	f0000040 	adrp	x0, c000 <mpa_set_str+0x4>
    164c:	9128e000 	add	x0, x0, #0xa38
    1650:	9103c000 	add	x0, x0, #0xf0
    1654:	94001ce7 	bl	89f0 <trace_printf>
    1658:	2a1303e0 	mov	w0, w19
    165c:	94000fda 	bl	55c4 <__TEE_Panic>
/home/ursus/devel/optee/optee_os/lib/libutee/tee_api_objects.c:279
    1660:	a94153f3 	ldp	x19, x20, [sp,#16]
    1664:	a8c47bfd 	ldp	x29, x30, [sp],#64
    1668:	d65f03c0 	ret
    166c:	d65f03c0 	ret

0000000000001670 <TEE_PopulateTransientObject>:
TEE_PopulateTransientObject():
/home/ursus/devel/optee/optee_os/lib/libutee/tee_api_objects.c:284
    1670:	a9ba7bfd 	stp	x29, x30, [sp,#-96]!
    1674:	910003fd 	mov	x29, sp
    1678:	a9025bf5 	stp	x21, x22, [sp,#32]
    167c:	2a0203f5 	mov	w21, w2
    1680:	aa0103f6 	mov	x22, x1
/home/ursus/devel/optee/optee_os/lib/libutee/tee_api_objects.c:287
    1684:	52800301 	mov	w1, #0x18                  	// #24
/home/ursus/devel/optee/optee_os/lib/libutee/tee_api_objects.c:284
    1688:	a90153f3 	stp	x19, x20, [sp,#16]
    168c:	aa0003f4 	mov	x20, x0
/home/ursus/devel/optee/optee_os/lib/libutee/tee_api_objects.c:287
    1690:	9ba17ea1 	umull	x1, w21, w1
/home/ursus/devel/optee/optee_os/lib/libutee/tee_api_objects.c:284
    1694:	a90363f7 	stp	x23, x24, [sp,#48]
    1698:	aa1503f3 	mov	x19, x21
/home/ursus/devel/optee/optee_os/lib/libutee/tee_api_objects.c:287
    169c:	91005821 	add	x1, x1, #0x16
    16a0:	927c8421 	and	x1, x1, #0x3ffffffff0
    16a4:	cb2163ff 	sub	sp, sp, x1
/home/ursus/devel/optee/optee_os/lib/libutee/tee_api_objects.c:289
    16a8:	910103a1 	add	x1, x29, #0x40
/home/ursus/devel/optee/optee_os/lib/libutee/tee_api_objects.c:287
    16ac:	910003f8 	mov	x24, sp
/home/ursus/devel/optee/optee_os/lib/libutee/tee_api_objects.c:289
    16b0:	940010ce 	bl	59e8 <utee_cryp_obj_get_info>
/home/ursus/devel/optee/optee_os/lib/libutee/tee_api_objects.c:290
    16b4:	340001c0 	cbz	w0, 16ec <TEE_PopulateTransientObject+0x7c>
/home/ursus/devel/optee/optee_os/lib/libutee/tee_api_objects.c:291
    16b8:	2a0003e5 	mov	w5, w0
    16bc:	b0000064 	adrp	x4, e000 <__func__.3633+0x30>
    16c0:	91112884 	add	x4, x4, #0x44a
    16c4:	2a0003f7 	mov	w23, w0
    16c8:	52800023 	mov	w3, #0x1                   	// #1
    16cc:	52800022 	mov	w2, #0x1                   	// #1
    16d0:	52802461 	mov	w1, #0x123                 	// #291
    16d4:	f0000040 	adrp	x0, c000 <mpa_set_str+0x4>
    16d8:	9128e000 	add	x0, x0, #0xa38
    16dc:	91044000 	add	x0, x0, #0x110
    16e0:	94001cc4 	bl	89f0 <trace_printf>
    16e4:	2a1703e0 	mov	w0, w23
    16e8:	94000fb7 	bl	55c4 <__TEE_Panic>
/home/ursus/devel/optee/optee_os/lib/libutee/tee_api_objects.c:294
    16ec:	b9405ba0 	ldr	w0, [x29,#88]
    16f0:	368001a0 	tbz	w0, #16, 1724 <TEE_PopulateTransientObject+0xb4>
/home/ursus/devel/optee/optee_os/lib/libutee/tee_api_objects.c:295
    16f4:	b0000064 	adrp	x4, e000 <__func__.3633+0x30>
    16f8:	91112884 	add	x4, x4, #0x44a
    16fc:	52800005 	mov	w5, #0x0                   	// #0
    1700:	52800023 	mov	w3, #0x1                   	// #1
    1704:	52800022 	mov	w2, #0x1                   	// #1
    1708:	528024e1 	mov	w1, #0x127                 	// #295
    170c:	f0000040 	adrp	x0, c000 <mpa_set_str+0x4>
    1710:	9128e000 	add	x0, x0, #0xa38
    1714:	91044000 	add	x0, x0, #0x110
    1718:	94001cb6 	bl	89f0 <trace_printf>
    171c:	52800000 	mov	w0, #0x0                   	// #0
    1720:	94000fa9 	bl	55c4 <__TEE_Panic>
/home/ursus/devel/optee/optee_os/lib/libutee/tee_api_objects.c:298
    1724:	b9405ba0 	ldr	w0, [x29,#88]
    1728:	368801a0 	tbz	w0, #17, 175c <TEE_PopulateTransientObject+0xec>
/home/ursus/devel/optee/optee_os/lib/libutee/tee_api_objects.c:299
    172c:	b0000064 	adrp	x4, e000 <__func__.3633+0x30>
    1730:	91112884 	add	x4, x4, #0x44a
    1734:	52800005 	mov	w5, #0x0                   	// #0
    1738:	52800023 	mov	w3, #0x1                   	// #1
    173c:	52800022 	mov	w2, #0x1                   	// #1
    1740:	52802561 	mov	w1, #0x12b                 	// #299
    1744:	f0000040 	adrp	x0, c000 <mpa_set_str+0x4>
    1748:	9128e000 	add	x0, x0, #0xa38
    174c:	91044000 	add	x0, x0, #0x110
    1750:	94001ca8 	bl	89f0 <trace_printf>
    1754:	52800000 	mov	w0, #0x0                   	// #0
    1758:	94000f9b 	bl	55c4 <__TEE_Panic>
/home/ursus/devel/optee/optee_os/lib/libutee/tee_api_objects.c:301
    175c:	2a1303e2 	mov	w2, w19
    1760:	aa1603e1 	mov	x1, x22
    1764:	aa1803e0 	mov	x0, x24
    1768:	97fffe13 	bl	fb4 <__utee_from_attr>
/home/ursus/devel/optee/optee_os/lib/libutee/tee_api_objects.c:302
    176c:	aa1503e2 	mov	x2, x21
    1770:	aa1803e1 	mov	x1, x24
    1774:	aa1403e0 	mov	x0, x20
    1778:	940010ae 	bl	5a30 <utee_cryp_obj_populate>
    177c:	2a0003f3 	mov	w19, w0
/home/ursus/devel/optee/optee_os/lib/libutee/tee_api_objects.c:303
    1780:	7100001f 	cmp	w0, #0x0
    1784:	129fff20 	mov	w0, #0xffff0006            	// #-65530
    1788:	7a401264 	ccmp	w19, w0, #0x4, ne
    178c:	540001a0 	b.eq	17c0 <TEE_PopulateTransientObject+0x150>
/home/ursus/devel/optee/optee_os/lib/libutee/tee_api_objects.c:304
    1790:	2a1303e5 	mov	w5, w19
    1794:	b0000064 	adrp	x4, e000 <__func__.3633+0x30>
    1798:	91112884 	add	x4, x4, #0x44a
    179c:	52800023 	mov	w3, #0x1                   	// #1
    17a0:	52800022 	mov	w2, #0x1                   	// #1
    17a4:	52802601 	mov	w1, #0x130                 	// #304
    17a8:	f0000040 	adrp	x0, c000 <mpa_set_str+0x4>
    17ac:	9128e000 	add	x0, x0, #0xa38
    17b0:	91044000 	add	x0, x0, #0x110
    17b4:	94001c8f 	bl	89f0 <trace_printf>
    17b8:	2a1303e0 	mov	w0, w19
    17bc:	94000f82 	bl	55c4 <__TEE_Panic>
/home/ursus/devel/optee/optee_os/lib/libutee/tee_api_objects.c:306
    17c0:	910003bf 	mov	sp, x29
    17c4:	2a1303e0 	mov	w0, w19
    17c8:	a94153f3 	ldp	x19, x20, [sp,#16]
    17cc:	a9425bf5 	ldp	x21, x22, [sp,#32]
    17d0:	a94363f7 	ldp	x23, x24, [sp,#48]
    17d4:	a8c67bfd 	ldp	x29, x30, [sp],#96
    17d8:	d65f03c0 	ret

00000000000017dc <TEE_InitRefAttribute>:
TEE_InitRefAttribute():
/home/ursus/devel/optee/optee_os/lib/libutee/tee_api_objects.c:310
    17dc:	a9bd7bfd 	stp	x29, x30, [sp,#-48]!
    17e0:	910003fd 	mov	x29, sp
    17e4:	a90153f3 	stp	x19, x20, [sp,#16]
    17e8:	aa0003f3 	mov	x19, x0
    17ec:	a9025bf5 	stp	x21, x22, [sp,#32]
    17f0:	2a0103f4 	mov	w20, w1
    17f4:	aa0203f6 	mov	x22, x2
    17f8:	2a0303f5 	mov	w21, w3
/home/ursus/devel/optee/optee_os/lib/libutee/tee_api_objects.c:311
    17fc:	b50001a0 	cbnz	x0, 1830 <TEE_InitRefAttribute+0x54>
/home/ursus/devel/optee/optee_os/lib/libutee/tee_api_objects.c:312
    1800:	b0000064 	adrp	x4, e000 <__func__.3633+0x30>
    1804:	91112884 	add	x4, x4, #0x44a
    1808:	52800005 	mov	w5, #0x0                   	// #0
    180c:	52800023 	mov	w3, #0x1                   	// #1
    1810:	52800022 	mov	w2, #0x1                   	// #1
    1814:	52802701 	mov	w1, #0x138                 	// #312
    1818:	f0000040 	adrp	x0, c000 <mpa_set_str+0x4>
    181c:	9128e000 	add	x0, x0, #0xa38
    1820:	9104c000 	add	x0, x0, #0x130
    1824:	94001c73 	bl	89f0 <trace_printf>
    1828:	52800000 	mov	w0, #0x0                   	// #0
    182c:	94000f66 	bl	55c4 <__TEE_Panic>
/home/ursus/devel/optee/optee_os/lib/libutee/tee_api_objects.c:313
    1830:	36e801b4 	tbz	w20, #29, 1864 <TEE_InitRefAttribute+0x88>
/home/ursus/devel/optee/optee_os/lib/libutee/tee_api_objects.c:314
    1834:	b0000064 	adrp	x4, e000 <__func__.3633+0x30>
    1838:	91112884 	add	x4, x4, #0x44a
    183c:	52800005 	mov	w5, #0x0                   	// #0
    1840:	52800023 	mov	w3, #0x1                   	// #1
    1844:	52800022 	mov	w2, #0x1                   	// #1
    1848:	52802741 	mov	w1, #0x13a                 	// #314
    184c:	f0000040 	adrp	x0, c000 <mpa_set_str+0x4>
    1850:	9128e000 	add	x0, x0, #0xa38
    1854:	9104c000 	add	x0, x0, #0x130
    1858:	94001c66 	bl	89f0 <trace_printf>
    185c:	52800000 	mov	w0, #0x0                   	// #0
    1860:	94000f59 	bl	55c4 <__TEE_Panic>
/home/ursus/devel/optee/optee_os/lib/libutee/tee_api_objects.c:316
    1864:	f9000676 	str	x22, [x19,#8]
/home/ursus/devel/optee/optee_os/lib/libutee/tee_api_objects.c:317
    1868:	b9001275 	str	w21, [x19,#16]
/home/ursus/devel/optee/optee_os/lib/libutee/tee_api_objects.c:315
    186c:	b9000274 	str	w20, [x19]
/home/ursus/devel/optee/optee_os/lib/libutee/tee_api_objects.c:318
    1870:	a9425bf5 	ldp	x21, x22, [sp,#32]
    1874:	a94153f3 	ldp	x19, x20, [sp,#16]
    1878:	a8c37bfd 	ldp	x29, x30, [sp],#48
    187c:	d65f03c0 	ret

0000000000001880 <TEE_InitValueAttribute>:
TEE_InitValueAttribute():
/home/ursus/devel/optee/optee_os/lib/libutee/tee_api_objects.c:322
    1880:	a9bd7bfd 	stp	x29, x30, [sp,#-48]!
    1884:	910003fd 	mov	x29, sp
    1888:	a90153f3 	stp	x19, x20, [sp,#16]
    188c:	aa0003f3 	mov	x19, x0
    1890:	a9025bf5 	stp	x21, x22, [sp,#32]
    1894:	2a0103f4 	mov	w20, w1
    1898:	2a0203f6 	mov	w22, w2
    189c:	2a0303f5 	mov	w21, w3
/home/ursus/devel/optee/optee_os/lib/libutee/tee_api_objects.c:323
    18a0:	b50001a0 	cbnz	x0, 18d4 <TEE_InitValueAttribute+0x54>
/home/ursus/devel/optee/optee_os/lib/libutee/tee_api_objects.c:324
    18a4:	b0000064 	adrp	x4, e000 <__func__.3633+0x30>
    18a8:	91112884 	add	x4, x4, #0x44a
    18ac:	52800005 	mov	w5, #0x0                   	// #0
    18b0:	52800023 	mov	w3, #0x1                   	// #1
    18b4:	52800022 	mov	w2, #0x1                   	// #1
    18b8:	52802881 	mov	w1, #0x144                 	// #324
    18bc:	f0000040 	adrp	x0, c000 <mpa_set_str+0x4>
    18c0:	9128e000 	add	x0, x0, #0xa38
    18c4:	91052000 	add	x0, x0, #0x148
    18c8:	94001c4a 	bl	89f0 <trace_printf>
    18cc:	52800000 	mov	w0, #0x0                   	// #0
    18d0:	94000f3d 	bl	55c4 <__TEE_Panic>
/home/ursus/devel/optee/optee_os/lib/libutee/tee_api_objects.c:325
    18d4:	37e801b4 	tbnz	w20, #29, 1908 <TEE_InitValueAttribute+0x88>
/home/ursus/devel/optee/optee_os/lib/libutee/tee_api_objects.c:326
    18d8:	b0000064 	adrp	x4, e000 <__func__.3633+0x30>
    18dc:	91112884 	add	x4, x4, #0x44a
    18e0:	52800005 	mov	w5, #0x0                   	// #0
    18e4:	52800023 	mov	w3, #0x1                   	// #1
    18e8:	52800022 	mov	w2, #0x1                   	// #1
    18ec:	528028c1 	mov	w1, #0x146                 	// #326
    18f0:	f0000040 	adrp	x0, c000 <mpa_set_str+0x4>
    18f4:	9128e000 	add	x0, x0, #0xa38
    18f8:	91052000 	add	x0, x0, #0x148
    18fc:	94001c3d 	bl	89f0 <trace_printf>
    1900:	52800000 	mov	w0, #0x0                   	// #0
    1904:	94000f30 	bl	55c4 <__TEE_Panic>
/home/ursus/devel/optee/optee_os/lib/libutee/tee_api_objects.c:329
    1908:	29015676 	stp	w22, w21, [x19,#8]
/home/ursus/devel/optee/optee_os/lib/libutee/tee_api_objects.c:327
    190c:	b9000274 	str	w20, [x19]
/home/ursus/devel/optee/optee_os/lib/libutee/tee_api_objects.c:330
    1910:	a9425bf5 	ldp	x21, x22, [sp,#32]
    1914:	a94153f3 	ldp	x19, x20, [sp,#16]
    1918:	a8c37bfd 	ldp	x29, x30, [sp],#48
    191c:	d65f03c0 	ret

0000000000001920 <TEE_CopyObjectAttributes1>:
TEE_CopyObjectAttributes1():
/home/ursus/devel/optee/optee_os/lib/libutee/tee_api_objects.c:355
    1920:	a9b97bfd 	stp	x29, x30, [sp,#-112]!
    1924:	910003fd 	mov	x29, sp
    1928:	a90153f3 	stp	x19, x20, [sp,#16]
    192c:	aa0103f4 	mov	x20, x1
    1930:	f90013f5 	str	x21, [sp,#32]
/home/ursus/devel/optee/optee_os/lib/libutee/tee_api_objects.c:360
    1934:	9100c3a1 	add	x1, x29, #0x30
/home/ursus/devel/optee/optee_os/lib/libutee/tee_api_objects.c:355
    1938:	aa0003f5 	mov	x21, x0
/home/ursus/devel/optee/optee_os/lib/libutee/tee_api_objects.c:360
    193c:	9400102b 	bl	59e8 <utee_cryp_obj_get_info>
    1940:	2a0003f3 	mov	w19, w0
/home/ursus/devel/optee/optee_os/lib/libutee/tee_api_objects.c:361
    1944:	35000680 	cbnz	w0, 1a14 <TEE_CopyObjectAttributes1+0xf4>
/home/ursus/devel/optee/optee_os/lib/libutee/tee_api_objects.c:364
    1948:	910143a1 	add	x1, x29, #0x50
    194c:	aa1403e0 	mov	x0, x20
    1950:	94001026 	bl	59e8 <utee_cryp_obj_get_info>
    1954:	2a0003f3 	mov	w19, w0
/home/ursus/devel/optee/optee_os/lib/libutee/tee_api_objects.c:365
    1958:	350005e0 	cbnz	w0, 1a14 <TEE_CopyObjectAttributes1+0xf4>
/home/ursus/devel/optee/optee_os/lib/libutee/tee_api_objects.c:368
    195c:	b9406ba0 	ldr	w0, [x29,#104]
    1960:	378801a0 	tbnz	w0, #17, 1994 <TEE_CopyObjectAttributes1+0x74>
/home/ursus/devel/optee/optee_os/lib/libutee/tee_api_objects.c:369
    1964:	b0000064 	adrp	x4, e000 <__func__.3633+0x30>
    1968:	91112884 	add	x4, x4, #0x44a
    196c:	52800005 	mov	w5, #0x0                   	// #0
    1970:	52800023 	mov	w3, #0x1                   	// #1
    1974:	52800022 	mov	w2, #0x1                   	// #1
    1978:	52802e21 	mov	w1, #0x171                 	// #369
    197c:	f0000040 	adrp	x0, c000 <mpa_set_str+0x4>
    1980:	9128e000 	add	x0, x0, #0xa38
    1984:	91058000 	add	x0, x0, #0x160
    1988:	94001c1a 	bl	89f0 <trace_printf>
    198c:	52800000 	mov	w0, #0x0                   	// #0
    1990:	94000f0d 	bl	55c4 <__TEE_Panic>
/home/ursus/devel/optee/optee_os/lib/libutee/tee_api_objects.c:371
    1994:	b9404ba0 	ldr	w0, [x29,#72]
    1998:	368001a0 	tbz	w0, #16, 19cc <TEE_CopyObjectAttributes1+0xac>
/home/ursus/devel/optee/optee_os/lib/libutee/tee_api_objects.c:372
    199c:	b0000064 	adrp	x4, e000 <__func__.3633+0x30>
    19a0:	91112884 	add	x4, x4, #0x44a
    19a4:	52800005 	mov	w5, #0x0                   	// #0
    19a8:	52800023 	mov	w3, #0x1                   	// #1
    19ac:	52800022 	mov	w2, #0x1                   	// #1
    19b0:	52802e81 	mov	w1, #0x174                 	// #372
    19b4:	f0000040 	adrp	x0, c000 <mpa_set_str+0x4>
    19b8:	9128e000 	add	x0, x0, #0xa38
    19bc:	91058000 	add	x0, x0, #0x160
    19c0:	94001c0c 	bl	89f0 <trace_printf>
    19c4:	52800000 	mov	w0, #0x0                   	// #0
    19c8:	94000eff 	bl	55c4 <__TEE_Panic>
/home/ursus/devel/optee/optee_os/lib/libutee/tee_api_objects.c:374
    19cc:	b9404ba0 	ldr	w0, [x29,#72]
    19d0:	368801a0 	tbz	w0, #17, 1a04 <TEE_CopyObjectAttributes1+0xe4>
/home/ursus/devel/optee/optee_os/lib/libutee/tee_api_objects.c:375
    19d4:	b0000064 	adrp	x4, e000 <__func__.3633+0x30>
    19d8:	91112884 	add	x4, x4, #0x44a
    19dc:	52800005 	mov	w5, #0x0                   	// #0
    19e0:	52800023 	mov	w3, #0x1                   	// #1
    19e4:	52800022 	mov	w2, #0x1                   	// #1
    19e8:	52802ee1 	mov	w1, #0x177                 	// #375
    19ec:	f0000040 	adrp	x0, c000 <mpa_set_str+0x4>
    19f0:	9128e000 	add	x0, x0, #0xa38
    19f4:	91058000 	add	x0, x0, #0x160
    19f8:	94001bfe 	bl	89f0 <trace_printf>
    19fc:	52800000 	mov	w0, #0x0                   	// #0
    1a00:	94000ef1 	bl	55c4 <__TEE_Panic>
/home/ursus/devel/optee/optee_os/lib/libutee/tee_api_objects.c:377
    1a04:	aa1403e1 	mov	x1, x20
    1a08:	aa1503e0 	mov	x0, x21
    1a0c:	9400100c 	bl	5a3c <utee_cryp_obj_copy>
    1a10:	2a0003f3 	mov	w19, w0
/home/ursus/devel/optee/optee_os/lib/libutee/tee_api_objects.c:382
    1a14:	121e7a60 	and	w0, w19, #0xfffffffd
    1a18:	7100027f 	cmp	w19, #0x0
    1a1c:	52800021 	mov	w1, #0x1                   	// #1
    1a20:	72be0201 	movk	w1, #0xf010, lsl #16
    1a24:	7a411004 	ccmp	w0, w1, #0x4, ne
    1a28:	540001a0 	b.eq	1a5c <TEE_CopyObjectAttributes1+0x13c>
/home/ursus/devel/optee/optee_os/lib/libutee/tee_api_objects.c:384
    1a2c:	2a1303e5 	mov	w5, w19
    1a30:	b0000064 	adrp	x4, e000 <__func__.3633+0x30>
    1a34:	91112884 	add	x4, x4, #0x44a
    1a38:	52800023 	mov	w3, #0x1                   	// #1
    1a3c:	52800022 	mov	w2, #0x1                   	// #1
    1a40:	52803001 	mov	w1, #0x180                 	// #384
    1a44:	f0000040 	adrp	x0, c000 <mpa_set_str+0x4>
    1a48:	9128e000 	add	x0, x0, #0xa38
    1a4c:	91058000 	add	x0, x0, #0x160
    1a50:	94001be8 	bl	89f0 <trace_printf>
    1a54:	2a1303e0 	mov	w0, w19
    1a58:	94000edb 	bl	55c4 <__TEE_Panic>
/home/ursus/devel/optee/optee_os/lib/libutee/tee_api_objects.c:387
    1a5c:	2a1303e0 	mov	w0, w19
    1a60:	f94013f5 	ldr	x21, [sp,#32]
    1a64:	a94153f3 	ldp	x19, x20, [sp,#16]
    1a68:	a8c77bfd 	ldp	x29, x30, [sp],#112
    1a6c:	d65f03c0 	ret

0000000000001a70 <TEE_CopyObjectAttributes>:
TEE_CopyObjectAttributes():
/home/ursus/devel/optee/optee_os/lib/libutee/tee_api_objects.c:340
    1a70:	a9bc7bfd 	stp	x29, x30, [sp,#-64]!
    1a74:	910003fd 	mov	x29, sp
    1a78:	a90153f3 	stp	x19, x20, [sp,#16]
    1a7c:	aa0103f3 	mov	x19, x1
    1a80:	aa0003f4 	mov	x20, x0
/home/ursus/devel/optee/optee_os/lib/libutee/tee_api_objects.c:344
    1a84:	910083a1 	add	x1, x29, #0x20
    1a88:	aa1303e0 	mov	x0, x19
    1a8c:	94000fd7 	bl	59e8 <utee_cryp_obj_get_info>
/home/ursus/devel/optee/optee_os/lib/libutee/tee_api_objects.c:345
    1a90:	b94023a1 	ldr	w1, [x29,#32]
    1a94:	528017c0 	mov	w0, #0xbe                  	// #190
    1a98:	72b40000 	movk	w0, #0xa000, lsl #16
    1a9c:	6b00003f 	cmp	w1, w0
    1aa0:	54000240 	b.eq	1ae8 <TEE_CopyObjectAttributes+0x78>
/home/ursus/devel/optee/optee_os/lib/libutee/tee_api_objects.c:348
    1aa4:	aa1303e1 	mov	x1, x19
    1aa8:	aa1403e0 	mov	x0, x20
    1aac:	97ffff9d 	bl	1920 <TEE_CopyObjectAttributes1>
    1ab0:	2a0003f3 	mov	w19, w0
/home/ursus/devel/optee/optee_os/lib/libutee/tee_api_objects.c:349
    1ab4:	340001a0 	cbz	w0, 1ae8 <TEE_CopyObjectAttributes+0x78>
/home/ursus/devel/optee/optee_os/lib/libutee/tee_api_objects.c:350
    1ab8:	2a0003e5 	mov	w5, w0
    1abc:	b0000064 	adrp	x4, e000 <__func__.3633+0x30>
    1ac0:	91112884 	add	x4, x4, #0x44a
    1ac4:	52800023 	mov	w3, #0x1                   	// #1
    1ac8:	52800022 	mov	w2, #0x1                   	// #1
    1acc:	52802bc1 	mov	w1, #0x15e                 	// #350
    1ad0:	f0000040 	adrp	x0, c000 <mpa_set_str+0x4>
    1ad4:	9128e000 	add	x0, x0, #0xa38
    1ad8:	91060000 	add	x0, x0, #0x180
    1adc:	94001bc5 	bl	89f0 <trace_printf>
    1ae0:	2a1303e0 	mov	w0, w19
    1ae4:	94000eb8 	bl	55c4 <__TEE_Panic>
/home/ursus/devel/optee/optee_os/lib/libutee/tee_api_objects.c:351
    1ae8:	a94153f3 	ldp	x19, x20, [sp,#16]
    1aec:	a8c47bfd 	ldp	x29, x30, [sp],#64
    1af0:	d65f03c0 	ret

0000000000001af4 <TEE_GenerateKey>:
TEE_GenerateKey():
/home/ursus/devel/optee/optee_os/lib/libutee/tee_api_objects.c:391
    1af4:	a9bd7bfd 	stp	x29, x30, [sp,#-48]!
    1af8:	910003fd 	mov	x29, sp
    1afc:	a9025bf5 	stp	x21, x22, [sp,#32]
    1b00:	aa0003f5 	mov	x21, x0
/home/ursus/devel/optee/optee_os/lib/libutee/tee_api_objects.c:393
    1b04:	52800300 	mov	w0, #0x18                  	// #24
/home/ursus/devel/optee/optee_os/lib/libutee/tee_api_objects.c:391
    1b08:	a90153f3 	stp	x19, x20, [sp,#16]
    1b0c:	2a0103f6 	mov	w22, w1
    1b10:	2a0303f3 	mov	w19, w3
/home/ursus/devel/optee/optee_os/lib/libutee/tee_api_objects.c:393
    1b14:	9ba07c60 	umull	x0, w3, w0
/home/ursus/devel/optee/optee_os/lib/libutee/tee_api_objects.c:391
    1b18:	aa0203e1 	mov	x1, x2
/home/ursus/devel/optee/optee_os/lib/libutee/tee_api_objects.c:395
    1b1c:	2a0303e2 	mov	w2, w3
/home/ursus/devel/optee/optee_os/lib/libutee/tee_api_objects.c:393
    1b20:	91005800 	add	x0, x0, #0x16
    1b24:	927c8400 	and	x0, x0, #0x3ffffffff0
    1b28:	cb2063ff 	sub	sp, sp, x0
/home/ursus/devel/optee/optee_os/lib/libutee/tee_api_objects.c:395
    1b2c:	910003e0 	mov	x0, sp
    1b30:	97fffd21 	bl	fb4 <__utee_from_attr>
/home/ursus/devel/optee/optee_os/lib/libutee/tee_api_objects.c:396
    1b34:	2a1303e3 	mov	w3, w19
    1b38:	910003e2 	mov	x2, sp
    1b3c:	2a1603e1 	mov	w1, w22
    1b40:	aa1503e0 	mov	x0, x21
    1b44:	94001003 	bl	5b50 <utee_cryp_obj_generate_key>
    1b48:	2a0003f3 	mov	w19, w0
/home/ursus/devel/optee/optee_os/lib/libutee/tee_api_objects.c:399
    1b4c:	7100001f 	cmp	w0, #0x0
    1b50:	129fff20 	mov	w0, #0xffff0006            	// #-65530
    1b54:	7a401264 	ccmp	w19, w0, #0x4, ne
    1b58:	540001a0 	b.eq	1b8c <TEE_GenerateKey+0x98>
/home/ursus/devel/optee/optee_os/lib/libutee/tee_api_objects.c:400
    1b5c:	2a1303e5 	mov	w5, w19
    1b60:	b0000064 	adrp	x4, e000 <__func__.3633+0x30>
    1b64:	91112884 	add	x4, x4, #0x44a
    1b68:	52800023 	mov	w3, #0x1                   	// #1
    1b6c:	52800022 	mov	w2, #0x1                   	// #1
    1b70:	52803201 	mov	w1, #0x190                 	// #400
    1b74:	f0000040 	adrp	x0, c000 <mpa_set_str+0x4>
    1b78:	9128e000 	add	x0, x0, #0xa38
    1b7c:	91068000 	add	x0, x0, #0x1a0
    1b80:	94001b9c 	bl	89f0 <trace_printf>
    1b84:	2a1303e0 	mov	w0, w19
    1b88:	94000e8f 	bl	55c4 <__TEE_Panic>
/home/ursus/devel/optee/optee_os/lib/libutee/tee_api_objects.c:403
    1b8c:	910003bf 	mov	sp, x29
    1b90:	2a1303e0 	mov	w0, w19
    1b94:	a94153f3 	ldp	x19, x20, [sp,#16]
    1b98:	a9425bf5 	ldp	x21, x22, [sp,#32]
    1b9c:	a8c37bfd 	ldp	x29, x30, [sp],#48
    1ba0:	d65f03c0 	ret

0000000000001ba4 <TEE_OpenPersistentObject>:
TEE_OpenPersistentObject():
/home/ursus/devel/optee/optee_os/lib/libutee/tee_api_objects.c:410
    1ba4:	a9bd7bfd 	stp	x29, x30, [sp,#-48]!
    1ba8:	910003fd 	mov	x29, sp
    1bac:	a90153f3 	stp	x19, x20, [sp,#16]
/home/ursus/devel/optee/optee_os/lib/libutee/tee_api_objects.c:415
    1bb0:	129ffef3 	mov	w19, #0xffff0008            	// #-65528
/home/ursus/devel/optee/optee_os/lib/libutee/tee_api_objects.c:414
    1bb4:	b40001e1 	cbz	x1, 1bf0 <TEE_OpenPersistentObject+0x4c>
/home/ursus/devel/optee/optee_os/lib/libutee/tee_api_objects.c:424
    1bb8:	7101005f 	cmp	w2, #0x40
    1bbc:	aa0403f4 	mov	x20, x4
/home/ursus/devel/optee/optee_os/lib/libutee/tee_api_objects.c:425
    1bc0:	129fff33 	mov	w19, #0xffff0006            	// #-65530
/home/ursus/devel/optee/optee_os/lib/libutee/tee_api_objects.c:424
    1bc4:	fa409884 	ccmp	x4, #0x0, #0x4, ls
    1bc8:	54000140 	b.eq	1bf0 <TEE_OpenPersistentObject+0x4c>
/home/ursus/devel/optee/optee_os/lib/libutee/tee_api_objects.c:429
    1bcc:	9100b3a4 	add	x4, x29, #0x2c
    1bd0:	2a0303e3 	mov	w3, w3
    1bd4:	2a0203e2 	mov	w2, w2
    1bd8:	2a0003e0 	mov	w0, w0
    1bdc:	94000fb6 	bl	5ab4 <utee_storage_obj_open>
    1be0:	2a0003f3 	mov	w19, w0
/home/ursus/devel/optee/optee_os/lib/libutee/tee_api_objects.c:431
    1be4:	35000060 	cbnz	w0, 1bf0 <TEE_OpenPersistentObject+0x4c>
/home/ursus/devel/optee/optee_os/lib/libutee/tee_api_objects.c:432
    1be8:	b9402fa0 	ldr	w0, [x29,#44]
    1bec:	f9000280 	str	x0, [x20]
/home/ursus/devel/optee/optee_os/lib/libutee/tee_api_objects.c:436
    1bf0:	121d7a60 	and	w0, w19, #0xfffffffb
/home/ursus/devel/optee/optee_os/lib/libutee/tee_api_objects.c:435
    1bf4:	7100027f 	cmp	w19, #0x0
    1bf8:	129ffee1 	mov	w1, #0xffff0008            	// #-65528
    1bfc:	7a411004 	ccmp	w0, w1, #0x4, ne
    1c00:	540002a0 	b.eq	1c54 <TEE_OpenPersistentObject+0xb0>
/home/ursus/devel/optee/optee_os/lib/libutee/tee_api_objects.c:437
    1c04:	129fff80 	mov	w0, #0xffff0003            	// #-65533
    1c08:	6b00027f 	cmp	w19, w0
    1c0c:	54000240 	b.eq	1c54 <TEE_OpenPersistentObject+0xb0>
/home/ursus/devel/optee/optee_os/lib/libutee/tee_api_objects.c:439
    1c10:	121e7a61 	and	w1, w19, #0xfffffffd
    1c14:	52800020 	mov	w0, #0x1                   	// #1
    1c18:	72be0200 	movk	w0, #0xf010, lsl #16
    1c1c:	6b00003f 	cmp	w1, w0
    1c20:	540001a0 	b.eq	1c54 <TEE_OpenPersistentObject+0xb0>
/home/ursus/devel/optee/optee_os/lib/libutee/tee_api_objects.c:441
    1c24:	2a1303e5 	mov	w5, w19
    1c28:	b0000064 	adrp	x4, e000 <__func__.3633+0x30>
    1c2c:	91112884 	add	x4, x4, #0x44a
    1c30:	52800023 	mov	w3, #0x1                   	// #1
    1c34:	52800022 	mov	w2, #0x1                   	// #1
    1c38:	52803721 	mov	w1, #0x1b9                 	// #441
    1c3c:	f0000040 	adrp	x0, c000 <mpa_set_str+0x4>
    1c40:	9128e000 	add	x0, x0, #0xa38
    1c44:	9106c000 	add	x0, x0, #0x1b0
    1c48:	94001b6a 	bl	89f0 <trace_printf>
    1c4c:	2a1303e0 	mov	w0, w19
    1c50:	94000e5d 	bl	55c4 <__TEE_Panic>
/home/ursus/devel/optee/optee_os/lib/libutee/tee_api_objects.c:444
    1c54:	2a1303e0 	mov	w0, w19
    1c58:	a94153f3 	ldp	x19, x20, [sp,#16]
    1c5c:	a8c37bfd 	ldp	x29, x30, [sp],#48
    1c60:	d65f03c0 	ret

0000000000001c64 <TEE_CreatePersistentObject>:
TEE_CreatePersistentObject():
/home/ursus/devel/optee/optee_os/lib/libutee/tee_api_objects.c:452
    1c64:	a9bd7bfd 	stp	x29, x30, [sp,#-48]!
    1c68:	910003fd 	mov	x29, sp
    1c6c:	a90153f3 	stp	x19, x20, [sp,#16]
    1c70:	aa0703f4 	mov	x20, x7
/home/ursus/devel/optee/optee_os/lib/libutee/tee_api_objects.c:456
    1c74:	b40006a1 	cbz	x1, 1d48 <TEE_CreatePersistentObject+0xe4>
/home/ursus/devel/optee/optee_os/lib/libutee/tee_api_objects.c:461
    1c78:	7101005f 	cmp	w2, #0x40
    1c7c:	540006c8 	b.hi	1d54 <TEE_CreatePersistentObject+0xf0>
/home/ursus/devel/optee/optee_os/lib/libutee/tee_api_objects.c:466
    1c80:	9100b3a7 	add	x7, x29, #0x2c
    1c84:	2a0603e6 	mov	w6, w6
    1c88:	2a0303e3 	mov	w3, w3
    1c8c:	2a0203e2 	mov	w2, w2
    1c90:	2a0003e0 	mov	w0, w0
    1c94:	94000f8b 	bl	5ac0 <utee_storage_obj_create>
    1c98:	2a0003f3 	mov	w19, w0
/home/ursus/devel/optee/optee_os/lib/libutee/tee_api_objects.c:469
    1c9c:	35000500 	cbnz	w0, 1d3c <TEE_CreatePersistentObject+0xd8>
    1ca0:	b9402fa0 	ldr	w0, [x29,#44]
/home/ursus/devel/optee/optee_os/lib/libutee/tee_api_objects.c:470
    1ca4:	b40000d4 	cbz	x20, 1cbc <TEE_CreatePersistentObject+0x58>
/home/ursus/devel/optee/optee_os/lib/libutee/tee_api_objects.c:471
    1ca8:	f9000280 	str	x0, [x20]
/home/ursus/devel/optee/optee_os/lib/libutee/tee_api_objects.c:490
    1cac:	2a1303e0 	mov	w0, w19
    1cb0:	a94153f3 	ldp	x19, x20, [sp,#16]
    1cb4:	a8c37bfd 	ldp	x29, x30, [sp],#48
    1cb8:	d65f03c0 	ret
/home/ursus/devel/optee/optee_os/lib/libutee/tee_api_objects.c:473
    1cbc:	94000f57 	bl	5a18 <utee_cryp_obj_close>
    1cc0:	2a0003f3 	mov	w19, w0
/home/ursus/devel/optee/optee_os/lib/libutee/tee_api_objects.c:474
    1cc4:	34ffff40 	cbz	w0, 1cac <TEE_CreatePersistentObject+0x48>
/home/ursus/devel/optee/optee_os/lib/libutee/tee_api_objects.c:480
    1cc8:	129ffee0 	mov	w0, #0xffff0008            	// #-65528
    1ccc:	6b00027f 	cmp	w19, w0
    1cd0:	129fff80 	mov	w0, #0xffff0003            	// #-65533
    1cd4:	7a401264 	ccmp	w19, w0, #0x4, ne
    1cd8:	54fffea0 	b.eq	1cac <TEE_CreatePersistentObject+0x48>
/home/ursus/devel/optee/optee_os/lib/libutee/tee_api_objects.c:482
    1cdc:	129ffe60 	mov	w0, #0xffff000c            	// #-65524
    1ce0:	6b00027f 	cmp	w19, w0
    1ce4:	1299f7c0 	mov	w0, #0xffff3041            	// #-53183
    1ce8:	7a401264 	ccmp	w19, w0, #0x4, ne
    1cec:	54fffe00 	b.eq	1cac <TEE_CreatePersistentObject+0x48>
/home/ursus/devel/optee/optee_os/lib/libutee/tee_api_objects.c:484
    1cf0:	121e7a61 	and	w1, w19, #0xfffffffd
    1cf4:	52800020 	mov	w0, #0x1                   	// #1
    1cf8:	72be0200 	movk	w0, #0xf010, lsl #16
    1cfc:	6b00003f 	cmp	w1, w0
    1d00:	54fffd60 	b.eq	1cac <TEE_CreatePersistentObject+0x48>
/home/ursus/devel/optee/optee_os/lib/libutee/tee_api_objects.c:487
    1d04:	2a1303e5 	mov	w5, w19
    1d08:	b0000064 	adrp	x4, e000 <__func__.3633+0x30>
    1d0c:	91112884 	add	x4, x4, #0x44a
    1d10:	52800023 	mov	w3, #0x1                   	// #1
    1d14:	52800022 	mov	w2, #0x1                   	// #1
    1d18:	52803ce1 	mov	w1, #0x1e7                 	// #487
    1d1c:	f0000040 	adrp	x0, c000 <mpa_set_str+0x4>
    1d20:	9128e000 	add	x0, x0, #0xa38
    1d24:	91074000 	add	x0, x0, #0x1d0
    1d28:	94001b32 	bl	89f0 <trace_printf>
    1d2c:	2a1303e0 	mov	w0, w19
/home/ursus/devel/optee/optee_os/lib/libutee/tee_api_objects.c:489
    1d30:	52800013 	mov	w19, #0x0                   	// #0
/home/ursus/devel/optee/optee_os/lib/libutee/tee_api_objects.c:487
    1d34:	94000e24 	bl	55c4 <__TEE_Panic>
    1d38:	17ffffdd 	b	1cac <TEE_CreatePersistentObject+0x48>
/home/ursus/devel/optee/optee_os/lib/libutee/tee_api_objects.c:478
    1d3c:	b4fffc74 	cbz	x20, 1cc8 <TEE_CreatePersistentObject+0x64>
/home/ursus/devel/optee/optee_os/lib/libutee/tee_api_objects.c:479
    1d40:	f900029f 	str	xzr, [x20]
    1d44:	17ffffe1 	b	1cc8 <TEE_CreatePersistentObject+0x64>
/home/ursus/devel/optee/optee_os/lib/libutee/tee_api_objects.c:457
    1d48:	129ffef3 	mov	w19, #0xffff0008            	// #-65528
/home/ursus/devel/optee/optee_os/lib/libutee/tee_api_objects.c:478
    1d4c:	b5ffffa7 	cbnz	x7, 1d40 <TEE_CreatePersistentObject+0xdc>
    1d50:	17ffffd7 	b	1cac <TEE_CreatePersistentObject+0x48>
/home/ursus/devel/optee/optee_os/lib/libutee/tee_api_objects.c:462
    1d54:	129fff33 	mov	w19, #0xffff0006            	// #-65530
/home/ursus/devel/optee/optee_os/lib/libutee/tee_api_objects.c:478
    1d58:	b5ffff47 	cbnz	x7, 1d40 <TEE_CreatePersistentObject+0xdc>
    1d5c:	17ffffe0 	b	1cdc <TEE_CreatePersistentObject+0x78>

0000000000001d60 <TEE_CloseAndDeletePersistentObject1>:
TEE_CloseAndDeletePersistentObject1():
/home/ursus/devel/optee/optee_os/lib/libutee/tee_api_objects.c:512
    1d60:	a9be7bfd 	stp	x29, x30, [sp,#-32]!
    1d64:	910003fd 	mov	x29, sp
    1d68:	a90153f3 	stp	x19, x20, [sp,#16]
    1d6c:	52800074 	mov	w20, #0x3                   	// #3
    1d70:	72be0214 	movk	w20, #0xf010, lsl #16
/home/ursus/devel/optee/optee_os/lib/libutee/tee_api_objects.c:516
    1d74:	2a1403f3 	mov	w19, w20
/home/ursus/devel/optee/optee_os/lib/libutee/tee_api_objects.c:515
    1d78:	b4000240 	cbz	x0, 1dc0 <TEE_CloseAndDeletePersistentObject1+0x60>
/home/ursus/devel/optee/optee_os/lib/libutee/tee_api_objects.c:518
    1d7c:	94000f54 	bl	5acc <utee_storage_obj_del>
/home/ursus/devel/optee/optee_os/lib/libutee/tee_api_objects.c:520
    1d80:	7100001f 	cmp	w0, #0x0
/home/ursus/devel/optee/optee_os/lib/libutee/tee_api_objects.c:518
    1d84:	2a0003f3 	mov	w19, w0
/home/ursus/devel/optee/optee_os/lib/libutee/tee_api_objects.c:520
    1d88:	7a541004 	ccmp	w0, w20, #0x4, ne
    1d8c:	540001a0 	b.eq	1dc0 <TEE_CloseAndDeletePersistentObject1+0x60>
/home/ursus/devel/optee/optee_os/lib/libutee/tee_api_objects.c:521
    1d90:	2a0003e5 	mov	w5, w0
    1d94:	b0000064 	adrp	x4, e000 <__func__.3633+0x30>
    1d98:	91112884 	add	x4, x4, #0x44a
    1d9c:	52800023 	mov	w3, #0x1                   	// #1
    1da0:	52800022 	mov	w2, #0x1                   	// #1
    1da4:	52804121 	mov	w1, #0x209                 	// #521
    1da8:	f0000040 	adrp	x0, c000 <mpa_set_str+0x4>
    1dac:	9128e000 	add	x0, x0, #0xa38
    1db0:	9107c000 	add	x0, x0, #0x1f0
    1db4:	94001b0f 	bl	89f0 <trace_printf>
    1db8:	2a1303e0 	mov	w0, w19
    1dbc:	94000e02 	bl	55c4 <__TEE_Panic>
/home/ursus/devel/optee/optee_os/lib/libutee/tee_api_objects.c:524
    1dc0:	2a1303e0 	mov	w0, w19
    1dc4:	a94153f3 	ldp	x19, x20, [sp,#16]
    1dc8:	a8c27bfd 	ldp	x29, x30, [sp],#32
    1dcc:	d65f03c0 	ret

0000000000001dd0 <TEE_CloseAndDeletePersistentObject>:
TEE_CloseAndDeletePersistentObject():
/home/ursus/devel/optee/optee_os/lib/libutee/tee_api_objects.c:502
    1dd0:	b4000280 	cbz	x0, 1e20 <TEE_CloseAndDeletePersistentObject+0x50>
/home/ursus/devel/optee/optee_os/lib/libutee/tee_api_objects.c:499
    1dd4:	a9bf7bfd 	stp	x29, x30, [sp,#-16]!
    1dd8:	910003fd 	mov	x29, sp
/home/ursus/devel/optee/optee_os/lib/libutee/tee_api_objects.c:505
    1ddc:	97ffffe1 	bl	1d60 <TEE_CloseAndDeletePersistentObject1>
/home/ursus/devel/optee/optee_os/lib/libutee/tee_api_objects.c:507
    1de0:	340001c0 	cbz	w0, 1e18 <TEE_CloseAndDeletePersistentObject+0x48>
/home/ursus/devel/optee/optee_os/lib/libutee/tee_api_objects.c:508
    1de4:	f0000040 	adrp	x0, c000 <mpa_set_str+0x4>
    1de8:	9128e000 	add	x0, x0, #0xa38
    1dec:	52800005 	mov	w5, #0x0                   	// #0
    1df0:	52800023 	mov	w3, #0x1                   	// #1
    1df4:	52800022 	mov	w2, #0x1                   	// #1
    1df8:	52803f81 	mov	w1, #0x1fc                 	// #508
    1dfc:	91086000 	add	x0, x0, #0x218
    1e00:	b0000064 	adrp	x4, e000 <__func__.3633+0x30>
    1e04:	91112884 	add	x4, x4, #0x44a
    1e08:	94001afa 	bl	89f0 <trace_printf>
/home/ursus/devel/optee/optee_os/lib/libutee/tee_api_objects.c:509
    1e0c:	a8c17bfd 	ldp	x29, x30, [sp],#16
/home/ursus/devel/optee/optee_os/lib/libutee/tee_api_objects.c:508
    1e10:	52800000 	mov	w0, #0x0                   	// #0
    1e14:	14000dec 	b	55c4 <__TEE_Panic>
/home/ursus/devel/optee/optee_os/lib/libutee/tee_api_objects.c:509
    1e18:	a8c17bfd 	ldp	x29, x30, [sp],#16
    1e1c:	d65f03c0 	ret
    1e20:	d65f03c0 	ret

0000000000001e24 <TEE_RenamePersistentObject>:
TEE_RenamePersistentObject():
/home/ursus/devel/optee/optee_os/lib/libutee/tee_api_objects.c:530
    1e24:	a9be7bfd 	stp	x29, x30, [sp,#-32]!
    1e28:	910003fd 	mov	x29, sp
    1e2c:	f9000bf3 	str	x19, [sp,#16]
/home/ursus/devel/optee/optee_os/lib/libutee/tee_api_objects.c:534
    1e30:	129ffef3 	mov	w19, #0xffff0008            	// #-65528
/home/ursus/devel/optee/optee_os/lib/libutee/tee_api_objects.c:533
    1e34:	b4000100 	cbz	x0, 1e54 <TEE_RenamePersistentObject+0x30>
/home/ursus/devel/optee/optee_os/lib/libutee/tee_api_objects.c:543
    1e38:	7101005f 	cmp	w2, #0x40
/home/ursus/devel/optee/optee_os/lib/libutee/tee_api_objects.c:544
    1e3c:	129fff33 	mov	w19, #0xffff0006            	// #-65530
/home/ursus/devel/optee/optee_os/lib/libutee/tee_api_objects.c:543
    1e40:	fa409824 	ccmp	x1, #0x0, #0x4, ls
    1e44:	54000080 	b.eq	1e54 <TEE_RenamePersistentObject+0x30>
/home/ursus/devel/optee/optee_os/lib/libutee/tee_api_objects.c:548
    1e48:	2a0203e2 	mov	w2, w2
    1e4c:	94000f23 	bl	5ad8 <utee_storage_obj_rename>
    1e50:	2a0003f3 	mov	w19, w0
/home/ursus/devel/optee/optee_os/lib/libutee/tee_api_objects.c:552
    1e54:	7100027f 	cmp	w19, #0x0
    1e58:	129fff80 	mov	w0, #0xffff0003            	// #-65533
    1e5c:	7a401264 	ccmp	w19, w0, #0x4, ne
    1e60:	54000240 	b.eq	1ea8 <TEE_RenamePersistentObject+0x84>
/home/ursus/devel/optee/optee_os/lib/libutee/tee_api_objects.c:554
    1e64:	121e7a61 	and	w1, w19, #0xfffffffd
    1e68:	52800020 	mov	w0, #0x1                   	// #1
    1e6c:	72be0200 	movk	w0, #0xf010, lsl #16
    1e70:	6b00003f 	cmp	w1, w0
    1e74:	540001a0 	b.eq	1ea8 <TEE_RenamePersistentObject+0x84>
/home/ursus/devel/optee/optee_os/lib/libutee/tee_api_objects.c:556
    1e78:	2a1303e5 	mov	w5, w19
    1e7c:	b0000064 	adrp	x4, e000 <__func__.3633+0x30>
    1e80:	91112884 	add	x4, x4, #0x44a
    1e84:	52800023 	mov	w3, #0x1                   	// #1
    1e88:	52800022 	mov	w2, #0x1                   	// #1
    1e8c:	52804581 	mov	w1, #0x22c                 	// #556
    1e90:	f0000040 	adrp	x0, c000 <mpa_set_str+0x4>
    1e94:	9128e000 	add	x0, x0, #0xa38
    1e98:	91090000 	add	x0, x0, #0x240
    1e9c:	94001ad5 	bl	89f0 <trace_printf>
    1ea0:	2a1303e0 	mov	w0, w19
    1ea4:	94000dc8 	bl	55c4 <__TEE_Panic>
/home/ursus/devel/optee/optee_os/lib/libutee/tee_api_objects.c:559
    1ea8:	2a1303e0 	mov	w0, w19
    1eac:	f9400bf3 	ldr	x19, [sp,#16]
    1eb0:	a8c27bfd 	ldp	x29, x30, [sp],#32
    1eb4:	d65f03c0 	ret

0000000000001eb8 <TEE_AllocatePersistentObjectEnumerator>:
TEE_AllocatePersistentObjectEnumerator():
/home/ursus/devel/optee/optee_os/lib/libutee/tee_api_objects.c:563
    1eb8:	a9bd7bfd 	stp	x29, x30, [sp,#-48]!
    1ebc:	910003fd 	mov	x29, sp
    1ec0:	a90153f3 	stp	x19, x20, [sp,#16]
/home/ursus/devel/optee/optee_os/lib/libutee/tee_api_objects.c:568
    1ec4:	129fff33 	mov	w19, #0xffff0006            	// #-65530
/home/ursus/devel/optee/optee_os/lib/libutee/tee_api_objects.c:567
    1ec8:	b4000320 	cbz	x0, 1f2c <TEE_AllocatePersistentObjectEnumerator+0x74>
    1ecc:	aa0003f4 	mov	x20, x0
/home/ursus/devel/optee/optee_os/lib/libutee/tee_api_objects.c:570
    1ed0:	9100b3a0 	add	x0, x29, #0x2c
    1ed4:	94000f04 	bl	5ae4 <utee_storage_alloc_enum>
    1ed8:	2a0003f3 	mov	w19, w0
/home/ursus/devel/optee/optee_os/lib/libutee/tee_api_objects.c:572
    1edc:	34000040 	cbz	w0, 1ee4 <TEE_AllocatePersistentObjectEnumerator+0x2c>
/home/ursus/devel/optee/optee_os/lib/libutee/tee_api_objects.c:573
    1ee0:	b9002fbf 	str	wzr, [x29,#44]
/home/ursus/devel/optee/optee_os/lib/libutee/tee_api_objects.c:575
    1ee4:	b9402fa0 	ldr	w0, [x29,#44]
/home/ursus/devel/optee/optee_os/lib/libutee/tee_api_objects.c:577
    1ee8:	7100027f 	cmp	w19, #0x0
/home/ursus/devel/optee/optee_os/lib/libutee/tee_api_objects.c:575
    1eec:	f9000280 	str	x0, [x20]
/home/ursus/devel/optee/optee_os/lib/libutee/tee_api_objects.c:577
    1ef0:	129fff80 	mov	w0, #0xffff0003            	// #-65533
    1ef4:	7a401264 	ccmp	w19, w0, #0x4, ne
    1ef8:	540001a0 	b.eq	1f2c <TEE_AllocatePersistentObjectEnumerator+0x74>
/home/ursus/devel/optee/optee_os/lib/libutee/tee_api_objects.c:579
    1efc:	2a1303e5 	mov	w5, w19
    1f00:	b0000064 	adrp	x4, e000 <__func__.3633+0x30>
    1f04:	91112884 	add	x4, x4, #0x44a
    1f08:	52800023 	mov	w3, #0x1                   	// #1
    1f0c:	52800022 	mov	w2, #0x1                   	// #1
    1f10:	52804861 	mov	w1, #0x243                 	// #579
    1f14:	f0000040 	adrp	x0, c000 <mpa_set_str+0x4>
    1f18:	9128e000 	add	x0, x0, #0xa38
    1f1c:	91098000 	add	x0, x0, #0x260
    1f20:	94001ab4 	bl	89f0 <trace_printf>
    1f24:	2a1303e0 	mov	w0, w19
    1f28:	94000da7 	bl	55c4 <__TEE_Panic>
/home/ursus/devel/optee/optee_os/lib/libutee/tee_api_objects.c:582
    1f2c:	2a1303e0 	mov	w0, w19
    1f30:	a94153f3 	ldp	x19, x20, [sp,#16]
    1f34:	a8c37bfd 	ldp	x29, x30, [sp],#48
    1f38:	d65f03c0 	ret

0000000000001f3c <TEE_FreePersistentObjectEnumerator>:
TEE_FreePersistentObjectEnumerator():
/home/ursus/devel/optee/optee_os/lib/libutee/tee_api_objects.c:588
    1f3c:	b4000300 	cbz	x0, 1f9c <TEE_FreePersistentObjectEnumerator+0x60>
/home/ursus/devel/optee/optee_os/lib/libutee/tee_api_objects.c:585
    1f40:	a9be7bfd 	stp	x29, x30, [sp,#-32]!
    1f44:	910003fd 	mov	x29, sp
    1f48:	f9000bf3 	str	x19, [sp,#16]
/home/ursus/devel/optee/optee_os/lib/libutee/tee_api_objects.c:591
    1f4c:	94000ee9 	bl	5af0 <utee_storage_free_enum>
    1f50:	2a0003f3 	mov	w19, w0
/home/ursus/devel/optee/optee_os/lib/libutee/tee_api_objects.c:593
    1f54:	340001e0 	cbz	w0, 1f90 <TEE_FreePersistentObjectEnumerator+0x54>
/home/ursus/devel/optee/optee_os/lib/libutee/tee_api_objects.c:594
    1f58:	2a0003e5 	mov	w5, w0
    1f5c:	f0000040 	adrp	x0, c000 <mpa_set_str+0x4>
    1f60:	9128e000 	add	x0, x0, #0xa38
    1f64:	52800023 	mov	w3, #0x1                   	// #1
    1f68:	52800022 	mov	w2, #0x1                   	// #1
    1f6c:	52804a41 	mov	w1, #0x252                 	// #594
    1f70:	910a2000 	add	x0, x0, #0x288
    1f74:	b0000064 	adrp	x4, e000 <__func__.3633+0x30>
    1f78:	91112884 	add	x4, x4, #0x44a
    1f7c:	94001a9d 	bl	89f0 <trace_printf>
    1f80:	2a1303e0 	mov	w0, w19
/home/ursus/devel/optee/optee_os/lib/libutee/tee_api_objects.c:595
    1f84:	f9400bf3 	ldr	x19, [sp,#16]
    1f88:	a8c27bfd 	ldp	x29, x30, [sp],#32
/home/ursus/devel/optee/optee_os/lib/libutee/tee_api_objects.c:594
    1f8c:	14000d8e 	b	55c4 <__TEE_Panic>
/home/ursus/devel/optee/optee_os/lib/libutee/tee_api_objects.c:595
    1f90:	f9400bf3 	ldr	x19, [sp,#16]
    1f94:	a8c27bfd 	ldp	x29, x30, [sp],#32
    1f98:	d65f03c0 	ret
    1f9c:	d65f03c0 	ret

0000000000001fa0 <TEE_ResetPersistentObjectEnumerator>:
TEE_ResetPersistentObjectEnumerator():
/home/ursus/devel/optee/optee_os/lib/libutee/tee_api_objects.c:601
    1fa0:	b4000300 	cbz	x0, 2000 <TEE_ResetPersistentObjectEnumerator+0x60>
/home/ursus/devel/optee/optee_os/lib/libutee/tee_api_objects.c:598
    1fa4:	a9be7bfd 	stp	x29, x30, [sp,#-32]!
    1fa8:	910003fd 	mov	x29, sp
    1fac:	f9000bf3 	str	x19, [sp,#16]
/home/ursus/devel/optee/optee_os/lib/libutee/tee_api_objects.c:604
    1fb0:	94000ed3 	bl	5afc <utee_storage_reset_enum>
    1fb4:	2a0003f3 	mov	w19, w0
/home/ursus/devel/optee/optee_os/lib/libutee/tee_api_objects.c:606
    1fb8:	340001e0 	cbz	w0, 1ff4 <TEE_ResetPersistentObjectEnumerator+0x54>
/home/ursus/devel/optee/optee_os/lib/libutee/tee_api_objects.c:607
    1fbc:	2a0003e5 	mov	w5, w0
    1fc0:	f0000040 	adrp	x0, c000 <mpa_set_str+0x4>
    1fc4:	9128e000 	add	x0, x0, #0xa38
    1fc8:	52800023 	mov	w3, #0x1                   	// #1
    1fcc:	52800022 	mov	w2, #0x1                   	// #1
    1fd0:	52804be1 	mov	w1, #0x25f                 	// #607
    1fd4:	910ac000 	add	x0, x0, #0x2b0
    1fd8:	b0000064 	adrp	x4, e000 <__func__.3633+0x30>
    1fdc:	91112884 	add	x4, x4, #0x44a
    1fe0:	94001a84 	bl	89f0 <trace_printf>
    1fe4:	2a1303e0 	mov	w0, w19
/home/ursus/devel/optee/optee_os/lib/libutee/tee_api_objects.c:608
    1fe8:	f9400bf3 	ldr	x19, [sp,#16]
    1fec:	a8c27bfd 	ldp	x29, x30, [sp],#32
/home/ursus/devel/optee/optee_os/lib/libutee/tee_api_objects.c:607
    1ff0:	14000d75 	b	55c4 <__TEE_Panic>
/home/ursus/devel/optee/optee_os/lib/libutee/tee_api_objects.c:608
    1ff4:	f9400bf3 	ldr	x19, [sp,#16]
    1ff8:	a8c27bfd 	ldp	x29, x30, [sp],#32
    1ffc:	d65f03c0 	ret
    2000:	d65f03c0 	ret

0000000000002004 <TEE_StartPersistentObjectEnumerator>:
TEE_StartPersistentObjectEnumerator():
/home/ursus/devel/optee/optee_os/lib/libutee/tee_api_objects.c:613
    2004:	a9be7bfd 	stp	x29, x30, [sp,#-32]!
/home/ursus/devel/optee/optee_os/lib/libutee/tee_api_objects.c:616
    2008:	2a0103e1 	mov	w1, w1
/home/ursus/devel/optee/optee_os/lib/libutee/tee_api_objects.c:613
    200c:	910003fd 	mov	x29, sp
    2010:	f9000bf3 	str	x19, [sp,#16]
/home/ursus/devel/optee/optee_os/lib/libutee/tee_api_objects.c:616
    2014:	94000ebd 	bl	5b08 <utee_storage_start_enum>
    2018:	2a0003f3 	mov	w19, w0
/home/ursus/devel/optee/optee_os/lib/libutee/tee_api_objects.c:619
    201c:	7100001f 	cmp	w0, #0x0
    2020:	129ffee0 	mov	w0, #0xffff0008            	// #-65528
    2024:	7a401264 	ccmp	w19, w0, #0x4, ne
    2028:	54000240 	b.eq	2070 <TEE_StartPersistentObjectEnumerator+0x6c>
/home/ursus/devel/optee/optee_os/lib/libutee/tee_api_objects.c:621
    202c:	121e7a61 	and	w1, w19, #0xfffffffd
    2030:	52800020 	mov	w0, #0x1                   	// #1
    2034:	72be0200 	movk	w0, #0xf010, lsl #16
    2038:	6b00003f 	cmp	w1, w0
    203c:	540001a0 	b.eq	2070 <TEE_StartPersistentObjectEnumerator+0x6c>
/home/ursus/devel/optee/optee_os/lib/libutee/tee_api_objects.c:623
    2040:	2a1303e5 	mov	w5, w19
    2044:	90000064 	adrp	x4, e000 <__func__.3633+0x30>
    2048:	91112884 	add	x4, x4, #0x44a
    204c:	52800023 	mov	w3, #0x1                   	// #1
    2050:	52800022 	mov	w2, #0x1                   	// #1
    2054:	52804de1 	mov	w1, #0x26f                 	// #623
    2058:	d0000040 	adrp	x0, c000 <mpa_set_str+0x4>
    205c:	9128e000 	add	x0, x0, #0xa38
    2060:	910b6000 	add	x0, x0, #0x2d8
    2064:	94001a63 	bl	89f0 <trace_printf>
    2068:	2a1303e0 	mov	w0, w19
    206c:	94000d56 	bl	55c4 <__TEE_Panic>
/home/ursus/devel/optee/optee_os/lib/libutee/tee_api_objects.c:626
    2070:	2a1303e0 	mov	w0, w19
    2074:	f9400bf3 	ldr	x19, [sp,#16]
    2078:	a8c27bfd 	ldp	x29, x30, [sp],#32
    207c:	d65f03c0 	ret

0000000000002080 <TEE_GetNextPersistentObject>:
TEE_GetNextPersistentObject():
/home/ursus/devel/optee/optee_os/lib/libutee/tee_api_objects.c:631
    2080:	a9bb7bfd 	stp	x29, x30, [sp,#-80]!
/home/ursus/devel/optee/optee_os/lib/libutee/tee_api_objects.c:642
    2084:	f100005f 	cmp	x2, #0x0
    2088:	fa401864 	ccmp	x3, #0x0, #0x4, ne
/home/ursus/devel/optee/optee_os/lib/libutee/tee_api_objects.c:631
    208c:	910003fd 	mov	x29, sp
    2090:	a90153f3 	stp	x19, x20, [sp,#16]
    2094:	129fff33 	mov	w19, #0xffff0006            	// #-65530
/home/ursus/devel/optee/optee_os/lib/libutee/tee_api_objects.c:642
    2098:	54000180 	b.eq	20c8 <TEE_GetNextPersistentObject+0x48>
    209c:	aa0303f4 	mov	x20, x3
/home/ursus/devel/optee/optee_os/lib/libutee/tee_api_objects.c:651
    20a0:	910143a3 	add	x3, x29, #0x50
/home/ursus/devel/optee/optee_os/lib/libutee/tee_api_objects.c:650
    20a4:	f100003f 	cmp	x1, #0x0
/home/ursus/devel/optee/optee_os/lib/libutee/tee_api_objects.c:651
    20a8:	b9400284 	ldr	w4, [x20]
    20ac:	f81d8c64 	str	x4, [x3,#-40]!
/home/ursus/devel/optee/optee_os/lib/libutee/tee_api_objects.c:652
    20b0:	9100c3a4 	add	x4, x29, #0x30
    20b4:	9a810081 	csel	x1, x4, x1, eq
    20b8:	94000e97 	bl	5b14 <utee_storage_next_enum>
    20bc:	2a0003f3 	mov	w19, w0
/home/ursus/devel/optee/optee_os/lib/libutee/tee_api_objects.c:654
    20c0:	f94017a0 	ldr	x0, [x29,#40]
    20c4:	b9000280 	str	w0, [x20]
/home/ursus/devel/optee/optee_os/lib/libutee/tee_api_objects.c:657
    20c8:	7100027f 	cmp	w19, #0x0
    20cc:	129ffee0 	mov	w0, #0xffff0008            	// #-65528
    20d0:	7a401264 	ccmp	w19, w0, #0x4, ne
    20d4:	54000240 	b.eq	211c <TEE_GetNextPersistentObject+0x9c>
/home/ursus/devel/optee/optee_os/lib/libutee/tee_api_objects.c:659
    20d8:	121e7a61 	and	w1, w19, #0xfffffffd
    20dc:	52800020 	mov	w0, #0x1                   	// #1
    20e0:	72be0200 	movk	w0, #0xf010, lsl #16
    20e4:	6b00003f 	cmp	w1, w0
    20e8:	540001a0 	b.eq	211c <TEE_GetNextPersistentObject+0x9c>
/home/ursus/devel/optee/optee_os/lib/libutee/tee_api_objects.c:661
    20ec:	2a1303e5 	mov	w5, w19
    20f0:	90000064 	adrp	x4, e000 <__func__.3633+0x30>
    20f4:	91112884 	add	x4, x4, #0x44a
    20f8:	52800023 	mov	w3, #0x1                   	// #1
    20fc:	52800022 	mov	w2, #0x1                   	// #1
    2100:	528052a1 	mov	w1, #0x295                 	// #661
    2104:	d0000040 	adrp	x0, c000 <mpa_set_str+0x4>
    2108:	9128e000 	add	x0, x0, #0xa38
    210c:	910c0000 	add	x0, x0, #0x300
    2110:	94001a38 	bl	89f0 <trace_printf>
    2114:	2a1303e0 	mov	w0, w19
    2118:	94000d2b 	bl	55c4 <__TEE_Panic>
/home/ursus/devel/optee/optee_os/lib/libutee/tee_api_objects.c:664
    211c:	2a1303e0 	mov	w0, w19
    2120:	a94153f3 	ldp	x19, x20, [sp,#16]
    2124:	a8c57bfd 	ldp	x29, x30, [sp],#80
    2128:	d65f03c0 	ret

000000000000212c <TEE_ReadObjectData>:
TEE_ReadObjectData():
/home/ursus/devel/optee/optee_os/lib/libutee/tee_api_objects.c:670
    212c:	a9bd7bfd 	stp	x29, x30, [sp,#-48]!
    2130:	910003fd 	mov	x29, sp
    2134:	a90153f3 	stp	x19, x20, [sp,#16]
    2138:	129fff33 	mov	w19, #0xffff0006            	// #-65530
/home/ursus/devel/optee/optee_os/lib/libutee/tee_api_objects.c:674
    213c:	b4000140 	cbz	x0, 2164 <TEE_ReadObjectData+0x38>
    2140:	aa0303f4 	mov	x20, x3
/home/ursus/devel/optee/optee_os/lib/libutee/tee_api_objects.c:679
    2144:	9100c3a3 	add	x3, x29, #0x30
/home/ursus/devel/optee/optee_os/lib/libutee/tee_api_objects.c:680
    2148:	2a0203e2 	mov	w2, w2
/home/ursus/devel/optee/optee_os/lib/libutee/tee_api_objects.c:679
    214c:	b9400284 	ldr	w4, [x20]
    2150:	f81f8c64 	str	x4, [x3,#-8]!
/home/ursus/devel/optee/optee_os/lib/libutee/tee_api_objects.c:680
    2154:	94000e73 	bl	5b20 <utee_storage_obj_read>
    2158:	2a0003f3 	mov	w19, w0
/home/ursus/devel/optee/optee_os/lib/libutee/tee_api_objects.c:682
    215c:	f94017a0 	ldr	x0, [x29,#40]
    2160:	b9000280 	str	w0, [x20]
/home/ursus/devel/optee/optee_os/lib/libutee/tee_api_objects.c:686
    2164:	121e7a60 	and	w0, w19, #0xfffffffd
    2168:	7100027f 	cmp	w19, #0x0
    216c:	52800021 	mov	w1, #0x1                   	// #1
    2170:	72be0201 	movk	w1, #0xf010, lsl #16
    2174:	7a411004 	ccmp	w0, w1, #0x4, ne
    2178:	540001a0 	b.eq	21ac <TEE_ReadObjectData+0x80>
/home/ursus/devel/optee/optee_os/lib/libutee/tee_api_objects.c:688
    217c:	2a1303e5 	mov	w5, w19
    2180:	90000064 	adrp	x4, e000 <__func__.3633+0x30>
    2184:	91112884 	add	x4, x4, #0x44a
    2188:	52800023 	mov	w3, #0x1                   	// #1
    218c:	52800022 	mov	w2, #0x1                   	// #1
    2190:	52805601 	mov	w1, #0x2b0                 	// #688
    2194:	d0000040 	adrp	x0, c000 <mpa_set_str+0x4>
    2198:	9128e000 	add	x0, x0, #0xa38
    219c:	910c8000 	add	x0, x0, #0x320
    21a0:	94001a14 	bl	89f0 <trace_printf>
    21a4:	2a1303e0 	mov	w0, w19
    21a8:	94000d07 	bl	55c4 <__TEE_Panic>
/home/ursus/devel/optee/optee_os/lib/libutee/tee_api_objects.c:691
    21ac:	2a1303e0 	mov	w0, w19
    21b0:	a94153f3 	ldp	x19, x20, [sp,#16]
    21b4:	a8c37bfd 	ldp	x29, x30, [sp],#48
    21b8:	d65f03c0 	ret

00000000000021bc <TEE_WriteObjectData>:
TEE_WriteObjectData():
/home/ursus/devel/optee/optee_os/lib/libutee/tee_api_objects.c:695
    21bc:	a9be7bfd 	stp	x29, x30, [sp,#-32]!
    21c0:	910003fd 	mov	x29, sp
    21c4:	f9000bf3 	str	x19, [sp,#16]
    21c8:	129fff33 	mov	w19, #0xffff0006            	// #-65530
/home/ursus/devel/optee/optee_os/lib/libutee/tee_api_objects.c:698
    21cc:	b4000080 	cbz	x0, 21dc <TEE_WriteObjectData+0x20>
/home/ursus/devel/optee/optee_os/lib/libutee/tee_api_objects.c:708
    21d0:	2a0203e2 	mov	w2, w2
    21d4:	94000e56 	bl	5b2c <utee_storage_obj_write>
    21d8:	2a0003f3 	mov	w19, w0
/home/ursus/devel/optee/optee_os/lib/libutee/tee_api_objects.c:711
    21dc:	7100027f 	cmp	w19, #0x0
    21e0:	1299f7c0 	mov	w0, #0xffff3041            	// #-53183
    21e4:	7a401264 	ccmp	w19, w0, #0x4, ne
    21e8:	54000280 	b.eq	2238 <TEE_WriteObjectData+0x7c>
/home/ursus/devel/optee/optee_os/lib/libutee/tee_api_objects.c:714
    21ec:	121e7a61 	and	w1, w19, #0xfffffffd
    21f0:	52800020 	mov	w0, #0x1                   	// #1
    21f4:	72be0200 	movk	w0, #0xf010, lsl #16
    21f8:	6b00003f 	cmp	w1, w0
    21fc:	1299fe00 	mov	w0, #0xffff300f            	// #-53233
    2200:	7a401264 	ccmp	w19, w0, #0x4, ne
    2204:	540001a0 	b.eq	2238 <TEE_WriteObjectData+0x7c>
/home/ursus/devel/optee/optee_os/lib/libutee/tee_api_objects.c:716
    2208:	2a1303e5 	mov	w5, w19
    220c:	90000064 	adrp	x4, e000 <__func__.3633+0x30>
    2210:	91112884 	add	x4, x4, #0x44a
    2214:	52800023 	mov	w3, #0x1                   	// #1
    2218:	52800022 	mov	w2, #0x1                   	// #1
    221c:	52805981 	mov	w1, #0x2cc                 	// #716
    2220:	d0000040 	adrp	x0, c000 <mpa_set_str+0x4>
    2224:	9128e000 	add	x0, x0, #0xa38
    2228:	910ce000 	add	x0, x0, #0x338
    222c:	940019f1 	bl	89f0 <trace_printf>
    2230:	2a1303e0 	mov	w0, w19
    2234:	94000ce4 	bl	55c4 <__TEE_Panic>
/home/ursus/devel/optee/optee_os/lib/libutee/tee_api_objects.c:719
    2238:	2a1303e0 	mov	w0, w19
    223c:	f9400bf3 	ldr	x19, [sp,#16]
    2240:	a8c27bfd 	ldp	x29, x30, [sp],#32
    2244:	d65f03c0 	ret

0000000000002248 <TEE_TruncateObjectData>:
TEE_TruncateObjectData():
/home/ursus/devel/optee/optee_os/lib/libutee/tee_api_objects.c:722
    2248:	a9be7bfd 	stp	x29, x30, [sp,#-32]!
    224c:	910003fd 	mov	x29, sp
    2250:	f9000bf3 	str	x19, [sp,#16]
    2254:	129fff33 	mov	w19, #0xffff0006            	// #-65530
/home/ursus/devel/optee/optee_os/lib/libutee/tee_api_objects.c:725
    2258:	b4000080 	cbz	x0, 2268 <TEE_TruncateObjectData+0x20>
/home/ursus/devel/optee/optee_os/lib/libutee/tee_api_objects.c:730
    225c:	2a0103e1 	mov	w1, w1
    2260:	94000e36 	bl	5b38 <utee_storage_obj_trunc>
    2264:	2a0003f3 	mov	w19, w0
/home/ursus/devel/optee/optee_os/lib/libutee/tee_api_objects.c:733
    2268:	7100027f 	cmp	w19, #0x0
    226c:	1299f7c0 	mov	w0, #0xffff3041            	// #-53183
    2270:	7a401264 	ccmp	w19, w0, #0x4, ne
    2274:	54000240 	b.eq	22bc <TEE_TruncateObjectData+0x74>
/home/ursus/devel/optee/optee_os/lib/libutee/tee_api_objects.c:735
    2278:	121e7a61 	and	w1, w19, #0xfffffffd
    227c:	52800020 	mov	w0, #0x1                   	// #1
    2280:	72be0200 	movk	w0, #0xf010, lsl #16
    2284:	6b00003f 	cmp	w1, w0
    2288:	540001a0 	b.eq	22bc <TEE_TruncateObjectData+0x74>
/home/ursus/devel/optee/optee_os/lib/libutee/tee_api_objects.c:737
    228c:	2a1303e5 	mov	w5, w19
    2290:	90000064 	adrp	x4, e000 <__func__.3633+0x30>
    2294:	91112884 	add	x4, x4, #0x44a
    2298:	52800023 	mov	w3, #0x1                   	// #1
    229c:	52800022 	mov	w2, #0x1                   	// #1
    22a0:	52805c21 	mov	w1, #0x2e1                 	// #737
    22a4:	d0000040 	adrp	x0, c000 <mpa_set_str+0x4>
    22a8:	9128e000 	add	x0, x0, #0xa38
    22ac:	910d4000 	add	x0, x0, #0x350
    22b0:	940019d0 	bl	89f0 <trace_printf>
    22b4:	2a1303e0 	mov	w0, w19
    22b8:	94000cc3 	bl	55c4 <__TEE_Panic>
/home/ursus/devel/optee/optee_os/lib/libutee/tee_api_objects.c:740
    22bc:	2a1303e0 	mov	w0, w19
    22c0:	f9400bf3 	ldr	x19, [sp,#16]
    22c4:	a8c27bfd 	ldp	x29, x30, [sp],#32
    22c8:	d65f03c0 	ret

00000000000022cc <TEE_SeekObjectData>:
TEE_SeekObjectData():
/home/ursus/devel/optee/optee_os/lib/libutee/tee_api_objects.c:744
    22cc:	a9bb7bfd 	stp	x29, x30, [sp,#-80]!
    22d0:	910003fd 	mov	x29, sp
    22d4:	a90153f3 	stp	x19, x20, [sp,#16]
/home/ursus/devel/optee/optee_os/lib/libutee/tee_api_objects.c:749
    22d8:	129fff33 	mov	w19, #0xffff0006            	// #-65530
/home/ursus/devel/optee/optee_os/lib/libutee/tee_api_objects.c:744
    22dc:	a9025bf5 	stp	x21, x22, [sp,#32]
/home/ursus/devel/optee/optee_os/lib/libutee/tee_api_objects.c:748
    22e0:	b40003e0 	cbz	x0, 235c <TEE_SeekObjectData+0x90>
    22e4:	aa0003f6 	mov	x22, x0
    22e8:	2a0103f4 	mov	w20, w1
    22ec:	2a0203f5 	mov	w21, w2
/home/ursus/devel/optee/optee_os/lib/libutee/tee_api_objects.c:753
    22f0:	9100c3a1 	add	x1, x29, #0x30
    22f4:	94000dbd 	bl	59e8 <utee_cryp_obj_get_info>
    22f8:	2a0003f3 	mov	w19, w0
/home/ursus/devel/optee/optee_os/lib/libutee/tee_api_objects.c:754
    22fc:	35000300 	cbnz	w0, 235c <TEE_SeekObjectData+0x90>
/home/ursus/devel/optee/optee_os/lib/libutee/tee_api_objects.c:757
    2300:	710006bf 	cmp	w21, #0x1
    2304:	540000c0 	b.eq	231c <TEE_SeekObjectData+0x50>
    2308:	34000115 	cbz	w21, 2328 <TEE_SeekObjectData+0x5c>
    230c:	71000abf 	cmp	w21, #0x2
    2310:	54000180 	b.eq	2340 <TEE_SeekObjectData+0x74>
/home/ursus/devel/optee/optee_os/lib/libutee/tee_api_objects.c:783
    2314:	129ffef3 	mov	w19, #0xffff0008            	// #-65528
    2318:	14000011 	b	235c <TEE_SeekObjectData+0x90>
/home/ursus/devel/optee/optee_os/lib/libutee/tee_api_objects.c:768
    231c:	b94047a0 	ldr	w0, [x29,#68]
/home/ursus/devel/optee/optee_os/lib/libutee/tee_api_objects.c:765
    2320:	7100029f 	cmp	w20, #0x0
    2324:	5400014c 	b.gt	234c <TEE_SeekObjectData+0x80>
/home/ursus/devel/optee/optee_os/lib/libutee/tee_api_objects.c:787
    2328:	2a1503e2 	mov	w2, w21
    232c:	2a1403e1 	mov	w1, w20
    2330:	aa1603e0 	mov	x0, x22
    2334:	94000e04 	bl	5b44 <utee_storage_obj_seek>
    2338:	2a0003f3 	mov	w19, w0
    233c:	14000008 	b	235c <TEE_SeekObjectData+0x90>
/home/ursus/devel/optee/optee_os/lib/libutee/tee_api_objects.c:775
    2340:	7100029f 	cmp	w20, #0x0
    2344:	54ffff2d 	b.le	2328 <TEE_SeekObjectData+0x5c>
/home/ursus/devel/optee/optee_os/lib/libutee/tee_api_objects.c:777 (discriminator 1)
    2348:	b94043a0 	ldr	w0, [x29,#64]
    234c:	0b000281 	add	w1, w20, w0
/home/ursus/devel/optee/optee_os/lib/libutee/tee_api_objects.c:770 (discriminator 1)
    2350:	1299fe13 	mov	w19, #0xffff300f            	// #-53233
/home/ursus/devel/optee/optee_os/lib/libutee/tee_api_objects.c:775 (discriminator 1)
    2354:	6b01001f 	cmp	w0, w1
    2358:	54fffe89 	b.ls	2328 <TEE_SeekObjectData+0x5c>
/home/ursus/devel/optee/optee_os/lib/libutee/tee_api_objects.c:790
    235c:	7100027f 	cmp	w19, #0x0
    2360:	1299fe00 	mov	w0, #0xffff300f            	// #-53233
    2364:	7a401264 	ccmp	w19, w0, #0x4, ne
    2368:	54000240 	b.eq	23b0 <TEE_SeekObjectData+0xe4>
/home/ursus/devel/optee/optee_os/lib/libutee/tee_api_objects.c:792
    236c:	121e7a61 	and	w1, w19, #0xfffffffd
    2370:	52800020 	mov	w0, #0x1                   	// #1
    2374:	72be0200 	movk	w0, #0xf010, lsl #16
    2378:	6b00003f 	cmp	w1, w0
    237c:	540001a0 	b.eq	23b0 <TEE_SeekObjectData+0xe4>
/home/ursus/devel/optee/optee_os/lib/libutee/tee_api_objects.c:794
    2380:	2a1303e5 	mov	w5, w19
    2384:	90000064 	adrp	x4, e000 <__func__.3633+0x30>
    2388:	91112884 	add	x4, x4, #0x44a
    238c:	52800023 	mov	w3, #0x1                   	// #1
    2390:	52800022 	mov	w2, #0x1                   	// #1
    2394:	52806341 	mov	w1, #0x31a                 	// #794
    2398:	d0000040 	adrp	x0, c000 <mpa_set_str+0x4>
    239c:	9128e000 	add	x0, x0, #0xa38
    23a0:	910da000 	add	x0, x0, #0x368
    23a4:	94001993 	bl	89f0 <trace_printf>
    23a8:	2a1303e0 	mov	w0, w19
    23ac:	94000c86 	bl	55c4 <__TEE_Panic>
/home/ursus/devel/optee/optee_os/lib/libutee/tee_api_objects.c:797
    23b0:	2a1303e0 	mov	w0, w19
    23b4:	a94153f3 	ldp	x19, x20, [sp,#16]
    23b8:	a9425bf5 	ldp	x21, x22, [sp,#32]
    23bc:	a8c57bfd 	ldp	x29, x30, [sp],#80
    23c0:	d65f03c0 	ret

00000000000023c4 <init_hash_operation>:
init_hash_operation():
/home/ursus/devel/optee/optee_os/lib/libutee/tee_api_operations.c:767
    23c4:	a9be7bfd 	stp	x29, x30, [sp,#-32]!
/home/ursus/devel/optee/optee_os/lib/libutee/tee_api_operations.c:774
    23c8:	2a0203e2 	mov	w2, w2
/home/ursus/devel/optee/optee_os/lib/libutee/tee_api_operations.c:767
    23cc:	910003fd 	mov	x29, sp
    23d0:	a90153f3 	stp	x19, x20, [sp,#16]
    23d4:	aa0003f3 	mov	x19, x0
/home/ursus/devel/optee/optee_os/lib/libutee/tee_api_operations.c:774
    23d8:	b9405800 	ldr	w0, [x0,#88]
    23dc:	94000d71 	bl	59a0 <utee_hash_init>
/home/ursus/devel/optee/optee_os/lib/libutee/tee_api_operations.c:775
    23e0:	340001a0 	cbz	w0, 2414 <init_hash_operation+0x50>
/home/ursus/devel/optee/optee_os/lib/libutee/tee_api_operations.c:776
    23e4:	2a0003e5 	mov	w5, w0
    23e8:	90000064 	adrp	x4, e000 <__func__.3633+0x30>
    23ec:	91112884 	add	x4, x4, #0x44a
    23f0:	52800023 	mov	w3, #0x1                   	// #1
    23f4:	52800022 	mov	w2, #0x1                   	// #1
    23f8:	52806101 	mov	w1, #0x308                 	// #776
    23fc:	2a0003f4 	mov	w20, w0
    2400:	d0000040 	adrp	x0, c000 <mpa_set_str+0x4>
    2404:	9136e000 	add	x0, x0, #0xdb8
    2408:	9400197a 	bl	89f0 <trace_printf>
    240c:	2a1403e0 	mov	w0, w20
    2410:	94000c6d 	bl	55c4 <__TEE_Panic>
/home/ursus/devel/optee/optee_os/lib/libutee/tee_api_operations.c:778
    2414:	b9401e60 	ldr	w0, [x19,#28]
/home/ursus/devel/optee/optee_os/lib/libutee/tee_api_operations.c:777
    2418:	f9002a7f 	str	xzr, [x19,#80]
/home/ursus/devel/optee/optee_os/lib/libutee/tee_api_operations.c:778
    241c:	320f0000 	orr	w0, w0, #0x20000
    2420:	b9001e60 	str	w0, [x19,#28]
/home/ursus/devel/optee/optee_os/lib/libutee/tee_api_operations.c:779
    2424:	a94153f3 	ldp	x19, x20, [sp,#16]
    2428:	a8c27bfd 	ldp	x29, x30, [sp],#32
    242c:	d65f03c0 	ret

0000000000002430 <TEE_FreeOperation>:
TEE_FreeOperation():
/home/ursus/devel/optee/optee_os/lib/libutee/tee_api_operations.c:366
    2430:	a9be7bfd 	stp	x29, x30, [sp,#-32]!
    2434:	910003fd 	mov	x29, sp
    2438:	a90153f3 	stp	x19, x20, [sp,#16]
    243c:	aa0003f3 	mov	x19, x0
/home/ursus/devel/optee/optee_os/lib/libutee/tee_api_operations.c:369
    2440:	b50001a0 	cbnz	x0, 2474 <TEE_FreeOperation+0x44>
/home/ursus/devel/optee/optee_os/lib/libutee/tee_api_operations.c:370
    2444:	90000064 	adrp	x4, e000 <__func__.3633+0x30>
    2448:	91112884 	add	x4, x4, #0x44a
    244c:	52800005 	mov	w5, #0x0                   	// #0
    2450:	52800023 	mov	w3, #0x1                   	// #1
    2454:	52800022 	mov	w2, #0x1                   	// #1
    2458:	52802e41 	mov	w1, #0x172                 	// #370
    245c:	d0000040 	adrp	x0, c000 <mpa_set_str+0x4>
    2460:	9136e000 	add	x0, x0, #0xdb8
    2464:	9100c000 	add	x0, x0, #0x30
    2468:	94001962 	bl	89f0 <trace_printf>
    246c:	52800000 	mov	w0, #0x0                   	// #0
    2470:	94000c55 	bl	55c4 <__TEE_Panic>
/home/ursus/devel/optee/optee_os/lib/libutee/tee_api_operations.c:377
    2474:	b9405a60 	ldr	w0, [x19,#88]
    2478:	94000d47 	bl	5994 <utee_cryp_state_free>
    247c:	2a0003f4 	mov	w20, w0
/home/ursus/devel/optee/optee_os/lib/libutee/tee_api_operations.c:378
    2480:	340001a0 	cbz	w0, 24b4 <TEE_FreeOperation+0x84>
/home/ursus/devel/optee/optee_os/lib/libutee/tee_api_operations.c:379
    2484:	2a0003e5 	mov	w5, w0
    2488:	90000064 	adrp	x4, e000 <__func__.3633+0x30>
    248c:	91112884 	add	x4, x4, #0x44a
    2490:	52800023 	mov	w3, #0x1                   	// #1
    2494:	52800022 	mov	w2, #0x1                   	// #1
    2498:	52802f61 	mov	w1, #0x17b                 	// #379
    249c:	d0000040 	adrp	x0, c000 <mpa_set_str+0x4>
    24a0:	9136e000 	add	x0, x0, #0xdb8
    24a4:	9100c000 	add	x0, x0, #0x30
    24a8:	94001952 	bl	89f0 <trace_printf>
    24ac:	2a1403e0 	mov	w0, w20
    24b0:	94000c45 	bl	55c4 <__TEE_Panic>
/home/ursus/devel/optee/optee_os/lib/libutee/tee_api_operations.c:381
    24b4:	f9401e60 	ldr	x0, [x19,#56]
    24b8:	97fffab8 	bl	f98 <TEE_Free>
/home/ursus/devel/optee/optee_os/lib/libutee/tee_api_operations.c:382
    24bc:	aa1303e0 	mov	x0, x19
/home/ursus/devel/optee/optee_os/lib/libutee/tee_api_operations.c:383
    24c0:	a94153f3 	ldp	x19, x20, [sp,#16]
    24c4:	a8c27bfd 	ldp	x29, x30, [sp],#32
/home/ursus/devel/optee/optee_os/lib/libutee/tee_api_operations.c:382
    24c8:	17fffab4 	b	f98 <TEE_Free>

00000000000024cc <TEE_AllocateOperation>:
TEE_AllocateOperation():
/home/ursus/devel/optee/optee_os/lib/libutee/tee_api_operations.c:59
    24cc:	a9b97bfd 	stp	x29, x30, [sp,#-112]!
    24d0:	910003fd 	mov	x29, sp
    24d4:	a90363f7 	stp	x23, x24, [sp,#48]
    24d8:	2a0203f8 	mov	w24, w2
    24dc:	a90153f3 	stp	x19, x20, [sp,#16]
    24e0:	2a0303f7 	mov	w23, w3
    24e4:	a9025bf5 	stp	x21, x22, [sp,#32]
    24e8:	2a0103f3 	mov	w19, w1
    24ec:	a9046bf9 	stp	x25, x26, [sp,#64]
    24f0:	a90573fb 	stp	x27, x28, [sp,#80]
    24f4:	f90037a0 	str	x0, [x29,#104]
/home/ursus/devel/optee/optee_os/lib/libutee/tee_api_operations.c:68
    24f8:	b50001a0 	cbnz	x0, 252c <TEE_AllocateOperation+0x60>
/home/ursus/devel/optee/optee_os/lib/libutee/tee_api_operations.c:69
    24fc:	90000064 	adrp	x4, e000 <__func__.3633+0x30>
    2500:	91112884 	add	x4, x4, #0x44a
    2504:	52800005 	mov	w5, #0x0                   	// #0
    2508:	52800023 	mov	w3, #0x1                   	// #1
    250c:	52800022 	mov	w2, #0x1                   	// #1
    2510:	528008a1 	mov	w1, #0x45                  	// #69
    2514:	d0000040 	adrp	x0, c000 <mpa_set_str+0x4>
    2518:	9136e000 	add	x0, x0, #0xdb8
    251c:	91012000 	add	x0, x0, #0x48
    2520:	94001934 	bl	89f0 <trace_printf>
    2524:	52800000 	mov	w0, #0x0                   	// #0
    2528:	94000c27 	bl	55c4 <__TEE_Panic>
/home/ursus/devel/optee/optee_os/lib/libutee/tee_api_operations.c:71
    252c:	52808200 	mov	w0, #0x410                 	// #1040
    2530:	72a20000 	movk	w0, #0x1000, lsl #16
    2534:	6b00027f 	cmp	w19, w0
    2538:	54002cc0 	b.eq	2ad0 <TEE_AllocateOperation+0x604>
/home/ursus/devel/optee/optee_os/lib/libutee/tee_api_operations.c:75
    253c:	52882620 	mov	w0, #0x4131                	// #16689
    2540:	72ae0000 	movk	w0, #0x7000, lsl #16
    2544:	6b00027f 	cmp	w19, w0
    2548:	54000e60 	b.eq	2714 <TEE_AllocateOperation+0x248>
    254c:	540007c8 	b.hi	2644 <TEE_AllocateOperation+0x178>
    2550:	52842620 	mov	w0, #0x2131                	// #8497
    2554:	72ae0000 	movk	w0, #0x7000, lsl #16
    2558:	6b00027f 	cmp	w19, w0
    255c:	54000aa0 	b.eq	26b0 <TEE_AllocateOperation+0x1e4>
    2560:	54000568 	b.hi	260c <TEE_AllocateOperation+0x140>
    2564:	52820820 	mov	w0, #0x1041                	// #4161
    2568:	72ae0000 	movk	w0, #0x7000, lsl #16
    256c:	6b00027f 	cmp	w19, w0
    2570:	54000840 	b.eq	2678 <TEE_AllocateOperation+0x1ac>
    2574:	11400400 	add	w0, w0, #0x1, lsl #12
    2578:	6b00027f 	cmp	w19, w0
    257c:	54000d40 	b.eq	2724 <TEE_AllocateOperation+0x258>
/home/ursus/devel/optee/optee_os/lib/libutee/tee_api_operations.c:130
    2580:	52842620 	mov	w0, #0x2131                	// #8497
    2584:	72ae0000 	movk	w0, #0x7000, lsl #16
    2588:	6b00027f 	cmp	w19, w0
    258c:	540009e0 	b.eq	26c8 <TEE_AllocateOperation+0x1fc>
    2590:	54001ae8 	b.hi	28ec <TEE_AllocateOperation+0x420>
    2594:	5280a260 	mov	w0, #0x513                 	// #1299
    2598:	72a60000 	movk	w0, #0x3000, lsl #16
    259c:	6b00027f 	cmp	w19, w0
    25a0:	54001000 	b.eq	27a0 <TEE_AllocateOperation+0x2d4>
    25a4:	54001208 	b.hi	27e4 <TEE_AllocateOperation+0x318>
    25a8:	52806200 	mov	w0, #0x310                 	// #784
    25ac:	72a20000 	movk	w0, #0x1000, lsl #16
    25b0:	6b00027f 	cmp	w19, w0
    25b4:	54002a80 	b.eq	2b04 <TEE_AllocateOperation+0x638>
    25b8:	52802220 	mov	w0, #0x111                 	// #273
    25bc:	54000dc8 	b.hi	2774 <TEE_AllocateOperation+0x2a8>
    25c0:	72a20000 	movk	w0, #0x1000, lsl #16
    25c4:	6b00027f 	cmp	w19, w0
    25c8:	54000c08 	b.hi	2748 <TEE_AllocateOperation+0x27c>
    25cc:	52802200 	mov	w0, #0x110                 	// #272
    25d0:	72a20000 	movk	w0, #0x1000, lsl #16
    25d4:	6b00027f 	cmp	w19, w0
    25d8:	540029a2 	b.cs	2b0c <TEE_AllocateOperation+0x640>
    25dc:	52800200 	mov	w0, #0x10                  	// #16
    25e0:	72a20000 	movk	w0, #0x1000, lsl #16
    25e4:	6b00027f 	cmp	w19, w0
    25e8:	540000e3 	b.cc	2604 <TEE_AllocateOperation+0x138>
    25ec:	11000400 	add	w0, w0, #0x1
    25f0:	6b00027f 	cmp	w19, w0
    25f4:	540028c9 	b.ls	2b0c <TEE_AllocateOperation+0x640>
    25f8:	11000800 	add	w0, w0, #0x2
    25fc:	6b00027f 	cmp	w19, w0
    2600:	54002860 	b.eq	2b0c <TEE_AllocateOperation+0x640>
/home/ursus/devel/optee/optee_os/lib/libutee/tee_api_operations.c:269
    2604:	129ffeb4 	mov	w20, #0xffff000a            	// #-65526
    2608:	1400003b 	b	26f4 <TEE_AllocateOperation+0x228>
/home/ursus/devel/optee/optee_os/lib/libutee/tee_api_operations.c:75
    260c:	52862620 	mov	w0, #0x3131                	// #12593
    2610:	72ae0000 	movk	w0, #0x7000, lsl #16
    2614:	6b00027f 	cmp	w19, w0
    2618:	54000680 	b.eq	26e8 <TEE_AllocateOperation+0x21c>
    261c:	113c4000 	add	w0, w0, #0xf10
    2620:	6b00027f 	cmp	w19, w0
    2624:	54000860 	b.eq	2730 <TEE_AllocateOperation+0x264>
    2628:	52860820 	mov	w0, #0x3041                	// #12353
    262c:	72ae0000 	movk	w0, #0x7000, lsl #16
    2630:	6b00027f 	cmp	w19, w0
    2634:	54fffa61 	b.ne	2580 <TEE_AllocateOperation+0xb4>
/home/ursus/devel/optee/optee_os/lib/libutee/tee_api_operations.c:80
    2638:	129ffeb4 	mov	w20, #0xffff000a            	// #-65526
/home/ursus/devel/optee/optee_os/lib/libutee/tee_api_operations.c:109
    263c:	710402ff 	cmp	w23, #0x100
    2640:	14000010 	b	2680 <TEE_AllocateOperation+0x1b4>
/home/ursus/devel/optee/optee_os/lib/libutee/tee_api_operations.c:75
    2644:	52840840 	mov	w0, #0x2042                	// #8258
    2648:	72b00000 	movk	w0, #0x8000, lsl #16
    264c:	6b00027f 	cmp	w19, w0
    2650:	540006a0 	b.eq	2724 <TEE_AllocateOperation+0x258>
    2654:	540001a8 	b.hi	2688 <TEE_AllocateOperation+0x1bc>
    2658:	528a0820 	mov	w0, #0x5041                	// #20545
    265c:	72ae0000 	movk	w0, #0x7000, lsl #16
    2660:	6b00027f 	cmp	w19, w0
    2664:	540006c0 	b.eq	273c <TEE_AllocateOperation+0x270>
    2668:	52820840 	mov	w0, #0x1042                	// #4162
    266c:	72b00000 	movk	w0, #0x8000, lsl #16
    2670:	6b00027f 	cmp	w19, w0
    2674:	54fff861 	b.ne	2580 <TEE_AllocateOperation+0xb4>
/home/ursus/devel/optee/optee_os/lib/libutee/tee_api_operations.c:97
    2678:	710302ff 	cmp	w23, #0xc0
/home/ursus/devel/optee/optee_os/lib/libutee/tee_api_operations.c:80
    267c:	129ffeb4 	mov	w20, #0xffff000a            	// #-65526
/home/ursus/devel/optee/optee_os/lib/libutee/tee_api_operations.c:121
    2680:	540003a1 	b.ne	26f4 <TEE_AllocateOperation+0x228>
    2684:	17ffffbf 	b	2580 <TEE_AllocateOperation+0xb4>
/home/ursus/devel/optee/optee_os/lib/libutee/tee_api_operations.c:75
    2688:	52880840 	mov	w0, #0x4042                	// #16450
    268c:	72b00000 	movk	w0, #0x8000, lsl #16
    2690:	6b00027f 	cmp	w19, w0
    2694:	540004e0 	b.eq	2730 <TEE_AllocateOperation+0x264>
    2698:	11400400 	add	w0, w0, #0x1, lsl #12
    269c:	6b00027f 	cmp	w19, w0
    26a0:	540004e0 	b.eq	273c <TEE_AllocateOperation+0x270>
    26a4:	52860840 	mov	w0, #0x3042                	// #12354
    26a8:	72b00000 	movk	w0, #0x8000, lsl #16
    26ac:	17ffffe1 	b	2630 <TEE_AllocateOperation+0x164>
/home/ursus/devel/optee/optee_os/lib/libutee/tee_api_operations.c:79
    26b0:	510802e0 	sub	w0, w23, #0x200
/home/ursus/devel/optee/optee_os/lib/libutee/tee_api_operations.c:80
    26b4:	129ffeb4 	mov	w20, #0xffff000a            	// #-65526
/home/ursus/devel/optee/optee_os/lib/libutee/tee_api_operations.c:79
    26b8:	7108001f 	cmp	w0, #0x200
    26bc:	540001c8 	b.hi	26f4 <TEE_AllocateOperation+0x228>
/home/ursus/devel/optee/optee_os/lib/libutee/tee_api_operations.c:81
    26c0:	f24016ff 	tst	x23, #0x3f
    26c4:	54000181 	b.ne	26f4 <TEE_AllocateOperation+0x228>
/home/ursus/devel/optee/optee_os/lib/libutee/tee_api_operations.c:176
    26c8:	71000b1f 	cmp	w24, #0x2
    26cc:	540029c0 	b.eq	2c04 <TEE_AllocateOperation+0x738>
/home/ursus/devel/optee/optee_os/lib/libutee/tee_api_operations.c:179
    26d0:	71000f1f 	cmp	w24, #0x3
    26d4:	54fff981 	b.ne	2604 <TEE_AllocateOperation+0x138>
/home/ursus/devel/optee/optee_os/lib/libutee/tee_api_operations.c:66
    26d8:	52800019 	mov	w25, #0x0                   	// #0
/home/ursus/devel/optee/optee_os/lib/libutee/tee_api_operations.c:65
    26dc:	5280001b 	mov	w27, #0x0                   	// #0
/home/ursus/devel/optee/optee_os/lib/libutee/tee_api_operations.c:180
    26e0:	52800403 	mov	w3, #0x20                  	// #32
    26e4:	140000d6 	b	2a3c <TEE_AllocateOperation+0x570>
/home/ursus/devel/optee/optee_os/lib/libutee/tee_api_operations.c:86
    26e8:	712002ff 	cmp	w23, #0x800
/home/ursus/devel/optee/optee_os/lib/libutee/tee_api_operations.c:80
    26ec:	129ffeb4 	mov	w20, #0xffff000a            	// #-65526
/home/ursus/devel/optee/optee_os/lib/libutee/tee_api_operations.c:91
    26f0:	54fffec0 	b.eq	26c8 <TEE_AllocateOperation+0x1fc>
/home/ursus/devel/optee/optee_os/lib/libutee/tee_api_operations.c:363
    26f4:	2a1403e0 	mov	w0, w20
    26f8:	a94153f3 	ldp	x19, x20, [sp,#16]
    26fc:	a9425bf5 	ldp	x21, x22, [sp,#32]
    2700:	a94363f7 	ldp	x23, x24, [sp,#48]
    2704:	a9446bf9 	ldp	x25, x26, [sp,#64]
    2708:	a94573fb 	ldp	x27, x28, [sp,#80]
    270c:	a8c77bfd 	ldp	x29, x30, [sp],#112
    2710:	d65f03c0 	ret
/home/ursus/devel/optee/optee_os/lib/libutee/tee_api_operations.c:91
    2714:	12157ae0 	and	w0, w23, #0xfffffbff
/home/ursus/devel/optee/optee_os/lib/libutee/tee_api_operations.c:80
    2718:	129ffeb4 	mov	w20, #0xffff000a            	// #-65526
/home/ursus/devel/optee/optee_os/lib/libutee/tee_api_operations.c:91
    271c:	7120001f 	cmp	w0, #0x800
    2720:	17fffff4 	b	26f0 <TEE_AllocateOperation+0x224>
/home/ursus/devel/optee/optee_os/lib/libutee/tee_api_operations.c:80
    2724:	129ffeb4 	mov	w20, #0xffff000a            	// #-65526
/home/ursus/devel/optee/optee_os/lib/libutee/tee_api_operations.c:103
    2728:	710382ff 	cmp	w23, #0xe0
    272c:	17ffffd5 	b	2680 <TEE_AllocateOperation+0x1b4>
/home/ursus/devel/optee/optee_os/lib/libutee/tee_api_operations.c:80
    2730:	129ffeb4 	mov	w20, #0xffff000a            	// #-65526
/home/ursus/devel/optee/optee_os/lib/libutee/tee_api_operations.c:115
    2734:	710602ff 	cmp	w23, #0x180
    2738:	17ffffd2 	b	2680 <TEE_AllocateOperation+0x1b4>
/home/ursus/devel/optee/optee_os/lib/libutee/tee_api_operations.c:80
    273c:	129ffeb4 	mov	w20, #0xffff000a            	// #-65526
/home/ursus/devel/optee/optee_os/lib/libutee/tee_api_operations.c:121
    2740:	710826ff 	cmp	w23, #0x209
    2744:	17ffffcf 	b	2680 <TEE_AllocateOperation+0x1b4>
/home/ursus/devel/optee/optee_os/lib/libutee/tee_api_operations.c:130
    2748:	52802260 	mov	w0, #0x113                 	// #275
    274c:	72a20000 	movk	w0, #0x1000, lsl #16
    2750:	6b00027f 	cmp	w19, w0
    2754:	54001dc0 	b.eq	2b0c <TEE_AllocateOperation+0x640>
    2758:	1103f400 	add	w0, w0, #0xfd
    275c:	6b00027f 	cmp	w19, w0
    2760:	54fff521 	b.ne	2604 <TEE_AllocateOperation+0x138>
    2764:	5280001a 	mov	w26, #0x0                   	// #0
/home/ursus/devel/optee/optee_os/lib/libutee/tee_api_operations.c:66
    2768:	52800019 	mov	w25, #0x0                   	// #0
/home/ursus/devel/optee/optee_os/lib/libutee/tee_api_operations.c:63
    276c:	d2800036 	mov	x22, #0x1                   	// #1
    2770:	140000df 	b	2aec <TEE_AllocateOperation+0x620>
/home/ursus/devel/optee/optee_os/lib/libutee/tee_api_operations.c:130
    2774:	72a60000 	movk	w0, #0x3000, lsl #16
    2778:	6b00027f 	cmp	w19, w0
    277c:	54000208 	b.hi	27bc <TEE_AllocateOperation+0x2f0>
    2780:	52802200 	mov	w0, #0x110                 	// #272
    2784:	72a60000 	movk	w0, #0x3000, lsl #16
    2788:	6b00027f 	cmp	w19, w0
    278c:	540000a2 	b.cs	27a0 <TEE_AllocateOperation+0x2d4>
    2790:	12a60000 	mov	w0, #0xcfffffff            	// #-805306369
    2794:	0b000260 	add	w0, w19, w0
    2798:	7100141f 	cmp	w0, #0x5
    279c:	54fff348 	b.hi	2604 <TEE_AllocateOperation+0x138>
/home/ursus/devel/optee/optee_os/lib/libutee/tee_api_operations.c:80
    27a0:	129ffeb4 	mov	w20, #0xffff000a            	// #-65526
/home/ursus/devel/optee/optee_os/lib/libutee/tee_api_operations.c:263
    27a4:	7100131f 	cmp	w24, #0x4
    27a8:	54fffa61 	b.ne	26f4 <TEE_AllocateOperation+0x228>
/home/ursus/devel/optee/optee_os/lib/libutee/tee_api_operations.c:66
    27ac:	52800019 	mov	w25, #0x0                   	// #0
/home/ursus/devel/optee/optee_os/lib/libutee/tee_api_operations.c:65
    27b0:	5280001b 	mov	w27, #0x0                   	// #0
/home/ursus/devel/optee/optee_os/lib/libutee/tee_api_operations.c:265
    27b4:	52800103 	mov	w3, #0x8                   	// #8
    27b8:	140000a1 	b	2a3c <TEE_AllocateOperation+0x570>
/home/ursus/devel/optee/optee_os/lib/libutee/tee_api_operations.c:130
    27bc:	52802260 	mov	w0, #0x113                 	// #275
    27c0:	72a60000 	movk	w0, #0x3000, lsl #16
    27c4:	6b00027f 	cmp	w19, w0
    27c8:	54fffec0 	b.eq	27a0 <TEE_AllocateOperation+0x2d4>
    27cc:	54fff1c3 	b.cc	2604 <TEE_AllocateOperation+0x138>
    27d0:	529f5e00 	mov	w0, #0xfaf0                	// #64240
    27d4:	72b9ffe0 	movk	w0, #0xcfff, lsl #16
    27d8:	0b000260 	add	w0, w19, w0
    27dc:	7100041f 	cmp	w0, #0x1
    27e0:	17ffffef 	b	279c <TEE_AllocateOperation+0x2d0>
    27e4:	52804600 	mov	w0, #0x230                 	// #560
    27e8:	72ac0420 	movk	w0, #0x6021, lsl #16
    27ec:	6b00027f 	cmp	w19, w0
    27f0:	540003a0 	b.eq	2864 <TEE_AllocateOperation+0x398>
    27f4:	54000468 	b.hi	2880 <TEE_AllocateOperation+0x3b4>
    27f8:	528000c0 	mov	w0, #0x6                   	// #6
    27fc:	72aa0000 	movk	w0, #0x5000, lsl #16
    2800:	6b00027f 	cmp	w19, w0
    2804:	54000228 	b.hi	2848 <TEE_AllocateOperation+0x37c>
    2808:	52800020 	mov	w0, #0x1                   	// #1
    280c:	72aa0000 	movk	w0, #0x5000, lsl #16
    2810:	6b00027f 	cmp	w19, w0
    2814:	54001902 	b.cs	2b34 <TEE_AllocateOperation+0x668>
    2818:	5280e200 	mov	w0, #0x710                 	// #1808
    281c:	72a80000 	movk	w0, #0x4000, lsl #16
    2820:	6b00027f 	cmp	w19, w0
    2824:	54001740 	b.eq	2b0c <TEE_AllocateOperation+0x640>
    2828:	11040000 	add	w0, w0, #0x100
    282c:	6b00027f 	cmp	w19, w0
    2830:	54fff9a0 	b.eq	2764 <TEE_AllocateOperation+0x298>
    2834:	5280c200 	mov	w0, #0x610                 	// #1552
    2838:	72a60000 	movk	w0, #0x3000, lsl #16
    283c:	6b00027f 	cmp	w19, w0
    2840:	54ffee21 	b.ne	2604 <TEE_AllocateOperation+0x138>
    2844:	17ffffd7 	b	27a0 <TEE_AllocateOperation+0x2d4>
    2848:	52800600 	mov	w0, #0x30                  	// #48
    284c:	72ac0000 	movk	w0, #0x6000, lsl #16
    2850:	6b00027f 	cmp	w19, w0
    2854:	54001620 	b.eq	2b18 <TEE_AllocateOperation+0x64c>
    2858:	11040000 	add	w0, w0, #0x100
    285c:	6b00027f 	cmp	w19, w0
    2860:	54ffed21 	b.ne	2604 <TEE_AllocateOperation+0x138>
/home/ursus/devel/optee/optee_os/lib/libutee/tee_api_operations.c:192
    2864:	34001d98 	cbz	w24, 2c14 <TEE_AllocateOperation+0x748>
/home/ursus/devel/optee/optee_os/lib/libutee/tee_api_operations.c:194
    2868:	7100071f 	cmp	w24, #0x1
    286c:	54ffecc1 	b.ne	2604 <TEE_AllocateOperation+0x138>
/home/ursus/devel/optee/optee_os/lib/libutee/tee_api_operations.c:66
    2870:	52800019 	mov	w25, #0x0                   	// #0
/home/ursus/devel/optee/optee_os/lib/libutee/tee_api_operations.c:195
    2874:	2a1803fb 	mov	w27, w24
/home/ursus/devel/optee/optee_os/lib/libutee/tee_api_operations.c:196
    2878:	52800083 	mov	w3, #0x4                   	// #4
    287c:	14000070 	b	2a3c <TEE_AllocateOperation+0x570>
/home/ursus/devel/optee/optee_os/lib/libutee/tee_api_operations.c:130
    2880:	52804600 	mov	w0, #0x230                 	// #560
    2884:	72ac0c20 	movk	w0, #0x6061, lsl #16
    2888:	6b00027f 	cmp	w19, w0
    288c:	54fffec0 	b.eq	2864 <TEE_AllocateOperation+0x398>
    2890:	54000168 	b.hi	28bc <TEE_AllocateOperation+0x3f0>
    2894:	52804600 	mov	w0, #0x230                 	// #560
    2898:	72ac0820 	movk	w0, #0x6041, lsl #16
    289c:	6b00027f 	cmp	w19, w0
    28a0:	54fffe20 	b.eq	2864 <TEE_AllocateOperation+0x398>
    28a4:	11440000 	add	w0, w0, #0x100, lsl #12
    28a8:	6b00027f 	cmp	w19, w0
    28ac:	54fffdc0 	b.eq	2864 <TEE_AllocateOperation+0x398>
    28b0:	52804600 	mov	w0, #0x230                 	// #560
    28b4:	72ac0620 	movk	w0, #0x6031, lsl #16
    28b8:	17ffffe9 	b	285c <TEE_AllocateOperation+0x390>
    28bc:	52830600 	mov	w0, #0x1830                	// #6192
    28c0:	72ae0000 	movk	w0, #0x7000, lsl #16
    28c4:	6b00027f 	cmp	w19, w0
    28c8:	54fff000 	b.eq	26c8 <TEE_AllocateOperation+0x1fc>
    28cc:	11204400 	add	w0, w0, #0x811
    28d0:	6b00027f 	cmp	w19, w0
    28d4:	54ffefa0 	b.eq	26c8 <TEE_AllocateOperation+0x1fc>
    28d8:	52820820 	mov	w0, #0x1041                	// #4161
    28dc:	72ae0000 	movk	w0, #0x7000, lsl #16
    28e0:	6b00027f 	cmp	w19, w0
    28e4:	54ffe901 	b.ne	2604 <TEE_AllocateOperation+0x138>
    28e8:	17ffff78 	b	26c8 <TEE_AllocateOperation+0x1fc>
    28ec:	52800640 	mov	w0, #0x32                  	// #50
    28f0:	72b00000 	movk	w0, #0x8000, lsl #16
    28f4:	6b00027f 	cmp	w19, w0
    28f8:	54000960 	b.eq	2a24 <TEE_AllocateOperation+0x558>
    28fc:	540006c8 	b.hi	29d4 <TEE_AllocateOperation+0x508>
    2900:	528a0820 	mov	w0, #0x5041                	// #20545
    2904:	72ae0000 	movk	w0, #0x7000, lsl #16
    2908:	6b00027f 	cmp	w19, w0
    290c:	54ffede0 	b.eq	26c8 <TEE_AllocateOperation+0x1fc>
    2910:	54000308 	b.hi	2970 <TEE_AllocateOperation+0x4a4>
    2914:	52870600 	mov	w0, #0x3830                	// #14384
    2918:	72ae0000 	movk	w0, #0x7000, lsl #16
    291c:	6b00027f 	cmp	w19, w0
    2920:	54ffed40 	b.eq	26c8 <TEE_AllocateOperation+0x1fc>
    2924:	54000148 	b.hi	294c <TEE_AllocateOperation+0x480>
    2928:	52860820 	mov	w0, #0x3041                	// #12353
    292c:	72ae0000 	movk	w0, #0x7000, lsl #16
    2930:	6b00027f 	cmp	w19, w0
    2934:	54ffeca0 	b.eq	26c8 <TEE_AllocateOperation+0x1fc>
    2938:	1103c000 	add	w0, w0, #0xf0
    293c:	6b00027f 	cmp	w19, w0
    2940:	54ffec40 	b.eq	26c8 <TEE_AllocateOperation+0x1fc>
    2944:	52850600 	mov	w0, #0x2830                	// #10288
    2948:	17ffffe5 	b	28dc <TEE_AllocateOperation+0x410>
    294c:	52882620 	mov	w0, #0x4131                	// #16689
    2950:	72ae0000 	movk	w0, #0x7000, lsl #16
    2954:	6b00027f 	cmp	w19, w0
    2958:	54ffeb80 	b.eq	26c8 <TEE_AllocateOperation+0x1fc>
    295c:	111bfc00 	add	w0, w0, #0x6ff
    2960:	6b00027f 	cmp	w19, w0
    2964:	54ffeb20 	b.eq	26c8 <TEE_AllocateOperation+0x1fc>
    2968:	52880820 	mov	w0, #0x4041                	// #16449
    296c:	17ffffdc 	b	28dc <TEE_AllocateOperation+0x410>
    2970:	52872600 	mov	w0, #0x3930                	// #14640
    2974:	72ae0620 	movk	w0, #0x7031, lsl #16
    2978:	6b00027f 	cmp	w19, w0
    297c:	54ffea60 	b.eq	26c8 <TEE_AllocateOperation+0x1fc>
    2980:	54000168 	b.hi	29ac <TEE_AllocateOperation+0x4e0>
    2984:	528d0600 	mov	w0, #0x6830                	// #26672
    2988:	72ae0000 	movk	w0, #0x7000, lsl #16
    298c:	6b00027f 	cmp	w19, w0
    2990:	54ffe9c0 	b.eq	26c8 <TEE_AllocateOperation+0x1fc>
    2994:	52852600 	mov	w0, #0x2930                	// #10544
    2998:	72ae0420 	movk	w0, #0x7021, lsl #16
    299c:	6b00027f 	cmp	w19, w0
    29a0:	54ffe940 	b.eq	26c8 <TEE_AllocateOperation+0x1fc>
    29a4:	528b0600 	mov	w0, #0x5830                	// #22576
    29a8:	17ffffcd 	b	28dc <TEE_AllocateOperation+0x410>
    29ac:	528b2600 	mov	w0, #0x5930                	// #22832
    29b0:	72ae0a20 	movk	w0, #0x7051, lsl #16
    29b4:	6b00027f 	cmp	w19, w0
    29b8:	54ffe880 	b.eq	26c8 <TEE_AllocateOperation+0x1fc>
    29bc:	11440400 	add	w0, w0, #0x101, lsl #12
    29c0:	6b00027f 	cmp	w19, w0
    29c4:	54ffe820 	b.eq	26c8 <TEE_AllocateOperation+0x1fc>
    29c8:	52892600 	mov	w0, #0x4930                	// #18736
    29cc:	72ae0820 	movk	w0, #0x7041, lsl #16
    29d0:	17ffffc4 	b	28e0 <TEE_AllocateOperation+0x414>
    29d4:	52861820 	mov	w0, #0x30c1                	// #12481
    29d8:	72b00000 	movk	w0, #0x8000, lsl #16
    29dc:	6b00027f 	cmp	w19, w0
    29e0:	54000468 	b.hi	2a6c <TEE_AllocateOperation+0x5a0>
    29e4:	52861800 	mov	w0, #0x30c0                	// #12480
    29e8:	72b00000 	movk	w0, #0x8000, lsl #16
    29ec:	6b00027f 	cmp	w19, w0
    29f0:	540001a2 	b.cs	2a24 <TEE_AllocateOperation+0x558>
    29f4:	52840840 	mov	w0, #0x2042                	// #8258
    29f8:	72b00000 	movk	w0, #0x8000, lsl #16
    29fc:	6b00027f 	cmp	w19, w0
    2a00:	54000120 	b.eq	2a24 <TEE_AllocateOperation+0x558>
    2a04:	54000228 	b.hi	2a48 <TEE_AllocateOperation+0x57c>
    2a08:	52820840 	mov	w0, #0x1042                	// #4162
    2a0c:	72b00000 	movk	w0, #0x8000, lsl #16
    2a10:	6b00027f 	cmp	w19, w0
    2a14:	54000080 	b.eq	2a24 <TEE_AllocateOperation+0x558>
    2a18:	1101f800 	add	w0, w0, #0x7e
    2a1c:	6b00027f 	cmp	w19, w0
    2a20:	54ffdf21 	b.ne	2604 <TEE_AllocateOperation+0x138>
/home/ursus/devel/optee/optee_os/lib/libutee/tee_api_operations.c:80
    2a24:	129ffeb4 	mov	w20, #0xffff000a            	// #-65526
/home/ursus/devel/optee/optee_os/lib/libutee/tee_api_operations.c:231
    2a28:	71001b1f 	cmp	w24, #0x6
    2a2c:	54ffe641 	b.ne	26f4 <TEE_AllocateOperation+0x228>
/home/ursus/devel/optee/optee_os/lib/libutee/tee_api_operations.c:66
    2a30:	52800019 	mov	w25, #0x0                   	// #0
/home/ursus/devel/optee/optee_os/lib/libutee/tee_api_operations.c:233
    2a34:	5280003b 	mov	w27, #0x1                   	// #1
/home/ursus/devel/optee/optee_os/lib/libutee/tee_api_operations.c:234
    2a38:	52800803 	mov	w3, #0x40                  	// #64
/home/ursus/devel/optee/optee_os/lib/libutee/tee_api_operations.c:63
    2a3c:	d2800036 	mov	x22, #0x1                   	// #1
    2a40:	5280001a 	mov	w26, #0x0                   	// #0
    2a44:	14000044 	b	2b54 <TEE_AllocateOperation+0x688>
/home/ursus/devel/optee/optee_os/lib/libutee/tee_api_operations.c:130
    2a48:	52841800 	mov	w0, #0x20c0                	// #8384
    2a4c:	72b00000 	movk	w0, #0x8000, lsl #16
    2a50:	6b00027f 	cmp	w19, w0
    2a54:	54ffdd83 	b.cc	2604 <TEE_AllocateOperation+0x138>
    2a58:	11000800 	add	w0, w0, #0x2
    2a5c:	6b00027f 	cmp	w19, w0
    2a60:	54fffe29 	b.ls	2a24 <TEE_AllocateOperation+0x558>
    2a64:	113e0000 	add	w0, w0, #0xf80
    2a68:	17ffffed 	b	2a1c <TEE_AllocateOperation+0x550>
    2a6c:	528a0840 	mov	w0, #0x5042                	// #20546
    2a70:	72b00000 	movk	w0, #0x8000, lsl #16
    2a74:	6b00027f 	cmp	w19, w0
    2a78:	54fffd60 	b.eq	2a24 <TEE_AllocateOperation+0x558>
    2a7c:	54000188 	b.hi	2aac <TEE_AllocateOperation+0x5e0>
    2a80:	52880840 	mov	w0, #0x4042                	// #16450
    2a84:	72b00000 	movk	w0, #0x8000, lsl #16
    2a88:	6b00027f 	cmp	w19, w0
    2a8c:	54fffcc0 	b.eq	2a24 <TEE_AllocateOperation+0x558>
    2a90:	5297e800 	mov	w0, #0xbf40                	// #48960
    2a94:	54ffdb83 	b.cc	2604 <TEE_AllocateOperation+0x138>
    2a98:	72afffe0 	movk	w0, #0x7fff, lsl #16
    2a9c:	0b000260 	add	w0, w19, w0
    2aa0:	7100041f 	cmp	w0, #0x1
    2aa4:	54fffc09 	b.ls	2a24 <TEE_AllocateOperation+0x558>
    2aa8:	17fffed7 	b	2604 <TEE_AllocateOperation+0x138>
    2aac:	528a1800 	mov	w0, #0x50c0                	// #20672
    2ab0:	72b00000 	movk	w0, #0x8000, lsl #16
    2ab4:	6b00027f 	cmp	w19, w0
    2ab8:	54ffda63 	b.cc	2604 <TEE_AllocateOperation+0x138>
    2abc:	11000400 	add	w0, w0, #0x1
    2ac0:	6b00027f 	cmp	w19, w0
    2ac4:	54fffb09 	b.ls	2a24 <TEE_AllocateOperation+0x558>
    2ac8:	5293e800 	mov	w0, #0x9f40                	// #40768
    2acc:	17fffff3 	b	2a98 <TEE_AllocateOperation+0x5cc>
/home/ursus/devel/optee/optee_os/lib/libutee/tee_api_operations.c:72
    2ad0:	52a0011a 	mov	w26, #0x80000               	// #524288
/home/ursus/devel/optee/optee_os/lib/libutee/tee_api_operations.c:133
    2ad4:	52800039 	mov	w25, #0x1                   	// #1
/home/ursus/devel/optee/optee_os/lib/libutee/tee_api_operations.c:142
    2ad8:	12001e60 	and	w0, w19, #0xff
/home/ursus/devel/optee/optee_os/lib/libutee/tee_api_operations.c:145
    2adc:	d2800216 	mov	x22, #0x10                  	// #16
    2ae0:	7100401f 	cmp	w0, #0x10
    2ae4:	d2800100 	mov	x0, #0x8                   	// #8
    2ae8:	9a8002d6 	csel	x22, x22, x0, eq
/home/ursus/devel/optee/optee_os/lib/libutee/tee_api_operations.c:149
    2aec:	34000878 	cbz	w24, 2bf8 <TEE_AllocateOperation+0x72c>
/home/ursus/devel/optee/optee_os/lib/libutee/tee_api_operations.c:151
    2af0:	7100071f 	cmp	w24, #0x1
    2af4:	54ffd881 	b.ne	2604 <TEE_AllocateOperation+0x138>
/home/ursus/devel/optee/optee_os/lib/libutee/tee_api_operations.c:65
    2af8:	5280001b 	mov	w27, #0x0                   	// #0
/home/ursus/devel/optee/optee_os/lib/libutee/tee_api_operations.c:152
    2afc:	52800083 	mov	w3, #0x4                   	// #4
    2b00:	14000015 	b	2b54 <TEE_AllocateOperation+0x688>
/home/ursus/devel/optee/optee_os/lib/libutee/tee_api_operations.c:130
    2b04:	5280001a 	mov	w26, #0x0                   	// #0
    2b08:	17fffff3 	b	2ad4 <TEE_AllocateOperation+0x608>
    2b0c:	5280001a 	mov	w26, #0x0                   	// #0
/home/ursus/devel/optee/optee_os/lib/libutee/tee_api_operations.c:66
    2b10:	52800019 	mov	w25, #0x0                   	// #0
    2b14:	17fffff1 	b	2ad8 <TEE_AllocateOperation+0x60c>
/home/ursus/devel/optee/optee_os/lib/libutee/tee_api_operations.c:203
    2b18:	340008b8 	cbz	w24, 2c2c <TEE_AllocateOperation+0x760>
/home/ursus/devel/optee/optee_os/lib/libutee/tee_api_operations.c:205
    2b1c:	7100071f 	cmp	w24, #0x1
    2b20:	54ffd721 	b.ne	2604 <TEE_AllocateOperation+0x138>
/home/ursus/devel/optee/optee_os/lib/libutee/tee_api_operations.c:66
    2b24:	52800019 	mov	w25, #0x0                   	// #0
/home/ursus/devel/optee/optee_os/lib/libutee/tee_api_operations.c:206
    2b28:	5280003b 	mov	w27, #0x1                   	// #1
/home/ursus/devel/optee/optee_os/lib/libutee/tee_api_operations.c:207
    2b2c:	52800283 	mov	w3, #0x14                  	// #20
    2b30:	17ffffc3 	b	2a3c <TEE_AllocateOperation+0x570>
/home/ursus/devel/optee/optee_os/lib/libutee/tee_api_operations.c:80
    2b34:	129ffeb4 	mov	w20, #0xffff000a            	// #-65526
/home/ursus/devel/optee/optee_os/lib/libutee/tee_api_operations.c:243
    2b38:	7100171f 	cmp	w24, #0x5
    2b3c:	54ffddc1 	b.ne	26f4 <TEE_AllocateOperation+0x228>
/home/ursus/devel/optee/optee_os/lib/libutee/tee_api_operations.c:66
    2b40:	52800019 	mov	w25, #0x0                   	// #0
/home/ursus/devel/optee/optee_os/lib/libutee/tee_api_operations.c:65
    2b44:	5280001b 	mov	w27, #0x0                   	// #0
/home/ursus/devel/optee/optee_os/lib/libutee/tee_api_operations.c:247
    2b48:	52800003 	mov	w3, #0x0                   	// #0
/home/ursus/devel/optee/optee_os/lib/libutee/tee_api_operations.c:63
    2b4c:	d2800036 	mov	x22, #0x1                   	// #1
/home/ursus/devel/optee/optee_os/lib/libutee/tee_api_operations.c:246
    2b50:	52a0009a 	mov	w26, #0x40000               	// #262144
/home/ursus/devel/optee/optee_os/lib/libutee/tee_api_operations.c:272
    2b54:	52800001 	mov	w1, #0x0                   	// #0
    2b58:	52800c00 	mov	w0, #0x60                  	// #96
    2b5c:	b90067a3 	str	w3, [x29,#100]
/home/ursus/devel/optee/optee_os/lib/libutee/tee_api_operations.c:274
    2b60:	129ffe74 	mov	w20, #0xffff000c            	// #-65524
/home/ursus/devel/optee/optee_os/lib/libutee/tee_api_operations.c:272
    2b64:	97fff909 	bl	f88 <TEE_Malloc>
    2b68:	aa0003f5 	mov	x21, x0
/home/ursus/devel/optee/optee_os/lib/libutee/tee_api_operations.c:273
    2b6c:	b4ffdc40 	cbz	x0, 26f4 <TEE_AllocateOperation+0x228>
/home/ursus/devel/optee/optee_os/lib/libutee/tee_api_operations.c:280
    2b70:	b94067a3 	ldr	w3, [x29,#100]
/home/ursus/devel/optee/optee_os/lib/libutee/tee_api_operations.c:277
    2b74:	531c7e7c 	lsr	w28, w19, #28
/home/ursus/devel/optee/optee_os/lib/libutee/tee_api_operations.c:278
    2b78:	b9000818 	str	w24, [x0,#8]
/home/ursus/devel/optee/optee_os/lib/libutee/tee_api_operations.c:283
    2b7c:	f10006df 	cmp	x22, #0x1
/home/ursus/devel/optee/optee_os/lib/libutee/tee_api_operations.c:277
    2b80:	29007013 	stp	w19, w28, [x0]
/home/ursus/devel/optee/optee_os/lib/libutee/tee_api_operations.c:279
    2b84:	b9001017 	str	w23, [x0,#16]
/home/ursus/devel/optee/optee_os/lib/libutee/tee_api_operations.c:281
    2b88:	29036803 	stp	w3, w26, [x0,#24]
/home/ursus/devel/optee/optee_os/lib/libutee/tee_api_operations.c:283
    2b8c:	540005a1 	b.ne	2c40 <TEE_AllocateOperation+0x774>
/home/ursus/devel/optee/optee_os/lib/libutee/tee_api_operations.c:297
    2b90:	390102b9 	strb	w25, [x21,#64]
/home/ursus/devel/optee/optee_os/lib/libutee/tee_api_operations.c:299
    2b94:	7100179f 	cmp	w28, #0x5
/home/ursus/devel/optee/optee_os/lib/libutee/tee_api_operations.c:296
    2b98:	f90026b6 	str	x22, [x21,#72]
/home/ursus/devel/optee/optee_os/lib/libutee/tee_api_operations.c:299
    2b9c:	54000641 	b.ne	2c64 <TEE_AllocateOperation+0x798>
/home/ursus/devel/optee/optee_os/lib/libutee/tee_api_operations.c:323
    2ba0:	a9420ea2 	ldp	x2, x3, [x21,#32]
    2ba4:	910162a4 	add	x4, x21, #0x58
    2ba8:	2a1803e1 	mov	w1, w24
    2bac:	2a1303e0 	mov	w0, w19
    2bb0:	94000b73 	bl	597c <utee_cryp_state_alloc>
/home/ursus/devel/optee/optee_os/lib/libutee/tee_api_operations.c:325
    2bb4:	35000c40 	cbnz	w0, 2d3c <TEE_AllocateOperation+0x870>
/home/ursus/devel/optee/optee_os/lib/libutee/tee_api_operations.c:333
    2bb8:	7100179f 	cmp	w28, #0x5
    2bbc:	54000141 	b.ne	2be4 <TEE_AllocateOperation+0x718>
/home/ursus/devel/optee/optee_os/lib/libutee/tee_api_operations.c:334
    2bc0:	b9405aa0 	ldr	w0, [x21,#88]
    2bc4:	d2800002 	mov	x2, #0x0                   	// #0
    2bc8:	d2800001 	mov	x1, #0x0                   	// #0
    2bcc:	94000b75 	bl	59a0 <utee_hash_init>
    2bd0:	2a0003f4 	mov	w20, w0
/home/ursus/devel/optee/optee_os/lib/libutee/tee_api_operations.c:335
    2bd4:	35000780 	cbnz	w0, 2cc4 <TEE_AllocateOperation+0x7f8>
/home/ursus/devel/optee/optee_os/lib/libutee/tee_api_operations.c:338
    2bd8:	b9401ea0 	ldr	w0, [x21,#28]
    2bdc:	320f0000 	orr	w0, w0, #0x20000
    2be0:	b9001ea0 	str	w0, [x21,#28]
/home/ursus/devel/optee/optee_os/lib/libutee/tee_api_operations.c:343
    2be4:	f94037a0 	ldr	x0, [x29,#104]
    2be8:	52800014 	mov	w20, #0x0                   	// #0
/home/ursus/devel/optee/optee_os/lib/libutee/tee_api_operations.c:341
    2bec:	b90032bf 	str	wzr, [x21,#48]
/home/ursus/devel/optee/optee_os/lib/libutee/tee_api_operations.c:343
    2bf0:	f9000015 	str	x21, [x0]
    2bf4:	17fffec0 	b	26f4 <TEE_AllocateOperation+0x228>
/home/ursus/devel/optee/optee_os/lib/libutee/tee_api_operations.c:65
    2bf8:	5280001b 	mov	w27, #0x0                   	// #0
/home/ursus/devel/optee/optee_os/lib/libutee/tee_api_operations.c:150
    2bfc:	52800043 	mov	w3, #0x2                   	// #2
    2c00:	17ffffd5 	b	2b54 <TEE_AllocateOperation+0x688>
/home/ursus/devel/optee/optee_os/lib/libutee/tee_api_operations.c:66
    2c04:	52800019 	mov	w25, #0x0                   	// #0
/home/ursus/devel/optee/optee_os/lib/libutee/tee_api_operations.c:177
    2c08:	5280003b 	mov	w27, #0x1                   	// #1
/home/ursus/devel/optee/optee_os/lib/libutee/tee_api_operations.c:178
    2c0c:	52800203 	mov	w3, #0x10                  	// #16
    2c10:	17ffff8b 	b	2a3c <TEE_AllocateOperation+0x570>
    2c14:	5280001a 	mov	w26, #0x0                   	// #0
/home/ursus/devel/optee/optee_os/lib/libutee/tee_api_operations.c:66
    2c18:	52800019 	mov	w25, #0x0                   	// #0
/home/ursus/devel/optee/optee_os/lib/libutee/tee_api_operations.c:65
    2c1c:	5280001b 	mov	w27, #0x0                   	// #0
/home/ursus/devel/optee/optee_os/lib/libutee/tee_api_operations.c:193
    2c20:	52800043 	mov	w3, #0x2                   	// #2
/home/ursus/devel/optee/optee_os/lib/libutee/tee_api_operations.c:63
    2c24:	d2800036 	mov	x22, #0x1                   	// #1
    2c28:	17ffffcb 	b	2b54 <TEE_AllocateOperation+0x688>
    2c2c:	5280001a 	mov	w26, #0x0                   	// #0
/home/ursus/devel/optee/optee_os/lib/libutee/tee_api_operations.c:66
    2c30:	52800019 	mov	w25, #0x0                   	// #0
/home/ursus/devel/optee/optee_os/lib/libutee/tee_api_operations.c:65
    2c34:	5280001b 	mov	w27, #0x0                   	// #0
/home/ursus/devel/optee/optee_os/lib/libutee/tee_api_operations.c:204
    2c38:	52800443 	mov	w3, #0x22                  	// #34
    2c3c:	17fffffa 	b	2c24 <TEE_AllocateOperation+0x758>
/home/ursus/devel/optee/optee_os/lib/libutee/tee_api_operations.c:287
    2c40:	7100033f 	cmp	w25, #0x0
    2c44:	d37ffac0 	lsl	x0, x22, #1
/home/ursus/devel/optee/optee_os/lib/libutee/tee_api_operations.c:289
    2c48:	52b00001 	mov	w1, #0x80000000            	// #-2147483648
    2c4c:	9a961000 	csel	x0, x0, x22, ne
    2c50:	97fff8ce 	bl	f88 <TEE_Malloc>
    2c54:	f9001ea0 	str	x0, [x21,#56]
/home/ursus/devel/optee/optee_os/lib/libutee/tee_api_operations.c:291
    2c58:	b5fff9c0 	cbnz	x0, 2b90 <TEE_AllocateOperation+0x6c4>
/home/ursus/devel/optee/optee_os/lib/libutee/tee_api_operations.c:292
    2c5c:	129ffe74 	mov	w20, #0xffff000c            	// #-65524
    2c60:	14000019 	b	2cc4 <TEE_AllocateOperation+0x7f8>
/home/ursus/devel/optee/optee_os/lib/libutee/tee_api_operations.c:301
    2c64:	7100037f 	cmp	w27, #0x0
    2c68:	52b40001 	mov	w1, #0xa0000000            	// #-1610612736
    2c6c:	52b42000 	mov	w0, #0xa1000000            	// #-1593835520
    2c70:	1a811000 	csel	w0, w0, w1, ne
/home/ursus/devel/optee/optee_os/lib/libutee/tee_api_operations.c:308
    2c74:	b9401ea1 	ldr	w1, [x21,#28]
/home/ursus/devel/optee/optee_os/lib/libutee/tee_api_operations.c:301
    2c78:	12001e76 	and	w22, w19, #0xff
    2c7c:	2a160016 	orr	w22, w0, w22
/home/ursus/devel/optee/optee_os/lib/libutee/tee_api_operations.c:309
    2c80:	53017ee0 	lsr	w0, w23, #1
/home/ursus/devel/optee/optee_os/lib/libutee/tee_api_operations.c:311
    2c84:	910082a2 	add	x2, x21, #0x20
/home/ursus/devel/optee/optee_os/lib/libutee/tee_api_operations.c:309
    2c88:	f26d003f 	tst	x1, #0x80000
    2c8c:	1a971017 	csel	w23, w0, w23, ne
/home/ursus/devel/optee/optee_os/lib/libutee/tee_api_operations.c:311
    2c90:	2a1603e0 	mov	w0, w22
    2c94:	2a1703e1 	mov	w1, w23
    2c98:	97fff9e4 	bl	1428 <TEE_AllocateTransientObject>
    2c9c:	2a0003f4 	mov	w20, w0
/home/ursus/devel/optee/optee_os/lib/libutee/tee_api_operations.c:312
    2ca0:	35000120 	cbnz	w0, 2cc4 <TEE_AllocateOperation+0x7f8>
/home/ursus/devel/optee/optee_os/lib/libutee/tee_api_operations.c:315
    2ca4:	b9401ea0 	ldr	w0, [x21,#28]
    2ca8:	369ff7c0 	tbz	w0, #19, 2ba0 <TEE_AllocateOperation+0x6d4>
/home/ursus/devel/optee/optee_os/lib/libutee/tee_api_operations.c:316
    2cac:	9100a2a2 	add	x2, x21, #0x28
    2cb0:	2a1703e1 	mov	w1, w23
    2cb4:	2a1603e0 	mov	w0, w22
    2cb8:	97fff9dc 	bl	1428 <TEE_AllocateTransientObject>
    2cbc:	2a0003f4 	mov	w20, w0
/home/ursus/devel/optee/optee_os/lib/libutee/tee_api_operations.c:318
    2cc0:	34fff700 	cbz	w0, 2ba0 <TEE_AllocateOperation+0x6d4>
/home/ursus/devel/optee/optee_os/lib/libutee/tee_api_operations.c:348
    2cc4:	529ffec0 	mov	w0, #0xfff6                	// #65526
    2cc8:	0b000280 	add	w0, w20, w0
/home/ursus/devel/optee/optee_os/lib/libutee/tee_api_operations.c:347
    2ccc:	721e781f 	tst	w0, #0xfffffffd
    2cd0:	540001a0 	b.eq	2d04 <TEE_AllocateOperation+0x838>
/home/ursus/devel/optee/optee_os/lib/libutee/tee_api_operations.c:349
    2cd4:	2a1403e5 	mov	w5, w20
    2cd8:	90000064 	adrp	x4, e000 <__func__.3633+0x30>
    2cdc:	91112884 	add	x4, x4, #0x44a
    2ce0:	52800023 	mov	w3, #0x1                   	// #1
    2ce4:	52800022 	mov	w2, #0x1                   	// #1
    2ce8:	52802ba1 	mov	w1, #0x15d                 	// #349
    2cec:	d0000040 	adrp	x0, c000 <mpa_set_str+0x4>
    2cf0:	9136e000 	add	x0, x0, #0xdb8
    2cf4:	91012000 	add	x0, x0, #0x48
    2cf8:	9400173e 	bl	89f0 <trace_printf>
    2cfc:	2a1403e0 	mov	w0, w20
    2d00:	94000a31 	bl	55c4 <__TEE_Panic>
/home/ursus/devel/optee/optee_os/lib/libutee/tee_api_operations.c:351
    2d04:	b9405aa0 	ldr	w0, [x21,#88]
    2d08:	34000080 	cbz	w0, 2d18 <TEE_AllocateOperation+0x84c>
/home/ursus/devel/optee/optee_os/lib/libutee/tee_api_operations.c:352
    2d0c:	aa1503e0 	mov	x0, x21
    2d10:	97fffdc8 	bl	2430 <TEE_FreeOperation>
    2d14:	17fffe78 	b	26f4 <TEE_AllocateOperation+0x228>
/home/ursus/devel/optee/optee_os/lib/libutee/tee_api_operations.c:354
    2d18:	f9401ea0 	ldr	x0, [x21,#56]
    2d1c:	97fff89f 	bl	f98 <TEE_Free>
/home/ursus/devel/optee/optee_os/lib/libutee/tee_api_operations.c:355
    2d20:	f94012a0 	ldr	x0, [x21,#32]
    2d24:	97fff9e5 	bl	14b8 <TEE_FreeTransientObject>
/home/ursus/devel/optee/optee_os/lib/libutee/tee_api_operations.c:356
    2d28:	f94016a0 	ldr	x0, [x21,#40]
    2d2c:	97fff9e3 	bl	14b8 <TEE_FreeTransientObject>
/home/ursus/devel/optee/optee_os/lib/libutee/tee_api_operations.c:357
    2d30:	aa1503e0 	mov	x0, x21
    2d34:	97fff899 	bl	f98 <TEE_Free>
    2d38:	17fffe6f 	b	26f4 <TEE_AllocateOperation+0x228>
    2d3c:	2a0003f4 	mov	w20, w0
    2d40:	17ffffe1 	b	2cc4 <TEE_AllocateOperation+0x7f8>

0000000000002d44 <TEE_GetOperationInfo>:
TEE_GetOperationInfo():
/home/ursus/devel/optee/optee_os/lib/libutee/tee_api_operations.c:387
    2d44:	a9be7bfd 	stp	x29, x30, [sp,#-32]!
    2d48:	910003fd 	mov	x29, sp
    2d4c:	a90153f3 	stp	x19, x20, [sp,#16]
    2d50:	aa0003f4 	mov	x20, x0
    2d54:	aa0103f3 	mov	x19, x1
/home/ursus/devel/optee/optee_os/lib/libutee/tee_api_operations.c:388
    2d58:	b50001a0 	cbnz	x0, 2d8c <TEE_GetOperationInfo+0x48>
/home/ursus/devel/optee/optee_os/lib/libutee/tee_api_operations.c:389
    2d5c:	90000064 	adrp	x4, e000 <__func__.3633+0x30>
    2d60:	91112884 	add	x4, x4, #0x44a
    2d64:	52800005 	mov	w5, #0x0                   	// #0
    2d68:	52800023 	mov	w3, #0x1                   	// #1
    2d6c:	52800022 	mov	w2, #0x1                   	// #1
    2d70:	528030a1 	mov	w1, #0x185                 	// #389
    2d74:	d0000040 	adrp	x0, c000 <mpa_set_str+0x4>
    2d78:	9136e000 	add	x0, x0, #0xdb8
    2d7c:	91018000 	add	x0, x0, #0x60
    2d80:	9400171c 	bl	89f0 <trace_printf>
    2d84:	52800000 	mov	w0, #0x0                   	// #0
    2d88:	94000a0f 	bl	55c4 <__TEE_Panic>
/home/ursus/devel/optee/optee_os/lib/libutee/tee_api_operations.c:391
    2d8c:	b50001b3 	cbnz	x19, 2dc0 <TEE_GetOperationInfo+0x7c>
/home/ursus/devel/optee/optee_os/lib/libutee/tee_api_operations.c:392
    2d90:	90000064 	adrp	x4, e000 <__func__.3633+0x30>
    2d94:	91112884 	add	x4, x4, #0x44a
    2d98:	52800005 	mov	w5, #0x0                   	// #0
    2d9c:	52800023 	mov	w3, #0x1                   	// #1
    2da0:	52800022 	mov	w2, #0x1                   	// #1
    2da4:	52803101 	mov	w1, #0x188                 	// #392
    2da8:	d0000040 	adrp	x0, c000 <mpa_set_str+0x4>
    2dac:	9136e000 	add	x0, x0, #0xdb8
    2db0:	91018000 	add	x0, x0, #0x60
    2db4:	9400170f 	bl	89f0 <trace_printf>
    2db8:	52800000 	mov	w0, #0x0                   	// #0
    2dbc:	94000a02 	bl	55c4 <__TEE_Panic>
/home/ursus/devel/optee/optee_os/lib/libutee/tee_api_operations.c:394
    2dc0:	aa1403e1 	mov	x1, x20
    2dc4:	d2800402 	mov	x2, #0x20                  	// #32
    2dc8:	aa1303e0 	mov	x0, x19
    2dcc:	94001399 	bl	7c30 <memcpy>
/home/ursus/devel/optee/optee_os/lib/libutee/tee_api_operations.c:395
    2dd0:	a94153f3 	ldp	x19, x20, [sp,#16]
    2dd4:	a8c27bfd 	ldp	x29, x30, [sp],#32
    2dd8:	d65f03c0 	ret

0000000000002ddc <TEE_GetOperationInfoMultiple>:
TEE_GetOperationInfoMultiple():
/home/ursus/devel/optee/optee_os/lib/libutee/tee_api_operations.c:400
    2ddc:	a9b97bfd 	stp	x29, x30, [sp,#-112]!
/home/ursus/devel/optee/optee_os/lib/libutee/tee_api_operations.c:417
    2de0:	f100005f 	cmp	x2, #0x0
    2de4:	fa401824 	ccmp	x1, #0x0, #0x4, ne
/home/ursus/devel/optee/optee_os/lib/libutee/tee_api_operations.c:400
    2de8:	910003fd 	mov	x29, sp
    2dec:	a9025bf5 	stp	x21, x22, [sp,#32]
/home/ursus/devel/optee/optee_os/lib/libutee/tee_api_operations.c:417
    2df0:	fa401804 	ccmp	x0, #0x0, #0x4, ne
/home/ursus/devel/optee/optee_os/lib/libutee/tee_api_operations.c:400
    2df4:	a90153f3 	stp	x19, x20, [sp,#16]
/home/ursus/devel/optee/optee_os/lib/libutee/tee_api_operations.c:418
    2df8:	129fff35 	mov	w21, #0xffff0006            	// #-65530
/home/ursus/devel/optee/optee_os/lib/libutee/tee_api_operations.c:417
    2dfc:	540004a0 	b.eq	2e90 <TEE_GetOperationInfoMultiple+0xb4>
/home/ursus/devel/optee/optee_os/lib/libutee/tee_api_operations.c:422
    2e00:	b9400056 	ldr	w22, [x2]
    2e04:	d10082d6 	sub	x22, x22, #0x20
    2e08:	d343fed6 	lsr	x22, x22, #3
/home/ursus/devel/optee/optee_os/lib/libutee/tee_api_operations.c:425
    2e0c:	71000adf 	cmp	w22, #0x2
    2e10:	54000408 	b.hi	2e90 <TEE_GetOperationInfoMultiple+0xb4>
    2e14:	aa0003f4 	mov	x20, x0
/home/ursus/devel/optee/optee_os/lib/libutee/tee_api_operations.c:431
    2e18:	b9401c00 	ldr	w0, [x0,#28]
/home/ursus/devel/optee/optee_os/lib/libutee/tee_api_operations.c:434
    2e1c:	129ffdf5 	mov	w21, #0xffff0010            	// #-65520
/home/ursus/devel/optee/optee_os/lib/libutee/tee_api_operations.c:432
    2e20:	f26d001f 	tst	x0, #0x80000
    2e24:	7a421ac4 	ccmp	w22, #0x2, #0x4, ne
    2e28:	54000341 	b.ne	2e90 <TEE_GetOperationInfoMultiple+0xb4>
/home/ursus/devel/optee/optee_os/lib/libutee/tee_api_operations.c:439
    2e2c:	92407ec2 	and	x2, x22, #0xffffffff
    2e30:	aa0103f3 	mov	x19, x1
    2e34:	91008020 	add	x0, x1, #0x20
/home/ursus/devel/optee/optee_os/lib/libutee/tee_api_operations.c:432
    2e38:	d2800001 	mov	x1, #0x0                   	// #0
/home/ursus/devel/optee/optee_os/lib/libutee/tee_api_operations.c:439 (discriminator 1)
    2e3c:	eb02003f 	cmp	x1, x2
    2e40:	54000523 	b.cc	2ee4 <TEE_GetOperationInfoMultiple+0x108>
/home/ursus/devel/optee/optee_os/lib/libutee/tee_api_operations.c:444
    2e44:	71000adf 	cmp	w22, #0x2
    2e48:	54000561 	b.ne	2ef4 <TEE_GetOperationInfoMultiple+0x118>
/home/ursus/devel/optee/optee_os/lib/libutee/tee_api_operations.c:445
    2e4c:	f9401680 	ldr	x0, [x20,#40]
    2e50:	910143a1 	add	x1, x29, #0x50
    2e54:	97fff888 	bl	1074 <TEE_GetObjectInfo1>
    2e58:	2a0003f5 	mov	w21, w0
/home/ursus/devel/optee/optee_os/lib/libutee/tee_api_operations.c:447
    2e5c:	350001a0 	cbnz	w0, 2e90 <TEE_GetOperationInfoMultiple+0xb4>
/home/ursus/devel/optee/optee_os/lib/libutee/tee_api_operations.c:450
    2e60:	b94057a0 	ldr	w0, [x29,#84]
    2e64:	b9002a60 	str	w0, [x19,#40]
/home/ursus/devel/optee/optee_os/lib/libutee/tee_api_operations.c:452
    2e68:	b9401a80 	ldr	w0, [x20,#24]
    2e6c:	b9002e60 	str	w0, [x19,#44]
/home/ursus/devel/optee/optee_os/lib/libutee/tee_api_operations.c:457
    2e70:	f9401280 	ldr	x0, [x20,#32]
    2e74:	9100c3a1 	add	x1, x29, #0x30
    2e78:	97fff87f 	bl	1074 <TEE_GetObjectInfo1>
    2e7c:	2a0003f5 	mov	w21, w0
/home/ursus/devel/optee/optee_os/lib/libutee/tee_api_operations.c:459
    2e80:	340005c0 	cbz	w0, 2f38 <TEE_GetOperationInfoMultiple+0x15c>
/home/ursus/devel/optee/optee_os/lib/libutee/tee_api_operations.c:460
    2e84:	71000adf 	cmp	w22, #0x2
    2e88:	54000041 	b.ne	2e90 <TEE_GetOperationInfoMultiple+0xb4>
/home/ursus/devel/optee/optee_os/lib/libutee/tee_api_operations.c:464
    2e8c:	29057e7f 	stp	wzr, wzr, [x19,#40]
/home/ursus/devel/optee/optee_os/lib/libutee/tee_api_operations.c:486
    2e90:	710002bf 	cmp	w21, #0x0
    2e94:	129ffde0 	mov	w0, #0xffff0010            	// #-65520
    2e98:	7a4012a4 	ccmp	w21, w0, #0x4, ne
    2e9c:	540001a0 	b.eq	2ed0 <TEE_GetOperationInfoMultiple+0xf4>
/home/ursus/devel/optee/optee_os/lib/libutee/tee_api_operations.c:488
    2ea0:	2a1503e5 	mov	w5, w21
    2ea4:	90000064 	adrp	x4, e000 <__func__.3633+0x30>
    2ea8:	91112884 	add	x4, x4, #0x44a
    2eac:	52800023 	mov	w3, #0x1                   	// #1
    2eb0:	52800022 	mov	w2, #0x1                   	// #1
    2eb4:	52803d01 	mov	w1, #0x1e8                 	// #488
    2eb8:	d0000040 	adrp	x0, c000 <mpa_set_str+0x4>
    2ebc:	9136e000 	add	x0, x0, #0xdb8
    2ec0:	9101e000 	add	x0, x0, #0x78
    2ec4:	940016cb 	bl	89f0 <trace_printf>
    2ec8:	2a1503e0 	mov	w0, w21
    2ecc:	940009be 	bl	55c4 <__TEE_Panic>
/home/ursus/devel/optee/optee_os/lib/libutee/tee_api_operations.c:491
    2ed0:	2a1503e0 	mov	w0, w21
    2ed4:	a94153f3 	ldp	x19, x20, [sp,#16]
    2ed8:	a9425bf5 	ldp	x21, x22, [sp,#32]
    2edc:	a8c77bfd 	ldp	x29, x30, [sp],#112
    2ee0:	d65f03c0 	ret
/home/ursus/devel/optee/optee_os/lib/libutee/tee_api_operations.c:441 (discriminator 3)
    2ee4:	29007c1f 	stp	wzr, wzr, [x0]
/home/ursus/devel/optee/optee_os/lib/libutee/tee_api_operations.c:439 (discriminator 3)
    2ee8:	91000421 	add	x1, x1, #0x1
    2eec:	91002000 	add	x0, x0, #0x8
    2ef0:	17ffffd3 	b	2e3c <TEE_GetOperationInfoMultiple+0x60>
/home/ursus/devel/optee/optee_os/lib/libutee/tee_api_operations.c:456
    2ef4:	35fffbf6 	cbnz	w22, 2e70 <TEE_GetOperationInfoMultiple+0x94>
/home/ursus/devel/optee/optee_os/lib/libutee/tee_api_operations.c:476
    2ef8:	b9400280 	ldr	w0, [x20]
/home/ursus/devel/optee/optee_os/lib/libutee/tee_api_operations.c:483
    2efc:	52800015 	mov	w21, #0x0                   	// #0
/home/ursus/devel/optee/optee_os/lib/libutee/tee_api_operations.c:476
    2f00:	b9000260 	str	w0, [x19]
/home/ursus/devel/optee/optee_os/lib/libutee/tee_api_operations.c:477
    2f04:	b9400680 	ldr	w0, [x20,#4]
    2f08:	b9000660 	str	w0, [x19,#4]
/home/ursus/devel/optee/optee_os/lib/libutee/tee_api_operations.c:478
    2f0c:	b9400a80 	ldr	w0, [x20,#8]
    2f10:	b9000a60 	str	w0, [x19,#8]
/home/ursus/devel/optee/optee_os/lib/libutee/tee_api_operations.c:479
    2f14:	b9400e80 	ldr	w0, [x20,#12]
    2f18:	b9000e60 	str	w0, [x19,#12]
/home/ursus/devel/optee/optee_os/lib/libutee/tee_api_operations.c:480
    2f1c:	b9401280 	ldr	w0, [x20,#16]
    2f20:	b9001260 	str	w0, [x19,#16]
/home/ursus/devel/optee/optee_os/lib/libutee/tee_api_operations.c:481
    2f24:	b9401e80 	ldr	w0, [x20,#28]
    2f28:	b9001660 	str	w0, [x19,#20]
/home/ursus/devel/optee/optee_os/lib/libutee/tee_api_operations.c:482
    2f2c:	b9403280 	ldr	w0, [x20,#48]
/home/ursus/devel/optee/optee_os/lib/libutee/tee_api_operations.c:483
    2f30:	29035a60 	stp	w0, w22, [x19,#24]
    2f34:	17ffffd7 	b	2e90 <TEE_GetOperationInfoMultiple+0xb4>
/home/ursus/devel/optee/optee_os/lib/libutee/tee_api_operations.c:469
    2f38:	b94037a0 	ldr	w0, [x29,#52]
    2f3c:	b9002260 	str	w0, [x19,#32]
/home/ursus/devel/optee/optee_os/lib/libutee/tee_api_operations.c:471
    2f40:	b9401a80 	ldr	w0, [x20,#24]
    2f44:	b9002660 	str	w0, [x19,#36]
    2f48:	17ffffec 	b	2ef8 <TEE_GetOperationInfoMultiple+0x11c>

0000000000002f4c <TEE_ResetOperation>:
TEE_ResetOperation():
/home/ursus/devel/optee/optee_os/lib/libutee/tee_api_operations.c:494
    2f4c:	a9be7bfd 	stp	x29, x30, [sp,#-32]!
    2f50:	910003fd 	mov	x29, sp
    2f54:	a90153f3 	stp	x19, x20, [sp,#16]
    2f58:	aa0003f3 	mov	x19, x0
/home/ursus/devel/optee/optee_os/lib/libutee/tee_api_operations.c:497
    2f5c:	b50001a0 	cbnz	x0, 2f90 <TEE_ResetOperation+0x44>
/home/ursus/devel/optee/optee_os/lib/libutee/tee_api_operations.c:498
    2f60:	90000064 	adrp	x4, e000 <__func__.3633+0x30>
    2f64:	91112884 	add	x4, x4, #0x44a
    2f68:	52800005 	mov	w5, #0x0                   	// #0
    2f6c:	52800023 	mov	w3, #0x1                   	// #1
    2f70:	52800022 	mov	w2, #0x1                   	// #1
    2f74:	52803e41 	mov	w1, #0x1f2                 	// #498
    2f78:	d0000040 	adrp	x0, c000 <mpa_set_str+0x4>
    2f7c:	9136e000 	add	x0, x0, #0xdb8
    2f80:	91026000 	add	x0, x0, #0x98
    2f84:	9400169b 	bl	89f0 <trace_printf>
    2f88:	52800000 	mov	w0, #0x0                   	// #0
    2f8c:	9400098e 	bl	55c4 <__TEE_Panic>
/home/ursus/devel/optee/optee_os/lib/libutee/tee_api_operations.c:500
    2f90:	b9401e60 	ldr	w0, [x19,#28]
    2f94:	379001a0 	tbnz	w0, #18, 2fc8 <TEE_ResetOperation+0x7c>
/home/ursus/devel/optee/optee_os/lib/libutee/tee_api_operations.c:501
    2f98:	90000064 	adrp	x4, e000 <__func__.3633+0x30>
    2f9c:	91112884 	add	x4, x4, #0x44a
    2fa0:	52800005 	mov	w5, #0x0                   	// #0
    2fa4:	52800023 	mov	w3, #0x1                   	// #1
    2fa8:	52800022 	mov	w2, #0x1                   	// #1
    2fac:	52803ea1 	mov	w1, #0x1f5                 	// #501
    2fb0:	d0000040 	adrp	x0, c000 <mpa_set_str+0x4>
    2fb4:	9136e000 	add	x0, x0, #0xdb8
    2fb8:	91026000 	add	x0, x0, #0x98
    2fbc:	9400168d 	bl	89f0 <trace_printf>
    2fc0:	52800000 	mov	w0, #0x0                   	// #0
    2fc4:	94000980 	bl	55c4 <__TEE_Panic>
/home/ursus/devel/optee/optee_os/lib/libutee/tee_api_operations.c:505
    2fc8:	b9400660 	ldr	w0, [x19,#4]
/home/ursus/devel/optee/optee_os/lib/libutee/tee_api_operations.c:503
    2fcc:	b900327f 	str	wzr, [x19,#48]
/home/ursus/devel/optee/optee_os/lib/libutee/tee_api_operations.c:505
    2fd0:	7100141f 	cmp	w0, #0x5
    2fd4:	54000321 	b.ne	3038 <TEE_ResetOperation+0xec>
/home/ursus/devel/optee/optee_os/lib/libutee/tee_api_operations.c:506
    2fd8:	b9405a60 	ldr	w0, [x19,#88]
    2fdc:	d2800002 	mov	x2, #0x0                   	// #0
    2fe0:	d2800001 	mov	x1, #0x0                   	// #0
    2fe4:	94000a6f 	bl	59a0 <utee_hash_init>
    2fe8:	2a0003f4 	mov	w20, w0
/home/ursus/devel/optee/optee_os/lib/libutee/tee_api_operations.c:507
    2fec:	340001a0 	cbz	w0, 3020 <TEE_ResetOperation+0xd4>
/home/ursus/devel/optee/optee_os/lib/libutee/tee_api_operations.c:508
    2ff0:	2a0003e5 	mov	w5, w0
    2ff4:	90000064 	adrp	x4, e000 <__func__.3633+0x30>
    2ff8:	91112884 	add	x4, x4, #0x44a
    2ffc:	52800023 	mov	w3, #0x1                   	// #1
    3000:	52800022 	mov	w2, #0x1                   	// #1
    3004:	52803f81 	mov	w1, #0x1fc                 	// #508
    3008:	b0000040 	adrp	x0, c000 <mpa_set_str+0x4>
    300c:	9136e000 	add	x0, x0, #0xdb8
    3010:	91026000 	add	x0, x0, #0x98
    3014:	94001677 	bl	89f0 <trace_printf>
    3018:	2a1403e0 	mov	w0, w20
    301c:	9400096a 	bl	55c4 <__TEE_Panic>
/home/ursus/devel/optee/optee_os/lib/libutee/tee_api_operations.c:509
    3020:	b9401e60 	ldr	w0, [x19,#28]
    3024:	320f0000 	orr	w0, w0, #0x20000
/home/ursus/devel/optee/optee_os/lib/libutee/tee_api_operations.c:511
    3028:	b9001e60 	str	w0, [x19,#28]
/home/ursus/devel/optee/optee_os/lib/libutee/tee_api_operations.c:513
    302c:	a94153f3 	ldp	x19, x20, [sp,#16]
    3030:	a8c27bfd 	ldp	x29, x30, [sp],#32
    3034:	d65f03c0 	ret
/home/ursus/devel/optee/optee_os/lib/libutee/tee_api_operations.c:511
    3038:	b9401e60 	ldr	w0, [x19,#28]
    303c:	120e7800 	and	w0, w0, #0xfffdffff
    3040:	17fffffa 	b	3028 <TEE_ResetOperation+0xdc>

0000000000003044 <TEE_SetOperationKey>:
TEE_SetOperationKey():
/home/ursus/devel/optee/optee_os/lib/libutee/tee_api_operations.c:517
    3044:	a9bb7bfd 	stp	x29, x30, [sp,#-80]!
    3048:	910003fd 	mov	x29, sp
    304c:	a90153f3 	stp	x19, x20, [sp,#16]
    3050:	a9025bf5 	stp	x21, x22, [sp,#32]
/home/ursus/devel/optee/optee_os/lib/libutee/tee_api_operations.c:522
    3054:	b5000320 	cbnz	x0, 30b8 <TEE_SetOperationKey+0x74>
/home/ursus/devel/optee/optee_os/lib/libutee/tee_api_operations.c:535
    3058:	129fff34 	mov	w20, #0xffff0006            	// #-65530
/home/ursus/devel/optee/optee_os/lib/libutee/tee_api_operations.c:584
    305c:	121e7a80 	and	w0, w20, #0xfffffffd
    3060:	7100029f 	cmp	w20, #0x0
    3064:	52800021 	mov	w1, #0x1                   	// #1
    3068:	72be0201 	movk	w1, #0xf010, lsl #16
    306c:	7a411004 	ccmp	w0, w1, #0x4, ne
    3070:	540001a0 	b.eq	30a4 <TEE_SetOperationKey+0x60>
/home/ursus/devel/optee/optee_os/lib/libutee/tee_api_operations.c:586
    3074:	2a1403e5 	mov	w5, w20
    3078:	f0000044 	adrp	x4, e000 <__func__.3633+0x30>
    307c:	91112884 	add	x4, x4, #0x44a
    3080:	52800023 	mov	w3, #0x1                   	// #1
    3084:	52800022 	mov	w2, #0x1                   	// #1
    3088:	52804941 	mov	w1, #0x24a                 	// #586
    308c:	b0000040 	adrp	x0, c000 <mpa_set_str+0x4>
    3090:	9136e000 	add	x0, x0, #0xdb8
    3094:	9102c000 	add	x0, x0, #0xb0
    3098:	94001656 	bl	89f0 <trace_printf>
    309c:	2a1403e0 	mov	w0, w20
    30a0:	94000949 	bl	55c4 <__TEE_Panic>
/home/ursus/devel/optee/optee_os/lib/libutee/tee_api_operations.c:589
    30a4:	2a1403e0 	mov	w0, w20
    30a8:	a94153f3 	ldp	x19, x20, [sp,#16]
    30ac:	a9425bf5 	ldp	x21, x22, [sp,#32]
    30b0:	a8c57bfd 	ldp	x29, x30, [sp],#80
    30b4:	d65f03c0 	ret
    30b8:	aa0003f3 	mov	x19, x0
/home/ursus/devel/optee/optee_os/lib/libutee/tee_api_operations.c:527
    30bc:	b9403000 	ldr	w0, [x0,#48]
    30c0:	35fffcc0 	cbnz	w0, 3058 <TEE_SetOperationKey+0x14>
    30c4:	aa0103f5 	mov	x21, x1
/home/ursus/devel/optee/optee_os/lib/libutee/tee_api_operations.c:532
    30c8:	b5000081 	cbnz	x1, 30d8 <TEE_SetOperationKey+0x94>
/home/ursus/devel/optee/optee_os/lib/libutee/tee_api_operations.c:534
    30cc:	f9401260 	ldr	x0, [x19,#32]
    30d0:	97fff931 	bl	1594 <TEE_ResetTransientObject>
    30d4:	17ffffe1 	b	3058 <TEE_SetOperationKey+0x14>
/home/ursus/devel/optee/optee_os/lib/libutee/tee_api_operations.c:540
    30d8:	b9400660 	ldr	w0, [x19,#4]
    30dc:	7100141f 	cmp	w0, #0x5
    30e0:	54fffbc0 	b.eq	3058 <TEE_SetOperationKey+0x14>
/home/ursus/devel/optee/optee_os/lib/libutee/tee_api_operations.c:546
    30e4:	b9401e60 	ldr	w0, [x19,#28]
    30e8:	379ffb80 	tbnz	w0, #19, 3058 <TEE_SetOperationKey+0x14>
/home/ursus/devel/optee/optee_os/lib/libutee/tee_api_operations.c:552
    30ec:	9100c3a1 	add	x1, x29, #0x30
    30f0:	aa1503e0 	mov	x0, x21
    30f4:	97fff7e0 	bl	1074 <TEE_GetObjectInfo1>
    30f8:	2a0003f4 	mov	w20, w0
/home/ursus/devel/optee/optee_os/lib/libutee/tee_api_operations.c:554
    30fc:	35fffb00 	cbnz	w0, 305c <TEE_SetOperationKey+0x18>
/home/ursus/devel/optee/optee_os/lib/libutee/tee_api_operations.c:558
    3100:	b9401a60 	ldr	w0, [x19,#24]
    3104:	b9403fa1 	ldr	w1, [x29,#60]
    3108:	6a21001f 	bics	wzr, w0, w1
    310c:	54fffa61 	b.ne	3058 <TEE_SetOperationKey+0x14>
/home/ursus/devel/optee/optee_os/lib/libutee/tee_api_operations.c:564
    3110:	b9401260 	ldr	w0, [x19,#16]
    3114:	b94037b6 	ldr	w22, [x29,#52]
    3118:	6b16001f 	cmp	w0, w22
    311c:	54fff9e3 	b.cc	3058 <TEE_SetOperationKey+0x14>
/home/ursus/devel/optee/optee_os/lib/libutee/tee_api_operations.c:571
    3120:	f9401260 	ldr	x0, [x19,#32]
    3124:	97fff91c 	bl	1594 <TEE_ResetTransientObject>
/home/ursus/devel/optee/optee_os/lib/libutee/tee_api_operations.c:572
    3128:	b9401e60 	ldr	w0, [x19,#28]
/home/ursus/devel/optee/optee_os/lib/libutee/tee_api_operations.c:574
    312c:	aa1503e1 	mov	x1, x21
/home/ursus/devel/optee/optee_os/lib/libutee/tee_api_operations.c:572
    3130:	120d7800 	and	w0, w0, #0xfffbffff
    3134:	b9001e60 	str	w0, [x19,#28]
/home/ursus/devel/optee/optee_os/lib/libutee/tee_api_operations.c:574
    3138:	f9401260 	ldr	x0, [x19,#32]
    313c:	97fff9f9 	bl	1920 <TEE_CopyObjectAttributes1>
    3140:	2a0003f4 	mov	w20, w0
/home/ursus/devel/optee/optee_os/lib/libutee/tee_api_operations.c:575
    3144:	35fff8c0 	cbnz	w0, 305c <TEE_SetOperationKey+0x18>
/home/ursus/devel/optee/optee_os/lib/libutee/tee_api_operations.c:578
    3148:	b9401e60 	ldr	w0, [x19,#28]
/home/ursus/devel/optee/optee_os/lib/libutee/tee_api_operations.c:580
    314c:	b9001676 	str	w22, [x19,#20]
/home/ursus/devel/optee/optee_os/lib/libutee/tee_api_operations.c:578
    3150:	320e0000 	orr	w0, w0, #0x40000
    3154:	b9001e60 	str	w0, [x19,#28]
    3158:	17ffffc1 	b	305c <TEE_SetOperationKey+0x18>

000000000000315c <TEE_SetOperationKey2>:
TEE_SetOperationKey2():
/home/ursus/devel/optee/optee_os/lib/libutee/tee_api_operations.c:593
    315c:	a9b87bfd 	stp	x29, x30, [sp,#-128]!
    3160:	910003fd 	mov	x29, sp
    3164:	a90153f3 	stp	x19, x20, [sp,#16]
    3168:	a9025bf5 	stp	x21, x22, [sp,#32]
    316c:	f9001bf7 	str	x23, [sp,#48]
/home/ursus/devel/optee/optee_os/lib/libutee/tee_api_operations.c:599
    3170:	b5000320 	cbnz	x0, 31d4 <TEE_SetOperationKey2+0x78>
/home/ursus/devel/optee/optee_os/lib/libutee/tee_api_operations.c:620
    3174:	129fff34 	mov	w20, #0xffff0006            	// #-65530
/home/ursus/devel/optee/optee_os/lib/libutee/tee_api_operations.c:707
    3178:	12be0200 	mov	w0, #0xfefffff             	// #267386879
/home/ursus/devel/optee/optee_os/lib/libutee/tee_api_operations.c:706
    317c:	7100029f 	cmp	w20, #0x0
/home/ursus/devel/optee/optee_os/lib/libutee/tee_api_operations.c:707
    3180:	0b000280 	add	w0, w20, w0
/home/ursus/devel/optee/optee_os/lib/libutee/tee_api_operations.c:706
    3184:	7a431800 	ccmp	w0, #0x3, #0x0, ne
    3188:	540001a9 	b.ls	31bc <TEE_SetOperationKey2+0x60>
/home/ursus/devel/optee/optee_os/lib/libutee/tee_api_operations.c:711
    318c:	2a1403e5 	mov	w5, w20
    3190:	f0000044 	adrp	x4, e000 <__func__.3633+0x30>
    3194:	91112884 	add	x4, x4, #0x44a
    3198:	52800023 	mov	w3, #0x1                   	// #1
    319c:	52800022 	mov	w2, #0x1                   	// #1
    31a0:	528058e1 	mov	w1, #0x2c7                 	// #711
    31a4:	b0000040 	adrp	x0, c000 <mpa_set_str+0x4>
    31a8:	9136e000 	add	x0, x0, #0xdb8
    31ac:	91032000 	add	x0, x0, #0xc8
    31b0:	94001610 	bl	89f0 <trace_printf>
    31b4:	2a1403e0 	mov	w0, w20
    31b8:	94000903 	bl	55c4 <__TEE_Panic>
/home/ursus/devel/optee/optee_os/lib/libutee/tee_api_operations.c:714
    31bc:	2a1403e0 	mov	w0, w20
    31c0:	f9401bf7 	ldr	x23, [sp,#48]
