
d6f85138-131c-4f86-b746-a066b2536e69.elf:     file format elf64-littleaarch64
d6f85138-131c-4f86-b746-a066b2536e69.elf
architecture: aarch64, flags 0x00000150:
HAS_SYMS, DYNAMIC, D_PAGED
start address 0x0000000000000020

Program Header:
    LOAD off    0x0000000000010000 vaddr 0x0000000000000000 paddr 0x0000000000000000 align 2**16
         filesz 0x000000000000c854 memsz 0x000000000000c854 flags r-x
    LOAD off    0x000000000001c858 vaddr 0x000000000000c858 paddr 0x000000000000c858 align 2**16
         filesz 0x00000000000028e4 memsz 0x00000000000028e4 flags r--
    LOAD off    0x0000000000020000 vaddr 0x0000000000010000 paddr 0x0000000000010000 align 2**16
         filesz 0x00000000000001bc memsz 0x000000000000ade0 flags rw-
 DYNAMIC off    0x000000000001edf8 vaddr 0x000000000000edf8 paddr 0x000000000000edf8 align 2**3
         filesz 0x0000000000000100 memsz 0x0000000000000100 flags rw-

Dynamic Section:
  HASH                 0x000000000000f0f0
  STRTAB               0x000000000000f048
  SYMTAB               0x000000000000eef8
  STRSZ                0x00000000000000a7
  SYMENT               0x0000000000000018
  DEBUG                0x0000000000000000
  RELA                 0x000000000000ea38
  RELASZ               0x0000000000000348
  RELAENT              0x0000000000000018
  FLAGS_1              0x0000000008000000
  RELACOUNT            0x0000000000000018
private flags = 0:

Sections:
Idx Name          Size      VMA               LMA               File off  Algn
  0 .ta_head      00000020  0000000000000000  0000000000000000  00010000  2**3
                  CONTENTS, ALLOC, LOAD, DATA
  1 .text         0000c834  0000000000000020  0000000000000020  00010020  2**2
                  CONTENTS, ALLOC, LOAD, READONLY, CODE
  2 .rodata       000021e0  000000000000c858  000000000000c858  0001c858  2**3
                  CONTENTS, ALLOC, LOAD, READONLY, DATA
  3 .dynsym       00000150  000000000000eef8  000000000000eef8  0001eef8  2**3
                  CONTENTS, ALLOC, LOAD, READONLY, DATA
  4 .rela.dyn     00000240  000000000000ea38  000000000000ea38  0001ea38  2**3
                  CONTENTS, ALLOC, LOAD, READONLY, DATA
  5 .got          00000078  000000000000ec78  000000000000ec78  0001ec78  2**3
                  CONTENTS, ALLOC, LOAD, DATA
  6 .rela.got     00000108  000000000000ecf0  000000000000ecf0  0001ecf0  2**3
                  CONTENTS, ALLOC, LOAD, READONLY, DATA
  7 .dynamic      00000100  000000000000edf8  000000000000edf8  0001edf8  2**3
                  CONTENTS, ALLOC, LOAD, DATA
  8 .dynstr       000000a7  000000000000f048  000000000000f048  0001f048  2**0
                  CONTENTS, ALLOC, LOAD, READONLY, DATA
  9 .hash         0000004c  000000000000f0f0  000000000000f0f0  0001f0f0  2**3
                  CONTENTS, ALLOC, LOAD, READONLY, DATA
 10 .data         000001bc  0000000000010000  0000000000010000  00020000  2**3
                  CONTENTS, ALLOC, LOAD, DATA
 11 .bss          0000ac20  00000000000101c0  00000000000101c0  000201bc  2**3
                  ALLOC
 12 .debug_info   00017f97  0000000000000000  0000000000000000  000201bc  2**0
                  CONTENTS, READONLY, DEBUGGING
 13 .debug_abbrev 0000498c  0000000000000000  0000000000000000  00038153  2**0
                  CONTENTS, READONLY, DEBUGGING
 14 .debug_loc    0001d459  0000000000000000  0000000000000000  0003cadf  2**0
                  CONTENTS, READONLY, DEBUGGING
 15 .debug_aranges 00000800  0000000000000000  0000000000000000  00059f38  2**0
                  CONTENTS, READONLY, DEBUGGING
 16 .debug_macro  00005587  0000000000000000  0000000000000000  0005a738  2**0
                  CONTENTS, READONLY, DEBUGGING
 17 .debug_line   00006f17  0000000000000000  0000000000000000  0005fcbf  2**0
                  CONTENTS, READONLY, DEBUGGING
 18 .debug_str    00010a09  0000000000000000  0000000000000000  00066bd6  2**0
                  CONTENTS, READONLY, DEBUGGING
 19 .comment      0000002d  0000000000000000  0000000000000000  000775df  2**0
                  CONTENTS, READONLY
 20 .debug_frame  00003308  0000000000000000  0000000000000000  00077610  2**3
                  CONTENTS, READONLY, DEBUGGING
 21 .debug_ranges 00000d20  0000000000000000  0000000000000000  0007a918  2**0
                  CONTENTS, READONLY, DEBUGGING
SYMBOL TABLE:
0000000000000000 l    d  .ta_head	0000000000000000 .ta_head
0000000000000020 l    d  .text	0000000000000000 .text
000000000000c858 l    d  .rodata	0000000000000000 .rodata
000000000000ea38 l    d  .rela.dyn	0000000000000000 .rela.dyn
000000000000ec78 l    d  .got	0000000000000000 .got
000000000000ecf0 l    d  .rela.got	0000000000000000 .rela.got
000000000000edf8 l    d  .dynamic	0000000000000000 .dynamic
000000000000eef8 l    d  .dynsym	0000000000000000 .dynsym
000000000000f048 l    d  .dynstr	0000000000000000 .dynstr
000000000000f0f0 l    d  .hash	0000000000000000 .hash
0000000000010000 l    d  .data	0000000000000000 .data
00000000000101c0 l    d  .bss	0000000000000000 .bss
0000000000000000 l    d  .debug_info	0000000000000000 .debug_info
0000000000000000 l    d  .debug_abbrev	0000000000000000 .debug_abbrev
0000000000000000 l    d  .debug_loc	0000000000000000 .debug_loc
0000000000000000 l    d  .debug_aranges	0000000000000000 .debug_aranges
0000000000000000 l    d  .debug_macro	0000000000000000 .debug_macro
0000000000000000 l    d  .debug_line	0000000000000000 .debug_line
0000000000000000 l    d  .debug_str	0000000000000000 .debug_str
0000000000000000 l    d  .comment	0000000000000000 .comment
0000000000000000 l    d  .debug_frame	0000000000000000 .debug_frame
0000000000000000 l    d  .debug_ranges	0000000000000000 .debug_ranges
0000000000000000 l    df *ABS*	0000000000000000 user_ta_header.c
000000000000c940 l     O .rodata	0000000000000004 __compound_literal.5
000000000000c944 l     O .rodata	0000000000000004 __compound_literal.4
000000000000c948 l     O .rodata	0000000000000004 __compound_literal.3
000000000000c94c l     O .rodata	0000000000000001 __compound_literal.2
000000000000c94d l     O .rodata	0000000000000001 __compound_literal.1
000000000000c94e l     O .rodata	0000000000000001 __compound_literal.0
0000000000000000 l    df *ABS*	0000000000000000 TA.c
000000000000c858 l     O .rodata	0000000000000014 __func__.3772
000000000000c870 l     O .rodata	0000000000000015 __func__.3776
000000000000c888 l     O .rodata	0000000000000019 __func__.3782
000000000000c8a8 l     O .rodata	000000000000001a __func__.3786
000000000000c8c8 l     O .rodata	000000000000001b __func__.3794
0000000000000000 l    df *ABS*	0000000000000000 crypto.c
0000000000000000 l    df *ABS*	0000000000000000 test.c
000000000000c8e8 l     O .rodata	0000000000000013 __func__.3816
000000000000c900 l     O .rodata	0000000000000013 __func__.3824
000000000000c918 l     O .rodata	000000000000001f __func__.3834
0000000000000000 l    df *ABS*	0000000000000000 tee_api.c
00000000000181c0 l     O .bss	0000000000000008 tee_api_instance_data
000000000000c970 l     O .rodata	0000000000000013 __func__.4257
000000000000c988 l     O .rodata	0000000000000014 __func__.4269
000000000000c9a0 l     O .rodata	0000000000000017 __func__.4280
000000000000c9b8 l     O .rodata	0000000000000015 __func__.4286
000000000000c9d0 l     O .rodata	0000000000000012 __func__.4319
000000000000c9e8 l     O .rodata	0000000000000009 __func__.4324
000000000000c9f8 l     O .rodata	0000000000000018 __func__.4329
000000000000ca10 l     O .rodata	0000000000000018 __func__.4334
000000000000ca28 l     O .rodata	000000000000000f __func__.4339
0000000000000000 l    df *ABS*	0000000000000000 tee_api_objects.c
000000000000ca38 l     O .rodata	0000000000000012 __func__.4141
000000000000ca50 l     O .rodata	0000000000000013 __func__.4147
000000000000ca68 l     O .rodata	0000000000000019 __func__.4160
000000000000ca88 l     O .rodata	0000000000000018 __func__.4154
000000000000caa0 l     O .rodata	000000000000001d __func__.4171
000000000000cac0 l     O .rodata	000000000000001c __func__.4183
000000000000cae0 l     O .rodata	0000000000000010 __func__.4188
000000000000caf0 l     O .rodata	000000000000001c __func__.4196
000000000000cb10 l     O .rodata	0000000000000018 __func__.4202
000000000000cb28 l     O .rodata	0000000000000019 __func__.4208
000000000000cb48 l     O .rodata	000000000000001c __func__.4217
000000000000cb68 l     O .rodata	0000000000000015 __func__.4224
000000000000cb80 l     O .rodata	0000000000000017 __func__.4231
000000000000cb98 l     O .rodata	000000000000001a __func__.4247
000000000000cbb8 l     O .rodata	0000000000000019 __func__.4238
000000000000cbd8 l     O .rodata	0000000000000010 __func__.4256
000000000000cbe8 l     O .rodata	0000000000000019 __func__.4267
000000000000cc08 l     O .rodata	000000000000001b __func__.4282
000000000000cc28 l     O .rodata	0000000000000024 __func__.4292
000000000000cc50 l     O .rodata	0000000000000023 __func__.4287
000000000000cc78 l     O .rodata	000000000000001b __func__.4300
000000000000cc98 l     O .rodata	0000000000000027 __func__.4306
000000000000ccc0 l     O .rodata	0000000000000023 __func__.4311
000000000000cce8 l     O .rodata	0000000000000024 __func__.4316
000000000000cd10 l     O .rodata	0000000000000024 __func__.4322
000000000000cd38 l     O .rodata	000000000000001c __func__.4334
000000000000cd58 l     O .rodata	0000000000000013 __func__.4344
000000000000cd70 l     O .rodata	0000000000000014 __func__.4352
000000000000cd88 l     O .rodata	0000000000000017 __func__.4359
000000000000cda0 l     O .rodata	0000000000000013 __func__.4373
0000000000000000 l    df *ABS*	0000000000000000 tee_api_operations.c
00000000000023c4 l     F .text	000000000000006c init_hash_operation
0000000000005320 l     F .text	00000000000002a4 tee_buffer_update
000000000000cdb8 l     O .rodata	0000000000000014 __func__.4362
000000000000cdd0 l     O .rodata	0000000000000012 __func__.4411
000000000000cde8 l     O .rodata	0000000000000012 __func__.4302
000000000000ce00 l     O .rodata	0000000000000016 __func__.4202
000000000000ce18 l     O .rodata	0000000000000015 __func__.4307
000000000000ce30 l     O .rodata	000000000000001d __func__.4322
000000000000ce50 l     O .rodata	0000000000000013 __func__.4327
000000000000ce68 l     O .rodata	0000000000000014 __func__.4336
000000000000ce80 l     O .rodata	0000000000000015 __func__.4347
000000000000ce98 l     O .rodata	0000000000000012 __func__.4353
000000000000ceb0 l     O .rodata	0000000000000011 __func__.4369
000000000000cec8 l     O .rodata	0000000000000012 __func__.4380
000000000000cee0 l     O .rodata	000000000000000f __func__.4387
000000000000cef0 l     O .rodata	0000000000000011 __func__.4433
000000000000cf08 l     O .rodata	0000000000000012 __func__.4447
000000000000cf20 l     O .rodata	000000000000000c __func__.4453
000000000000cf30 l     O .rodata	000000000000000e __func__.4460
000000000000cf40 l     O .rodata	0000000000000014 __func__.4471
000000000000cf58 l     O .rodata	0000000000000014 __func__.4483
000000000000cf70 l     O .rodata	000000000000000b __func__.4494
000000000000cf80 l     O .rodata	0000000000000010 __func__.4501
000000000000cf90 l     O .rodata	000000000000000d __func__.4513
000000000000cfa0 l     O .rodata	0000000000000013 __func__.4530
000000000000cfb8 l     O .rodata	0000000000000013 __func__.4546
000000000000cfd0 l     O .rodata	0000000000000016 __func__.4559
000000000000cfe8 l     O .rodata	0000000000000016 __func__.4572
000000000000d000 l     O .rodata	0000000000000019 __func__.4585
000000000000d020 l     O .rodata	000000000000001b __func__.4597
000000000000d040 l     O .rodata	000000000000000e __func__.4607
000000000000d050 l     O .rodata	0000000000000013 __func__.4613
0000000000000000 l    df *ABS*	0000000000000000 tee_api_panic.c
0000000000000000 l    df *ABS*	0000000000000000 user_ta_entry.c
00000000000055e4 l     F .text	0000000000000028 ta_header_get_session
000000000000560c l     F .text	000000000000007c ta_header_remove_session
000000000000d068 l     O .rodata	000000000000000d __func__.4289
000000000001add4 l     O .bss	0000000000000004 ta_ref_count
000000000001add8 l     O .bss	0000000000000001 context_init
0000000000010178 l     O .data	0000000000000010 ta_sessions
0000000000000000 l    df *ABS*	0000000000000000 utee_syscalls_a64.o
0000000000000000 l    df *ABS*	0000000000000000 gprof_a64.o
0000000000000000 l    df *ABS*	0000000000000000 tee_user_mem.c
0000000000005c20 l     F .text	0000000000000058 print_buf
0000000000005c78 l     F .text	0000000000000128 check_elem
000000000000d078 l     O .rodata	000000000000000b __func__.3880
000000000000d088 l     O .rodata	000000000000000f __func__.3875
000000000000d098 l     O .rodata	0000000000000013 __func__.3900
000000000000d0b0 l     O .rodata	0000000000000012 __func__.3917
000000000000d0c8 l     O .rodata	0000000000000018 __func__.3925
000000000000d0e0 l     O .rodata	0000000000000010 __func__.3885
000000000000d0f0 l     O .rodata	0000000000000014 __func__.3930
0000000000018210 l     O .bss	0000000000000008 heap_level
0000000000018218 l     O .bss	0000000000000010 global_stats
0000000000000000 l    df *ABS*	0000000000000000 assert.c
0000000000000000 l    df *ABS*	0000000000000000 tee_api_arith.c
0000000000006914 l     F .text	0000000000000050 TEE_BigInt_Panic
000000000000d108 l     O .rodata	0000000000000011 __func__.4065
0000000000018228 l     O .bss	0000000000001b40 mempool_u32
0000000000000000 l    df *ABS*	0000000000000000 utee_misc.c
0000000000000000 l    df *ABS*	0000000000000000 trace_ext.c
000000000000d120 l     O .rodata	000000000000000a prefix.3606
000000000000d130 l     O .rodata	0000000000000011 failed.3607
0000000000000000 l    df *ABS*	0000000000000000 bget_malloc.c
0000000000006b18 l     F .text	000000000000004c raw_malloc_return_hook
0000000000006b64 l     F .text	0000000000000110 create_free_block
000000000000d148 l     O .rodata	0000000000000012 __func__.3421
000000000000d160 l     O .rodata	0000000000000005 __func__.3289
000000000000d168 l     O .rodata	0000000000000006 __func__.3303
000000000000d170 l     O .rodata	0000000000000005 __func__.3318
000000000000d178 l     O .rodata	0000000000000006 __func__.3311
000000000000d180 l     O .rodata	0000000000000006 __func__.3326
000000000000d188 l     O .rodata	0000000000000007 __func__.3335
000000000000d190 l     O .rodata	000000000000000d __func__.3454
000000000000d1a0 l     O .rodata	000000000000000c __func__.3430
000000000000d1b0 l     O .rodata	000000000000000b __func__.3440
000000000000d1c0 l     O .rodata	0000000000000010 __func__.3506
000000000000d1d0 l     O .rodata	000000000000000e __func__.3460
000000000000d1e0 l     O .rodata	0000000000000013 __func__.3374
0000000000019d68 l     O .bss	0000000000000008 totalloc
0000000000019d70 l     O .bss	0000000000000038 mstats
0000000000019da8 l     O .bss	0000000000000008 numget
0000000000019db0 l     O .bss	0000000000000008 numrel
0000000000019db8 l     O .bss	0000000000000008 malloc_pool_len
0000000000019dc0 l     O .bss	0000000000000008 malloc_pool
0000000000010198 l     O .data	0000000000000020 freelist
0000000000000000 l    df *ABS*	0000000000000000 snprintf.c
0000000000000000 l    df *ABS*	0000000000000000 memcmp.c
0000000000000000 l    df *ABS*	0000000000000000 memcpy.c
0000000000000000 l    df *ABS*	0000000000000000 memmove.c
0000000000000000 l    df *ABS*	0000000000000000 memset.c
0000000000000000 l    df *ABS*	0000000000000000 strlen.c
0000000000000000 l    df *ABS*	0000000000000000 snprintk.c
000000000000d1f8 l     O .rodata	0000000000000011 HEXDIGITS
000000000000d210 l     O .rodata	0000000000000011 hexdigits
0000000000000000 l    df *ABS*	0000000000000000 strlcpy.c
0000000000000000 l    df *ABS*	0000000000000000 buf_compare_ct.c
0000000000000000 l    df *ABS*	0000000000000000 trace.c
000000000000d228 l     O .rodata	000000000000002d lvl_strs.3167
0000000000000000 l    df *ABS*	0000000000000000 memchr.c
0000000000000000 l    df *ABS*	0000000000000000 mpa_misc.c
0000000000000000 l    df *ABS*	0000000000000000 mpa_montgomery.c
0000000000000000 l    df *ABS*	0000000000000000 mpa_primetest.c
000000000000dec0 l     O .rodata	0000000000000010 const_miller_rabin_proof_limit
000000000000ded0 l     O .rodata	000000000000001c proof_a.3545
000000000000def0 l     O .rodata	000000000000000c const_two
000000000000df00 l     O .rodata	00000000000000b8 const_small_prime_factors
0000000000000000 l    df *ABS*	0000000000000000 mpa_conv.c
0000000000000000 l    df *ABS*	0000000000000000 mpa_div.c
0000000000000000 l    df *ABS*	0000000000000000 mpa_gcd.c
0000000000009f58 l     F .text	0000000000000080 __mpa_divby2
0000000000009fd8 l     F .text	000000000000016c __mpa_gcd.part.0
000000000000a144 l     F .text	0000000000000380 __mpa_egcd
0000000000000000 l    df *ABS*	0000000000000000 mpa_mem_static.c
0000000000000000 l    df *ABS*	0000000000000000 mpa_mul.c
0000000000000000 l    df *ABS*	0000000000000000 mpa_random.c
0000000000019dc8 l     O .bss	0000000000000008 get_rng_array
0000000000000000 l    df *ABS*	0000000000000000 mpa_shift.c
0000000000000000 l    df *ABS*	0000000000000000 mpa_addsub.c
0000000000000000 l    df *ABS*	0000000000000000 mpa_cmp.c
0000000000000000 l    df *ABS*	0000000000000000 mpa_expmod.c
0000000000000000 l    df *ABS*	0000000000000000 mpa_init.c
0000000000000000 l    df *ABS*	0000000000000000 mpa_io.c
000000000000be60 l     F .text	0000000000000044 __mpa_word_to_hexstr
000000000000bea4 l     F .text	0000000000000114 __mpa_mpanum_to_hexstr
000000000000bfb8 l     F .text	000000000000003c __mpa_isspace
000000000000dfc0 l     O .rodata	000000000000000c __func__.3619
000000000000dfd0 l     O .rodata	000000000000000c __func__.3633
0000000000019dd0 l     O .bss	0000000000001002 buf.3605
0000000000000000 l    df *ABS*	0000000000000000 mpa_modulus.c
0000000000000000 l    df *ABS*	0000000000000000 
000000000000edf8 l     O *ABS*	0000000000000000 _DYNAMIC
000000000000ec90 l     O *ABS*	0000000000000000 _GLOBAL_OFFSET_TABLE_
0000000000005bf8 g     F .text	000000000000000c utee_se_channel_transmit
000000000000bddc g     F .text	000000000000001c mpa_init_static
0000000000001670 g     F .text	000000000000016c TEE_PopulateTransientObject
0000000000008ca0 g     F .text	0000000000000054 mpa_copy
0000000000006854 g     F .text	000000000000001c TEE_BigIntConvertToFMM
0000000000006734 g     F .text	000000000000000c TEE_BigIntSquareMod
00000000000063b4 g     F .text	0000000000000004 TEE_BigIntShiftRight
00000000000095a8 g     F .text	0000000000000074 mpa_get_S32
0000000000008d24 g     F .text	0000000000000044 mpa_highest_bit_index
0000000000005ac0 g     F .text	000000000000000c utee_storage_obj_create
0000000000005bd4 g     F .text	000000000000000c utee_se_session_close
00000000000058c8 g     F .text	000000000000000c utee_return
0000000000003530 g     F .text	00000000000000c8 TEE_DigestUpdate
0000000000005b74 g     F .text	000000000000000c utee_se_service_get_readers
0000000000000f90 g     F .text	0000000000000008 TEE_Realloc
0000000000009698 g     F .text	0000000000000148 __mpa_div_q_r_internal_word
0000000000006050 g     F .text	00000000000000bc tee_user_mem_realloc
000000000000315c g     F .text	00000000000001b8 TEE_SetOperationKey2
000000000000b658 g     F .text	000000000000019c mpa_sub
00000000000069f0 g     F .text	0000000000000128 printf
0000000000005eec g     F .text	0000000000000164 tee_user_mem_free
00000000000058d4 g     F .text	000000000000000c utee_log
000000000000dfb8 g     O .rodata	0000000000000004 NR_STORED_PRIMES
00000000000017dc g     F .text	00000000000000a4 TEE_InitRefAttribute
0000000000000b30 g     F .text	00000000000000dc TEE_InvokeTACommand
0000000000008dac g     F .text	000000000000001c mpa_can_hold
000000000000a97c g     F .text	0000000000000098 __mpa_abs_mul_word
0000000000004344 g     F .text	00000000000001d0 TEE_AEEncryptFinal
0000000000010048 g     O .data	0000000000000004 public_key
0000000000000794 g     F .text	00000000000001c0 local_encrypt_and_decrypt_test
0000000000009148 g     F .text	0000000000000088 mpa_montgomery_mul
000000000000887c g     F .text	0000000000000054 vsnprintk
0000000000008dc8 g     F .text	000000000000000c mpa_parity
0000000000007c50 g     F .text	000000000000004c memmove
000000000000b1e0 g     F .text	0000000000000020 __mpa_full_adder_ackum
0000000000007b30 g     F .text	0000000000000078 snprintf
00000000000063b0 g     F .text	0000000000000004 TEE_BigIntCmpS32
0000000000001880 g     F .text	00000000000000a0 TEE_InitValueAttribute
00000000000063ec g     F .text	000000000000000c TEE_BigIntAdd
00000000000058f8 g     F .text	000000000000000c utee_get_property_name_to_index
000000000000c950 g     O .rodata	0000000000000008 ta_heap_size
000000000000dfbc g     O .rodata	0000000000000004 MAX_TABULATED_PRIME
000000000000062c g     F .text	0000000000000168 TA_decrypt_command
0000000000001594 g     F .text	00000000000000dc TEE_ResetTransientObject
000000000000696c g     F .text	0000000000000004 utee_malloc
000000000000597c g     F .text	000000000000000c utee_cryp_state_alloc
0000000000005a84 g     F .text	000000000000000c utee_authenc_enc_final
000000000000a95c g     F .text	0000000000000020 __mpa_mul_add_word_cum
00000000000036cc g     F .text	000000000000014c TEE_CipherInit
0000000000006404 g     F .text	0000000000000004 TEE_BigIntNeg
0000000000009e68 g     F .text	00000000000000f0 mpa_div
0000000000000020 g       .text	0000000000000000 __text_start
0000000000002004 g     F .text	000000000000007c TEE_StartPersistentObjectEnumerator
000000000000d258 g     O .rodata	000000000000000c const_one
0000000000007ac4 g     F .text	000000000000006c malloc_buffer_overlaps_heap
000000000000bb60 g     F .text	0000000000000018 __mpa_abs_less_than
00000000000065c4 g     F .text	00000000000000a8 TEE_BigIntSubMod
0000000000003fa8 g     F .text	00000000000000ec TEE_AEInit
000000000000acbc g     F .text	0000000000000114 mpa_get_random
0000000000006988 g     F .text	0000000000000004 get_rng_array
00000000000089f0 g     F .text	000000000000022c trace_printf
0000000000005b5c g     F .text	000000000000000c utee_se_service_open
0000000000007c30 g     F .text	0000000000000020 memcpy
0000000000005994 g     F .text	000000000000000c utee_cryp_state_free
0000000000008c70 g     F .text	0000000000000030 mpa_wipe
0000000000006870 g     F .text	0000000000000094 TEE_BigIntConvertFromFMM
00000000000055d4 g     F .text	0000000000000010 TEE_Panic
0000000000005bec g     F .text	000000000000000c utee_se_channel_get_select_resp
0000000000003314 g     F .text	000000000000021c TEE_CopyOperation
00000000000069bc g     F .text	0000000000000034 puts
0000000000006904 g     F .text	0000000000000010 TEE_BigIntComputeFMM
000000000000961c g     F .text	0000000000000014 mpa_set_word
00000000000073bc g     F .text	0000000000000038 malloc_get_stats
000000000000aecc g     F .text	0000000000000190 mpa_shift_left
00000000000059dc g     F .text	000000000000000c utee_cipher_final
000000000000ab08 g     F .text	00000000000000e4 mpa_mul
0000000000000f24 g     F .text	0000000000000064 TEE_GetREETime
0000000000001eb8 g     F .text	0000000000000084 TEE_AllocatePersistentObjectEnumerator
0000000000010098 g     O .data	00000000000000d8 ta_props
00000000000046d4 g     F .text	000000000000023c TEE_AsymmetricEncrypt
00000000000073f4 g     F .text	0000000000000038 malloc
0000000000005a18 g     F .text	000000000000000c utee_cryp_obj_close
0000000000005b98 g     F .text	000000000000000c utee_se_reader_open_session
0000000000007ba8 g     F .text	0000000000000054 vsnprintf
0000000000001af4 g     F .text	00000000000000b0 TEE_GenerateKey
00000000000101b8 g     O .data	0000000000000004 trace_level
0000000000006964 g     F .text	0000000000000008 utee_get_ta_exec_id
00000000000063ac g     F .text	0000000000000004 TEE_BigIntCmp
0000000000006970 g     F .text	0000000000000004 utee_realloc
000000000000c938 g     O .rodata	0000000000000008 ta_num_props
0000000000007184 g     F .text	000000000000009c bgetr
0000000000005a78 g     F .text	000000000000000c utee_authenc_update_payload
0000000000003818 g     F .text	0000000000000184 TEE_CipherUpdate
0000000000006348 g     F .text	0000000000000040 TEE_BigIntConvertToOctetString
0000000000002ddc g     F .text	0000000000000170 TEE_GetOperationInfoMultiple
0000000000005c10 g     F .text	000000000000000c utee_cache_operation
0000000000005a60 g     F .text	000000000000000c utee_authenc_init
00000000000063b8 g     F .text	000000000000001c TEE_BigIntGetBit
000000000000c958 g     O .rodata	0000000000000008 trace_ext_prefix
000000000000b200 g     F .text	00000000000000f4 __mpa_abs_add
0000000000006e50 g     F .text	0000000000000088 bgetz
0000000000000d20 g     F .text	000000000000000c TEE_GetInstanceData
0000000000000da8 g     F .text	0000000000000068 TEE_Wait
0000000000005b2c g     F .text	000000000000000c utee_storage_obj_write
000000000000a8f8 g     F .text	000000000000004c mpa_free_static_temp_var
00000000000091d0 g     F .text	00000000000003ac mpa_is_prob_prime
0000000000005c04 g     F .text	000000000000000c utee_se_channel_close
000000000000abec g     F .text	00000000000000c4 mpa_mul_word
0000000000000fa4 g     F .text	0000000000000008 TEE_CacheFlush
0000000000000054 g     F .text	0000000000000024 TA_DestroyEntryPoint
000000000000622c g     F .text	0000000000000044 _assert_log
000000000000630c g     F .text	0000000000000014 TEE_BigIntFMMContextSizeInU32
0000000000003ec0 g     F .text	00000000000000e8 TEE_MACCompareFinal
0000000000001e24 g     F .text	0000000000000094 TEE_RenamePersistentObject
00000000000035f8 g     F .text	00000000000000d4 TEE_DigestDoFinal
00000000000097e0 g     F .text	0000000000000688 __mpa_div_q_r
0000000000006280 g     F .text	000000000000002c _TEE_MathAPI_Init
0000000000005b14 g     F .text	000000000000000c utee_storage_next_enum
00000000000101c0 g     O .bss	0000000000008000 ta_heap
0000000000006740 g     F .text	000000000000006c TEE_BigIntInvMod
00000000000000b0 g     F .text	0000000000000024 TA_CloseSessionEntryPoint
0000000000004910 g     F .text	0000000000000240 TEE_AsymmetricDecrypt
0000000000001ba4 g     F .text	00000000000000c0 TEE_OpenPersistentObject
0000000000005988 g     F .text	000000000000000c utee_cryp_state_copy
00000000000000d4 g     F .text	0000000000000088 TA_InvokeCommandEntryPoint
000000000000c318 g     F .text	0000000000000110 mpa_set_oct_str
0000000000005bc8 g     F .text	000000000000000c utee_se_session_open_channel
000000000000add0 g     F .text	0000000000000098 __mpa_shift_words_left
0000000000005a0c g     F .text	000000000000000c utee_cryp_obj_alloc
0000000000005970 g     F .text	000000000000000c utee_set_ta_time
0000000000005a00 g     F .text	000000000000000c utee_cryp_obj_get_attr
0000000000001a70 g     F .text	0000000000000084 TEE_CopyObjectAttributes
0000000000008e58 g     F .text	0000000000000090 __mpa_montgomery_sub_ack
0000000000007438 g     F .text	000000000000004c calloc
0000000000000f88 g     F .text	0000000000000008 TEE_Malloc
000000000000594c g     F .text	000000000000000c utee_mask_cancellation
0000000000005a24 g     F .text	000000000000000c utee_cryp_obj_reset
0000000000000d00 g     F .text	0000000000000014 TEE_CheckMemoryAccessRights
000000000001ade0 g       .bss	0000000000000000 __gprof_buf_end
000000000000b7f4 g     F .text	000000000000002c mpa_neg
000000000000d288 g     O .rodata	0000000000000c38 PRIME_TABLE
000000000000212c g     F .text	0000000000000090 TEE_ReadObjectData
00000000000011d0 g     F .text	00000000000000d4 TEE_GetObjectBufferAttribute
0000000000000078 g     F .text	0000000000000038 TA_OpenSessionEntryPoint
000000000000a4c4 g     F .text	0000000000000120 mpa_gcd
0000000000008cf4 g     F .text	0000000000000030 mpa_abs
0000000000005b08 g     F .text	000000000000000c utee_storage_start_enum
0000000000002430 g     F .text	000000000000009c TEE_FreeOperation
000000000000bffc g     F .text	0000000000000298 mpa_set_str
0000000000005ad8 g     F .text	000000000000000c utee_storage_obj_rename
00000000000181c8 g     O .bss	0000000000000004 ta_param_types
0000000000000fb4 g     F .text	000000000000004c __utee_from_attr
0000000000006830 g     F .text	0000000000000024 TEE_BigIntIsProbablePrime
000000000000a8e8 g     F .text	0000000000000010 mpa_alloc_static_temp_var
0000000000001d60 g     F .text	0000000000000070 TEE_CloseAndDeletePersistentObject1
000000000000acb0 g     F .text	000000000000000c mpa_set_random_generator
00000000000058ec g     F .text	000000000000000c utee_get_property
0000000000004514 g     F .text	00000000000001c0 TEE_AEDecryptFinal
00000000000062ac g     F .text	0000000000000004 TEE_BigIntInit
0000000000000d2c g     F .text	0000000000000008 TEE_MemMove
0000000000006320 g     F .text	0000000000000028 TEE_BigIntConvertFromOctetString
0000000000010170 g     O .data	0000000000000008 _ref__utee_mcount
0000000000003b6c g     F .text	0000000000000100 TEE_MACInit
0000000000004b50 g     F .text	0000000000000234 TEE_AsymmetricSignDigest
0000000000008c20 g     F .text	000000000000002c memchr
0000000000000c38 g     F .text	0000000000000064 TEE_UnmaskCancellation
0000000000001000 g     F .text	0000000000000074 TEE_GetObjectInfo
000000000000c6bc g     F .text	0000000000000084 mpa_mul_mod
0000000000005acc g     F .text	000000000000000c utee_storage_obj_del
00000000000041cc g     F .text	0000000000000178 TEE_AEUpdate
0000000000005b44 g     F .text	000000000000000c utee_storage_obj_seek
00000000000014b8 g     F .text	00000000000000dc TEE_FreeTransientObject
000000000000900c g     F .text	000000000000013c mpa_compute_fmm_context
00000000000059ac g     F .text	000000000000000c utee_hash_update
000000000000a7d0 g     F .text	0000000000000018 mpa_init_scratch_mem_sync
0000000000005c1c  w    F .text	0000000000000004 __utee_mcount
0000000000002d44 g     F .text	0000000000000098 TEE_GetOperationInfo
0000000000006488 g     F .text	0000000000000094 TEE_BigIntMod
0000000000005be0 g     F .text	000000000000000c utee_se_channel_select_next
0000000000005910 g     F .text	000000000000000c utee_close_ta_session
0000000000006424 g     F .text	0000000000000064 TEE_BigIntDiv
0000000000008944 g     F .text	0000000000000038 strlcpy
00000000000073a4 g     F .text	0000000000000018 malloc_reset_stats
00000000000059d0 g     F .text	000000000000000c utee_cipher_update
00000000000010e0 g     F .text	0000000000000070 TEE_RestrictObjectUsage1
0000000000005bbc g     F .text	000000000000000c utee_se_session_get_atr
0000000000007484 g     F .text	0000000000000038 realloc
000000000000b2f4 g     F .text	00000000000000cc __mpa_abs_add_ackum
0000000000005aa8 g     F .text	000000000000000c utee_asymm_verify
0000000000006408 g     F .text	000000000000000c TEE_BigIntMul
0000000000002f4c g     F .text	00000000000000f8 TEE_ResetOperation
0000000000009630 g     F .text	0000000000000018 mpa_get_word
0000000000000d3c g     F .text	0000000000000008 TEE_MemFill
0000000000007bfc g     F .text	0000000000000034 memcmp
000000000000784c g     F .text	00000000000000f8 malloc_add_pool
0000000000003c6c g     F .text	0000000000000170 TEE_MACUpdate
00000000000089e0 g     F .text	0000000000000010 trace_get_level
0000000000005a54 g     F .text	000000000000000c utee_cryp_random_number_generate
0000000000001150 g     F .text	0000000000000080 TEE_RestrictObjectUsage
00000000000062fc g     F .text	0000000000000010 TEE_BigIntFMMSizeInU32
00000000000062b0 g     F .text	0000000000000014 TEE_BigIntInitFMM
0000000000005a9c g     F .text	000000000000000c utee_asymm_operate
00000000000013c4 g     F .text	0000000000000064 TEE_CloseObject
0000000000005688 g     F .text	0000000000000240 __utee_entry
000000000000c854 g       .text	0000000000000000 __text_end
00000000000067ac g     F .text	0000000000000078 TEE_BigIntRelativePrime
0000000000007220 g     F .text	00000000000000dc bpool
000000000000957c g     F .text	000000000000002c mpa_set_S32
000000000000bdf8 g     F .text	0000000000000068 mpa_init_static_fmm_context
0000000000000c0c g     F .text	000000000000002c TEE_GetCancellationFlag
0000000000005b68 g     F .text	000000000000000c utee_se_service_close
0000000000005da0 g     F .text	000000000000014c tee_user_mem_alloc
0000000000010188 g     O .data	0000000000000010 user_mem_head
0000000000000eb8 g     F .text	000000000000006c TEE_SetTAPersistentTime
000000000000b820 g     F .text	000000000000013c mpa_add_word
0000000000005b80 g     F .text	000000000000000c utee_se_reader_get_prop
0000000000007c9c g     F .text	000000000000001c memset
0000000000000e10 g     F .text	00000000000000a8 TEE_GetTAPersistentTime
0000000000000318 g     F .text	00000000000001b0 encrypt_using_private_key
0000000000008c1c g     F .text	0000000000000004 dhex_dump
0000000000001c64 g     F .text	00000000000000fc TEE_CreatePersistentObject
0000000000000c9c g     F .text	0000000000000064 TEE_MaskCancellation
000000000000b1bc g     F .text	0000000000000024 __mpa_full_sub
0000000000004094 g     F .text	0000000000000138 TEE_AEUpdateAAD
0000000000005b20 g     F .text	000000000000000c utee_storage_obj_read
0000000000002248 g     F .text	0000000000000084 TEE_TruncateObjectData
0000000000006974 g     F .text	0000000000000010 utee_calloc
0000000000005a30 g     F .text	000000000000000c utee_cryp_obj_populate
000000000000bb78 g     F .text	0000000000000068 mpa_cmp
000000000000c740 g     F .text	0000000000000114 mpa_inv_mod
000000000000b95c g     F .text	0000000000000138 mpa_sub_word
000000000000a944 g     F .text	0000000000000018 __mpa_mul_add_word
000000000000b4c4 g     F .text	0000000000000194 mpa_add
000000000000bc64 g     F .text	0000000000000178 mpa_exp_mod
0000000000001074 g     F .text	000000000000006c TEE_GetObjectInfo1
000000000000ae68 g     F .text	0000000000000064 __mpa_shift_words_right
00000000000089bc g     F .text	0000000000000024 trace_set_level
0000000000005bb0 g     F .text	000000000000000c utee_se_session_is_closed
00000000000059e8 g     F .text	000000000000000c utee_cryp_obj_get_info
00000000000012a4 g     F .text	0000000000000120 TEE_GetObjectValueAttribute
0000000000003044 g     F .text	0000000000000118 TEE_SetOperationKey
0000000000005ae4 g     F .text	000000000000000c utee_storage_alloc_enum
0000000000005afc g     F .text	000000000000000c utee_storage_reset_enum
0000000000005b38 g     F .text	000000000000000c utee_storage_obj_trunc
000000000000c59c g     F .text	0000000000000018 mpa_mod
000000000000bb44 g     F .text	000000000000001c __mpa_abs_greater_than
000000000000638c g     F .text	0000000000000020 TEE_BigIntConvertToS32
00000000000063f8 g     F .text	000000000000000c TEE_BigIntSub
0000000000005928 g     F .text	000000000000000c utee_get_cancellation_flag
00000000000059a0 g     F .text	000000000000000c utee_hash_init
0000000000000954 g     F .text	0000000000000008 tahead_get_trace_level
000000000000095c g     F .text	0000000000000078 __utee_from_param
00000000000022cc g     F .text	00000000000000f8 TEE_SeekObjectData
000000000000d268 g     O .rodata	0000000000000010 Const_1_LShift_Base
00000000000009d4 g     F .text	000000000000006c __utee_to_param
00000000000074bc g     F .text	0000000000000390 memalign
000000000000399c g     F .text	00000000000001d0 TEE_CipherDoFinal
0000000000006388 g     F .text	0000000000000004 TEE_BigIntConvertFromS32
000000000000c638 g     F .text	0000000000000084 mpa_sub_mod
00000000000059f4 g     F .text	000000000000000c utee_cryp_obj_restrict_usage
0000000000007944 g     F .text	0000000000000180 malloc_buffer_is_within_alloced
0000000000005a3c g     F .text	000000000000000c utee_cryp_obj_copy
000000000000b05c g     F .text	0000000000000144 mpa_shift_right
00000000000062c4 g     F .text	0000000000000038 TEE_BigIntInitFMMContext
0000000000005a48 g     F .text	000000000000000c utee_cryp_derive_key
0000000000008ee8 g     F .text	0000000000000124 __mpa_montgomery_mul
000000000000c428 g     F .text	0000000000000174 mpa_get_oct_str
000000000000bbe0 g     F .text	0000000000000084 mpa_cmp_short
0000000000005a90 g     F .text	000000000000000c utee_authenc_dec_final
00000000000021bc g     F .text	000000000000008c TEE_WriteObjectData
0000000000001fa0 g     F .text	0000000000000064 TEE_ResetPersistentObjectEnumerator
000000000000ba94 g     F .text	00000000000000b0 __mpa_abs_cmp
0000000000006414 g     F .text	0000000000000010 TEE_BigIntSquare
0000000000000020 g     F .text	0000000000000034 TA_CreateEntryPoint
00000000000088d0 g     F .text	0000000000000074 snprintk
00000000000063d4 g     F .text	0000000000000018 TEE_BigIntGetBitCount
000000000000666c g     F .text	00000000000000c8 TEE_BigIntMulMod
00000000000055c4 g     F .text	0000000000000010 __TEE_Panic
0000000000004fa8 g     F .text	0000000000000318 TEE_DeriveKey
00000000000181d0 g     O .bss	0000000000000040 ta_params
000000000000aa14 g     F .text	00000000000000f4 __mpa_abs_mul
0000000000006c74 g     F .text	00000000000001dc bget
0000000000001428 g     F .text	0000000000000090 TEE_AllocateTransientObject
0000000000000f98 g     F .text	0000000000000004 TEE_Free
0000000000005b8c g     F .text	000000000000000c utee_se_reader_get_name
0000000000000fac g     F .text	0000000000000008 TEE_CacheInvalidate
00000000000059c4 g     F .text	000000000000000c utee_cipher_init
0000000000006270 g     F .text	0000000000000010 _assert_break
000000000000651c g     F .text	00000000000000a8 TEE_BigIntAddMod
0000000000005af0 g     F .text	000000000000000c utee_storage_free_enum
0000000000005a6c g     F .text	000000000000000c utee_authenc_update_aad
0000000000008d68 g     F .text	0000000000000044 mpa_get_bit
00000000000024cc g     F .text	0000000000000878 TEE_AllocateOperation
000000000000a7e8 g     F .text	0000000000000018 mpa_init_scratch_mem
00000000000052c0 g     F .text	0000000000000060 TEE_GenerateRandom
0000000000000d34 g     F .text	0000000000000008 TEE_MemCompare
0000000000007cd4 g     F .text	0000000000000ba8 __vsnprintf
0000000000001f3c g     F .text	0000000000000064 TEE_FreePersistentObjectEnumerator
00000000000058e0 g     F .text	000000000000000c utee_panic
0000000000000a40 g     F .text	0000000000000090 TEE_OpenTASession
000000000000015c g     F .text	00000000000001bc decrypt_using_public_key
000000000000698c g     F .text	0000000000000028 trace_ext_puts
00000000000061b4 g     F .text	0000000000000078 tee_user_mem_garbage
00000000000069b4 g     F .text	0000000000000008 trace_ext_get_thread_id
0000000000001dd0 g     F .text	0000000000000054 TEE_CloseAndDeletePersistentObject
00000000000004c8 g     F .text	0000000000000164 TA_encrypt_command
0000000000000f9c g     F .text	0000000000000008 TEE_CacheClean
0000000000005904 g     F .text	000000000000000c utee_open_ta_session
000000000000897c g     F .text	0000000000000040 buf_compare_ct
0000000000009648 g     F .text	0000000000000050 __mpa_div_dword
0000000000008c4c g     F .text	0000000000000024 __mpa_set_unused_digits_to_zero
000000000000d278 g     O .rodata	000000000000000c const_largest_deci_base
000000000000bff4 g     F .text	0000000000000008 mpa_get_str_size
0000000000010050 g     O .data	0000000000000041 private_key
0000000000006118 g     F .text	000000000000009c tee_user_mem_check_heap
0000000000001920 g     F .text	0000000000000150 TEE_CopyObjectAttributes1
00000000000059b8 g     F .text	000000000000000c utee_hash_final
0000000000007cb8 g     F .text	000000000000001c strlen
0000000000006824 g     F .text	000000000000000c TEE_BigIntComputeExtendedGcd
000000000000a5e4 g     F .text	00000000000001ec mpa_extended_gcd
000000000000c5b4 g     F .text	0000000000000084 mpa_add_mod
0000000000005ab4 g     F .text	000000000000000c utee_storage_obj_open
000000000000591c g     F .text	000000000000000c utee_invoke_ta_command
000000000000c294 g     F .text	0000000000000084 mpa_get_str
0000000000005958 g     F .text	000000000000000c utee_wait
0000000000006984 g     F .text	0000000000000004 utee_free
000000000000610c g     F .text	000000000000000c tee_user_mem_mark_heap
0000000000000d44 g     F .text	0000000000000064 TEE_GetSystemTime
0000000000000000 g     O .ta_head	0000000000000020 ta_head
0000000000006ed8 g     F .text	00000000000002ac brel
000000000000a800 g     F .text	00000000000000e8 mpa_alloc_static_temp_var_size
0000000000005964 g     F .text	000000000000000c utee_get_time
0000000000010000 g     O .data	0000000000000041 modulus
0000000000008de0 g     F .text	0000000000000078 __mpa_montgomery_mul_add
0000000000000d14 g     F .text	000000000000000c TEE_SetInstanceData
0000000000005940 g     F .text	000000000000000c utee_unmask_cancellation
0000000000005934 g     F .text	000000000000000c utee_check_access_rights
0000000000005ba4 g     F .text	000000000000000c utee_se_reader_close_sessions
0000000000002080 g     F .text	00000000000000ac TEE_GetNextPersistentObject
0000000000005b50 g     F .text	000000000000000c utee_cryp_obj_generate_key
0000000000008dd4 g     F .text	000000000000000c mpa_constant_one
0000000000000ad0 g     F .text	0000000000000060 TEE_CloseTASession
0000000000004d84 g     F .text	0000000000000224 TEE_AsymmetricVerifyDigest
000000000000b1a0 g     F .text	000000000000001c __mpa_full_adder
000000000000b3c0 g     F .text	0000000000000104 __mpa_abs_sub
000000000001ade0 g       .bss	0000000000000000 __gprof_buf_start
000000000000742c g     F .text	000000000000000c free
00000000000072fc g     F .text	00000000000000a8 bstats
0000000000003ddc g     F .text	00000000000000e4 TEE_MACComputeFinal



Disassembly of section .text:

0000000000000020 <TA_CreateEntryPoint>:
TA_CreateEntryPoint():
/home/ursus/devel/optee/RSA/ta/TA.c:36
      20:	a9bf7bfd 	stp	x29, x30, [sp,#-16]!
/home/ursus/devel/optee/RSA/ta/TA.c:37
      24:	52800023 	mov	w3, #0x1                   	// #1
      28:	52800062 	mov	w2, #0x3                   	// #3
      2c:	528004a1 	mov	w1, #0x25                  	// #37
/home/ursus/devel/optee/RSA/ta/TA.c:36
      30:	910003fd 	mov	x29, sp
/home/ursus/devel/optee/RSA/ta/TA.c:37
      34:	b0000064 	adrp	x4, d000 <__func__.4585>
      38:	913f7084 	add	x4, x4, #0xfdc
      3c:	90000060 	adrp	x0, c000 <mpa_set_str+0x4>
      40:	91216000 	add	x0, x0, #0x858
      44:	9400226b 	bl	89f0 <trace_printf>
/home/ursus/devel/optee/RSA/ta/TA.c:39
      48:	52800000 	mov	w0, #0x0                   	// #0
      4c:	a8c17bfd 	ldp	x29, x30, [sp],#16
      50:	d65f03c0 	ret

0000000000000054 <TA_DestroyEntryPoint>:
TA_DestroyEntryPoint():
/home/ursus/devel/optee/RSA/ta/TA.c:43
      54:	90000060 	adrp	x0, c000 <mpa_set_str+0x4>
      58:	91216000 	add	x0, x0, #0x858
      5c:	d0000064 	adrp	x4, e000 <__func__.3633+0x30>
      60:	52800023 	mov	w3, #0x1                   	// #1
      64:	91004484 	add	x4, x4, #0x11
      68:	52800062 	mov	w2, #0x3                   	// #3
      6c:	52800561 	mov	w1, #0x2b                  	// #43
      70:	91006000 	add	x0, x0, #0x18
      74:	1400225f 	b	89f0 <trace_printf>

0000000000000078 <TA_OpenSessionEntryPoint>:
TA_OpenSessionEntryPoint():
/home/ursus/devel/optee/RSA/ta/TA.c:47
      78:	a9bf7bfd 	stp	x29, x30, [sp,#-16]!
/home/ursus/devel/optee/RSA/ta/TA.c:49
      7c:	90000060 	adrp	x0, c000 <mpa_set_str+0x4>
      80:	91216000 	add	x0, x0, #0x858
      84:	52800023 	mov	w3, #0x1                   	// #1
/home/ursus/devel/optee/RSA/ta/TA.c:47
      88:	910003fd 	mov	x29, sp
/home/ursus/devel/optee/RSA/ta/TA.c:49
      8c:	52800062 	mov	w2, #0x3                   	// #3
      90:	52800621 	mov	w1, #0x31                  	// #49
      94:	9100c000 	add	x0, x0, #0x30
      98:	d0000064 	adrp	x4, e000 <__func__.3633+0x30>
      9c:	91011884 	add	x4, x4, #0x46
      a0:	94002254 	bl	89f0 <trace_printf>
/home/ursus/devel/optee/RSA/ta/TA.c:58
      a4:	52800000 	mov	w0, #0x0                   	// #0
      a8:	a8c17bfd 	ldp	x29, x30, [sp],#16
      ac:	d65f03c0 	ret

00000000000000b0 <TA_CloseSessionEntryPoint>:
TA_CloseSessionEntryPoint():
/home/ursus/devel/optee/RSA/ta/TA.c:63
      b0:	90000060 	adrp	x0, c000 <mpa_set_str+0x4>
      b4:	91216000 	add	x0, x0, #0x858
      b8:	d0000064 	adrp	x4, e000 <__func__.3633+0x30>
      bc:	52800023 	mov	w3, #0x1                   	// #1
      c0:	9101ec84 	add	x4, x4, #0x7b
      c4:	52800062 	mov	w2, #0x3                   	// #3
      c8:	528007e1 	mov	w1, #0x3f                  	// #63
      cc:	91014000 	add	x0, x0, #0x50
      d0:	14002248 	b	89f0 <trace_printf>

00000000000000d4 <TA_InvokeCommandEntryPoint>:
TA_InvokeCommandEntryPoint():
/home/ursus/devel/optee/RSA/ta/TA.c:70
      d4:	a9be7bfd 	stp	x29, x30, [sp,#-32]!
/home/ursus/devel/optee/RSA/ta/TA.c:78
      d8:	90000060 	adrp	x0, c000 <mpa_set_str+0x4>
      dc:	91216000 	add	x0, x0, #0x858
      e0:	d0000064 	adrp	x4, e000 <__func__.3633+0x30>
/home/ursus/devel/optee/RSA/ta/TA.c:70
      e4:	910003fd 	mov	x29, sp
      e8:	a90153f3 	stp	x19, x20, [sp,#16]
/home/ursus/devel/optee/RSA/ta/TA.c:78
      ec:	9102c084 	add	x4, x4, #0xb0
/home/ursus/devel/optee/RSA/ta/TA.c:70
      f0:	2a0103f3 	mov	w19, w1
      f4:	aa0303f4 	mov	x20, x3
/home/ursus/devel/optee/RSA/ta/TA.c:78
      f8:	52800062 	mov	w2, #0x3                   	// #3
      fc:	52800023 	mov	w3, #0x1                   	// #1
     100:	528009c1 	mov	w1, #0x4e                  	// #78
     104:	9101c000 	add	x0, x0, #0x70
     108:	9400223a 	bl	89f0 <trace_printf>
/home/ursus/devel/optee/RSA/ta/TA.c:79
     10c:	7100067f 	cmp	w19, #0x1
     110:	54000160 	b.eq	13c <TA_InvokeCommandEntryPoint+0x68>
     114:	340000b3 	cbz	w19, 128 <TA_InvokeCommandEntryPoint+0x54>
     118:	71000a7f 	cmp	w19, #0x2
     11c:	54000180 	b.eq	14c <TA_InvokeCommandEntryPoint+0x78>
/home/ursus/devel/optee/RSA/ta/TA.c:90
     120:	129fff20 	mov	w0, #0xffff0006            	// #-65530
     124:	14000003 	b	130 <TA_InvokeCommandEntryPoint+0x5c>
/home/ursus/devel/optee/RSA/ta/TA.c:81
     128:	9400019b 	bl	794 <local_encrypt_and_decrypt_test>
/home/ursus/devel/optee/RSA/ta/TA.c:82
     12c:	52800000 	mov	w0, #0x0                   	// #0
/home/ursus/devel/optee/RSA/ta/TA.c:93
     130:	a94153f3 	ldp	x19, x20, [sp,#16]
     134:	a8c27bfd 	ldp	x29, x30, [sp],#32
     138:	d65f03c0 	ret
/home/ursus/devel/optee/RSA/ta/TA.c:84
     13c:	aa1403e0 	mov	x0, x20
/home/ursus/devel/optee/RSA/ta/TA.c:93
     140:	a94153f3 	ldp	x19, x20, [sp,#16]
     144:	a8c27bfd 	ldp	x29, x30, [sp],#32
/home/ursus/devel/optee/RSA/ta/TA.c:84
     148:	140000e0 	b	4c8 <TA_encrypt_command>
/home/ursus/devel/optee/RSA/ta/TA.c:87
     14c:	aa1403e0 	mov	x0, x20
/home/ursus/devel/optee/RSA/ta/TA.c:93
     150:	a94153f3 	ldp	x19, x20, [sp,#16]
     154:	a8c27bfd 	ldp	x29, x30, [sp],#32
/home/ursus/devel/optee/RSA/ta/TA.c:87
     158:	14000135 	b	62c <TA_decrypt_command>

000000000000015c <decrypt_using_public_key>:
decrypt_using_public_key():
/home/ursus/devel/optee/RSA/ta/crypto.c:58
     15c:	a9b37bfd 	stp	x29, x30, [sp,#-208]!
     160:	910003fd 	mov	x29, sp
     164:	f90023f9 	str	x25, [sp,#64]
     168:	aa0003f9 	mov	x25, x0
/home/ursus/devel/optee/RSA/ta/crypto.c:73
     16c:	52802600 	mov	w0, #0x130                 	// #304
/home/ursus/devel/optee/RSA/ta/crypto.c:58
     170:	a90363f7 	stp	x23, x24, [sp,#48]
/home/ursus/devel/optee/RSA/ta/crypto.c:73
     174:	72ba0000 	movk	w0, #0xd000, lsl #16
/home/ursus/devel/optee/RSA/ta/crypto.c:58
     178:	aa0203f7 	mov	x23, x2
/home/ursus/devel/optee/RSA/ta/crypto.c:78
     17c:	52804602 	mov	w2, #0x230                 	// #560
/home/ursus/devel/optee/RSA/ta/crypto.c:73
     180:	b9008ba0 	str	w0, [x29,#136]
/home/ursus/devel/optee/RSA/ta/crypto.c:78
     184:	72ba0002 	movk	w2, #0xd000, lsl #16
/home/ursus/devel/optee/RSA/ta/crypto.c:74
     188:	90000080 	adrp	x0, 10000 <modulus>
     18c:	91000000 	add	x0, x0, #0x0
/home/ursus/devel/optee/RSA/ta/crypto.c:78
     190:	b900a3a2 	str	w2, [x29,#160]
/home/ursus/devel/optee/RSA/ta/crypto.c:79
     194:	91012002 	add	x2, x0, #0x48
/home/ursus/devel/optee/RSA/ta/crypto.c:74
     198:	f9004ba0 	str	x0, [x29,#144]
/home/ursus/devel/optee/RSA/ta/crypto.c:79
     19c:	f90057a2 	str	x2, [x29,#168]
/home/ursus/devel/optee/RSA/ta/crypto.c:84
     1a0:	91014000 	add	x0, x0, #0x50
/home/ursus/devel/optee/RSA/ta/crypto.c:83
     1a4:	52806602 	mov	w2, #0x330                 	// #816
/home/ursus/devel/optee/RSA/ta/crypto.c:58
     1a8:	2a0103f8 	mov	w24, w1
/home/ursus/devel/optee/RSA/ta/crypto.c:83
     1ac:	72b80002 	movk	w2, #0xc000, lsl #16
/home/ursus/devel/optee/RSA/ta/crypto.c:75
     1b0:	52800801 	mov	w1, #0x40                  	// #64
/home/ursus/devel/optee/RSA/ta/crypto.c:84
     1b4:	f90063a0 	str	x0, [x29,#192]
/home/ursus/devel/optee/RSA/ta/crypto.c:89
     1b8:	52800600 	mov	w0, #0x30                  	// #48
/home/ursus/devel/optee/RSA/ta/crypto.c:58
     1bc:	a90153f3 	stp	x19, x20, [sp,#16]
/home/ursus/devel/optee/RSA/ta/crypto.c:89
     1c0:	72b42000 	movk	w0, #0xa100, lsl #16
/home/ursus/devel/optee/RSA/ta/crypto.c:58
     1c4:	a9025bf5 	stp	x21, x22, [sp,#32]
/home/ursus/devel/optee/RSA/ta/crypto.c:69
     1c8:	52804013 	mov	w19, #0x200                 	// #512
/home/ursus/devel/optee/RSA/ta/crypto.c:80
     1cc:	52800074 	mov	w20, #0x3                   	// #3
/home/ursus/devel/optee/RSA/ta/crypto.c:75
     1d0:	b9009ba1 	str	w1, [x29,#152]
/home/ursus/devel/optee/RSA/ta/crypto.c:85
     1d4:	b900cba1 	str	w1, [x29,#200]
/home/ursus/devel/optee/RSA/ta/crypto.c:58
     1d8:	aa0303f6 	mov	x22, x3
/home/ursus/devel/optee/RSA/ta/crypto.c:83
     1dc:	b900bba2 	str	w2, [x29,#184]
/home/ursus/devel/optee/RSA/ta/crypto.c:89
     1e0:	2a1303e1 	mov	w1, w19
/home/ursus/devel/optee/RSA/ta/crypto.c:69
     1e4:	b90057b3 	str	w19, [x29,#84]
/home/ursus/devel/optee/RSA/ta/crypto.c:89
     1e8:	910163a2 	add	x2, x29, #0x58
/home/ursus/devel/optee/RSA/ta/crypto.c:64
     1ec:	a905ffbf 	stp	xzr, xzr, [x29,#88]
/home/ursus/devel/optee/RSA/ta/crypto.c:80
     1f0:	b900b3b4 	str	w20, [x29,#176]
/home/ursus/devel/optee/RSA/ta/crypto.c:89
     1f4:	9400048d 	bl	1428 <TEE_AllocateTransientObject>
/home/ursus/devel/optee/RSA/ta/crypto.c:90
     1f8:	34000060 	cbz	w0, 204 <decrypt_using_public_key+0xa8>
/home/ursus/devel/optee/RSA/ta/crypto.c:129
     1fc:	129fff33 	mov	w19, #0xffff0006            	// #-65530
     200:	14000025 	b	294 <decrypt_using_public_key+0x138>
/home/ursus/devel/optee/RSA/ta/crypto.c:95
     204:	f9402fa0 	ldr	x0, [x29,#88]
     208:	2a1403e2 	mov	w2, w20
     20c:	910223a1 	add	x1, x29, #0x88
     210:	94000518 	bl	1670 <TEE_PopulateTransientObject>
/home/ursus/devel/optee/RSA/ta/crypto.c:96
     214:	35ffff40 	cbnz	w0, 1fc <decrypt_using_public_key+0xa0>
/home/ursus/devel/optee/RSA/ta/crypto.c:100
     218:	52800001 	mov	w1, #0x0                   	// #0
     21c:	2a1303e0 	mov	w0, w19
     220:	9400035a 	bl	f88 <TEE_Malloc>
     224:	aa0003f4 	mov	x20, x0
/home/ursus/devel/optee/RSA/ta/crypto.c:101
     228:	b94057a0 	ldr	w0, [x29,#84]
     22c:	52800001 	mov	w1, #0x0                   	// #0
     230:	94000356 	bl	f88 <TEE_Malloc>
     234:	aa0003f5 	mov	x21, x0
/home/ursus/devel/optee/RSA/ta/crypto.c:102
     238:	f100029f 	cmp	x20, #0x0
     23c:	fa401804 	ccmp	x0, #0x0, #0x4, ne
     240:	54fffde0 	b.eq	1fc <decrypt_using_public_key+0xa0>
/home/ursus/devel/optee/RSA/ta/crypto.c:106
     244:	2a1803e2 	mov	w2, w24
     248:	aa1903e1 	mov	x1, x25
     24c:	aa1403e0 	mov	x0, x20
     250:	940002b7 	bl	d2c <TEE_MemMove>
/home/ursus/devel/optee/RSA/ta/crypto.c:110
     254:	f9402fa0 	ldr	x0, [x29,#88]
     258:	9101a3a1 	add	x1, x29, #0x68
/home/ursus/devel/optee/RSA/ta/crypto.c:115
     25c:	52800013 	mov	w19, #0x0                   	// #0
/home/ursus/devel/optee/RSA/ta/crypto.c:110
     260:	94000368 	bl	1000 <TEE_GetObjectInfo>
/home/ursus/devel/optee/RSA/ta/crypto.c:113
     264:	b94073a3 	ldr	w3, [x29,#112]
     268:	52802601 	mov	w1, #0x130                 	// #304
     26c:	52800022 	mov	w2, #0x1                   	// #1
     270:	72ac0001 	movk	w1, #0x6000, lsl #16
     274:	910183a0 	add	x0, x29, #0x60
     278:	94000895 	bl	24cc <TEE_AllocateOperation>
/home/ursus/devel/optee/RSA/ta/crypto.c:114
     27c:	350000c0 	cbnz	w0, 294 <decrypt_using_public_key+0x138>
/home/ursus/devel/optee/RSA/ta/crypto.c:119
     280:	a94583a1 	ldp	x1, x0, [x29,#88]
     284:	94000b70 	bl	3044 <TEE_SetOperationKey>
/home/ursus/devel/optee/RSA/ta/crypto.c:120
     288:	34000140 	cbz	w0, 2b0 <decrypt_using_public_key+0x154>
/home/ursus/devel/optee/RSA/ta/crypto.c:121
     28c:	f94033a0 	ldr	x0, [x29,#96]
     290:	94000868 	bl	2430 <TEE_FreeOperation>
/home/ursus/devel/optee/RSA/ta/crypto.c:143
     294:	2a1303e0 	mov	w0, w19
     298:	f94023f9 	ldr	x25, [sp,#64]
     29c:	a94153f3 	ldp	x19, x20, [sp,#16]
     2a0:	a9425bf5 	ldp	x21, x22, [sp,#32]
     2a4:	a94363f7 	ldp	x23, x24, [sp,#48]
     2a8:	a8cd7bfd 	ldp	x29, x30, [sp],#208
     2ac:	d65f03c0 	ret
/home/ursus/devel/optee/RSA/ta/crypto.c:126
     2b0:	f94033a0 	ldr	x0, [x29,#96]
     2b4:	910153a6 	add	x6, x29, #0x54
     2b8:	aa1503e5 	mov	x5, x21
     2bc:	2a1803e4 	mov	w4, w24
     2c0:	aa1403e3 	mov	x3, x20
     2c4:	52800002 	mov	w2, #0x0                   	// #0
     2c8:	d2800001 	mov	x1, #0x0                   	// #0
     2cc:	94001191 	bl	4910 <TEE_AsymmetricDecrypt>
/home/ursus/devel/optee/RSA/ta/crypto.c:127
     2d0:	34000080 	cbz	w0, 2e0 <decrypt_using_public_key+0x184>
/home/ursus/devel/optee/RSA/ta/crypto.c:128
     2d4:	f94033a0 	ldr	x0, [x29,#96]
     2d8:	94000856 	bl	2430 <TEE_FreeOperation>
     2dc:	17ffffc8 	b	1fc <decrypt_using_public_key+0xa0>
/home/ursus/devel/optee/RSA/ta/crypto.c:133
     2e0:	b94057b3 	ldr	w19, [x29,#84]
     2e4:	aa1503e1 	mov	x1, x21
     2e8:	aa1703e0 	mov	x0, x23
     2ec:	2a1303e2 	mov	w2, w19
     2f0:	94001e50 	bl	7c30 <memcpy>
/home/ursus/devel/optee/RSA/ta/crypto.c:137
     2f4:	f94033a0 	ldr	x0, [x29,#96]
/home/ursus/devel/optee/RSA/ta/crypto.c:134
     2f8:	b90002d3 	str	w19, [x22]
/home/ursus/devel/optee/RSA/ta/crypto.c:142
     2fc:	52800033 	mov	w19, #0x1                   	// #1
/home/ursus/devel/optee/RSA/ta/crypto.c:137
     300:	9400084c 	bl	2430 <TEE_FreeOperation>
/home/ursus/devel/optee/RSA/ta/crypto.c:138
     304:	f9402fa0 	ldr	x0, [x29,#88]
     308:	9400046c 	bl	14b8 <TEE_FreeTransientObject>
/home/ursus/devel/optee/RSA/ta/crypto.c:139
     30c:	aa1403e0 	mov	x0, x20
     310:	94000322 	bl	f98 <TEE_Free>
/home/ursus/devel/optee/RSA/ta/crypto.c:142
     314:	17ffffe0 	b	294 <decrypt_using_public_key+0x138>

0000000000000318 <encrypt_using_private_key>:
encrypt_using_private_key():
/home/ursus/devel/optee/RSA/ta/crypto.c:146
     318:	a9b47bfd 	stp	x29, x30, [sp,#-192]!
     31c:	910003fd 	mov	x29, sp
     320:	a90153f3 	stp	x19, x20, [sp,#16]
     324:	aa0003f4 	mov	x20, x0
/home/ursus/devel/optee/RSA/ta/crypto.c:152
     328:	52802000 	mov	w0, #0x100                 	// #256
/home/ursus/devel/optee/RSA/ta/crypto.c:146
     32c:	a90363f7 	stp	x23, x24, [sp,#48]
/home/ursus/devel/optee/RSA/ta/crypto.c:152
     330:	b90047a0 	str	w0, [x29,#68]
/home/ursus/devel/optee/RSA/ta/crypto.c:158
     334:	52802600 	mov	w0, #0x130                 	// #304
     338:	72ba0000 	movk	w0, #0xd000, lsl #16
/home/ursus/devel/optee/RSA/ta/crypto.c:146
     33c:	aa0203f7 	mov	x23, x2
/home/ursus/devel/optee/RSA/ta/crypto.c:162
     340:	52804602 	mov	w2, #0x230                 	// #560
/home/ursus/devel/optee/RSA/ta/crypto.c:158
     344:	b9007ba0 	str	w0, [x29,#120]
/home/ursus/devel/optee/RSA/ta/crypto.c:162
     348:	72ba0002 	movk	w2, #0xd000, lsl #16
/home/ursus/devel/optee/RSA/ta/crypto.c:159
     34c:	90000080 	adrp	x0, 10000 <modulus>
     350:	91000000 	add	x0, x0, #0x0
/home/ursus/devel/optee/RSA/ta/crypto.c:162
     354:	b90093a2 	str	w2, [x29,#144]
/home/ursus/devel/optee/RSA/ta/crypto.c:163
     358:	91012002 	add	x2, x0, #0x48
/home/ursus/devel/optee/RSA/ta/crypto.c:159
     35c:	f90043a0 	str	x0, [x29,#128]
/home/ursus/devel/optee/RSA/ta/crypto.c:163
     360:	f9004fa2 	str	x2, [x29,#152]
/home/ursus/devel/optee/RSA/ta/crypto.c:167
     364:	91014000 	add	x0, x0, #0x50
/home/ursus/devel/optee/RSA/ta/crypto.c:166
     368:	52806602 	mov	w2, #0x330                 	// #816
/home/ursus/devel/optee/RSA/ta/crypto.c:146
     36c:	a9025bf5 	stp	x21, x22, [sp,#32]
/home/ursus/devel/optee/RSA/ta/crypto.c:166
     370:	72b80002 	movk	w2, #0xc000, lsl #16
/home/ursus/devel/optee/RSA/ta/crypto.c:146
     374:	2a0103f6 	mov	w22, w1
/home/ursus/devel/optee/RSA/ta/crypto.c:167
     378:	f9005ba0 	str	x0, [x29,#176]
/home/ursus/devel/optee/RSA/ta/crypto.c:160
     37c:	52800801 	mov	w1, #0x40                  	// #64
/home/ursus/devel/optee/RSA/ta/crypto.c:171
     380:	52800600 	mov	w0, #0x30                  	// #48
/home/ursus/devel/optee/RSA/ta/crypto.c:164
     384:	52800073 	mov	w19, #0x3                   	// #3
/home/ursus/devel/optee/RSA/ta/crypto.c:160
     388:	b9008ba1 	str	w1, [x29,#136]
/home/ursus/devel/optee/RSA/ta/crypto.c:146
     38c:	aa0303f8 	mov	x24, x3
/home/ursus/devel/optee/RSA/ta/crypto.c:168
     390:	b900bba1 	str	w1, [x29,#184]
/home/ursus/devel/optee/RSA/ta/crypto.c:171
     394:	72b42000 	movk	w0, #0xa100, lsl #16
/home/ursus/devel/optee/RSA/ta/crypto.c:166
     398:	b900aba2 	str	w2, [x29,#168]
/home/ursus/devel/optee/RSA/ta/crypto.c:171
     39c:	52808001 	mov	w1, #0x400                 	// #1024
/home/ursus/devel/optee/RSA/ta/crypto.c:155
     3a0:	a904ffbf 	stp	xzr, xzr, [x29,#72]
/home/ursus/devel/optee/RSA/ta/crypto.c:171
     3a4:	910123a2 	add	x2, x29, #0x48
/home/ursus/devel/optee/RSA/ta/crypto.c:164
     3a8:	b900a3b3 	str	w19, [x29,#160]
/home/ursus/devel/optee/RSA/ta/crypto.c:171
     3ac:	9400041f 	bl	1428 <TEE_AllocateTransientObject>
/home/ursus/devel/optee/RSA/ta/crypto.c:172
     3b0:	34000100 	cbz	w0, 3d0 <encrypt_using_private_key+0xb8>
/home/ursus/devel/optee/RSA/ta/crypto.c:173
     3b4:	129fff34 	mov	w20, #0xffff0006            	// #-65530
/home/ursus/devel/optee/RSA/ta/crypto.c:226
     3b8:	2a1403e0 	mov	w0, w20
     3bc:	a94153f3 	ldp	x19, x20, [sp,#16]
     3c0:	a9425bf5 	ldp	x21, x22, [sp,#32]
     3c4:	a94363f7 	ldp	x23, x24, [sp,#48]
     3c8:	a8cc7bfd 	ldp	x29, x30, [sp],#192
     3cc:	d65f03c0 	ret
/home/ursus/devel/optee/RSA/ta/crypto.c:177
     3d0:	f94027a0 	ldr	x0, [x29,#72]
     3d4:	2a1303e2 	mov	w2, w19
     3d8:	9101e3a1 	add	x1, x29, #0x78
     3dc:	940004a5 	bl	1670 <TEE_PopulateTransientObject>
/home/ursus/devel/optee/RSA/ta/crypto.c:178
     3e0:	35fffea0 	cbnz	w0, 3b4 <encrypt_using_private_key+0x9c>
/home/ursus/devel/optee/RSA/ta/crypto.c:183
     3e4:	52800001 	mov	w1, #0x0                   	// #0
     3e8:	2a1603e0 	mov	w0, w22
     3ec:	940002e7 	bl	f88 <TEE_Malloc>
     3f0:	aa0003f5 	mov	x21, x0
/home/ursus/devel/optee/RSA/ta/crypto.c:184
     3f4:	b94047a0 	ldr	w0, [x29,#68]
     3f8:	52800001 	mov	w1, #0x0                   	// #0
     3fc:	940002e3 	bl	f88 <TEE_Malloc>
     400:	aa0003f3 	mov	x19, x0
/home/ursus/devel/optee/RSA/ta/crypto.c:185
     404:	f10002bf 	cmp	x21, #0x0
     408:	fa401804 	ccmp	x0, #0x0, #0x4, ne
     40c:	54fffd40 	b.eq	3b4 <encrypt_using_private_key+0x9c>
/home/ursus/devel/optee/RSA/ta/crypto.c:188
     410:	2a1603e2 	mov	w2, w22
     414:	aa1403e1 	mov	x1, x20
     418:	aa1503e0 	mov	x0, x21
     41c:	94000244 	bl	d2c <TEE_MemMove>
/home/ursus/devel/optee/RSA/ta/crypto.c:191
     420:	f94027a0 	ldr	x0, [x29,#72]
     424:	910163a1 	add	x1, x29, #0x58
/home/ursus/devel/optee/RSA/ta/crypto.c:196
     428:	52800014 	mov	w20, #0x0                   	// #0
/home/ursus/devel/optee/RSA/ta/crypto.c:191
     42c:	940002f5 	bl	1000 <TEE_GetObjectInfo>
/home/ursus/devel/optee/RSA/ta/crypto.c:194
     430:	b94063a3 	ldr	w3, [x29,#96]
     434:	52802601 	mov	w1, #0x130                 	// #304
     438:	52800002 	mov	w2, #0x0                   	// #0
     43c:	72ac0001 	movk	w1, #0x6000, lsl #16
     440:	910143a0 	add	x0, x29, #0x50
     444:	94000822 	bl	24cc <TEE_AllocateOperation>
/home/ursus/devel/optee/RSA/ta/crypto.c:195
     448:	35fffb80 	cbnz	w0, 3b8 <encrypt_using_private_key+0xa0>
/home/ursus/devel/optee/RSA/ta/crypto.c:200
     44c:	a94483a1 	ldp	x1, x0, [x29,#72]
     450:	94000afd 	bl	3044 <TEE_SetOperationKey>
/home/ursus/devel/optee/RSA/ta/crypto.c:201
     454:	34000080 	cbz	w0, 464 <encrypt_using_private_key+0x14c>
/home/ursus/devel/optee/RSA/ta/crypto.c:209
     458:	f9402ba0 	ldr	x0, [x29,#80]
     45c:	940007f5 	bl	2430 <TEE_FreeOperation>
/home/ursus/devel/optee/RSA/ta/crypto.c:210
     460:	17ffffd6 	b	3b8 <encrypt_using_private_key+0xa0>
/home/ursus/devel/optee/RSA/ta/crypto.c:207
     464:	f9402ba0 	ldr	x0, [x29,#80]
     468:	910113a6 	add	x6, x29, #0x44
     46c:	aa1303e5 	mov	x5, x19
     470:	2a1603e4 	mov	w4, w22
     474:	aa1503e3 	mov	x3, x21
     478:	52800002 	mov	w2, #0x0                   	// #0
     47c:	d2800001 	mov	x1, #0x0                   	// #0
     480:	94001095 	bl	46d4 <TEE_AsymmetricEncrypt>
/home/ursus/devel/optee/RSA/ta/crypto.c:208
     484:	35fffea0 	cbnz	w0, 458 <encrypt_using_private_key+0x140>
/home/ursus/devel/optee/RSA/ta/crypto.c:214
     488:	b94047b5 	ldr	w21, [x29,#68]
     48c:	aa1303e1 	mov	x1, x19
     490:	aa1703e0 	mov	x0, x23
     494:	2a1503f4 	mov	w20, w21
     498:	aa1403e2 	mov	x2, x20
     49c:	94001de5 	bl	7c30 <memcpy>
/home/ursus/devel/optee/RSA/ta/crypto.c:219
     4a0:	f9402ba0 	ldr	x0, [x29,#80]
/home/ursus/devel/optee/RSA/ta/crypto.c:215
     4a4:	b9000315 	str	w21, [x24]
/home/ursus/devel/optee/RSA/ta/crypto.c:216
     4a8:	38346aff 	strb	wzr, [x23,x20]
/home/ursus/devel/optee/RSA/ta/crypto.c:225
     4ac:	52800034 	mov	w20, #0x1                   	// #1
/home/ursus/devel/optee/RSA/ta/crypto.c:219
     4b0:	940007e0 	bl	2430 <TEE_FreeOperation>
/home/ursus/devel/optee/RSA/ta/crypto.c:220
     4b4:	f94027a0 	ldr	x0, [x29,#72]
     4b8:	94000400 	bl	14b8 <TEE_FreeTransientObject>
/home/ursus/devel/optee/RSA/ta/crypto.c:221
     4bc:	aa1303e0 	mov	x0, x19
     4c0:	940002b6 	bl	f98 <TEE_Free>
/home/ursus/devel/optee/RSA/ta/crypto.c:225
     4c4:	17ffffbd 	b	3b8 <encrypt_using_private_key+0xa0>

00000000000004c8 <TA_encrypt_command>:
TA_encrypt_command():
/home/ursus/devel/optee/RSA/ta/test.c:36
     4c8:	a9ab7bfd 	stp	x29, x30, [sp,#-336]!
     4cc:	910003fd 	mov	x29, sp
     4d0:	a90153f3 	stp	x19, x20, [sp,#16]
/home/ursus/devel/optee/RSA/ta/test.c:46
     4d4:	90000073 	adrp	x19, c000 <mpa_set_str+0x4>
/home/ursus/devel/optee/RSA/ta/test.c:36
     4d8:	a9025bf5 	stp	x21, x22, [sp,#32]
     4dc:	aa0003f5 	mov	x21, x0
     4e0:	f9001bf7 	str	x23, [sp,#48]
/home/ursus/devel/optee/RSA/ta/test.c:46
     4e4:	9123a273 	add	x19, x19, #0x8e8
/home/ursus/devel/optee/RSA/ta/test.c:47
     4e8:	910143b4 	add	x20, x29, #0x50
/home/ursus/devel/optee/RSA/ta/test.c:39
     4ec:	f9400016 	ldr	x22, [x0]
/home/ursus/devel/optee/RSA/ta/test.c:40
     4f0:	aa1603e0 	mov	x0, x22
     4f4:	94001df1 	bl	7cb8 <strlen>
/home/ursus/devel/optee/RSA/ta/test.c:46
     4f8:	d0000064 	adrp	x4, e000 <__func__.3633+0x30>
     4fc:	91033484 	add	x4, x4, #0xcd
/home/ursus/devel/optee/RSA/ta/test.c:40
     500:	aa0003f7 	mov	x23, x0
/home/ursus/devel/optee/RSA/ta/test.c:46
     504:	52800023 	mov	w3, #0x1                   	// #1
     508:	aa1303e0 	mov	x0, x19
     50c:	52800062 	mov	w2, #0x3                   	// #3
     510:	528005c1 	mov	w1, #0x2e                  	// #46
     514:	94002137 	bl	89f0 <trace_printf>
/home/ursus/devel/optee/RSA/ta/test.c:47
     518:	910133a3 	add	x3, x29, #0x4c
     51c:	aa1403e2 	mov	x2, x20
     520:	2a1703e1 	mov	w1, w23
     524:	aa1603e0 	mov	x0, x22
     528:	97ffff7c 	bl	318 <encrypt_using_private_key>
/home/ursus/devel/optee/RSA/ta/test.c:48
     52c:	b9804fa2 	ldrsw	x2, [x29,#76]
     530:	aa1403e1 	mov	x1, x20
     534:	f9400aa0 	ldr	x0, [x21,#16]
     538:	94001dbe 	bl	7c30 <memcpy>
/home/ursus/devel/optee/RSA/ta/test.c:49
     53c:	b90022bf 	str	wzr, [x21,#32]
/home/ursus/devel/optee/RSA/ta/test.c:50
     540:	d0000075 	adrp	x21, e000 <__func__.3633+0x30>
     544:	9116f6b5 	add	x21, x21, #0x5bd
     548:	aa1303e0 	mov	x0, x19
     54c:	aa1503e4 	mov	x4, x21
     550:	52800023 	mov	w3, #0x1                   	// #1
     554:	52800062 	mov	w2, #0x3                   	// #3
     558:	52800641 	mov	w1, #0x32                  	// #50
     55c:	94002125 	bl	89f0 <trace_printf>
/home/ursus/devel/optee/RSA/ta/test.c:51
     560:	aa1603e5 	mov	x5, x22
     564:	aa1303e0 	mov	x0, x19
     568:	52800023 	mov	w3, #0x1                   	// #1
     56c:	52800062 	mov	w2, #0x3                   	// #3
     570:	52800661 	mov	w1, #0x33                  	// #51
     574:	d0000064 	adrp	x4, e000 <__func__.3633+0x30>
     578:	91045084 	add	x4, x4, #0x114
     57c:	9400211d 	bl	89f0 <trace_printf>
/home/ursus/devel/optee/RSA/ta/test.c:52
     580:	2a1703e5 	mov	w5, w23
     584:	aa1303e0 	mov	x0, x19
     588:	52800023 	mov	w3, #0x1                   	// #1
     58c:	52800062 	mov	w2, #0x3                   	// #3
     590:	52800681 	mov	w1, #0x34                  	// #52
     594:	d0000064 	adrp	x4, e000 <__func__.3633+0x30>
     598:	9104b084 	add	x4, x4, #0x12c
     59c:	94002115 	bl	89f0 <trace_printf>
/home/ursus/devel/optee/RSA/ta/test.c:53
     5a0:	aa1403e5 	mov	x5, x20
     5a4:	aa1303e0 	mov	x0, x19
     5a8:	52800023 	mov	w3, #0x1                   	// #1
     5ac:	52800062 	mov	w2, #0x3                   	// #3
     5b0:	528006a1 	mov	w1, #0x35                  	// #53
     5b4:	d0000064 	adrp	x4, e000 <__func__.3633+0x30>
     5b8:	91051084 	add	x4, x4, #0x144
     5bc:	9400210d 	bl	89f0 <trace_printf>
/home/ursus/devel/optee/RSA/ta/test.c:54
     5c0:	b9404fa5 	ldr	w5, [x29,#76]
     5c4:	aa1303e0 	mov	x0, x19
     5c8:	52800023 	mov	w3, #0x1                   	// #1
     5cc:	52800062 	mov	w2, #0x3                   	// #3
     5d0:	528006c1 	mov	w1, #0x36                  	// #54
     5d4:	d0000064 	adrp	x4, e000 <__func__.3633+0x30>
     5d8:	91057084 	add	x4, x4, #0x15c
     5dc:	94002105 	bl	89f0 <trace_printf>
/home/ursus/devel/optee/RSA/ta/test.c:55
     5e0:	aa1503e4 	mov	x4, x21
     5e4:	aa1303e0 	mov	x0, x19
     5e8:	52800023 	mov	w3, #0x1                   	// #1
     5ec:	52800062 	mov	w2, #0x3                   	// #3
     5f0:	528006e1 	mov	w1, #0x37                  	// #55
     5f4:	940020ff 	bl	89f0 <trace_printf>
/home/ursus/devel/optee/RSA/ta/test.c:56
     5f8:	aa1303e0 	mov	x0, x19
     5fc:	52800023 	mov	w3, #0x1                   	// #1
     600:	52800062 	mov	w2, #0x3                   	// #3
     604:	52800701 	mov	w1, #0x38                  	// #56
     608:	d0000064 	adrp	x4, e000 <__func__.3633+0x30>
     60c:	9105d084 	add	x4, x4, #0x174
     610:	940020f8 	bl	89f0 <trace_printf>
/home/ursus/devel/optee/RSA/ta/test.c:59
     614:	f9401bf7 	ldr	x23, [sp,#48]
     618:	a94153f3 	ldp	x19, x20, [sp,#16]
     61c:	52800000 	mov	w0, #0x0                   	// #0
     620:	a9425bf5 	ldp	x21, x22, [sp,#32]
     624:	a8d57bfd 	ldp	x29, x30, [sp],#336
     628:	d65f03c0 	ret

000000000000062c <TA_decrypt_command>:
TA_decrypt_command():
/home/ursus/devel/optee/RSA/ta/test.c:62
     62c:	a9ab7bfd 	stp	x29, x30, [sp,#-336]!
/home/ursus/devel/optee/RSA/ta/test.c:72
     630:	d0000064 	adrp	x4, e000 <__func__.3633+0x30>
     634:	9106dc84 	add	x4, x4, #0x1b7
     638:	52800023 	mov	w3, #0x1                   	// #1
/home/ursus/devel/optee/RSA/ta/test.c:62
     63c:	910003fd 	mov	x29, sp
     640:	a9025bf5 	stp	x21, x22, [sp,#32]
     644:	aa0003f5 	mov	x21, x0
     648:	a90153f3 	stp	x19, x20, [sp,#16]
/home/ursus/devel/optee/RSA/ta/test.c:72
     64c:	90000073 	adrp	x19, c000 <mpa_set_str+0x4>
/home/ursus/devel/optee/RSA/ta/test.c:62
     650:	a90363f7 	stp	x23, x24, [sp,#48]
/home/ursus/devel/optee/RSA/ta/test.c:72
     654:	9123a273 	add	x19, x19, #0x8e8
     658:	91006273 	add	x19, x19, #0x18
/home/ursus/devel/optee/RSA/ta/test.c:73
     65c:	910143b4 	add	x20, x29, #0x50
/home/ursus/devel/optee/RSA/ta/test.c:66
     660:	b9400ab6 	ldr	w22, [x21,#8]
/home/ursus/devel/optee/RSA/ta/test.c:72
     664:	aa1303e0 	mov	x0, x19
/home/ursus/devel/optee/RSA/ta/test.c:65
     668:	f94002b7 	ldr	x23, [x21]
/home/ursus/devel/optee/RSA/ta/test.c:72
     66c:	52800062 	mov	w2, #0x3                   	// #3
     670:	52800901 	mov	w1, #0x48                  	// #72
     674:	940020df 	bl	89f0 <trace_printf>
/home/ursus/devel/optee/RSA/ta/test.c:73
     678:	910133a3 	add	x3, x29, #0x4c
     67c:	aa1403e2 	mov	x2, x20
     680:	2a1603e1 	mov	w1, w22
     684:	aa1703e0 	mov	x0, x23
     688:	97fffeb5 	bl	15c <decrypt_using_public_key>
/home/ursus/devel/optee/RSA/ta/test.c:74
     68c:	b9804fa2 	ldrsw	x2, [x29,#76]
     690:	aa1403e1 	mov	x1, x20
     694:	f9400aa0 	ldr	x0, [x21,#16]
     698:	94001d66 	bl	7c30 <memcpy>
/home/ursus/devel/optee/RSA/ta/test.c:76
     69c:	b90022bf 	str	wzr, [x21,#32]
/home/ursus/devel/optee/RSA/ta/test.c:75
     6a0:	b9404fa0 	ldr	w0, [x29,#76]
/home/ursus/devel/optee/RSA/ta/test.c:77
     6a4:	52800023 	mov	w3, #0x1                   	// #1
/home/ursus/devel/optee/RSA/ta/test.c:75
     6a8:	b9001aa0 	str	w0, [x21,#24]
/home/ursus/devel/optee/RSA/ta/test.c:77
     6ac:	d0000075 	adrp	x21, e000 <__func__.3633+0x30>
     6b0:	9116f6b5 	add	x21, x21, #0x5bd
     6b4:	aa1303e0 	mov	x0, x19
     6b8:	aa1503e4 	mov	x4, x21
     6bc:	52800062 	mov	w2, #0x3                   	// #3
     6c0:	528009a1 	mov	w1, #0x4d                  	// #77
     6c4:	940020cb 	bl	89f0 <trace_printf>
/home/ursus/devel/optee/RSA/ta/test.c:78
     6c8:	aa1703e5 	mov	x5, x23
     6cc:	aa1303e0 	mov	x0, x19
     6d0:	52800023 	mov	w3, #0x1                   	// #1
     6d4:	52800062 	mov	w2, #0x3                   	// #3
     6d8:	528009c1 	mov	w1, #0x4e                  	// #78
     6dc:	d0000064 	adrp	x4, e000 <__func__.3633+0x30>
     6e0:	9107f884 	add	x4, x4, #0x1fe
     6e4:	940020c3 	bl	89f0 <trace_printf>
/home/ursus/devel/optee/RSA/ta/test.c:79
     6e8:	2a1603e5 	mov	w5, w22
     6ec:	aa1303e0 	mov	x0, x19
     6f0:	52800023 	mov	w3, #0x1                   	// #1
     6f4:	52800062 	mov	w2, #0x3                   	// #3
     6f8:	528009e1 	mov	w1, #0x4f                  	// #79
     6fc:	d0000064 	adrp	x4, e000 <__func__.3633+0x30>
     700:	91086484 	add	x4, x4, #0x219
     704:	940020bb 	bl	89f0 <trace_printf>
/home/ursus/devel/optee/RSA/ta/test.c:80
     708:	aa1403e5 	mov	x5, x20
     70c:	aa1303e0 	mov	x0, x19
     710:	52800023 	mov	w3, #0x1                   	// #1
     714:	52800062 	mov	w2, #0x3                   	// #3
     718:	52800a01 	mov	w1, #0x50                  	// #80
     71c:	d0000064 	adrp	x4, e000 <__func__.3633+0x30>
     720:	9108d084 	add	x4, x4, #0x234
     724:	940020b3 	bl	89f0 <trace_printf>
/home/ursus/devel/optee/RSA/ta/test.c:81
     728:	b9404fa5 	ldr	w5, [x29,#76]
     72c:	aa1303e0 	mov	x0, x19
     730:	52800023 	mov	w3, #0x1                   	// #1
     734:	52800062 	mov	w2, #0x3                   	// #3
     738:	52800a21 	mov	w1, #0x51                  	// #81
     73c:	d0000064 	adrp	x4, e000 <__func__.3633+0x30>
     740:	91093c84 	add	x4, x4, #0x24f
     744:	940020ab 	bl	89f0 <trace_printf>
/home/ursus/devel/optee/RSA/ta/test.c:82
     748:	aa1503e4 	mov	x4, x21
     74c:	aa1303e0 	mov	x0, x19
     750:	52800023 	mov	w3, #0x1                   	// #1
     754:	52800062 	mov	w2, #0x3                   	// #3
     758:	52800a41 	mov	w1, #0x52                  	// #82
     75c:	940020a5 	bl	89f0 <trace_printf>
/home/ursus/devel/optee/RSA/ta/test.c:83
     760:	aa1303e0 	mov	x0, x19
     764:	52800023 	mov	w3, #0x1                   	// #1
     768:	52800062 	mov	w2, #0x3                   	// #3
     76c:	52800a61 	mov	w1, #0x53                  	// #83
     770:	d0000064 	adrp	x4, e000 <__func__.3633+0x30>
     774:	9105d084 	add	x4, x4, #0x174
     778:	9400209e 	bl	89f0 <trace_printf>
/home/ursus/devel/optee/RSA/ta/test.c:86
     77c:	52800000 	mov	w0, #0x0                   	// #0
     780:	a94153f3 	ldp	x19, x20, [sp,#16]
     784:	a9425bf5 	ldp	x21, x22, [sp,#32]
     788:	a94363f7 	ldp	x23, x24, [sp,#48]
     78c:	a8d57bfd 	ldp	x29, x30, [sp],#336
     790:	d65f03c0 	ret

0000000000000794 <local_encrypt_and_decrypt_test>:
local_encrypt_and_decrypt_test():
/home/ursus/devel/optee/RSA/ta/test.c:89
     794:	d109c3ff 	sub	sp, sp, #0x270
/home/ursus/devel/optee/RSA/ta/test.c:92
     798:	d0000061 	adrp	x1, e000 <__func__.3633+0x30>
     79c:	910d6821 	add	x1, x1, #0x35a
     7a0:	d2800362 	mov	x2, #0x1b                  	// #27
/home/ursus/devel/optee/RSA/ta/test.c:89
     7a4:	a9007bfd 	stp	x29, x30, [sp]
     7a8:	910003fd 	mov	x29, sp
     7ac:	a90363f7 	stp	x23, x24, [sp,#48]
/home/ursus/devel/optee/RSA/ta/test.c:92
     7b0:	910143b7 	add	x23, x29, #0x50
/home/ursus/devel/optee/RSA/ta/test.c:89
     7b4:	a90153f3 	stp	x19, x20, [sp,#16]
/home/ursus/devel/optee/RSA/ta/test.c:92
     7b8:	aa1703e0 	mov	x0, x23
/home/ursus/devel/optee/RSA/ta/test.c:89
     7bc:	a9025bf5 	stp	x21, x22, [sp,#32]
/home/ursus/devel/optee/RSA/ta/test.c:92
     7c0:	94001d1c 	bl	7c30 <memcpy>
/home/ursus/devel/optee/RSA/ta/test.c:93
     7c4:	aa1703e0 	mov	x0, x23
     7c8:	94001d3c 	bl	7cb8 <strlen>
/home/ursus/devel/optee/RSA/ta/test.c:99
     7cc:	90000073 	adrp	x19, c000 <mpa_set_str+0x4>
     7d0:	d0000064 	adrp	x4, e000 <__func__.3633+0x30>
     7d4:	9123a273 	add	x19, x19, #0x8e8
     7d8:	9109a884 	add	x4, x4, #0x26a
     7dc:	9100c273 	add	x19, x19, #0x30
/home/ursus/devel/optee/RSA/ta/test.c:100
     7e0:	9101c3b4 	add	x20, x29, #0x70
/home/ursus/devel/optee/RSA/ta/test.c:93
     7e4:	aa0003f8 	mov	x24, x0
/home/ursus/devel/optee/RSA/ta/test.c:99
     7e8:	52800023 	mov	w3, #0x1                   	// #1
     7ec:	aa1303e0 	mov	x0, x19
     7f0:	52800062 	mov	w2, #0x3                   	// #3
     7f4:	52800c61 	mov	w1, #0x63                  	// #99
     7f8:	9400207e 	bl	89f0 <trace_printf>
/home/ursus/devel/optee/RSA/ta/test.c:100
     7fc:	910123a3 	add	x3, x29, #0x48
     800:	aa1403e2 	mov	x2, x20
     804:	2a1803e1 	mov	w1, w24
     808:	aa1703e0 	mov	x0, x23
     80c:	97fffec3 	bl	318 <encrypt_using_private_key>
/home/ursus/devel/optee/RSA/ta/test.c:101
     810:	9105c3b6 	add	x22, x29, #0x170
     814:	b9404ba1 	ldr	w1, [x29,#72]
     818:	910133a3 	add	x3, x29, #0x4c
     81c:	aa1603e2 	mov	x2, x22
     820:	aa1403e0 	mov	x0, x20
/home/ursus/devel/optee/RSA/ta/test.c:102
     824:	d0000075 	adrp	x21, e000 <__func__.3633+0x30>
     828:	9116f6b5 	add	x21, x21, #0x5bd
/home/ursus/devel/optee/RSA/ta/test.c:101
     82c:	97fffe4c 	bl	15c <decrypt_using_public_key>
/home/ursus/devel/optee/RSA/ta/test.c:102
     830:	aa1503e4 	mov	x4, x21
     834:	aa1303e0 	mov	x0, x19
     838:	52800023 	mov	w3, #0x1                   	// #1
     83c:	52800062 	mov	w2, #0x3                   	// #3
     840:	52800cc1 	mov	w1, #0x66                  	// #102
     844:	9400206b 	bl	89f0 <trace_printf>
/home/ursus/devel/optee/RSA/ta/test.c:103
     848:	aa1703e5 	mov	x5, x23
     84c:	aa1303e0 	mov	x0, x19
     850:	52800023 	mov	w3, #0x1                   	// #1
     854:	52800062 	mov	w2, #0x3                   	// #3
     858:	52800ce1 	mov	w1, #0x67                  	// #103
     85c:	d0000064 	adrp	x4, e000 <__func__.3633+0x30>
     860:	910ac884 	add	x4, x4, #0x2b2
     864:	94002063 	bl	89f0 <trace_printf>
/home/ursus/devel/optee/RSA/ta/test.c:104
     868:	2a1803e5 	mov	w5, w24
     86c:	aa1303e0 	mov	x0, x19
     870:	52800023 	mov	w3, #0x1                   	// #1
     874:	52800062 	mov	w2, #0x3                   	// #3
     878:	52800d01 	mov	w1, #0x68                  	// #104
     87c:	d0000064 	adrp	x4, e000 <__func__.3633+0x30>
     880:	910b3884 	add	x4, x4, #0x2ce
     884:	9400205b 	bl	89f0 <trace_printf>
/home/ursus/devel/optee/RSA/ta/test.c:105
     888:	aa1403e5 	mov	x5, x20
     88c:	aa1303e0 	mov	x0, x19
     890:	52800023 	mov	w3, #0x1                   	// #1
     894:	52800062 	mov	w2, #0x3                   	// #3
     898:	52800d21 	mov	w1, #0x69                  	// #105
     89c:	d0000064 	adrp	x4, e000 <__func__.3633+0x30>
     8a0:	910ba884 	add	x4, x4, #0x2ea
     8a4:	94002053 	bl	89f0 <trace_printf>
/home/ursus/devel/optee/RSA/ta/test.c:106
     8a8:	b9404ba5 	ldr	w5, [x29,#72]
     8ac:	aa1303e0 	mov	x0, x19
     8b0:	52800023 	mov	w3, #0x1                   	// #1
     8b4:	52800062 	mov	w2, #0x3                   	// #3
     8b8:	52800d41 	mov	w1, #0x6a                  	// #106
     8bc:	d0000064 	adrp	x4, e000 <__func__.3633+0x30>
     8c0:	910c1884 	add	x4, x4, #0x306
     8c4:	9400204b 	bl	89f0 <trace_printf>
/home/ursus/devel/optee/RSA/ta/test.c:107
     8c8:	aa1603e5 	mov	x5, x22
     8cc:	aa1303e0 	mov	x0, x19
     8d0:	52800023 	mov	w3, #0x1                   	// #1
     8d4:	52800062 	mov	w2, #0x3                   	// #3
     8d8:	52800d61 	mov	w1, #0x6b                  	// #107
     8dc:	d0000064 	adrp	x4, e000 <__func__.3633+0x30>
     8e0:	910c8884 	add	x4, x4, #0x322
     8e4:	94002043 	bl	89f0 <trace_printf>
/home/ursus/devel/optee/RSA/ta/test.c:108
     8e8:	b9404fa5 	ldr	w5, [x29,#76]
     8ec:	aa1303e0 	mov	x0, x19
     8f0:	52800023 	mov	w3, #0x1                   	// #1
     8f4:	52800062 	mov	w2, #0x3                   	// #3
     8f8:	52800d81 	mov	w1, #0x6c                  	// #108
     8fc:	d0000064 	adrp	x4, e000 <__func__.3633+0x30>
     900:	910cf884 	add	x4, x4, #0x33e
     904:	9400203b 	bl	89f0 <trace_printf>
/home/ursus/devel/optee/RSA/ta/test.c:109
     908:	aa1503e4 	mov	x4, x21
     90c:	aa1303e0 	mov	x0, x19
     910:	52800023 	mov	w3, #0x1                   	// #1
     914:	52800062 	mov	w2, #0x3                   	// #3
     918:	52800da1 	mov	w1, #0x6d                  	// #109
     91c:	94002035 	bl	89f0 <trace_printf>
/home/ursus/devel/optee/RSA/ta/test.c:110
     920:	aa1303e0 	mov	x0, x19
     924:	52800023 	mov	w3, #0x1                   	// #1
     928:	52800062 	mov	w2, #0x3                   	// #3
     92c:	52800dc1 	mov	w1, #0x6e                  	// #110
     930:	d0000064 	adrp	x4, e000 <__func__.3633+0x30>
     934:	9105d084 	add	x4, x4, #0x174
     938:	9400202e 	bl	89f0 <trace_printf>
/home/ursus/devel/optee/RSA/ta/test.c:112
     93c:	a9407bfd 	ldp	x29, x30, [sp]
     940:	a94153f3 	ldp	x19, x20, [sp,#16]
     944:	a9425bf5 	ldp	x21, x22, [sp,#32]
     948:	a94363f7 	ldp	x23, x24, [sp,#48]
     94c:	9109c3ff 	add	sp, sp, #0x270
     950:	d65f03c0 	ret

0000000000000954 <tahead_get_trace_level>:
tahead_get_trace_level():
/home/ursus/devel/optee/optee_os/out/arm/export-ta_arm64/src/user_ta_header.c:133
     954:	52800080 	mov	w0, #0x4                   	// #4
     958:	d65f03c0 	ret

000000000000095c <__utee_from_param>:
__utee_from_param():
/home/ursus/devel/optee/optee_os/lib/libutee/tee_api.c:47
     95c:	90000065 	adrp	x5, c000 <mpa_set_str+0x4>
     960:	912580a5 	add	x5, x5, #0x960
/home/ursus/devel/optee/optee_os/lib/libutee/tee_api.c:45
     964:	2a0103e3 	mov	w3, w1
     968:	52800004 	mov	w4, #0x0                   	// #0
     96c:	f8008403 	str	x3, [x0],#8
/home/ursus/devel/optee/optee_os/lib/libutee/tee_api.c:47
     970:	1ac42423 	lsr	w3, w1, w4
     974:	12000c63 	and	w3, w3, #0xf
     978:	51000463 	sub	w3, w3, #0x1
     97c:	7100187f 	cmp	w3, #0x6
     980:	54000268 	b.hi	9cc <__utee_from_param+0x70>
     984:	386348a3 	ldrb	w3, [x5,w3,uxtw]
     988:	10000066 	adr	x6, 994 <__utee_from_param+0x38>
     98c:	8b2388c3 	add	x3, x6, w3, sxtb #2
     990:	d61f0060 	br	x3
/home/ursus/devel/optee/optee_os/lib/libutee/tee_api.c:51
     994:	b9400043 	ldr	w3, [x2]
     998:	f9000003 	str	x3, [x0]
/home/ursus/devel/optee/optee_os/lib/libutee/tee_api.c:52
     99c:	b9400443 	ldr	w3, [x2,#4]
/home/ursus/devel/optee/optee_os/lib/libutee/tee_api.c:58
     9a0:	f9000403 	str	x3, [x0,#8]
     9a4:	11001084 	add	w4, w4, #0x4
     9a8:	91004042 	add	x2, x2, #0x10
     9ac:	91004000 	add	x0, x0, #0x10
/home/ursus/devel/optee/optee_os/lib/libutee/tee_api.c:46 (discriminator 2)
     9b0:	7100409f 	cmp	w4, #0x10
     9b4:	54fffde1 	b.ne	970 <__utee_from_param+0x14>
/home/ursus/devel/optee/optee_os/lib/libutee/tee_api.c:66
     9b8:	d65f03c0 	ret
/home/ursus/devel/optee/optee_os/lib/libutee/tee_api.c:57
     9bc:	f9400043 	ldr	x3, [x2]
     9c0:	f9000003 	str	x3, [x0]
/home/ursus/devel/optee/optee_os/lib/libutee/tee_api.c:58
     9c4:	b9400843 	ldr	w3, [x2,#8]
     9c8:	17fffff6 	b	9a0 <__utee_from_param+0x44>
/home/ursus/devel/optee/optee_os/lib/libutee/tee_api.c:62
     9cc:	a9007c1f 	stp	xzr, xzr, [x0]
/home/ursus/devel/optee/optee_os/lib/libutee/tee_api.c:63
     9d0:	17fffff5 	b	9a4 <__utee_from_param+0x48>

00000000000009d4 <__utee_to_param>:
__utee_to_param():
/home/ursus/devel/optee/optee_os/lib/libutee/tee_api.c:72
     9d4:	f8408446 	ldr	x6, [x2],#8
/home/ursus/devel/optee/optee_os/lib/libutee/tee_api.c:78
     9d8:	90000065 	adrp	x5, c000 <mpa_set_str+0x4>
     9dc:	9125a0a5 	add	x5, x5, #0x968
/home/ursus/devel/optee/optee_os/lib/libutee/tee_api.c:72
     9e0:	52800004 	mov	w4, #0x0                   	// #0
     9e4:	2a0603e9 	mov	w9, w6
/home/ursus/devel/optee/optee_os/lib/libutee/tee_api.c:78
     9e8:	1ac42523 	lsr	w3, w9, w4
     9ec:	12000c63 	and	w3, w3, #0xf
     9f0:	51000463 	sub	w3, w3, #0x1
     9f4:	7100187f 	cmp	w3, #0x6
/home/ursus/devel/optee/optee_os/lib/libutee/tee_api.c:76
     9f8:	a9401c48 	ldp	x8, x7, [x2]
/home/ursus/devel/optee/optee_os/lib/libutee/tee_api.c:78
     9fc:	540000c8 	b.hi	a14 <__utee_to_param+0x40>
     a00:	386348a3 	ldrb	w3, [x5,w3,uxtw]
     a04:	1000006a 	adr	x10, a10 <__utee_to_param+0x3c>
     a08:	8b238943 	add	x3, x10, w3, sxtb #2
     a0c:	d61f0060 	br	x3
/home/ursus/devel/optee/optee_os/lib/libutee/tee_api.c:83
     a10:	29001c08 	stp	w8, w7, [x0]
     a14:	11001084 	add	w4, w4, #0x4
     a18:	91004042 	add	x2, x2, #0x10
     a1c:	91004000 	add	x0, x0, #0x10
/home/ursus/devel/optee/optee_os/lib/libutee/tee_api.c:74 (discriminator 2)
     a20:	7100409f 	cmp	w4, #0x10
     a24:	54fffe21 	b.ne	9e8 <__utee_to_param+0x14>
/home/ursus/devel/optee/optee_os/lib/libutee/tee_api.c:96
     a28:	b4000041 	cbz	x1, a30 <__utee_to_param+0x5c>
/home/ursus/devel/optee/optee_os/lib/libutee/tee_api.c:97
     a2c:	b9000026 	str	w6, [x1]
     a30:	d65f03c0 	ret
/home/ursus/devel/optee/optee_os/lib/libutee/tee_api.c:88
     a34:	f9000008 	str	x8, [x0]
/home/ursus/devel/optee/optee_os/lib/libutee/tee_api.c:89
     a38:	b9000807 	str	w7, [x0,#8]
/home/ursus/devel/optee/optee_os/lib/libutee/tee_api.c:90
     a3c:	17fffff6 	b	a14 <__utee_to_param+0x40>

0000000000000a40 <TEE_OpenTASession>:
TEE_OpenTASession():
/home/ursus/devel/optee/optee_os/lib/libutee/tee_api.c:106
     a40:	a9b77bfd 	stp	x29, x30, [sp,#-144]!
     a44:	910003fd 	mov	x29, sp
     a48:	a90153f3 	stp	x19, x20, [sp,#16]
/home/ursus/devel/optee/optee_os/lib/libutee/tee_api.c:111
     a4c:	910123b3 	add	x19, x29, #0x48
/home/ursus/devel/optee/optee_os/lib/libutee/tee_api.c:106
     a50:	a9025bf5 	stp	x21, x22, [sp,#32]
     a54:	aa0303f4 	mov	x20, x3
     a58:	a90363f7 	stp	x23, x24, [sp,#48]
     a5c:	aa0003f6 	mov	x22, x0
     a60:	aa0503f8 	mov	x24, x5
     a64:	2a0103f7 	mov	w23, w1
     a68:	aa0403f5 	mov	x21, x4
     a6c:	2a0203e1 	mov	w1, w2
/home/ursus/devel/optee/optee_os/lib/libutee/tee_api.c:111
     a70:	aa1303e0 	mov	x0, x19
     a74:	aa0303e2 	mov	x2, x3
     a78:	97ffffb9 	bl	95c <__utee_from_param>
/home/ursus/devel/optee/optee_os/lib/libutee/tee_api.c:112
     a7c:	aa1803e4 	mov	x4, x24
     a80:	910113a3 	add	x3, x29, #0x44
     a84:	aa1303e2 	mov	x2, x19
     a88:	2a1703e1 	mov	w1, w23
     a8c:	aa1603e0 	mov	x0, x22
     a90:	9400139d 	bl	5904 <utee_open_ta_session>
/home/ursus/devel/optee/optee_os/lib/libutee/tee_api.c:114
     a94:	aa1303e2 	mov	x2, x19
/home/ursus/devel/optee/optee_os/lib/libutee/tee_api.c:112
     a98:	2a0003f6 	mov	w22, w0
/home/ursus/devel/optee/optee_os/lib/libutee/tee_api.c:114
     a9c:	d2800001 	mov	x1, #0x0                   	// #0
     aa0:	aa1403e0 	mov	x0, x20
     aa4:	97ffffcc 	bl	9d4 <__utee_to_param>
/home/ursus/devel/optee/optee_os/lib/libutee/tee_api.c:120
     aa8:	34000056 	cbz	w22, ab0 <TEE_OpenTASession+0x70>
/home/ursus/devel/optee/optee_os/lib/libutee/tee_api.c:121
     aac:	b90047bf 	str	wzr, [x29,#68]
/home/ursus/devel/optee/optee_os/lib/libutee/tee_api.c:123
     ab0:	b94047a0 	ldr	w0, [x29,#68]
/home/ursus/devel/optee/optee_os/lib/libutee/tee_api.c:125
     ab4:	a94153f3 	ldp	x19, x20, [sp,#16]
     ab8:	a94363f7 	ldp	x23, x24, [sp,#48]
/home/ursus/devel/optee/optee_os/lib/libutee/tee_api.c:123
     abc:	f90002a0 	str	x0, [x21]
/home/ursus/devel/optee/optee_os/lib/libutee/tee_api.c:125
     ac0:	2a1603e0 	mov	w0, w22
     ac4:	a9425bf5 	ldp	x21, x22, [sp,#32]
     ac8:	a8c97bfd 	ldp	x29, x30, [sp],#144
     acc:	d65f03c0 	ret

0000000000000ad0 <TEE_CloseTASession>:
TEE_CloseTASession():
/home/ursus/devel/optee/optee_os/lib/libutee/tee_api.c:129
     ad0:	b40002e0 	cbz	x0, b2c <TEE_CloseTASession+0x5c>
/home/ursus/devel/optee/optee_os/lib/libutee/tee_api.c:128
     ad4:	a9be7bfd 	stp	x29, x30, [sp,#-32]!
     ad8:	910003fd 	mov	x29, sp
     adc:	f9000bf3 	str	x19, [sp,#16]
/home/ursus/devel/optee/optee_os/lib/libutee/tee_api.c:130
     ae0:	9400138c 	bl	5910 <utee_close_ta_session>
     ae4:	2a0003f3 	mov	w19, w0
/home/ursus/devel/optee/optee_os/lib/libutee/tee_api.c:132
     ae8:	340001c0 	cbz	w0, b20 <TEE_CloseTASession+0x50>
/home/ursus/devel/optee/optee_os/lib/libutee/tee_api.c:133
     aec:	2a0003e5 	mov	w5, w0
     af0:	52800023 	mov	w3, #0x1                   	// #1
     af4:	52800022 	mov	w2, #0x1                   	// #1
     af8:	528010a1 	mov	w1, #0x85                  	// #133
     afc:	d0000064 	adrp	x4, e000 <__func__.3633+0x30>
     b00:	90000060 	adrp	x0, c000 <mpa_set_str+0x4>
     b04:	91112884 	add	x4, x4, #0x44a
     b08:	9125c000 	add	x0, x0, #0x970
     b0c:	94001fb9 	bl	89f0 <trace_printf>
     b10:	2a1303e0 	mov	w0, w19
/home/ursus/devel/optee/optee_os/lib/libutee/tee_api.c:135
     b14:	f9400bf3 	ldr	x19, [sp,#16]
     b18:	a8c27bfd 	ldp	x29, x30, [sp],#32
/home/ursus/devel/optee/optee_os/lib/libutee/tee_api.c:133
     b1c:	140012aa 	b	55c4 <__TEE_Panic>
/home/ursus/devel/optee/optee_os/lib/libutee/tee_api.c:135
     b20:	f9400bf3 	ldr	x19, [sp,#16]
     b24:	a8c27bfd 	ldp	x29, x30, [sp],#32
     b28:	d65f03c0 	ret
     b2c:	d65f03c0 	ret

0000000000000b30 <TEE_InvokeTACommand>:
TEE_InvokeTACommand():
/home/ursus/devel/optee/optee_os/lib/libutee/tee_api.c:142
     b30:	a9b77bfd 	stp	x29, x30, [sp,#-144]!
     b34:	910003fd 	mov	x29, sp
     b38:	a90153f3 	stp	x19, x20, [sp,#16]
/home/ursus/devel/optee/optee_os/lib/libutee/tee_api.c:147
     b3c:	910123b4 	add	x20, x29, #0x48
/home/ursus/devel/optee/optee_os/lib/libutee/tee_api.c:142
     b40:	a9025bf5 	stp	x21, x22, [sp,#32]
     b44:	aa0003f3 	mov	x19, x0
     b48:	a90363f7 	stp	x23, x24, [sp,#48]
     b4c:	aa0403f6 	mov	x22, x4
     b50:	aa0503f5 	mov	x21, x5
     b54:	2a0103f7 	mov	w23, w1
     b58:	2a0203f8 	mov	w24, w2
/home/ursus/devel/optee/optee_os/lib/libutee/tee_api.c:147
     b5c:	2a0303e1 	mov	w1, w3
     b60:	aa0403e2 	mov	x2, x4
     b64:	aa1403e0 	mov	x0, x20
     b68:	97ffff7d 	bl	95c <__utee_from_param>
/home/ursus/devel/optee/optee_os/lib/libutee/tee_api.c:148
     b6c:	910113a4 	add	x4, x29, #0x44
     b70:	aa1403e3 	mov	x3, x20
     b74:	2a1803e2 	mov	w2, w24
     b78:	2a1703e1 	mov	w1, w23
     b7c:	aa1303e0 	mov	x0, x19
     b80:	94001367 	bl	591c <utee_invoke_ta_command>
/home/ursus/devel/optee/optee_os/lib/libutee/tee_api.c:151
     b84:	aa1403e2 	mov	x2, x20
/home/ursus/devel/optee/optee_os/lib/libutee/tee_api.c:148
     b88:	2a0003f3 	mov	w19, w0
/home/ursus/devel/optee/optee_os/lib/libutee/tee_api.c:151
     b8c:	d2800001 	mov	x1, #0x0                   	// #0
     b90:	aa1603e0 	mov	x0, x22
     b94:	97ffff90 	bl	9d4 <__utee_to_param>
     b98:	b94047a0 	ldr	w0, [x29,#68]
/home/ursus/devel/optee/optee_os/lib/libutee/tee_api.c:153
     b9c:	b4000055 	cbz	x21, ba4 <TEE_InvokeTACommand+0x74>
/home/ursus/devel/optee/optee_os/lib/libutee/tee_api.c:154
     ba0:	b90002a0 	str	w0, [x21]
/home/ursus/devel/optee/optee_os/lib/libutee/tee_api.c:156
     ba4:	7100101f 	cmp	w0, #0x4
     ba8:	54000260 	b.eq	bf4 <TEE_InvokeTACommand+0xc4>
/home/ursus/devel/optee/optee_os/lib/libutee/tee_api.c:160
     bac:	7100027f 	cmp	w19, #0x0
     bb0:	129ffe60 	mov	w0, #0xffff000c            	// #-65524
     bb4:	7a401264 	ccmp	w19, w0, #0x4, ne
     bb8:	1299fb60 	mov	w0, #0xffff3024            	// #-53212
     bbc:	7a401264 	ccmp	w19, w0, #0x4, ne
     bc0:	540001a0 	b.eq	bf4 <TEE_InvokeTACommand+0xc4>
/home/ursus/devel/optee/optee_os/lib/libutee/tee_api.c:162
     bc4:	2a1303e5 	mov	w5, w19
     bc8:	d0000064 	adrp	x4, e000 <__func__.3633+0x30>
     bcc:	91112884 	add	x4, x4, #0x44a
     bd0:	52800023 	mov	w3, #0x1                   	// #1
     bd4:	52800022 	mov	w2, #0x1                   	// #1
     bd8:	52801441 	mov	w1, #0xa2                  	// #162
     bdc:	90000060 	adrp	x0, c000 <mpa_set_str+0x4>
     be0:	9125c000 	add	x0, x0, #0x970
     be4:	91006000 	add	x0, x0, #0x18
     be8:	94001f82 	bl	89f0 <trace_printf>
     bec:	2a1303e0 	mov	w0, w19
     bf0:	94001275 	bl	55c4 <__TEE_Panic>
/home/ursus/devel/optee/optee_os/lib/libutee/tee_api.c:165
     bf4:	2a1303e0 	mov	w0, w19
     bf8:	a94153f3 	ldp	x19, x20, [sp,#16]
     bfc:	a9425bf5 	ldp	x21, x22, [sp,#32]
     c00:	a94363f7 	ldp	x23, x24, [sp,#48]
     c04:	a8c97bfd 	ldp	x29, x30, [sp],#144
     c08:	d65f03c0 	ret

0000000000000c0c <TEE_GetCancellationFlag>:
TEE_GetCancellationFlag():
/home/ursus/devel/optee/optee_os/lib/libutee/tee_api.c:170
     c0c:	a9be7bfd 	stp	x29, x30, [sp,#-32]!
     c10:	910003fd 	mov	x29, sp
/home/ursus/devel/optee/optee_os/lib/libutee/tee_api.c:172
     c14:	910073a0 	add	x0, x29, #0x1c
     c18:	94001344 	bl	5928 <utee_get_cancellation_flag>
/home/ursus/devel/optee/optee_os/lib/libutee/tee_api.c:174
     c1c:	34000040 	cbz	w0, c24 <TEE_GetCancellationFlag+0x18>
/home/ursus/devel/optee/optee_os/lib/libutee/tee_api.c:175
     c20:	b9001fbf 	str	wzr, [x29,#28]
/home/ursus/devel/optee/optee_os/lib/libutee/tee_api.c:176
     c24:	b9401fa0 	ldr	w0, [x29,#28]
/home/ursus/devel/optee/optee_os/lib/libutee/tee_api.c:177
     c28:	a8c27bfd 	ldp	x29, x30, [sp],#32
/home/ursus/devel/optee/optee_os/lib/libutee/tee_api.c:176
     c2c:	7100001f 	cmp	w0, #0x0
/home/ursus/devel/optee/optee_os/lib/libutee/tee_api.c:177
     c30:	1a9f07e0 	cset	w0, ne
     c34:	d65f03c0 	ret

0000000000000c38 <TEE_UnmaskCancellation>:
TEE_UnmaskCancellation():
/home/ursus/devel/optee/optee_os/lib/libutee/tee_api.c:180
     c38:	a9bd7bfd 	stp	x29, x30, [sp,#-48]!
     c3c:	910003fd 	mov	x29, sp
     c40:	f9000bf3 	str	x19, [sp,#16]
/home/ursus/devel/optee/optee_os/lib/libutee/tee_api.c:182
     c44:	9100b3a0 	add	x0, x29, #0x2c
     c48:	9400133e 	bl	5940 <utee_unmask_cancellation>
/home/ursus/devel/optee/optee_os/lib/libutee/tee_api.c:184
     c4c:	340001c0 	cbz	w0, c84 <TEE_UnmaskCancellation+0x4c>
/home/ursus/devel/optee/optee_os/lib/libutee/tee_api.c:185
     c50:	2a0003e5 	mov	w5, w0
     c54:	d0000064 	adrp	x4, e000 <__func__.3633+0x30>
     c58:	91112884 	add	x4, x4, #0x44a
     c5c:	2a0003f3 	mov	w19, w0
     c60:	52800023 	mov	w3, #0x1                   	// #1
     c64:	52800022 	mov	w2, #0x1                   	// #1
     c68:	52801721 	mov	w1, #0xb9                  	// #185
     c6c:	90000060 	adrp	x0, c000 <mpa_set_str+0x4>
     c70:	9125c000 	add	x0, x0, #0x970
     c74:	9100c000 	add	x0, x0, #0x30
     c78:	94001f5e 	bl	89f0 <trace_printf>
     c7c:	2a1303e0 	mov	w0, w19
     c80:	94001251 	bl	55c4 <__TEE_Panic>
/home/ursus/devel/optee/optee_os/lib/libutee/tee_api.c:186
     c84:	b9402fa0 	ldr	w0, [x29,#44]
/home/ursus/devel/optee/optee_os/lib/libutee/tee_api.c:187
     c88:	f9400bf3 	ldr	x19, [sp,#16]
/home/ursus/devel/optee/optee_os/lib/libutee/tee_api.c:186
     c8c:	7100001f 	cmp	w0, #0x0
/home/ursus/devel/optee/optee_os/lib/libutee/tee_api.c:187
     c90:	1a9f07e0 	cset	w0, ne
     c94:	a8c37bfd 	ldp	x29, x30, [sp],#48
     c98:	d65f03c0 	ret

0000000000000c9c <TEE_MaskCancellation>:
TEE_MaskCancellation():
/home/ursus/devel/optee/optee_os/lib/libutee/tee_api.c:190
     c9c:	a9bd7bfd 	stp	x29, x30, [sp,#-48]!
     ca0:	910003fd 	mov	x29, sp
     ca4:	f9000bf3 	str	x19, [sp,#16]
/home/ursus/devel/optee/optee_os/lib/libutee/tee_api.c:192
     ca8:	9100b3a0 	add	x0, x29, #0x2c
     cac:	94001328 	bl	594c <utee_mask_cancellation>
/home/ursus/devel/optee/optee_os/lib/libutee/tee_api.c:194
     cb0:	340001c0 	cbz	w0, ce8 <TEE_MaskCancellation+0x4c>
/home/ursus/devel/optee/optee_os/lib/libutee/tee_api.c:195
     cb4:	2a0003e5 	mov	w5, w0
     cb8:	d0000064 	adrp	x4, e000 <__func__.3633+0x30>
     cbc:	91112884 	add	x4, x4, #0x44a
     cc0:	2a0003f3 	mov	w19, w0
     cc4:	52800023 	mov	w3, #0x1                   	// #1
     cc8:	52800022 	mov	w2, #0x1                   	// #1
     ccc:	52801861 	mov	w1, #0xc3                  	// #195
     cd0:	90000060 	adrp	x0, c000 <mpa_set_str+0x4>
     cd4:	9125c000 	add	x0, x0, #0x970
     cd8:	91012000 	add	x0, x0, #0x48
     cdc:	94001f45 	bl	89f0 <trace_printf>
     ce0:	2a1303e0 	mov	w0, w19
     ce4:	94001238 	bl	55c4 <__TEE_Panic>
/home/ursus/devel/optee/optee_os/lib/libutee/tee_api.c:196
     ce8:	b9402fa0 	ldr	w0, [x29,#44]
/home/ursus/devel/optee/optee_os/lib/libutee/tee_api.c:197
     cec:	f9400bf3 	ldr	x19, [sp,#16]
/home/ursus/devel/optee/optee_os/lib/libutee/tee_api.c:196
     cf0:	7100001f 	cmp	w0, #0x0
/home/ursus/devel/optee/optee_os/lib/libutee/tee_api.c:197
     cf4:	1a9f07e0 	cset	w0, ne
     cf8:	a8c37bfd 	ldp	x29, x30, [sp],#48
     cfc:	d65f03c0 	ret

0000000000000d00 <TEE_CheckMemoryAccessRights>:
TEE_CheckMemoryAccessRights():
/home/ursus/devel/optee/optee_os/lib/libutee/tee_api.c:206
     d00:	34000062 	cbz	w2, d0c <TEE_CheckMemoryAccessRights+0xc>
/home/ursus/devel/optee/optee_os/lib/libutee/tee_api.c:210
     d04:	2a0203e2 	mov	w2, w2
     d08:	1400130b 	b	5934 <utee_check_access_rights>
/home/ursus/devel/optee/optee_os/lib/libutee/tee_api.c:222
     d0c:	52800000 	mov	w0, #0x0                   	// #0
     d10:	d65f03c0 	ret

0000000000000d14 <TEE_SetInstanceData>:
TEE_SetInstanceData():
/home/ursus/devel/optee/optee_os/lib/libutee/tee_api.c:226
     d14:	900000c1 	adrp	x1, 18000 <ta_heap+0x7e40>
     d18:	f900e020 	str	x0, [x1,#448]
     d1c:	d65f03c0 	ret

0000000000000d20 <TEE_GetInstanceData>:
TEE_GetInstanceData():
/home/ursus/devel/optee/optee_os/lib/libutee/tee_api.c:232
     d20:	900000c0 	adrp	x0, 18000 <ta_heap+0x7e40>
     d24:	f940e000 	ldr	x0, [x0,#448]
     d28:	d65f03c0 	ret

0000000000000d2c <TEE_MemMove>:
TEE_MemMove():
/home/ursus/devel/optee/optee_os/lib/libutee/tee_api.c:236
     d2c:	2a0203e2 	mov	w2, w2
     d30:	14001bc8 	b	7c50 <memmove>

0000000000000d34 <TEE_MemCompare>:
TEE_MemCompare():
/home/ursus/devel/optee/optee_os/lib/libutee/tee_api.c:241
     d34:	2a0203e2 	mov	w2, w2
     d38:	14001bb1 	b	7bfc <memcmp>

0000000000000d3c <TEE_MemFill>:
TEE_MemFill():
/home/ursus/devel/optee/optee_os/lib/libutee/tee_api.c:246
     d3c:	2a0203e2 	mov	w2, w2
     d40:	14001bd7 	b	7c9c <memset>

0000000000000d44 <TEE_GetSystemTime>:
TEE_GetSystemTime():
/home/ursus/devel/optee/optee_os/lib/libutee/tee_api.c:252
     d44:	a9be7bfd 	stp	x29, x30, [sp,#-32]!
/home/ursus/devel/optee/optee_os/lib/libutee/tee_api.c:253
     d48:	aa0003e1 	mov	x1, x0
     d4c:	d2800000 	mov	x0, #0x0                   	// #0
/home/ursus/devel/optee/optee_os/lib/libutee/tee_api.c:252
     d50:	910003fd 	mov	x29, sp
     d54:	f9000bf3 	str	x19, [sp,#16]
/home/ursus/devel/optee/optee_os/lib/libutee/tee_api.c:253
     d58:	94001303 	bl	5964 <utee_get_time>
/home/ursus/devel/optee/optee_os/lib/libutee/tee_api.c:255
     d5c:	34000200 	cbz	w0, d9c <TEE_GetSystemTime+0x58>
     d60:	2a0003f3 	mov	w19, w0
/home/ursus/devel/optee/optee_os/lib/libutee/tee_api.c:256
     d64:	2a0003e5 	mov	w5, w0
     d68:	90000060 	adrp	x0, c000 <mpa_set_str+0x4>
     d6c:	9125c000 	add	x0, x0, #0x970
     d70:	52800023 	mov	w3, #0x1                   	// #1
     d74:	52800022 	mov	w2, #0x1                   	// #1
     d78:	52802001 	mov	w1, #0x100                 	// #256
     d7c:	91018000 	add	x0, x0, #0x60
     d80:	d0000064 	adrp	x4, e000 <__func__.3633+0x30>
     d84:	91112884 	add	x4, x4, #0x44a
     d88:	94001f1a 	bl	89f0 <trace_printf>
     d8c:	2a1303e0 	mov	w0, w19
/home/ursus/devel/optee/optee_os/lib/libutee/tee_api.c:257
     d90:	f9400bf3 	ldr	x19, [sp,#16]
     d94:	a8c27bfd 	ldp	x29, x30, [sp],#32
/home/ursus/devel/optee/optee_os/lib/libutee/tee_api.c:256
     d98:	1400120b 	b	55c4 <__TEE_Panic>
/home/ursus/devel/optee/optee_os/lib/libutee/tee_api.c:257
     d9c:	f9400bf3 	ldr	x19, [sp,#16]
     da0:	a8c27bfd 	ldp	x29, x30, [sp],#32
     da4:	d65f03c0 	ret

0000000000000da8 <TEE_Wait>:
TEE_Wait():
/home/ursus/devel/optee/optee_os/lib/libutee/tee_api.c:260
     da8:	a9be7bfd 	stp	x29, x30, [sp,#-32]!
/home/ursus/devel/optee/optee_os/lib/libutee/tee_api.c:261
     dac:	2a0003e0 	mov	w0, w0
/home/ursus/devel/optee/optee_os/lib/libutee/tee_api.c:260
     db0:	910003fd 	mov	x29, sp
     db4:	f9000bf3 	str	x19, [sp,#16]
/home/ursus/devel/optee/optee_os/lib/libutee/tee_api.c:261
     db8:	940012e8 	bl	5958 <utee_wait>
     dbc:	2a0003f3 	mov	w19, w0
/home/ursus/devel/optee/optee_os/lib/libutee/tee_api.c:263
     dc0:	7100001f 	cmp	w0, #0x0
     dc4:	129fffa0 	mov	w0, #0xffff0002            	// #-65534
     dc8:	7a401264 	ccmp	w19, w0, #0x4, ne
     dcc:	540001a0 	b.eq	e00 <TEE_Wait+0x58>
/home/ursus/devel/optee/optee_os/lib/libutee/tee_api.c:264
     dd0:	2a1303e5 	mov	w5, w19
     dd4:	d0000064 	adrp	x4, e000 <__func__.3633+0x30>
     dd8:	91112884 	add	x4, x4, #0x44a
     ddc:	52800023 	mov	w3, #0x1                   	// #1
     de0:	52800022 	mov	w2, #0x1                   	// #1
     de4:	52802101 	mov	w1, #0x108                 	// #264
     de8:	90000060 	adrp	x0, c000 <mpa_set_str+0x4>
     dec:	9125c000 	add	x0, x0, #0x970
     df0:	9101e000 	add	x0, x0, #0x78
     df4:	94001eff 	bl	89f0 <trace_printf>
     df8:	2a1303e0 	mov	w0, w19
     dfc:	940011f2 	bl	55c4 <__TEE_Panic>
/home/ursus/devel/optee/optee_os/lib/libutee/tee_api.c:267
     e00:	2a1303e0 	mov	w0, w19
     e04:	f9400bf3 	ldr	x19, [sp,#16]
     e08:	a8c27bfd 	ldp	x29, x30, [sp],#32
     e0c:	d65f03c0 	ret

0000000000000e10 <TEE_GetTAPersistentTime>:
TEE_GetTAPersistentTime():
/home/ursus/devel/optee/optee_os/lib/libutee/tee_api.c:270
     e10:	a9be7bfd 	stp	x29, x30, [sp,#-32]!
/home/ursus/devel/optee/optee_os/lib/libutee/tee_api.c:273
     e14:	aa0003e1 	mov	x1, x0
/home/ursus/devel/optee/optee_os/lib/libutee/tee_api.c:270
     e18:	910003fd 	mov	x29, sp
     e1c:	a90153f3 	stp	x19, x20, [sp,#16]
     e20:	aa0003f4 	mov	x20, x0
/home/ursus/devel/optee/optee_os/lib/libutee/tee_api.c:273
     e24:	d2800020 	mov	x0, #0x1                   	// #1
     e28:	940012cf 	bl	5964 <utee_get_time>
/home/ursus/devel/optee/optee_os/lib/libutee/tee_api.c:275
     e2c:	7100001f 	cmp	w0, #0x0
/home/ursus/devel/optee/optee_os/lib/libutee/tee_api.c:273
     e30:	2a0003f3 	mov	w19, w0
/home/ursus/devel/optee/optee_os/lib/libutee/tee_api.c:275
     e34:	1a9f07e1 	cset	w1, ne
     e38:	1299fe00 	mov	w0, #0xffff300f            	// #-53233
     e3c:	6b00027f 	cmp	w19, w0
     e40:	1a9f07e0 	cset	w0, ne
     e44:	6a00003f 	tst	w1, w0
     e48:	54000040 	b.eq	e50 <TEE_GetTAPersistentTime+0x40>
/home/ursus/devel/optee/optee_os/lib/libutee/tee_api.c:277
     e4c:	29007e9f 	stp	wzr, wzr, [x20]
/home/ursus/devel/optee/optee_os/lib/libutee/tee_api.c:281
     e50:	11402e62 	add	w2, w19, #0xb, lsl #12
     e54:	7100045f 	cmp	w2, #0x1
     e58:	1a9f97e2 	cset	w2, hi
/home/ursus/devel/optee/optee_os/lib/libutee/tee_api.c:280
     e5c:	6a02003f 	tst	w1, w2
     e60:	54000240 	b.eq	ea8 <TEE_GetTAPersistentTime+0x98>
/home/ursus/devel/optee/optee_os/lib/libutee/tee_api.c:283
     e64:	129ffe61 	mov	w1, #0xffff000c            	// #-65524
     e68:	6b01027f 	cmp	w19, w1
     e6c:	1a9f07e1 	cset	w1, ne
     e70:	6a01001f 	tst	w0, w1
     e74:	540001a0 	b.eq	ea8 <TEE_GetTAPersistentTime+0x98>
/home/ursus/devel/optee/optee_os/lib/libutee/tee_api.c:285
     e78:	2a1303e5 	mov	w5, w19
     e7c:	d0000064 	adrp	x4, e000 <__func__.3633+0x30>
     e80:	91112884 	add	x4, x4, #0x44a
     e84:	52800023 	mov	w3, #0x1                   	// #1
     e88:	52800022 	mov	w2, #0x1                   	// #1
     e8c:	528023a1 	mov	w1, #0x11d                 	// #285
     e90:	90000060 	adrp	x0, c000 <mpa_set_str+0x4>
     e94:	9125c000 	add	x0, x0, #0x970
     e98:	91022000 	add	x0, x0, #0x88
     e9c:	94001ed5 	bl	89f0 <trace_printf>
     ea0:	2a1303e0 	mov	w0, w19
     ea4:	940011c8 	bl	55c4 <__TEE_Panic>
/home/ursus/devel/optee/optee_os/lib/libutee/tee_api.c:288
     ea8:	2a1303e0 	mov	w0, w19
     eac:	a94153f3 	ldp	x19, x20, [sp,#16]
     eb0:	a8c27bfd 	ldp	x29, x30, [sp],#32
     eb4:	d65f03c0 	ret

0000000000000eb8 <TEE_SetTAPersistentTime>:
TEE_SetTAPersistentTime():
/home/ursus/devel/optee/optee_os/lib/libutee/tee_api.c:291
     eb8:	a9be7bfd 	stp	x29, x30, [sp,#-32]!
     ebc:	910003fd 	mov	x29, sp
     ec0:	f9000bf3 	str	x19, [sp,#16]
/home/ursus/devel/optee/optee_os/lib/libutee/tee_api.c:294
     ec4:	940012ab 	bl	5970 <utee_set_ta_time>
     ec8:	2a0003f3 	mov	w19, w0
/home/ursus/devel/optee/optee_os/lib/libutee/tee_api.c:297
     ecc:	7100001f 	cmp	w0, #0x0
     ed0:	129ffe60 	mov	w0, #0xffff000c            	// #-65524
     ed4:	7a401264 	ccmp	w19, w0, #0x4, ne
     ed8:	1299f7c0 	mov	w0, #0xffff3041            	// #-53183
     edc:	7a401264 	ccmp	w19, w0, #0x4, ne
     ee0:	540001a0 	b.eq	f14 <TEE_SetTAPersistentTime+0x5c>
/home/ursus/devel/optee/optee_os/lib/libutee/tee_api.c:299
     ee4:	2a1303e5 	mov	w5, w19
     ee8:	d0000064 	adrp	x4, e000 <__func__.3633+0x30>
     eec:	91112884 	add	x4, x4, #0x44a
     ef0:	52800023 	mov	w3, #0x1                   	// #1
     ef4:	52800022 	mov	w2, #0x1                   	// #1
     ef8:	52802561 	mov	w1, #0x12b                 	// #299
     efc:	90000060 	adrp	x0, c000 <mpa_set_str+0x4>
     f00:	9125c000 	add	x0, x0, #0x970
     f04:	91028000 	add	x0, x0, #0xa0
     f08:	94001eba 	bl	89f0 <trace_printf>
     f0c:	2a1303e0 	mov	w0, w19
     f10:	940011ad 	bl	55c4 <__TEE_Panic>
/home/ursus/devel/optee/optee_os/lib/libutee/tee_api.c:302
     f14:	2a1303e0 	mov	w0, w19
     f18:	f9400bf3 	ldr	x19, [sp,#16]
     f1c:	a8c27bfd 	ldp	x29, x30, [sp],#32
     f20:	d65f03c0 	ret

0000000000000f24 <TEE_GetREETime>:
TEE_GetREETime():
/home/ursus/devel/optee/optee_os/lib/libutee/tee_api.c:305
     f24:	a9be7bfd 	stp	x29, x30, [sp,#-32]!
/home/ursus/devel/optee/optee_os/lib/libutee/tee_api.c:306
     f28:	aa0003e1 	mov	x1, x0
     f2c:	d2800040 	mov	x0, #0x2                   	// #2
/home/ursus/devel/optee/optee_os/lib/libutee/tee_api.c:305
     f30:	910003fd 	mov	x29, sp
     f34:	f9000bf3 	str	x19, [sp,#16]
/home/ursus/devel/optee/optee_os/lib/libutee/tee_api.c:306
     f38:	9400128b 	bl	5964 <utee_get_time>
/home/ursus/devel/optee/optee_os/lib/libutee/tee_api.c:308
     f3c:	34000200 	cbz	w0, f7c <TEE_GetREETime+0x58>
     f40:	2a0003f3 	mov	w19, w0
/home/ursus/devel/optee/optee_os/lib/libutee/tee_api.c:309
     f44:	2a0003e5 	mov	w5, w0
     f48:	90000060 	adrp	x0, c000 <mpa_set_str+0x4>
     f4c:	9125c000 	add	x0, x0, #0x970
     f50:	52800023 	mov	w3, #0x1                   	// #1
     f54:	52800022 	mov	w2, #0x1                   	// #1
     f58:	528026a1 	mov	w1, #0x135                 	// #309
     f5c:	9102e000 	add	x0, x0, #0xb8
     f60:	d0000064 	adrp	x4, e000 <__func__.3633+0x30>
     f64:	91112884 	add	x4, x4, #0x44a
     f68:	94001ea2 	bl	89f0 <trace_printf>
     f6c:	2a1303e0 	mov	w0, w19
/home/ursus/devel/optee/optee_os/lib/libutee/tee_api.c:310
     f70:	f9400bf3 	ldr	x19, [sp,#16]
     f74:	a8c27bfd 	ldp	x29, x30, [sp],#32
/home/ursus/devel/optee/optee_os/lib/libutee/tee_api.c:309
     f78:	14001193 	b	55c4 <__TEE_Panic>
/home/ursus/devel/optee/optee_os/lib/libutee/tee_api.c:310
     f7c:	f9400bf3 	ldr	x19, [sp,#16]
     f80:	a8c27bfd 	ldp	x29, x30, [sp],#32
     f84:	d65f03c0 	ret

0000000000000f88 <TEE_Malloc>:
TEE_Malloc():
/home/ursus/devel/optee/optee_os/lib/libutee/tee_api.c:314
     f88:	2a0003e0 	mov	w0, w0
     f8c:	14001385 	b	5da0 <tee_user_mem_alloc>

0000000000000f90 <TEE_Realloc>:
TEE_Realloc():
/home/ursus/devel/optee/optee_os/lib/libutee/tee_api.c:323
     f90:	2a0103e1 	mov	w1, w1
     f94:	1400142f 	b	6050 <tee_user_mem_realloc>

0000000000000f98 <TEE_Free>:
TEE_Free():
/home/ursus/devel/optee/optee_os/lib/libutee/tee_api.c:328
     f98:	140013d5 	b	5eec <tee_user_mem_free>

0000000000000f9c <TEE_CacheClean>:
TEE_CacheClean():
/home/ursus/devel/optee/optee_os/lib/libutee/tee_api.c:334
     f9c:	d2800002 	mov	x2, #0x0                   	// #0
     fa0:	1400131c 	b	5c10 <utee_cache_operation>

0000000000000fa4 <TEE_CacheFlush>:
TEE_CacheFlush():
/home/ursus/devel/optee/optee_os/lib/libutee/tee_api.c:338
     fa4:	d2800022 	mov	x2, #0x1                   	// #1
     fa8:	1400131a 	b	5c10 <utee_cache_operation>

0000000000000fac <TEE_CacheInvalidate>:
TEE_CacheInvalidate():
/home/ursus/devel/optee/optee_os/lib/libutee/tee_api.c:343
     fac:	d2800042 	mov	x2, #0x2                   	// #2
     fb0:	14001318 	b	5c10 <utee_cache_operation>

0000000000000fb4 <__utee_from_attr>:
__utee_from_attr():
/home/ursus/devel/optee/optee_os/lib/libutee/tee_api_objects.c:41
     fb4:	52800303 	mov	w3, #0x18                  	// #24
     fb8:	9ba30442 	umaddl	x2, w2, w3, x1
/home/ursus/devel/optee/optee_os/lib/libutee/tee_api_objects.c:44 (discriminator 1)
     fbc:	eb02003f 	cmp	x1, x2
     fc0:	54000041 	b.ne	fc8 <__utee_from_attr+0x14>
/home/ursus/devel/optee/optee_os/lib/libutee/tee_api_objects.c:54
     fc4:	d65f03c0 	ret
/home/ursus/devel/optee/optee_os/lib/libutee/tee_api_objects.c:45
     fc8:	b9400023 	ldr	w3, [x1]
     fcc:	b9001003 	str	w3, [x0,#16]
/home/ursus/devel/optee/optee_os/lib/libutee/tee_api_objects.c:46
     fd0:	36e80103 	tbz	w3, #29, ff0 <__utee_from_attr+0x3c>
/home/ursus/devel/optee/optee_os/lib/libutee/tee_api_objects.c:47
     fd4:	b9400823 	ldr	w3, [x1,#8]
     fd8:	f9000003 	str	x3, [x0]
/home/ursus/devel/optee/optee_os/lib/libutee/tee_api_objects.c:48
     fdc:	b9400c23 	ldr	w3, [x1,#12]
/home/ursus/devel/optee/optee_os/lib/libutee/tee_api_objects.c:51
     fe0:	f9000403 	str	x3, [x0,#8]
     fe4:	91006021 	add	x1, x1, #0x18
     fe8:	91006000 	add	x0, x0, #0x18
     fec:	17fffff4 	b	fbc <__utee_from_attr+0x8>
/home/ursus/devel/optee/optee_os/lib/libutee/tee_api_objects.c:50
     ff0:	f9400423 	ldr	x3, [x1,#8]
     ff4:	f9000003 	str	x3, [x0]
/home/ursus/devel/optee/optee_os/lib/libutee/tee_api_objects.c:51
     ff8:	b9401023 	ldr	w3, [x1,#16]
     ffc:	17fffff9 	b	fe0 <__utee_from_attr+0x2c>

0000000000001000 <TEE_GetObjectInfo>:
TEE_GetObjectInfo():
/home/ursus/devel/optee/optee_os/lib/libutee/tee_api_objects.c:64
    1000:	a9be7bfd 	stp	x29, x30, [sp,#-32]!
    1004:	910003fd 	mov	x29, sp
    1008:	a90153f3 	stp	x19, x20, [sp,#16]
    100c:	aa0103f3 	mov	x19, x1
/home/ursus/devel/optee/optee_os/lib/libutee/tee_api_objects.c:67
    1010:	94001276 	bl	59e8 <utee_cryp_obj_get_info>
/home/ursus/devel/optee/optee_os/lib/libutee/tee_api_objects.c:69
    1014:	340001a0 	cbz	w0, 1048 <TEE_GetObjectInfo+0x48>
/home/ursus/devel/optee/optee_os/lib/libutee/tee_api_objects.c:70
    1018:	2a0003e5 	mov	w5, w0
    101c:	b0000064 	adrp	x4, e000 <__func__.3633+0x30>
    1020:	91112884 	add	x4, x4, #0x44a
    1024:	52800023 	mov	w3, #0x1                   	// #1
    1028:	52800022 	mov	w2, #0x1                   	// #1
    102c:	528008c1 	mov	w1, #0x46                  	// #70
    1030:	2a0003f4 	mov	w20, w0
    1034:	f0000040 	adrp	x0, c000 <mpa_set_str+0x4>
    1038:	9128e000 	add	x0, x0, #0xa38
    103c:	94001e6d 	bl	89f0 <trace_printf>
    1040:	2a1403e0 	mov	w0, w20
    1044:	94001160 	bl	55c4 <__TEE_Panic>
/home/ursus/devel/optee/optee_os/lib/libutee/tee_api_objects.c:72
    1048:	b9400261 	ldr	w1, [x19]
    104c:	528017c0 	mov	w0, #0xbe                  	// #190
    1050:	72b40000 	movk	w0, #0xa000, lsl #16
    1054:	6b00003f 	cmp	w1, w0
    1058:	54000081 	b.ne	1068 <TEE_GetObjectInfo+0x68>
/home/ursus/devel/optee/optee_os/lib/libutee/tee_api_objects.c:74
    105c:	2900fe7f 	stp	wzr, wzr, [x19,#4]
/home/ursus/devel/optee/optee_os/lib/libutee/tee_api_objects.c:76
    1060:	2901fe7f 	stp	wzr, wzr, [x19,#12]
/home/ursus/devel/optee/optee_os/lib/libutee/tee_api_objects.c:78
    1064:	2902fe7f 	stp	wzr, wzr, [x19,#20]
/home/ursus/devel/optee/optee_os/lib/libutee/tee_api_objects.c:80
    1068:	a94153f3 	ldp	x19, x20, [sp,#16]
    106c:	a8c27bfd 	ldp	x29, x30, [sp],#32
    1070:	d65f03c0 	ret

0000000000001074 <TEE_GetObjectInfo1>:
TEE_GetObjectInfo1():
/home/ursus/devel/optee/optee_os/lib/libutee/tee_api_objects.c:83
    1074:	a9be7bfd 	stp	x29, x30, [sp,#-32]!
    1078:	910003fd 	mov	x29, sp
    107c:	f9000bf3 	str	x19, [sp,#16]
/home/ursus/devel/optee/optee_os/lib/libutee/tee_api_objects.c:86
    1080:	9400125a 	bl	59e8 <utee_cryp_obj_get_info>
/home/ursus/devel/optee/optee_os/lib/libutee/tee_api_objects.c:89
    1084:	121e7801 	and	w1, w0, #0xfffffffd
    1088:	7100001f 	cmp	w0, #0x0
/home/ursus/devel/optee/optee_os/lib/libutee/tee_api_objects.c:86
    108c:	2a0003f3 	mov	w19, w0
/home/ursus/devel/optee/optee_os/lib/libutee/tee_api_objects.c:89
    1090:	52800020 	mov	w0, #0x1                   	// #1
    1094:	72be0200 	movk	w0, #0xf010, lsl #16
    1098:	7a401024 	ccmp	w1, w0, #0x4, ne
    109c:	540001a0 	b.eq	10d0 <TEE_GetObjectInfo1+0x5c>
/home/ursus/devel/optee/optee_os/lib/libutee/tee_api_objects.c:91
    10a0:	2a1303e5 	mov	w5, w19
    10a4:	b0000064 	adrp	x4, e000 <__func__.3633+0x30>
    10a8:	91112884 	add	x4, x4, #0x44a
    10ac:	52800023 	mov	w3, #0x1                   	// #1
    10b0:	52800022 	mov	w2, #0x1                   	// #1
    10b4:	52800b61 	mov	w1, #0x5b                  	// #91
    10b8:	f0000040 	adrp	x0, c000 <mpa_set_str+0x4>
    10bc:	9128e000 	add	x0, x0, #0xa38
    10c0:	91006000 	add	x0, x0, #0x18
    10c4:	94001e4b 	bl	89f0 <trace_printf>
    10c8:	2a1303e0 	mov	w0, w19
    10cc:	9400113e 	bl	55c4 <__TEE_Panic>
/home/ursus/devel/optee/optee_os/lib/libutee/tee_api_objects.c:94
    10d0:	2a1303e0 	mov	w0, w19
    10d4:	f9400bf3 	ldr	x19, [sp,#16]
    10d8:	a8c27bfd 	ldp	x29, x30, [sp],#32
    10dc:	d65f03c0 	ret

00000000000010e0 <TEE_RestrictObjectUsage1>:
TEE_RestrictObjectUsage1():
/home/ursus/devel/optee/optee_os/lib/libutee/tee_api_objects.c:118
    10e0:	a9be7bfd 	stp	x29, x30, [sp,#-32]!
/home/ursus/devel/optee/optee_os/lib/libutee/tee_api_objects.c:121
    10e4:	2a0103e1 	mov	w1, w1
/home/ursus/devel/optee/optee_os/lib/libutee/tee_api_objects.c:118
    10e8:	910003fd 	mov	x29, sp
    10ec:	f9000bf3 	str	x19, [sp,#16]
/home/ursus/devel/optee/optee_os/lib/libutee/tee_api_objects.c:121
    10f0:	94001241 	bl	59f4 <utee_cryp_obj_restrict_usage>
/home/ursus/devel/optee/optee_os/lib/libutee/tee_api_objects.c:124
    10f4:	121e7801 	and	w1, w0, #0xfffffffd
    10f8:	7100001f 	cmp	w0, #0x0
/home/ursus/devel/optee/optee_os/lib/libutee/tee_api_objects.c:121
    10fc:	2a0003f3 	mov	w19, w0
/home/ursus/devel/optee/optee_os/lib/libutee/tee_api_objects.c:124
    1100:	52800020 	mov	w0, #0x1                   	// #1
    1104:	72be0200 	movk	w0, #0xf010, lsl #16
    1108:	7a401024 	ccmp	w1, w0, #0x4, ne
    110c:	540001a0 	b.eq	1140 <TEE_RestrictObjectUsage1+0x60>
/home/ursus/devel/optee/optee_os/lib/libutee/tee_api_objects.c:126
    1110:	2a1303e5 	mov	w5, w19
    1114:	b0000064 	adrp	x4, e000 <__func__.3633+0x30>
    1118:	91112884 	add	x4, x4, #0x44a
    111c:	52800023 	mov	w3, #0x1                   	// #1
    1120:	52800022 	mov	w2, #0x1                   	// #1
    1124:	52800fc1 	mov	w1, #0x7e                  	// #126
    1128:	f0000040 	adrp	x0, c000 <mpa_set_str+0x4>
    112c:	9128e000 	add	x0, x0, #0xa38
    1130:	9100c000 	add	x0, x0, #0x30
    1134:	94001e2f 	bl	89f0 <trace_printf>
    1138:	2a1303e0 	mov	w0, w19
    113c:	94001122 	bl	55c4 <__TEE_Panic>
/home/ursus/devel/optee/optee_os/lib/libutee/tee_api_objects.c:129
    1140:	2a1303e0 	mov	w0, w19
    1144:	f9400bf3 	ldr	x19, [sp,#16]
    1148:	a8c27bfd 	ldp	x29, x30, [sp],#32
    114c:	d65f03c0 	ret

0000000000001150 <TEE_RestrictObjectUsage>:
TEE_RestrictObjectUsage():
/home/ursus/devel/optee/optee_os/lib/libutee/tee_api_objects.c:103
    1150:	a9bc7bfd 	stp	x29, x30, [sp,#-64]!
    1154:	910003fd 	mov	x29, sp
    1158:	a90153f3 	stp	x19, x20, [sp,#16]
    115c:	aa0003f3 	mov	x19, x0
    1160:	2a0103f4 	mov	w20, w1
/home/ursus/devel/optee/optee_os/lib/libutee/tee_api_objects.c:107
    1164:	910083a1 	add	x1, x29, #0x20
    1168:	94001220 	bl	59e8 <utee_cryp_obj_get_info>
/home/ursus/devel/optee/optee_os/lib/libutee/tee_api_objects.c:108
    116c:	b94023a1 	ldr	w1, [x29,#32]
    1170:	528017c0 	mov	w0, #0xbe                  	// #190
    1174:	72b40000 	movk	w0, #0xa000, lsl #16
    1178:	6b00003f 	cmp	w1, w0
    117c:	54000240 	b.eq	11c4 <TEE_RestrictObjectUsage+0x74>
/home/ursus/devel/optee/optee_os/lib/libutee/tee_api_objects.c:111
    1180:	aa1303e0 	mov	x0, x19
    1184:	2a1403e1 	mov	w1, w20
    1188:	97ffffd6 	bl	10e0 <TEE_RestrictObjectUsage1>
    118c:	2a0003f3 	mov	w19, w0
/home/ursus/devel/optee/optee_os/lib/libutee/tee_api_objects.c:113
    1190:	340001a0 	cbz	w0, 11c4 <TEE_RestrictObjectUsage+0x74>
/home/ursus/devel/optee/optee_os/lib/libutee/tee_api_objects.c:114
    1194:	2a0003e5 	mov	w5, w0
    1198:	b0000064 	adrp	x4, e000 <__func__.3633+0x30>
    119c:	91112884 	add	x4, x4, #0x44a
    11a0:	52800023 	mov	w3, #0x1                   	// #1
    11a4:	52800022 	mov	w2, #0x1                   	// #1
    11a8:	52800e41 	mov	w1, #0x72                  	// #114
    11ac:	f0000040 	adrp	x0, c000 <mpa_set_str+0x4>
    11b0:	9128e000 	add	x0, x0, #0xa38
    11b4:	91014000 	add	x0, x0, #0x50
    11b8:	94001e0e 	bl	89f0 <trace_printf>
    11bc:	2a1303e0 	mov	w0, w19
    11c0:	94001101 	bl	55c4 <__TEE_Panic>
/home/ursus/devel/optee/optee_os/lib/libutee/tee_api_objects.c:115
    11c4:	a94153f3 	ldp	x19, x20, [sp,#16]
    11c8:	a8c47bfd 	ldp	x29, x30, [sp],#64
    11cc:	d65f03c0 	ret

00000000000011d0 <TEE_GetObjectBufferAttribute>:
TEE_GetObjectBufferAttribute():
/home/ursus/devel/optee/optee_os/lib/libutee/tee_api_objects.c:134
    11d0:	a9b97bfd 	stp	x29, x30, [sp,#-112]!
    11d4:	910003fd 	mov	x29, sp
    11d8:	a90153f3 	stp	x19, x20, [sp,#16]
    11dc:	aa0303f4 	mov	x20, x3
    11e0:	a9025bf5 	stp	x21, x22, [sp,#32]
    11e4:	aa0003f6 	mov	x22, x0
    11e8:	f9001bf7 	str	x23, [sp,#48]
    11ec:	2a0103f5 	mov	w21, w1
    11f0:	aa0203f7 	mov	x23, x2
/home/ursus/devel/optee/optee_os/lib/libutee/tee_api_objects.c:139
    11f4:	910143a1 	add	x1, x29, #0x50
    11f8:	940011fc 	bl	59e8 <utee_cryp_obj_get_info>
    11fc:	2a0003f3 	mov	w19, w0
/home/ursus/devel/optee/optee_os/lib/libutee/tee_api_objects.c:140
    1200:	350001a0 	cbnz	w0, 1234 <TEE_GetObjectBufferAttribute+0x64>
/home/ursus/devel/optee/optee_os/lib/libutee/tee_api_objects.c:145
    1204:	129fff33 	mov	w19, #0xffff0006            	// #-65530
/home/ursus/devel/optee/optee_os/lib/libutee/tee_api_objects.c:144
    1208:	37e80175 	tbnz	w21, #29, 1234 <TEE_GetObjectBufferAttribute+0x64>
/home/ursus/devel/optee/optee_os/lib/libutee/tee_api_objects.c:149
    120c:	9101c3a3 	add	x3, x29, #0x70
    1210:	b9400280 	ldr	w0, [x20]
/home/ursus/devel/optee/optee_os/lib/libutee/tee_api_objects.c:150
    1214:	aa1703e2 	mov	x2, x23
    1218:	2a1503e1 	mov	w1, w21
/home/ursus/devel/optee/optee_os/lib/libutee/tee_api_objects.c:149
    121c:	f81d8c60 	str	x0, [x3,#-40]!
/home/ursus/devel/optee/optee_os/lib/libutee/tee_api_objects.c:150
    1220:	aa1603e0 	mov	x0, x22
    1224:	940011f7 	bl	5a00 <utee_cryp_obj_get_attr>
    1228:	2a0003f3 	mov	w19, w0
/home/ursus/devel/optee/optee_os/lib/libutee/tee_api_objects.c:152
    122c:	f94027a0 	ldr	x0, [x29,#72]
    1230:	b9000280 	str	w0, [x20]
/home/ursus/devel/optee/optee_os/lib/libutee/tee_api_objects.c:156
    1234:	529fff00 	mov	w0, #0xfff8                	// #65528
    1238:	0b000260 	add	w0, w19, w0
/home/ursus/devel/optee/optee_os/lib/libutee/tee_api_objects.c:155
    123c:	721c781f 	tst	w0, #0xfffffff7
    1240:	7a401a64 	ccmp	w19, #0x0, #0x4, ne
    1244:	54000240 	b.eq	128c <TEE_GetObjectBufferAttribute+0xbc>
/home/ursus/devel/optee/optee_os/lib/libutee/tee_api_objects.c:158
    1248:	121e7a61 	and	w1, w19, #0xfffffffd
    124c:	52800020 	mov	w0, #0x1                   	// #1
    1250:	72be0200 	movk	w0, #0xf010, lsl #16
    1254:	6b00003f 	cmp	w1, w0
    1258:	540001a0 	b.eq	128c <TEE_GetObjectBufferAttribute+0xbc>
/home/ursus/devel/optee/optee_os/lib/libutee/tee_api_objects.c:160
    125c:	2a1303e5 	mov	w5, w19
    1260:	b0000064 	adrp	x4, e000 <__func__.3633+0x30>
    1264:	91112884 	add	x4, x4, #0x44a
    1268:	52800023 	mov	w3, #0x1                   	// #1
    126c:	52800022 	mov	w2, #0x1                   	// #1
    1270:	52801401 	mov	w1, #0xa0                  	// #160
    1274:	f0000040 	adrp	x0, c000 <mpa_set_str+0x4>
    1278:	9128e000 	add	x0, x0, #0xa38
    127c:	9101a000 	add	x0, x0, #0x68
    1280:	94001ddc 	bl	89f0 <trace_printf>
    1284:	2a1303e0 	mov	w0, w19
    1288:	940010cf 	bl	55c4 <__TEE_Panic>
/home/ursus/devel/optee/optee_os/lib/libutee/tee_api_objects.c:163
    128c:	2a1303e0 	mov	w0, w19
    1290:	f9401bf7 	ldr	x23, [sp,#48]
    1294:	a94153f3 	ldp	x19, x20, [sp,#16]
    1298:	a9425bf5 	ldp	x21, x22, [sp,#32]
    129c:	a8c77bfd 	ldp	x29, x30, [sp],#112
    12a0:	d65f03c0 	ret

00000000000012a4 <TEE_GetObjectValueAttribute>:
TEE_GetObjectValueAttribute():
/home/ursus/devel/optee/optee_os/lib/libutee/tee_api_objects.c:168
    12a4:	a9b97bfd 	stp	x29, x30, [sp,#-112]!
    12a8:	910003fd 	mov	x29, sp
    12ac:	a9025bf5 	stp	x21, x22, [sp,#32]
    12b0:	2a0103f6 	mov	w22, w1
/home/ursus/devel/optee/optee_os/lib/libutee/tee_api_objects.c:172
    12b4:	d2800101 	mov	x1, #0x8                   	// #8
/home/ursus/devel/optee/optee_os/lib/libutee/tee_api_objects.c:168
    12b8:	a90153f3 	stp	x19, x20, [sp,#16]
/home/ursus/devel/optee/optee_os/lib/libutee/tee_api_objects.c:172
    12bc:	f90027a1 	str	x1, [x29,#72]
/home/ursus/devel/optee/optee_os/lib/libutee/tee_api_objects.c:168
    12c0:	aa0203f5 	mov	x21, x2
    12c4:	f9001bf7 	str	x23, [sp,#48]
    12c8:	aa0303f4 	mov	x20, x3
/home/ursus/devel/optee/optee_os/lib/libutee/tee_api_objects.c:174
    12cc:	910143a1 	add	x1, x29, #0x50
/home/ursus/devel/optee/optee_os/lib/libutee/tee_api_objects.c:168
    12d0:	aa0003f7 	mov	x23, x0
/home/ursus/devel/optee/optee_os/lib/libutee/tee_api_objects.c:174
    12d4:	940011c5 	bl	59e8 <utee_cryp_obj_get_info>
    12d8:	2a0003f3 	mov	w19, w0
/home/ursus/devel/optee/optee_os/lib/libutee/tee_api_objects.c:175
    12dc:	35000120 	cbnz	w0, 1300 <TEE_GetObjectValueAttribute+0x5c>
/home/ursus/devel/optee/optee_os/lib/libutee/tee_api_objects.c:180
    12e0:	129fff33 	mov	w19, #0xffff0006            	// #-65530
/home/ursus/devel/optee/optee_os/lib/libutee/tee_api_objects.c:179
    12e4:	36e800f6 	tbz	w22, #29, 1300 <TEE_GetObjectValueAttribute+0x5c>
/home/ursus/devel/optee/optee_os/lib/libutee/tee_api_objects.c:184
    12e8:	910123a3 	add	x3, x29, #0x48
    12ec:	910103a2 	add	x2, x29, #0x40
    12f0:	2a1603e1 	mov	w1, w22
    12f4:	aa1703e0 	mov	x0, x23
    12f8:	940011c2 	bl	5a00 <utee_cryp_obj_get_attr>
    12fc:	2a0003f3 	mov	w19, w0
/home/ursus/devel/optee/optee_os/lib/libutee/tee_api_objects.c:188
    1300:	7100027f 	cmp	w19, #0x0
    1304:	129ffee0 	mov	w0, #0xffff0008            	// #-65528
    1308:	7a401264 	ccmp	w19, w0, #0x4, ne
    130c:	54000240 	b.eq	1354 <TEE_GetObjectValueAttribute+0xb0>
/home/ursus/devel/optee/optee_os/lib/libutee/tee_api_objects.c:190
    1310:	121e7a61 	and	w1, w19, #0xfffffffd
    1314:	52800020 	mov	w0, #0x1                   	// #1
    1318:	72be0200 	movk	w0, #0xf010, lsl #16
    131c:	6b00003f 	cmp	w1, w0
    1320:	540001a0 	b.eq	1354 <TEE_GetObjectValueAttribute+0xb0>
/home/ursus/devel/optee/optee_os/lib/libutee/tee_api_objects.c:192
    1324:	2a1303e5 	mov	w5, w19
    1328:	b0000064 	adrp	x4, e000 <__func__.3633+0x30>
    132c:	91112884 	add	x4, x4, #0x44a
    1330:	52800023 	mov	w3, #0x1                   	// #1
    1334:	52800022 	mov	w2, #0x1                   	// #1
    1338:	52801801 	mov	w1, #0xc0                  	// #192
    133c:	f0000040 	adrp	x0, c000 <mpa_set_str+0x4>
    1340:	9128e000 	add	x0, x0, #0xa38
    1344:	91022000 	add	x0, x0, #0x88
    1348:	94001daa 	bl	89f0 <trace_printf>
    134c:	2a1303e0 	mov	w0, w19
    1350:	9400109d 	bl	55c4 <__TEE_Panic>
/home/ursus/devel/optee/optee_os/lib/libutee/tee_api_objects.c:194
    1354:	f94027a0 	ldr	x0, [x29,#72]
    1358:	f100201f 	cmp	x0, #0x8
    135c:	540001a0 	b.eq	1390 <TEE_GetObjectValueAttribute+0xec>
/home/ursus/devel/optee/optee_os/lib/libutee/tee_api_objects.c:195
    1360:	b0000064 	adrp	x4, e000 <__func__.3633+0x30>
    1364:	91112884 	add	x4, x4, #0x44a
    1368:	52800005 	mov	w5, #0x0                   	// #0
    136c:	52800023 	mov	w3, #0x1                   	// #1
    1370:	52800022 	mov	w2, #0x1                   	// #1
    1374:	52801861 	mov	w1, #0xc3                  	// #195
    1378:	f0000040 	adrp	x0, c000 <mpa_set_str+0x4>
    137c:	9128e000 	add	x0, x0, #0xa38
    1380:	91022000 	add	x0, x0, #0x88
    1384:	94001d9b 	bl	89f0 <trace_printf>
    1388:	52800000 	mov	w0, #0x0                   	// #0
    138c:	9400108e 	bl	55c4 <__TEE_Panic>
/home/ursus/devel/optee/optee_os/lib/libutee/tee_api_objects.c:197
    1390:	350000f3 	cbnz	w19, 13ac <TEE_GetObjectValueAttribute+0x108>
/home/ursus/devel/optee/optee_os/lib/libutee/tee_api_objects.c:198
    1394:	b4000075 	cbz	x21, 13a0 <TEE_GetObjectValueAttribute+0xfc>
/home/ursus/devel/optee/optee_os/lib/libutee/tee_api_objects.c:199
    1398:	b94043a0 	ldr	w0, [x29,#64]
    139c:	b90002a0 	str	w0, [x21]
/home/ursus/devel/optee/optee_os/lib/libutee/tee_api_objects.c:200
    13a0:	b4000074 	cbz	x20, 13ac <TEE_GetObjectValueAttribute+0x108>
/home/ursus/devel/optee/optee_os/lib/libutee/tee_api_objects.c:201
    13a4:	b94047a0 	ldr	w0, [x29,#68]
    13a8:	b9000280 	str	w0, [x20]
/home/ursus/devel/optee/optee_os/lib/libutee/tee_api_objects.c:205
    13ac:	2a1303e0 	mov	w0, w19
    13b0:	f9401bf7 	ldr	x23, [sp,#48]
    13b4:	a94153f3 	ldp	x19, x20, [sp,#16]
    13b8:	a9425bf5 	ldp	x21, x22, [sp,#32]
    13bc:	a8c77bfd 	ldp	x29, x30, [sp],#112
    13c0:	d65f03c0 	ret

00000000000013c4 <TEE_CloseObject>:
TEE_CloseObject():
/home/ursus/devel/optee/optee_os/lib/libutee/tee_api_objects.c:211
    13c4:	b4000300 	cbz	x0, 1424 <TEE_CloseObject+0x60>
/home/ursus/devel/optee/optee_os/lib/libutee/tee_api_objects.c:208
    13c8:	a9be7bfd 	stp	x29, x30, [sp,#-32]!
    13cc:	910003fd 	mov	x29, sp
    13d0:	f9000bf3 	str	x19, [sp,#16]
/home/ursus/devel/optee/optee_os/lib/libutee/tee_api_objects.c:214
    13d4:	94001191 	bl	5a18 <utee_cryp_obj_close>
    13d8:	2a0003f3 	mov	w19, w0
/home/ursus/devel/optee/optee_os/lib/libutee/tee_api_objects.c:215
    13dc:	340001e0 	cbz	w0, 1418 <TEE_CloseObject+0x54>
/home/ursus/devel/optee/optee_os/lib/libutee/tee_api_objects.c:216
    13e0:	2a0003e5 	mov	w5, w0
    13e4:	f0000040 	adrp	x0, c000 <mpa_set_str+0x4>
    13e8:	9128e000 	add	x0, x0, #0xa38
    13ec:	52800023 	mov	w3, #0x1                   	// #1
    13f0:	52800022 	mov	w2, #0x1                   	// #1
    13f4:	52801b01 	mov	w1, #0xd8                  	// #216
    13f8:	9102a000 	add	x0, x0, #0xa8
    13fc:	b0000064 	adrp	x4, e000 <__func__.3633+0x30>
    1400:	91112884 	add	x4, x4, #0x44a
    1404:	94001d7b 	bl	89f0 <trace_printf>
    1408:	2a1303e0 	mov	w0, w19
/home/ursus/devel/optee/optee_os/lib/libutee/tee_api_objects.c:217
    140c:	f9400bf3 	ldr	x19, [sp,#16]
    1410:	a8c27bfd 	ldp	x29, x30, [sp],#32
/home/ursus/devel/optee/optee_os/lib/libutee/tee_api_objects.c:216
    1414:	1400106c 	b	55c4 <__TEE_Panic>
/home/ursus/devel/optee/optee_os/lib/libutee/tee_api_objects.c:217
    1418:	f9400bf3 	ldr	x19, [sp,#16]
    141c:	a8c27bfd 	ldp	x29, x30, [sp],#32
    1420:	d65f03c0 	ret
    1424:	d65f03c0 	ret

0000000000001428 <TEE_AllocateTransientObject>:
TEE_AllocateTransientObject():
/home/ursus/devel/optee/optee_os/lib/libutee/tee_api_objects.c:224
    1428:	a9bd7bfd 	stp	x29, x30, [sp,#-48]!
/home/ursus/devel/optee/optee_os/lib/libutee/tee_api_objects.c:228
    142c:	2a0103e1 	mov	w1, w1
    1430:	2a0003e0 	mov	w0, w0
/home/ursus/devel/optee/optee_os/lib/libutee/tee_api_objects.c:224
    1434:	910003fd 	mov	x29, sp
    1438:	a90153f3 	stp	x19, x20, [sp,#16]
    143c:	aa0203f4 	mov	x20, x2
/home/ursus/devel/optee/optee_os/lib/libutee/tee_api_objects.c:228
    1440:	9100b3a2 	add	x2, x29, #0x2c
    1444:	94001172 	bl	5a0c <utee_cryp_obj_alloc>
    1448:	2a0003f3 	mov	w19, w0
/home/ursus/devel/optee/optee_os/lib/libutee/tee_api_objects.c:230
    144c:	7100001f 	cmp	w0, #0x0
    1450:	129ffe60 	mov	w0, #0xffff000c            	// #-65524
    1454:	7a401264 	ccmp	w19, w0, #0x4, ne
    1458:	54000280 	b.eq	14a8 <TEE_AllocateTransientObject+0x80>
/home/ursus/devel/optee/optee_os/lib/libutee/tee_api_objects.c:231
    145c:	129ffea0 	mov	w0, #0xffff000a            	// #-65526
    1460:	6b00027f 	cmp	w19, w0
    1464:	540001a0 	b.eq	1498 <TEE_AllocateTransientObject+0x70>
/home/ursus/devel/optee/optee_os/lib/libutee/tee_api_objects.c:233
    1468:	2a1303e5 	mov	w5, w19
    146c:	b0000064 	adrp	x4, e000 <__func__.3633+0x30>
    1470:	91112884 	add	x4, x4, #0x44a
    1474:	52800023 	mov	w3, #0x1                   	// #1
    1478:	52800022 	mov	w2, #0x1                   	// #1
    147c:	52801d21 	mov	w1, #0xe9                  	// #233
    1480:	f0000040 	adrp	x0, c000 <mpa_set_str+0x4>
    1484:	9128e000 	add	x0, x0, #0xa38
    1488:	9102e000 	add	x0, x0, #0xb8
    148c:	94001d59 	bl	89f0 <trace_printf>
    1490:	2a1303e0 	mov	w0, w19
    1494:	9400104c 	bl	55c4 <__TEE_Panic>
/home/ursus/devel/optee/optee_os/lib/libutee/tee_api_objects.c:239
    1498:	2a1303e0 	mov	w0, w19
    149c:	a94153f3 	ldp	x19, x20, [sp,#16]
    14a0:	a8c37bfd 	ldp	x29, x30, [sp],#48
    14a4:	d65f03c0 	ret
/home/ursus/devel/optee/optee_os/lib/libutee/tee_api_objects.c:235
    14a8:	35ffff93 	cbnz	w19, 1498 <TEE_AllocateTransientObject+0x70>
/home/ursus/devel/optee/optee_os/lib/libutee/tee_api_objects.c:236
    14ac:	b9402fa0 	ldr	w0, [x29,#44]
    14b0:	f9000280 	str	x0, [x20]
/home/ursus/devel/optee/optee_os/lib/libutee/tee_api_objects.c:238
    14b4:	17fffff9 	b	1498 <TEE_AllocateTransientObject+0x70>

00000000000014b8 <TEE_FreeTransientObject>:
TEE_FreeTransientObject():
/home/ursus/devel/optee/optee_os/lib/libutee/tee_api_objects.c:246
    14b8:	b40006c0 	cbz	x0, 1590 <TEE_FreeTransientObject+0xd8>
/home/ursus/devel/optee/optee_os/lib/libutee/tee_api_objects.c:242
    14bc:	a9bc7bfd 	stp	x29, x30, [sp,#-64]!
    14c0:	910003fd 	mov	x29, sp
    14c4:	a90153f3 	stp	x19, x20, [sp,#16]
/home/ursus/devel/optee/optee_os/lib/libutee/tee_api_objects.c:249
    14c8:	910083a1 	add	x1, x29, #0x20
    14cc:	aa0003f3 	mov	x19, x0
    14d0:	94001146 	bl	59e8 <utee_cryp_obj_get_info>
    14d4:	2a0003f4 	mov	w20, w0
/home/ursus/devel/optee/optee_os/lib/libutee/tee_api_objects.c:250
    14d8:	340001a0 	cbz	w0, 150c <TEE_FreeTransientObject+0x54>
/home/ursus/devel/optee/optee_os/lib/libutee/tee_api_objects.c:251
    14dc:	2a0003e5 	mov	w5, w0
    14e0:	b0000064 	adrp	x4, e000 <__func__.3633+0x30>
    14e4:	91112884 	add	x4, x4, #0x44a
    14e8:	52800023 	mov	w3, #0x1                   	// #1
    14ec:	52800022 	mov	w2, #0x1                   	// #1
    14f0:	52801f61 	mov	w1, #0xfb                  	// #251
    14f4:	f0000040 	adrp	x0, c000 <mpa_set_str+0x4>
    14f8:	9128e000 	add	x0, x0, #0xa38
    14fc:	91036000 	add	x0, x0, #0xd8
    1500:	94001d3c 	bl	89f0 <trace_printf>
    1504:	2a1403e0 	mov	w0, w20
    1508:	9400102f 	bl	55c4 <__TEE_Panic>
/home/ursus/devel/optee/optee_os/lib/libutee/tee_api_objects.c:253
    150c:	b9403ba0 	ldr	w0, [x29,#56]
    1510:	368001a0 	tbz	w0, #16, 1544 <TEE_FreeTransientObject+0x8c>
/home/ursus/devel/optee/optee_os/lib/libutee/tee_api_objects.c:254
    1514:	b0000064 	adrp	x4, e000 <__func__.3633+0x30>
    1518:	91112884 	add	x4, x4, #0x44a
    151c:	52800005 	mov	w5, #0x0                   	// #0
    1520:	52800023 	mov	w3, #0x1                   	// #1
    1524:	52800022 	mov	w2, #0x1                   	// #1
    1528:	52801fc1 	mov	w1, #0xfe                  	// #254
    152c:	f0000040 	adrp	x0, c000 <mpa_set_str+0x4>
    1530:	9128e000 	add	x0, x0, #0xa38
    1534:	91036000 	add	x0, x0, #0xd8
    1538:	94001d2e 	bl	89f0 <trace_printf>
    153c:	52800000 	mov	w0, #0x0                   	// #0
    1540:	94001021 	bl	55c4 <__TEE_Panic>
/home/ursus/devel/optee/optee_os/lib/libutee/tee_api_objects.c:256
    1544:	aa1303e0 	mov	x0, x19
    1548:	94001134 	bl	5a18 <utee_cryp_obj_close>
    154c:	2a0003f3 	mov	w19, w0
/home/ursus/devel/optee/optee_os/lib/libutee/tee_api_objects.c:257
    1550:	340001a0 	cbz	w0, 1584 <TEE_FreeTransientObject+0xcc>
/home/ursus/devel/optee/optee_os/lib/libutee/tee_api_objects.c:258
    1554:	2a0003e5 	mov	w5, w0
    1558:	b0000064 	adrp	x4, e000 <__func__.3633+0x30>
    155c:	91112884 	add	x4, x4, #0x44a
    1560:	52800023 	mov	w3, #0x1                   	// #1
    1564:	52800022 	mov	w2, #0x1                   	// #1
    1568:	52802041 	mov	w1, #0x102                 	// #258
    156c:	f0000040 	adrp	x0, c000 <mpa_set_str+0x4>
    1570:	9128e000 	add	x0, x0, #0xa38
    1574:	91036000 	add	x0, x0, #0xd8
    1578:	94001d1e 	bl	89f0 <trace_printf>
    157c:	2a1303e0 	mov	w0, w19
    1580:	94001011 	bl	55c4 <__TEE_Panic>
/home/ursus/devel/optee/optee_os/lib/libutee/tee_api_objects.c:259
    1584:	a94153f3 	ldp	x19, x20, [sp,#16]
    1588:	a8c47bfd 	ldp	x29, x30, [sp],#64
    158c:	d65f03c0 	ret
    1590:	d65f03c0 	ret

0000000000001594 <TEE_ResetTransientObject>:
TEE_ResetTransientObject():
/home/ursus/devel/optee/optee_os/lib/libutee/tee_api_objects.c:266
    1594:	b40006c0 	cbz	x0, 166c <TEE_ResetTransientObject+0xd8>
/home/ursus/devel/optee/optee_os/lib/libutee/tee_api_objects.c:262
    1598:	a9bc7bfd 	stp	x29, x30, [sp,#-64]!
    159c:	910003fd 	mov	x29, sp
    15a0:	a90153f3 	stp	x19, x20, [sp,#16]
/home/ursus/devel/optee/optee_os/lib/libutee/tee_api_objects.c:269
    15a4:	910083a1 	add	x1, x29, #0x20
    15a8:	aa0003f3 	mov	x19, x0
    15ac:	9400110f 	bl	59e8 <utee_cryp_obj_get_info>
    15b0:	2a0003f4 	mov	w20, w0
/home/ursus/devel/optee/optee_os/lib/libutee/tee_api_objects.c:270
    15b4:	340001a0 	cbz	w0, 15e8 <TEE_ResetTransientObject+0x54>
/home/ursus/devel/optee/optee_os/lib/libutee/tee_api_objects.c:271
    15b8:	2a0003e5 	mov	w5, w0
    15bc:	b0000064 	adrp	x4, e000 <__func__.3633+0x30>
    15c0:	91112884 	add	x4, x4, #0x44a
    15c4:	52800023 	mov	w3, #0x1                   	// #1
    15c8:	52800022 	mov	w2, #0x1                   	// #1
    15cc:	528021e1 	mov	w1, #0x10f                 	// #271
    15d0:	f0000040 	adrp	x0, c000 <mpa_set_str+0x4>
    15d4:	9128e000 	add	x0, x0, #0xa38
    15d8:	9103c000 	add	x0, x0, #0xf0
    15dc:	94001d05 	bl	89f0 <trace_printf>
    15e0:	2a1403e0 	mov	w0, w20
    15e4:	94000ff8 	bl	55c4 <__TEE_Panic>
/home/ursus/devel/optee/optee_os/lib/libutee/tee_api_objects.c:273
    15e8:	b9403ba0 	ldr	w0, [x29,#56]
    15ec:	368001a0 	tbz	w0, #16, 1620 <TEE_ResetTransientObject+0x8c>
/home/ursus/devel/optee/optee_os/lib/libutee/tee_api_objects.c:274
    15f0:	b0000064 	adrp	x4, e000 <__func__.3633+0x30>
    15f4:	91112884 	add	x4, x4, #0x44a
    15f8:	52800005 	mov	w5, #0x0                   	// #0
    15fc:	52800023 	mov	w3, #0x1                   	// #1
    1600:	52800022 	mov	w2, #0x1                   	// #1
    1604:	52802241 	mov	w1, #0x112                 	// #274
    1608:	f0000040 	adrp	x0, c000 <mpa_set_str+0x4>
    160c:	9128e000 	add	x0, x0, #0xa38
    1610:	9103c000 	add	x0, x0, #0xf0
    1614:	94001cf7 	bl	89f0 <trace_printf>
    1618:	52800000 	mov	w0, #0x0                   	// #0
    161c:	94000fea 	bl	55c4 <__TEE_Panic>
/home/ursus/devel/optee/optee_os/lib/libutee/tee_api_objects.c:276
    1620:	aa1303e0 	mov	x0, x19
    1624:	94001100 	bl	5a24 <utee_cryp_obj_reset>
    1628:	2a0003f3 	mov	w19, w0
/home/ursus/devel/optee/optee_os/lib/libutee/tee_api_objects.c:277
    162c:	340001a0 	cbz	w0, 1660 <TEE_ResetTransientObject+0xcc>
/home/ursus/devel/optee/optee_os/lib/libutee/tee_api_objects.c:278
    1630:	2a0003e5 	mov	w5, w0
    1634:	b0000064 	adrp	x4, e000 <__func__.3633+0x30>
    1638:	91112884 	add	x4, x4, #0x44a
    163c:	52800023 	mov	w3, #0x1                   	// #1
    1640:	52800022 	mov	w2, #0x1                   	// #1
    1644:	528022c1 	mov	w1, #0x116                 	// #278
    1648:	f0000040 	adrp	x0, c000 <mpa_set_str+0x4>
    164c:	9128e000 	add	x0, x0, #0xa38
    1650:	9103c000 	add	x0, x0, #0xf0
    1654:	94001ce7 	bl	89f0 <trace_printf>
    1658:	2a1303e0 	mov	w0, w19
    165c:	94000fda 	bl	55c4 <__TEE_Panic>
/home/ursus/devel/optee/optee_os/lib/libutee/tee_api_objects.c:279
    1660:	a94153f3 	ldp	x19, x20, [sp,#16]
    1664:	a8c47bfd 	ldp	x29, x30, [sp],#64
    1668:	d65f03c0 	ret
    166c:	d65f03c0 	ret

0000000000001670 <TEE_PopulateTransientObject>:
TEE_PopulateTransientObject():
/home/ursus/devel/optee/optee_os/lib/libutee/tee_api_objects.c:284
    1670:	a9ba7bfd 	stp	x29, x30, [sp,#-96]!
    1674:	910003fd 	mov	x29, sp
    1678:	a9025bf5 	stp	x21, x22, [sp,#32]
    167c:	2a0203f5 	mov	w21, w2
    1680:	aa0103f6 	mov	x22, x1
/home/ursus/devel/optee/optee_os/lib/libutee/tee_api_objects.c:287
    1684:	52800301 	mov	w1, #0x18                  	// #24
/home/ursus/devel/optee/optee_os/lib/libutee/tee_api_objects.c:284
    1688:	a90153f3 	stp	x19, x20, [sp,#16]
    168c:	aa0003f4 	mov	x20, x0
/home/ursus/devel/optee/optee_os/lib/libutee/tee_api_objects.c:287
    1690:	9ba17ea1 	umull	x1, w21, w1
/home/ursus/devel/optee/optee_os/lib/libutee/tee_api_objects.c:284
    1694:	a90363f7 	stp	x23, x24, [sp,#48]
    1698:	aa1503f3 	mov	x19, x21
/home/ursus/devel/optee/optee_os/lib/libutee/tee_api_objects.c:287
    169c:	91005821 	add	x1, x1, #0x16
    16a0:	927c8421 	and	x1, x1, #0x3ffffffff0
    16a4:	cb2163ff 	sub	sp, sp, x1
/home/ursus/devel/optee/optee_os/lib/libutee/tee_api_objects.c:289
    16a8:	910103a1 	add	x1, x29, #0x40
/home/ursus/devel/optee/optee_os/lib/libutee/tee_api_objects.c:287
    16ac:	910003f8 	mov	x24, sp
/home/ursus/devel/optee/optee_os/lib/libutee/tee_api_objects.c:289
    16b0:	940010ce 	bl	59e8 <utee_cryp_obj_get_info>
/home/ursus/devel/optee/optee_os/lib/libutee/tee_api_objects.c:290
    16b4:	340001c0 	cbz	w0, 16ec <TEE_PopulateTransientObject+0x7c>
/home/ursus/devel/optee/optee_os/lib/libutee/tee_api_objects.c:291
    16b8:	2a0003e5 	mov	w5, w0
    16bc:	b0000064 	adrp	x4, e000 <__func__.3633+0x30>
    16c0:	91112884 	add	x4, x4, #0x44a
    16c4:	2a0003f7 	mov	w23, w0
    16c8:	52800023 	mov	w3, #0x1                   	// #1
    16cc:	52800022 	mov	w2, #0x1                   	// #1
    16d0:	52802461 	mov	w1, #0x123                 	// #291
    16d4:	f0000040 	adrp	x0, c000 <mpa_set_str+0x4>
    16d8:	9128e000 	add	x0, x0, #0xa38
    16dc:	91044000 	add	x0, x0, #0x110
    16e0:	94001cc4 	bl	89f0 <trace_printf>
    16e4:	2a1703e0 	mov	w0, w23
    16e8:	94000fb7 	bl	55c4 <__TEE_Panic>
/home/ursus/devel/optee/optee_os/lib/libutee/tee_api_objects.c:294
    16ec:	b9405ba0 	ldr	w0, [x29,#88]
    16f0:	368001a0 	tbz	w0, #16, 1724 <TEE_PopulateTransientObject+0xb4>
/home/ursus/devel/optee/optee_os/lib/libutee/tee_api_objects.c:295
    16f4:	b0000064 	adrp	x4, e000 <__func__.3633+0x30>
    16f8:	91112884 	add	x4, x4, #0x44a
    16fc:	52800005 	mov	w5, #0x0                   	// #0
    1700:	52800023 	mov	w3, #0x1                   	// #1
    1704:	52800022 	mov	w2, #0x1                   	// #1
    1708:	528024e1 	mov	w1, #0x127                 	// #295
    170c:	f0000040 	adrp	x0, c000 <mpa_set_str+0x4>
    1710:	9128e000 	add	x0, x0, #0xa38
    1714:	91044000 	add	x0, x0, #0x110
    1718:	94001cb6 	bl	89f0 <trace_printf>
    171c:	52800000 	mov	w0, #0x0                   	// #0
    1720:	94000fa9 	bl	55c4 <__TEE_Panic>
/home/ursus/devel/optee/optee_os/lib/libutee/tee_api_objects.c:298
    1724:	b9405ba0 	ldr	w0, [x29,#88]
    1728:	368801a0 	tbz	w0, #17, 175c <TEE_PopulateTransientObject+0xec>
/home/ursus/devel/optee/optee_os/lib/libutee/tee_api_objects.c:299
    172c:	b0000064 	adrp	x4, e000 <__func__.3633+0x30>
    1730:	91112884 	add	x4, x4, #0x44a
    1734:	52800005 	mov	w5, #0x0                   	// #0
    1738:	52800023 	mov	w3, #0x1                   	// #1
    173c:	52800022 	mov	w2, #0x1                   	// #1
    1740:	52802561 	mov	w1, #0x12b                 	// #299
    1744:	f0000040 	adrp	x0, c000 <mpa_set_str+0x4>
    1748:	9128e000 	add	x0, x0, #0xa38
    174c:	91044000 	add	x0, x0, #0x110
    1750:	94001ca8 	bl	89f0 <trace_printf>
    1754:	52800000 	mov	w0, #0x0                   	// #0
    1758:	94000f9b 	bl	55c4 <__TEE_Panic>
/home/ursus/devel/optee/optee_os/lib/libutee/tee_api_objects.c:301
    175c:	2a1303e2 	mov	w2, w19
    1760:	aa1603e1 	mov	x1, x22
    1764:	aa1803e0 	mov	x0, x24
    1768:	97fffe13 	bl	fb4 <__utee_from_attr>
/home/ursus/devel/optee/optee_os/lib/libutee/tee_api_objects.c:302
    176c:	aa1503e2 	mov	x2, x21
    1770:	aa1803e1 	mov	x1, x24
    1774:	aa1403e0 	mov	x0, x20
    1778:	940010ae 	bl	5a30 <utee_cryp_obj_populate>
    177c:	2a0003f3 	mov	w19, w0
/home/ursus/devel/optee/optee_os/lib/libutee/tee_api_objects.c:303
    1780:	7100001f 	cmp	w0, #0x0
    1784:	129fff20 	mov	w0, #0xffff0006            	// #-65530
    1788:	7a401264 	ccmp	w19, w0, #0x4, ne
    178c:	540001a0 	b.eq	17c0 <TEE_PopulateTransientObject+0x150>
/home/ursus/devel/optee/optee_os/lib/libutee/tee_api_objects.c:304
    1790:	2a1303e5 	mov	w5, w19
    1794:	b0000064 	adrp	x4, e000 <__func__.3633+0x30>
    1798:	91112884 	add	x4, x4, #0x44a
    179c:	52800023 	mov	w3, #0x1                   	// #1
    17a0:	52800022 	mov	w2, #0x1                   	// #1
    17a4:	52802601 	mov	w1, #0x130                 	// #304
    17a8:	f0000040 	adrp	x0, c000 <mpa_set_str+0x4>
    17ac:	9128e000 	add	x0, x0, #0xa38
    17b0:	91044000 	add	x0, x0, #0x110
    17b4:	94001c8f 	bl	89f0 <trace_printf>
    17b8:	2a1303e0 	mov	w0, w19
    17bc:	94000f82 	bl	55c4 <__TEE_Panic>
/home/ursus/devel/optee/optee_os/lib/libutee/tee_api_objects.c:306
    17c0:	910003bf 	mov	sp, x29
    17c4:	2a1303e0 	mov	w0, w19
    17c8:	a94153f3 	ldp	x19, x20, [sp,#16]
    17cc:	a9425bf5 	ldp	x21, x22, [sp,#32]
    17d0:	a94363f7 	ldp	x23, x24, [sp,#48]
    17d4:	a8c67bfd 	ldp	x29, x30, [sp],#96
    17d8:	d65f03c0 	ret

00000000000017dc <TEE_InitRefAttribute>:
TEE_InitRefAttribute():
/home/ursus/devel/optee/optee_os/lib/libutee/tee_api_objects.c:310
    17dc:	a9bd7bfd 	stp	x29, x30, [sp,#-48]!
    17e0:	910003fd 	mov	x29, sp
    17e4:	a90153f3 	stp	x19, x20, [sp,#16]
    17e8:	aa0003f3 	mov	x19, x0
    17ec:	a9025bf5 	stp	x21, x22, [sp,#32]
    17f0:	2a0103f4 	mov	w20, w1
    17f4:	aa0203f6 	mov	x22, x2
    17f8:	2a0303f5 	mov	w21, w3
/home/ursus/devel/optee/optee_os/lib/libutee/tee_api_objects.c:311
    17fc:	b50001a0 	cbnz	x0, 1830 <TEE_InitRefAttribute+0x54>
/home/ursus/devel/optee/optee_os/lib/libutee/tee_api_objects.c:312
    1800:	b0000064 	adrp	x4, e000 <__func__.3633+0x30>
    1804:	91112884 	add	x4, x4, #0x44a
    1808:	52800005 	mov	w5, #0x0                   	// #0
    180c:	52800023 	mov	w3, #0x1                   	// #1
    1810:	52800022 	mov	w2, #0x1                   	// #1
    1814:	52802701 	mov	w1, #0x138                 	// #312
    1818:	f0000040 	adrp	x0, c000 <mpa_set_str+0x4>
    181c:	9128e000 	add	x0, x0, #0xa38
    1820:	9104c000 	add	x0, x0, #0x130
    1824:	94001c73 	bl	89f0 <trace_printf>
    1828:	52800000 	mov	w0, #0x0                   	// #0
    182c:	94000f66 	bl	55c4 <__TEE_Panic>
/home/ursus/devel/optee/optee_os/lib/libutee/tee_api_objects.c:313
    1830:	36e801b4 	tbz	w20, #29, 1864 <TEE_InitRefAttribute+0x88>
/home/ursus/devel/optee/optee_os/lib/libutee/tee_api_objects.c:314
    1834:	b0000064 	adrp	x4, e000 <__func__.3633+0x30>
    1838:	91112884 	add	x4, x4, #0x44a
    183c:	52800005 	mov	w5, #0x0                   	// #0
    1840:	52800023 	mov	w3, #0x1                   	// #1
    1844:	52800022 	mov	w2, #0x1                   	// #1
    1848:	52802741 	mov	w1, #0x13a                 	// #314
    184c:	f0000040 	adrp	x0, c000 <mpa_set_str+0x4>
    1850:	9128e000 	add	x0, x0, #0xa38
    1854:	9104c000 	add	x0, x0, #0x130
    1858:	94001c66 	bl	89f0 <trace_printf>
    185c:	52800000 	mov	w0, #0x0                   	// #0
    1860:	94000f59 	bl	55c4 <__TEE_Panic>
/home/ursus/devel/optee/optee_os/lib/libutee/tee_api_objects.c:316
    1864:	f9000676 	str	x22, [x19,#8]
/home/ursus/devel/optee/optee_os/lib/libutee/tee_api_objects.c:317
    1868:	b9001275 	str	w21, [x19,#16]
/home/ursus/devel/optee/optee_os/lib/libutee/tee_api_objects.c:315
    186c:	b9000274 	str	w20, [x19]
/home/ursus/devel/optee/optee_os/lib/libutee/tee_api_objects.c:318
    1870:	a9425bf5 	ldp	x21, x22, [sp,#32]
    1874:	a94153f3 	ldp	x19, x20, [sp,#16]
    1878:	a8c37bfd 	ldp	x29, x30, [sp],#48
    187c:	d65f03c0 	ret

0000000000001880 <TEE_InitValueAttribute>:
TEE_InitValueAttribute():
/home/ursus/devel/optee/optee_os/lib/libutee/tee_api_objects.c:322
    1880:	a9bd7bfd 	stp	x29, x30, [sp,#-48]!
    1884:	910003fd 	mov	x29, sp
    1888:	a90153f3 	stp	x19, x20, [sp,#16]
    188c:	aa0003f3 	mov	x19, x0
    1890:	a9025bf5 	stp	x21, x22, [sp,#32]
    1894:	2a0103f4 	mov	w20, w1
    1898:	2a0203f6 	mov	w22, w2
    189c:	2a0303f5 	mov	w21, w3
/home/ursus/devel/optee/optee_os/lib/libutee/tee_api_objects.c:323
    18a0:	b50001a0 	cbnz	x0, 18d4 <TEE_InitValueAttribute+0x54>
/home/ursus/devel/optee/optee_os/lib/libutee/tee_api_objects.c:324
    18a4:	b0000064 	adrp	x4, e000 <__func__.3633+0x30>
    18a8:	91112884 	add	x4, x4, #0x44a
    18ac:	52800005 	mov	w5, #0x0                   	// #0
    18b0:	52800023 	mov	w3, #0x1                   	// #1
    18b4:	52800022 	mov	w2, #0x1                   	// #1
    18b8:	52802881 	mov	w1, #0x144                 	// #324
    18bc:	f0000040 	adrp	x0, c000 <mpa_set_str+0x4>
    18c0:	9128e000 	add	x0, x0, #0xa38
    18c4:	91052000 	add	x0, x0, #0x148
    18c8:	94001c4a 	bl	89f0 <trace_printf>
    18cc:	52800000 	mov	w0, #0x0                   	// #0
    18d0:	94000f3d 	bl	55c4 <__TEE_Panic>
/home/ursus/devel/optee/optee_os/lib/libutee/tee_api_objects.c:325
    18d4:	37e801b4 	tbnz	w20, #29, 1908 <TEE_InitValueAttribute+0x88>
/home/ursus/devel/optee/optee_os/lib/libutee/tee_api_objects.c:326
    18d8:	b0000064 	adrp	x4, e000 <__func__.3633+0x30>
    18dc:	91112884 	add	x4, x4, #0x44a
    18e0:	52800005 	mov	w5, #0x0                   	// #0
    18e4:	52800023 	mov	w3, #0x1                   	// #1
    18e8:	52800022 	mov	w2, #0x1                   	// #1
    18ec:	528028c1 	mov	w1, #0x146                 	// #326
    18f0:	f0000040 	adrp	x0, c000 <mpa_set_str+0x4>
    18f4:	9128e000 	add	x0, x0, #0xa38
    18f8:	91052000 	add	x0, x0, #0x148
    18fc:	94001c3d 	bl	89f0 <trace_printf>
    1900:	52800000 	mov	w0, #0x0                   	// #0
    1904:	94000f30 	bl	55c4 <__TEE_Panic>
/home/ursus/devel/optee/optee_os/lib/libutee/tee_api_objects.c:329
    1908:	29015676 	stp	w22, w21, [x19,#8]
/home/ursus/devel/optee/optee_os/lib/libutee/tee_api_objects.c:327
    190c:	b9000274 	str	w20, [x19]
/home/ursus/devel/optee/optee_os/lib/libutee/tee_api_objects.c:330
    1910:	a9425bf5 	ldp	x21, x22, [sp,#32]
    1914:	a94153f3 	ldp	x19, x20, [sp,#16]
    1918:	a8c37bfd 	ldp	x29, x30, [sp],#48
    191c:	d65f03c0 	ret

0000000000001920 <TEE_CopyObjectAttributes1>:
TEE_CopyObjectAttributes1():
/home/ursus/devel/optee/optee_os/lib/libutee/tee_api_objects.c:355
    1920:	a9b97bfd 	stp	x29, x30, [sp,#-112]!
    1924:	910003fd 	mov	x29, sp
    1928:	a90153f3 	stp	x19, x20, [sp,#16]
    192c:	aa0103f4 	mov	x20, x1
    1930:	f90013f5 	str	x21, [sp,#32]
/home/ursus/devel/optee/optee_os/lib/libutee/tee_api_objects.c:360
    1934:	9100c3a1 	add	x1, x29, #0x30
/home/ursus/devel/optee/optee_os/lib/libutee/tee_api_objects.c:355
    1938:	aa0003f5 	mov	x21, x0
/home/ursus/devel/optee/optee_os/lib/libutee/tee_api_objects.c:360
    193c:	9400102b 	bl	59e8 <utee_cryp_obj_get_info>
    1940:	2a0003f3 	mov	w19, w0
/home/ursus/devel/optee/optee_os/lib/libutee/tee_api_objects.c:361
    1944:	35000680 	cbnz	w0, 1a14 <TEE_CopyObjectAttributes1+0xf4>
/home/ursus/devel/optee/optee_os/lib/libutee/tee_api_objects.c:364
    1948:	910143a1 	add	x1, x29, #0x50
    194c:	aa1403e0 	mov	x0, x20
    1950:	94001026 	bl	59e8 <utee_cryp_obj_get_info>
    1954:	2a0003f3 	mov	w19, w0
/home/ursus/devel/optee/optee_os/lib/libutee/tee_api_objects.c:365
    1958:	350005e0 	cbnz	w0, 1a14 <TEE_CopyObjectAttributes1+0xf4>
/home/ursus/devel/optee/optee_os/lib/libutee/tee_api_objects.c:368
    195c:	b9406ba0 	ldr	w0, [x29,#104]
    1960:	378801a0 	tbnz	w0, #17, 1994 <TEE_CopyObjectAttributes1+0x74>
/home/ursus/devel/optee/optee_os/lib/libutee/tee_api_objects.c:369
    1964:	b0000064 	adrp	x4, e000 <__func__.3633+0x30>
    1968:	91112884 	add	x4, x4, #0x44a
    196c:	52800005 	mov	w5, #0x0                   	// #0
    1970:	52800023 	mov	w3, #0x1                   	// #1
    1974:	52800022 	mov	w2, #0x1                   	// #1
    1978:	52802e21 	mov	w1, #0x171                 	// #369
    197c:	f0000040 	adrp	x0, c000 <mpa_set_str+0x4>
    1980:	9128e000 	add	x0, x0, #0xa38
    1984:	91058000 	add	x0, x0, #0x160
    1988:	94001c1a 	bl	89f0 <trace_printf>
    198c:	52800000 	mov	w0, #0x0                   	// #0
    1990:	94000f0d 	bl	55c4 <__TEE_Panic>
/home/ursus/devel/optee/optee_os/lib/libutee/tee_api_objects.c:371
    1994:	b9404ba0 	ldr	w0, [x29,#72]
    1998:	368001a0 	tbz	w0, #16, 19cc <TEE_CopyObjectAttributes1+0xac>
/home/ursus/devel/optee/optee_os/lib/libutee/tee_api_objects.c:372
    199c:	b0000064 	adrp	x4, e000 <__func__.3633+0x30>
    19a0:	91112884 	add	x4, x4, #0x44a
    19a4:	52800005 	mov	w5, #0x0                   	// #0
    19a8:	52800023 	mov	w3, #0x1                   	// #1
    19ac:	52800022 	mov	w2, #0x1                   	// #1
    19b0:	52802e81 	mov	w1, #0x174                 	// #372
    19b4:	f0000040 	adrp	x0, c000 <mpa_set_str+0x4>
    19b8:	9128e000 	add	x0, x0, #0xa38
    19bc:	91058000 	add	x0, x0, #0x160
    19c0:	94001c0c 	bl	89f0 <trace_printf>
    19c4:	52800000 	mov	w0, #0x0                   	// #0
    19c8:	94000eff 	bl	55c4 <__TEE_Panic>
/home/ursus/devel/optee/optee_os/lib/libutee/tee_api_objects.c:374
    19cc:	b9404ba0 	ldr	w0, [x29,#72]
    19d0:	368801a0 	tbz	w0, #17, 1a04 <TEE_CopyObjectAttributes1+0xe4>
/home/ursus/devel/optee/optee_os/lib/libutee/tee_api_objects.c:375
    19d4:	b0000064 	adrp	x4, e000 <__func__.3633+0x30>
    19d8:	91112884 	add	x4, x4, #0x44a
    19dc:	52800005 	mov	w5, #0x0                   	// #0
    19e0:	52800023 	mov	w3, #0x1                   	// #1
    19e4:	52800022 	mov	w2, #0x1                   	// #1
    19e8:	52802ee1 	mov	w1, #0x177                 	// #375
    19ec:	f0000040 	adrp	x0, c000 <mpa_set_str+0x4>
    19f0:	9128e000 	add	x0, x0, #0xa38
    19f4:	91058000 	add	x0, x0, #0x160
    19f8:	94001bfe 	bl	89f0 <trace_printf>
    19fc:	52800000 	mov	w0, #0x0                   	// #0
    1a00:	94000ef1 	bl	55c4 <__TEE_Panic>
/home/ursus/devel/optee/optee_os/lib/libutee/tee_api_objects.c:377
    1a04:	aa1403e1 	mov	x1, x20
    1a08:	aa1503e0 	mov	x0, x21
    1a0c:	9400100c 	bl	5a3c <utee_cryp_obj_copy>
    1a10:	2a0003f3 	mov	w19, w0
/home/ursus/devel/optee/optee_os/lib/libutee/tee_api_objects.c:382
    1a14:	121e7a60 	and	w0, w19, #0xfffffffd
    1a18:	7100027f 	cmp	w19, #0x0
    1a1c:	52800021 	mov	w1, #0x1                   	// #1
    1a20:	72be0201 	movk	w1, #0xf010, lsl #16
    1a24:	7a411004 	ccmp	w0, w1, #0x4, ne
    1a28:	540001a0 	b.eq	1a5c <TEE_CopyObjectAttributes1+0x13c>
/home/ursus/devel/optee/optee_os/lib/libutee/tee_api_objects.c:384
    1a2c:	2a1303e5 	mov	w5, w19
    1a30:	b0000064 	adrp	x4, e000 <__func__.3633+0x30>
    1a34:	91112884 	add	x4, x4, #0x44a
    1a38:	52800023 	mov	w3, #0x1                   	// #1
    1a3c:	52800022 	mov	w2, #0x1                   	// #1
    1a40:	52803001 	mov	w1, #0x180                 	// #384
    1a44:	f0000040 	adrp	x0, c000 <mpa_set_str+0x4>
    1a48:	9128e000 	add	x0, x0, #0xa38
    1a4c:	91058000 	add	x0, x0, #0x160
    1a50:	94001be8 	bl	89f0 <trace_printf>
    1a54:	2a1303e0 	mov	w0, w19
    1a58:	94000edb 	bl	55c4 <__TEE_Panic>
/home/ursus/devel/optee/optee_os/lib/libutee/tee_api_objects.c:387
    1a5c:	2a1303e0 	mov	w0, w19
    1a60:	f94013f5 	ldr	x21, [sp,#32]
    1a64:	a94153f3 	ldp	x19, x20, [sp,#16]
    1a68:	a8c77bfd 	ldp	x29, x30, [sp],#112
    1a6c:	d65f03c0 	ret

0000000000001a70 <TEE_CopyObjectAttributes>:
TEE_CopyObjectAttributes():
/home/ursus/devel/optee/optee_os/lib/libutee/tee_api_objects.c:340
    1a70:	a9bc7bfd 	stp	x29, x30, [sp,#-64]!
    1a74:	910003fd 	mov	x29, sp
    1a78:	a90153f3 	stp	x19, x20, [sp,#16]
    1a7c:	aa0103f3 	mov	x19, x1
    1a80:	aa0003f4 	mov	x20, x0
/home/ursus/devel/optee/optee_os/lib/libutee/tee_api_objects.c:344
    1a84:	910083a1 	add	x1, x29, #0x20
    1a88:	aa1303e0 	mov	x0, x19
    1a8c:	94000fd7 	bl	59e8 <utee_cryp_obj_get_info>
/home/ursus/devel/optee/optee_os/lib/libutee/tee_api_objects.c:345
    1a90:	b94023a1 	ldr	w1, [x29,#32]
    1a94:	528017c0 	mov	w0, #0xbe                  	// #190
    1a98:	72b40000 	movk	w0, #0xa000, lsl #16
    1a9c:	6b00003f 	cmp	w1, w0
    1aa0:	54000240 	b.eq	1ae8 <TEE_CopyObjectAttributes+0x78>
/home/ursus/devel/optee/optee_os/lib/libutee/tee_api_objects.c:348
    1aa4:	aa1303e1 	mov	x1, x19
    1aa8:	aa1403e0 	mov	x0, x20
    1aac:	97ffff9d 	bl	1920 <TEE_CopyObjectAttributes1>
    1ab0:	2a0003f3 	mov	w19, w0
/home/ursus/devel/optee/optee_os/lib/libutee/tee_api_objects.c:349
    1ab4:	340001a0 	cbz	w0, 1ae8 <TEE_CopyObjectAttributes+0x78>
/home/ursus/devel/optee/optee_os/lib/libutee/tee_api_objects.c:350
    1ab8:	2a0003e5 	mov	w5, w0
    1abc:	b0000064 	adrp	x4, e000 <__func__.3633+0x30>
    1ac0:	91112884 	add	x4, x4, #0x44a
    1ac4:	52800023 	mov	w3, #0x1                   	// #1
    1ac8:	52800022 	mov	w2, #0x1                   	// #1
    1acc:	52802bc1 	mov	w1, #0x15e                 	// #350
    1ad0:	f0000040 	adrp	x0, c000 <mpa_set_str+0x4>
    1ad4:	9128e000 	add	x0, x0, #0xa38
    1ad8:	91060000 	add	x0, x0, #0x180
    1adc:	94001bc5 	bl	89f0 <trace_printf>
    1ae0:	2a1303e0 	mov	w0, w19
    1ae4:	94000eb8 	bl	55c4 <__TEE_Panic>
/home/ursus/devel/optee/optee_os/lib/libutee/tee_api_objects.c:351
    1ae8:	a94153f3 	ldp	x19, x20, [sp,#16]
    1aec:	a8c47bfd 	ldp	x29, x30, [sp],#64
    1af0:	d65f03c0 	ret

0000000000001af4 <TEE_GenerateKey>:
TEE_GenerateKey():
/home/ursus/devel/optee/optee_os/lib/libutee/tee_api_objects.c:391
    1af4:	a9bd7bfd 	stp	x29, x30, [sp,#-48]!
    1af8:	910003fd 	mov	x29, sp
    1afc:	a9025bf5 	stp	x21, x22, [sp,#32]
    1b00:	aa0003f5 	mov	x21, x0
/home/ursus/devel/optee/optee_os/lib/libutee/tee_api_objects.c:393
    1b04:	52800300 	mov	w0, #0x18                  	// #24
/home/ursus/devel/optee/optee_os/lib/libutee/tee_api_objects.c:391
    1b08:	a90153f3 	stp	x19, x20, [sp,#16]
    1b0c:	2a0103f6 	mov	w22, w1
    1b10:	2a0303f3 	mov	w19, w3
/home/ursus/devel/optee/optee_os/lib/libutee/tee_api_objects.c:393
    1b14:	9ba07c60 	umull	x0, w3, w0
/home/ursus/devel/optee/optee_os/lib/libutee/tee_api_objects.c:391
    1b18:	aa0203e1 	mov	x1, x2
/home/ursus/devel/optee/optee_os/lib/libutee/tee_api_objects.c:395
    1b1c:	2a0303e2 	mov	w2, w3
/home/ursus/devel/optee/optee_os/lib/libutee/tee_api_objects.c:393
    1b20:	91005800 	add	x0, x0, #0x16
    1b24:	927c8400 	and	x0, x0, #0x3ffffffff0
    1b28:	cb2063ff 	sub	sp, sp, x0
/home/ursus/devel/optee/optee_os/lib/libutee/tee_api_objects.c:395
    1b2c:	910003e0 	mov	x0, sp
    1b30:	97fffd21 	bl	fb4 <__utee_from_attr>
/home/ursus/devel/optee/optee_os/lib/libutee/tee_api_objects.c:396
    1b34:	2a1303e3 	mov	w3, w19
    1b38:	910003e2 	mov	x2, sp
    1b3c:	2a1603e1 	mov	w1, w22
    1b40:	aa1503e0 	mov	x0, x21
    1b44:	94001003 	bl	5b50 <utee_cryp_obj_generate_key>
    1b48:	2a0003f3 	mov	w19, w0
/home/ursus/devel/optee/optee_os/lib/libutee/tee_api_objects.c:399
    1b4c:	7100001f 	cmp	w0, #0x0
    1b50:	129fff20 	mov	w0, #0xffff0006            	// #-65530
    1b54:	7a401264 	ccmp	w19, w0, #0x4, ne
    1b58:	540001a0 	b.eq	1b8c <TEE_GenerateKey+0x98>
/home/ursus/devel/optee/optee_os/lib/libutee/tee_api_objects.c:400
    1b5c:	2a1303e5 	mov	w5, w19
    1b60:	b0000064 	adrp	x4, e000 <__func__.3633+0x30>
    1b64:	91112884 	add	x4, x4, #0x44a
    1b68:	52800023 	mov	w3, #0x1                   	// #1
    1b6c:	52800022 	mov	w2, #0x1                   	// #1
    1b70:	52803201 	mov	w1, #0x190                 	// #400
    1b74:	f0000040 	adrp	x0, c000 <mpa_set_str+0x4>
    1b78:	9128e000 	add	x0, x0, #0xa38
    1b7c:	91068000 	add	x0, x0, #0x1a0
    1b80:	94001b9c 	bl	89f0 <trace_printf>
    1b84:	2a1303e0 	mov	w0, w19
    1b88:	94000e8f 	bl	55c4 <__TEE_Panic>
/home/ursus/devel/optee/optee_os/lib/libutee/tee_api_objects.c:403
    1b8c:	910003bf 	mov	sp, x29
    1b90:	2a1303e0 	mov	w0, w19
    1b94:	a94153f3 	ldp	x19, x20, [sp,#16]
    1b98:	a9425bf5 	ldp	x21, x22, [sp,#32]
    1b9c:	a8c37bfd 	ldp	x29, x30, [sp],#48
    1ba0:	d65f03c0 	ret

0000000000001ba4 <TEE_OpenPersistentObject>:
TEE_OpenPersistentObject():
/home/ursus/devel/optee/optee_os/lib/libutee/tee_api_objects.c:410
    1ba4:	a9bd7bfd 	stp	x29, x30, [sp,#-48]!
    1ba8:	910003fd 	mov	x29, sp
    1bac:	a90153f3 	stp	x19, x20, [sp,#16]
/home/ursus/devel/optee/optee_os/lib/libutee/tee_api_objects.c:415
    1bb0:	129ffef3 	mov	w19, #0xffff0008            	// #-65528
/home/ursus/devel/optee/optee_os/lib/libutee/tee_api_objects.c:414
    1bb4:	b40001e1 	cbz	x1, 1bf0 <TEE_OpenPersistentObject+0x4c>
/home/ursus/devel/optee/optee_os/lib/libutee/tee_api_objects.c:424
    1bb8:	7101005f 	cmp	w2, #0x40
    1bbc:	aa0403f4 	mov	x20, x4
/home/ursus/devel/optee/optee_os/lib/libutee/tee_api_objects.c:425
    1bc0:	129fff33 	mov	w19, #0xffff0006            	// #-65530
/home/ursus/devel/optee/optee_os/lib/libutee/tee_api_objects.c:424
    1bc4:	fa409884 	ccmp	x4, #0x0, #0x4, ls
    1bc8:	54000140 	b.eq	1bf0 <TEE_OpenPersistentObject+0x4c>
/home/ursus/devel/optee/optee_os/lib/libutee/tee_api_objects.c:429
    1bcc:	9100b3a4 	add	x4, x29, #0x2c
    1bd0:	2a0303e3 	mov	w3, w3
    1bd4:	2a0203e2 	mov	w2, w2
    1bd8:	2a0003e0 	mov	w0, w0
    1bdc:	94000fb6 	bl	5ab4 <utee_storage_obj_open>
    1be0:	2a0003f3 	mov	w19, w0
/home/ursus/devel/optee/optee_os/lib/libutee/tee_api_objects.c:431
    1be4:	35000060 	cbnz	w0, 1bf0 <TEE_OpenPersistentObject+0x4c>
/home/ursus/devel/optee/optee_os/lib/libutee/tee_api_objects.c:432
    1be8:	b9402fa0 	ldr	w0, [x29,#44]
    1bec:	f9000280 	str	x0, [x20]
/home/ursus/devel/optee/optee_os/lib/libutee/tee_api_objects.c:436
    1bf0:	121d7a60 	and	w0, w19, #0xfffffffb
/home/ursus/devel/optee/optee_os/lib/libutee/tee_api_objects.c:435
    1bf4:	7100027f 	cmp	w19, #0x0
    1bf8:	129ffee1 	mov	w1, #0xffff0008            	// #-65528
    1bfc:	7a411004 	ccmp	w0, w1, #0x4, ne
    1c00:	540002a0 	b.eq	1c54 <TEE_OpenPersistentObject+0xb0>
/home/ursus/devel/optee/optee_os/lib/libutee/tee_api_objects.c:437
    1c04:	129fff80 	mov	w0, #0xffff0003            	// #-65533
    1c08:	6b00027f 	cmp	w19, w0
    1c0c:	54000240 	b.eq	1c54 <TEE_OpenPersistentObject+0xb0>
/home/ursus/devel/optee/optee_os/lib/libutee/tee_api_objects.c:439
    1c10:	121e7a61 	and	w1, w19, #0xfffffffd
    1c14:	52800020 	mov	w0, #0x1                   	// #1
    1c18:	72be0200 	movk	w0, #0xf010, lsl #16
    1c1c:	6b00003f 	cmp	w1, w0
    1c20:	540001a0 	b.eq	1c54 <TEE_OpenPersistentObject+0xb0>
/home/ursus/devel/optee/optee_os/lib/libutee/tee_api_objects.c:441
    1c24:	2a1303e5 	mov	w5, w19
    1c28:	b0000064 	adrp	x4, e000 <__func__.3633+0x30>
    1c2c:	91112884 	add	x4, x4, #0x44a
    1c30:	52800023 	mov	w3, #0x1                   	// #1
    1c34:	52800022 	mov	w2, #0x1                   	// #1
    1c38:	52803721 	mov	w1, #0x1b9                 	// #441
    1c3c:	f0000040 	adrp	x0, c000 <mpa_set_str+0x4>
    1c40:	9128e000 	add	x0, x0, #0xa38
    1c44:	9106c000 	add	x0, x0, #0x1b0
    1c48:	94001b6a 	bl	89f0 <trace_printf>
    1c4c:	2a1303e0 	mov	w0, w19
    1c50:	94000e5d 	bl	55c4 <__TEE_Panic>
/home/ursus/devel/optee/optee_os/lib/libutee/tee_api_objects.c:444
    1c54:	2a1303e0 	mov	w0, w19
    1c58:	a94153f3 	ldp	x19, x20, [sp,#16]
    1c5c:	a8c37bfd 	ldp	x29, x30, [sp],#48
    1c60:	d65f03c0 	ret

0000000000001c64 <TEE_CreatePersistentObject>:
TEE_CreatePersistentObject():
/home/ursus/devel/optee/optee_os/lib/libutee/tee_api_objects.c:452
    1c64:	a9bd7bfd 	stp	x29, x30, [sp,#-48]!
    1c68:	910003fd 	mov	x29, sp
    1c6c:	a90153f3 	stp	x19, x20, [sp,#16]
    1c70:	aa0703f4 	mov	x20, x7
/home/ursus/devel/optee/optee_os/lib/libutee/tee_api_objects.c:456
    1c74:	b40006a1 	cbz	x1, 1d48 <TEE_CreatePersistentObject+0xe4>
/home/ursus/devel/optee/optee_os/lib/libutee/tee_api_objects.c:461
    1c78:	7101005f 	cmp	w2, #0x40
    1c7c:	540006c8 	b.hi	1d54 <TEE_CreatePersistentObject+0xf0>
/home/ursus/devel/optee/optee_os/lib/libutee/tee_api_objects.c:466
    1c80:	9100b3a7 	add	x7, x29, #0x2c
    1c84:	2a0603e6 	mov	w6, w6
    1c88:	2a0303e3 	mov	w3, w3
    1c8c:	2a0203e2 	mov	w2, w2
    1c90:	2a0003e0 	mov	w0, w0
    1c94:	94000f8b 	bl	5ac0 <utee_storage_obj_create>
    1c98:	2a0003f3 	mov	w19, w0
/home/ursus/devel/optee/optee_os/lib/libutee/tee_api_objects.c:469
    1c9c:	35000500 	cbnz	w0, 1d3c <TEE_CreatePersistentObject+0xd8>
    1ca0:	b9402fa0 	ldr	w0, [x29,#44]
/home/ursus/devel/optee/optee_os/lib/libutee/tee_api_objects.c:470
    1ca4:	b40000d4 	cbz	x20, 1cbc <TEE_CreatePersistentObject+0x58>
/home/ursus/devel/optee/optee_os/lib/libutee/tee_api_objects.c:471
    1ca8:	f9000280 	str	x0, [x20]
/home/ursus/devel/optee/optee_os/lib/libutee/tee_api_objects.c:490
    1cac:	2a1303e0 	mov	w0, w19
    1cb0:	a94153f3 	ldp	x19, x20, [sp,#16]
    1cb4:	a8c37bfd 	ldp	x29, x30, [sp],#48
    1cb8:	d65f03c0 	ret
/home/ursus/devel/optee/optee_os/lib/libutee/tee_api_objects.c:473
    1cbc:	94000f57 	bl	5a18 <utee_cryp_obj_close>
    1cc0:	2a0003f3 	mov	w19, w0
/home/ursus/devel/optee/optee_os/lib/libutee/tee_api_objects.c:474
    1cc4:	34ffff40 	cbz	w0, 1cac <TEE_CreatePersistentObject+0x48>
/home/ursus/devel/optee/optee_os/lib/libutee/tee_api_objects.c:480
    1cc8:	129ffee0 	mov	w0, #0xffff0008            	// #-65528
    1ccc:	6b00027f 	cmp	w19, w0
    1cd0:	129fff80 	mov	w0, #0xffff0003            	// #-65533
    1cd4:	7a401264 	ccmp	w19, w0, #0x4, ne
    1cd8:	54fffea0 	b.eq	1cac <TEE_CreatePersistentObject+0x48>
/home/ursus/devel/optee/optee_os/lib/libutee/tee_api_objects.c:482
    1cdc:	129ffe60 	mov	w0, #0xffff000c            	// #-65524
    1ce0:	6b00027f 	cmp	w19, w0
    1ce4:	1299f7c0 	mov	w0, #0xffff3041            	// #-53183
    1ce8:	7a401264 	ccmp	w19, w0, #0x4, ne
    1cec:	54fffe00 	b.eq	1cac <TEE_CreatePersistentObject+0x48>
/home/ursus/devel/optee/optee_os/lib/libutee/tee_api_objects.c:484
    1cf0:	121e7a61 	and	w1, w19, #0xfffffffd
    1cf4:	52800020 	mov	w0, #0x1                   	// #1
    1cf8:	72be0200 	movk	w0, #0xf010, lsl #16
    1cfc:	6b00003f 	cmp	w1, w0
    1d00:	54fffd60 	b.eq	1cac <TEE_CreatePersistentObject+0x48>
/home/ursus/devel/optee/optee_os/lib/libutee/tee_api_objects.c:487
    1d04:	2a1303e5 	mov	w5, w19
    1d08:	b0000064 	adrp	x4, e000 <__func__.3633+0x30>
    1d0c:	91112884 	add	x4, x4, #0x44a
    1d10:	52800023 	mov	w3, #0x1                   	// #1
    1d14:	52800022 	mov	w2, #0x1                   	// #1
    1d18:	52803ce1 	mov	w1, #0x1e7                 	// #487
    1d1c:	f0000040 	adrp	x0, c000 <mpa_set_str+0x4>
    1d20:	9128e000 	add	x0, x0, #0xa38
    1d24:	91074000 	add	x0, x0, #0x1d0
    1d28:	94001b32 	bl	89f0 <trace_printf>
    1d2c:	2a1303e0 	mov	w0, w19
/home/ursus/devel/optee/optee_os/lib/libutee/tee_api_objects.c:489
    1d30:	52800013 	mov	w19, #0x0                   	// #0
/home/ursus/devel/optee/optee_os/lib/libutee/tee_api_objects.c:487
    1d34:	94000e24 	bl	55c4 <__TEE_Panic>
    1d38:	17ffffdd 	b	1cac <TEE_CreatePersistentObject+0x48>
/home/ursus/devel/optee/optee_os/lib/libutee/tee_api_objects.c:478
    1d3c:	b4fffc74 	cbz	x20, 1cc8 <TEE_CreatePersistentObject+0x64>
/home/ursus/devel/optee/optee_os/lib/libutee/tee_api_objects.c:479
    1d40:	f900029f 	str	xzr, [x20]
    1d44:	17ffffe1 	b	1cc8 <TEE_CreatePersistentObject+0x64>
/home/ursus/devel/optee/optee_os/lib/libutee/tee_api_objects.c:457
    1d48:	129ffef3 	mov	w19, #0xffff0008            	// #-65528
/home/ursus/devel/optee/optee_os/lib/libutee/tee_api_objects.c:478
    1d4c:	b5ffffa7 	cbnz	x7, 1d40 <TEE_CreatePersistentObject+0xdc>
    1d50:	17ffffd7 	b	1cac <TEE_CreatePersistentObject+0x48>
/home/ursus/devel/optee/optee_os/lib/libutee/tee_api_objects.c:462
    1d54:	129fff33 	mov	w19, #0xffff0006            	// #-65530
/home/ursus/devel/optee/optee_os/lib/libutee/tee_api_objects.c:478
    1d58:	b5ffff47 	cbnz	x7, 1d40 <TEE_CreatePersistentObject+0xdc>
    1d5c:	17ffffe0 	b	1cdc <TEE_CreatePersistentObject+0x78>

0000000000001d60 <TEE_CloseAndDeletePersistentObject1>:
TEE_CloseAndDeletePersistentObject1():
/home/ursus/devel/optee/optee_os/lib/libutee/tee_api_objects.c:512
    1d60:	a9be7bfd 	stp	x29, x30, [sp,#-32]!
    1d64:	910003fd 	mov	x29, sp
    1d68:	a90153f3 	stp	x19, x20, [sp,#16]
    1d6c:	52800074 	mov	w20, #0x3                   	// #3
    1d70:	72be0214 	movk	w20, #0xf010, lsl #16
/home/ursus/devel/optee/optee_os/lib/libutee/tee_api_objects.c:516
    1d74:	2a1403f3 	mov	w19, w20
/home/ursus/devel/optee/optee_os/lib/libutee/tee_api_objects.c:515
    1d78:	b4000240 	cbz	x0, 1dc0 <TEE_CloseAndDeletePersistentObject1+0x60>
/home/ursus/devel/optee/optee_os/lib/libutee/tee_api_objects.c:518
    1d7c:	94000f54 	bl	5acc <utee_storage_obj_del>
/home/ursus/devel/optee/optee_os/lib/libutee/tee_api_objects.c:520
    1d80:	7100001f 	cmp	w0, #0x0
/home/ursus/devel/optee/optee_os/lib/libutee/tee_api_objects.c:518
    1d84:	2a0003f3 	mov	w19, w0
/home/ursus/devel/optee/optee_os/lib/libutee/tee_api_objects.c:520
    1d88:	7a541004 	ccmp	w0, w20, #0x4, ne
    1d8c:	540001a0 	b.eq	1dc0 <TEE_CloseAndDeletePersistentObject1+0x60>
/home/ursus/devel/optee/optee_os/lib/libutee/tee_api_objects.c:521
    1d90:	2a0003e5 	mov	w5, w0
    1d94:	b0000064 	adrp	x4, e000 <__func__.3633+0x30>
    1d98:	91112884 	add	x4, x4, #0x44a
    1d9c:	52800023 	mov	w3, #0x1                   	// #1
    1da0:	52800022 	mov	w2, #0x1                   	// #1
    1da4:	52804121 	mov	w1, #0x209                 	// #521
    1da8:	f0000040 	adrp	x0, c000 <mpa_set_str+0x4>
    1dac:	9128e000 	add	x0, x0, #0xa38
    1db0:	9107c000 	add	x0, x0, #0x1f0
    1db4:	94001b0f 	bl	89f0 <trace_printf>
    1db8:	2a1303e0 	mov	w0, w19
    1dbc:	94000e02 	bl	55c4 <__TEE_Panic>
/home/ursus/devel/optee/optee_os/lib/libutee/tee_api_objects.c:524
    1dc0:	2a1303e0 	mov	w0, w19
    1dc4:	a94153f3 	ldp	x19, x20, [sp,#16]
    1dc8:	a8c27bfd 	ldp	x29, x30, [sp],#32
    1dcc:	d65f03c0 	ret

0000000000001dd0 <TEE_CloseAndDeletePersistentObject>:
TEE_CloseAndDeletePersistentObject():
/home/ursus/devel/optee/optee_os/lib/libutee/tee_api_objects.c:502
    1dd0:	b4000280 	cbz	x0, 1e20 <TEE_CloseAndDeletePersistentObject+0x50>
/home/ursus/devel/optee/optee_os/lib/libutee/tee_api_objects.c:499
    1dd4:	a9bf7bfd 	stp	x29, x30, [sp,#-16]!
    1dd8:	910003fd 	mov	x29, sp
/home/ursus/devel/optee/optee_os/lib/libutee/tee_api_objects.c:505
    1ddc:	97ffffe1 	bl	1d60 <TEE_CloseAndDeletePersistentObject1>
/home/ursus/devel/optee/optee_os/lib/libutee/tee_api_objects.c:507
    1de0:	340001c0 	cbz	w0, 1e18 <TEE_CloseAndDeletePersistentObject+0x48>
/home/ursus/devel/optee/optee_os/lib/libutee/tee_api_objects.c:508
    1de4:	f0000040 	adrp	x0, c000 <mpa_set_str+0x4>
    1de8:	9128e000 	add	x0, x0, #0xa38
    1dec:	52800005 	mov	w5, #0x0                   	// #0
    1df0:	52800023 	mov	w3, #0x1                   	// #1
    1df4:	52800022 	mov	w2, #0x1                   	// #1
    1df8:	52803f81 	mov	w1, #0x1fc                 	// #508
    1dfc:	91086000 	add	x0, x0, #0x218
    1e00:	b0000064 	adrp	x4, e000 <__func__.3633+0x30>
    1e04:	91112884 	add	x4, x4, #0x44a
    1e08:	94001afa 	bl	89f0 <trace_printf>
/home/ursus/devel/optee/optee_os/lib/libutee/tee_api_objects.c:509
    1e0c:	a8c17bfd 	ldp	x29, x30, [sp],#16
/home/ursus/devel/optee/optee_os/lib/libutee/tee_api_objects.c:508
    1e10:	52800000 	mov	w0, #0x0                   	// #0
    1e14:	14000dec 	b	55c4 <__TEE_Panic>
/home/ursus/devel/optee/optee_os/lib/libutee/tee_api_objects.c:509
    1e18:	a8c17bfd 	ldp	x29, x30, [sp],#16
    1e1c:	d65f03c0 	ret
    1e20:	d65f03c0 	ret

0000000000001e24 <TEE_RenamePersistentObject>:
TEE_RenamePersistentObject():
/home/ursus/devel/optee/optee_os/lib/libutee/tee_api_objects.c:530
    1e24:	a9be7bfd 	stp	x29, x30, [sp,#-32]!
    1e28:	910003fd 	mov	x29, sp
    1e2c:	f9000bf3 	str	x19, [sp,#16]
/home/ursus/devel/optee/optee_os/lib/libutee/tee_api_objects.c:534
    1e30:	129ffef3 	mov	w19, #0xffff0008            	// #-65528
/home/ursus/devel/optee/optee_os/lib/libutee/tee_api_objects.c:533
    1e34:	b4000100 	cbz	x0, 1e54 <TEE_RenamePersistentObject+0x30>
/home/ursus/devel/optee/optee_os/lib/libutee/tee_api_objects.c:543
    1e38:	7101005f 	cmp	w2, #0x40
/home/ursus/devel/optee/optee_os/lib/libutee/tee_api_objects.c:544
    1e3c:	129fff33 	mov	w19, #0xffff0006            	// #-65530
/home/ursus/devel/optee/optee_os/lib/libutee/tee_api_objects.c:543
    1e40:	fa409824 	ccmp	x1, #0x0, #0x4, ls
    1e44:	54000080 	b.eq	1e54 <TEE_RenamePersistentObject+0x30>
/home/ursus/devel/optee/optee_os/lib/libutee/tee_api_objects.c:548
    1e48:	2a0203e2 	mov	w2, w2
    1e4c:	94000f23 	bl	5ad8 <utee_storage_obj_rename>
    1e50:	2a0003f3 	mov	w19, w0
/home/ursus/devel/optee/optee_os/lib/libutee/tee_api_objects.c:552
    1e54:	7100027f 	cmp	w19, #0x0
    1e58:	129fff80 	mov	w0, #0xffff0003            	// #-65533
    1e5c:	7a401264 	ccmp	w19, w0, #0x4, ne
    1e60:	54000240 	b.eq	1ea8 <TEE_RenamePersistentObject+0x84>
/home/ursus/devel/optee/optee_os/lib/libutee/tee_api_objects.c:554
    1e64:	121e7a61 	and	w1, w19, #0xfffffffd
    1e68:	52800020 	mov	w0, #0x1                   	// #1
    1e6c:	72be0200 	movk	w0, #0xf010, lsl #16
    1e70:	6b00003f 	cmp	w1, w0
    1e74:	540001a0 	b.eq	1ea8 <TEE_RenamePersistentObject+0x84>
/home/ursus/devel/optee/optee_os/lib/libutee/tee_api_objects.c:556
    1e78:	2a1303e5 	mov	w5, w19
    1e7c:	b0000064 	adrp	x4, e000 <__func__.3633+0x30>
    1e80:	91112884 	add	x4, x4, #0x44a
    1e84:	52800023 	mov	w3, #0x1                   	// #1
    1e88:	52800022 	mov	w2, #0x1                   	// #1
    1e8c:	52804581 	mov	w1, #0x22c                 	// #556
    1e90:	f0000040 	adrp	x0, c000 <mpa_set_str+0x4>
    1e94:	9128e000 	add	x0, x0, #0xa38
    1e98:	91090000 	add	x0, x0, #0x240
    1e9c:	94001ad5 	bl	89f0 <trace_printf>
    1ea0:	2a1303e0 	mov	w0, w19
    1ea4:	94000dc8 	bl	55c4 <__TEE_Panic>
/home/ursus/devel/optee/optee_os/lib/libutee/tee_api_objects.c:559
    1ea8:	2a1303e0 	mov	w0, w19
    1eac:	f9400bf3 	ldr	x19, [sp,#16]
    1eb0:	a8c27bfd 	ldp	x29, x30, [sp],#32
    1eb4:	d65f03c0 	ret

0000000000001eb8 <TEE_AllocatePersistentObjectEnumerator>:
TEE_AllocatePersistentObjectEnumerator():
/home/ursus/devel/optee/optee_os/lib/libutee/tee_api_objects.c:563
    1eb8:	a9bd7bfd 	stp	x29, x30, [sp,#-48]!
    1ebc:	910003fd 	mov	x29, sp
    1ec0:	a90153f3 	stp	x19, x20, [sp,#16]
/home/ursus/devel/optee/optee_os/lib/libutee/tee_api_objects.c:568
    1ec4:	129fff33 	mov	w19, #0xffff0006            	// #-65530
/home/ursus/devel/optee/optee_os/lib/libutee/tee_api_objects.c:567
    1ec8:	b4000320 	cbz	x0, 1f2c <TEE_AllocatePersistentObjectEnumerator+0x74>
    1ecc:	aa0003f4 	mov	x20, x0
/home/ursus/devel/optee/optee_os/lib/libutee/tee_api_objects.c:570
    1ed0:	9100b3a0 	add	x0, x29, #0x2c
    1ed4:	94000f04 	bl	5ae4 <utee_storage_alloc_enum>
    1ed8:	2a0003f3 	mov	w19, w0
/home/ursus/devel/optee/optee_os/lib/libutee/tee_api_objects.c:572
    1edc:	34000040 	cbz	w0, 1ee4 <TEE_AllocatePersistentObjectEnumerator+0x2c>
/home/ursus/devel/optee/optee_os/lib/libutee/tee_api_objects.c:573
    1ee0:	b9002fbf 	str	wzr, [x29,#44]
/home/ursus/devel/optee/optee_os/lib/libutee/tee_api_objects.c:575
    1ee4:	b9402fa0 	ldr	w0, [x29,#44]
/home/ursus/devel/optee/optee_os/lib/libutee/tee_api_objects.c:577
    1ee8:	7100027f 	cmp	w19, #0x0
/home/ursus/devel/optee/optee_os/lib/libutee/tee_api_objects.c:575
    1eec:	f9000280 	str	x0, [x20]
/home/ursus/devel/optee/optee_os/lib/libutee/tee_api_objects.c:577
    1ef0:	129fff80 	mov	w0, #0xffff0003            	// #-65533
    1ef4:	7a401264 	ccmp	w19, w0, #0x4, ne
    1ef8:	540001a0 	b.eq	1f2c <TEE_AllocatePersistentObjectEnumerator+0x74>
/home/ursus/devel/optee/optee_os/lib/libutee/tee_api_objects.c:579
    1efc:	2a1303e5 	mov	w5, w19
    1f00:	b0000064 	adrp	x4, e000 <__func__.3633+0x30>
    1f04:	91112884 	add	x4, x4, #0x44a
    1f08:	52800023 	mov	w3, #0x1                   	// #1
    1f0c:	52800022 	mov	w2, #0x1                   	// #1
    1f10:	52804861 	mov	w1, #0x243                 	// #579
    1f14:	f0000040 	adrp	x0, c000 <mpa_set_str+0x4>
    1f18:	9128e000 	add	x0, x0, #0xa38
    1f1c:	91098000 	add	x0, x0, #0x260
    1f20:	94001ab4 	bl	89f0 <trace_printf>
    1f24:	2a1303e0 	mov	w0, w19
    1f28:	94000da7 	bl	55c4 <__TEE_Panic>
/home/ursus/devel/optee/optee_os/lib/libutee/tee_api_objects.c:582
    1f2c:	2a1303e0 	mov	w0, w19
    1f30:	a94153f3 	ldp	x19, x20, [sp,#16]
    1f34:	a8c37bfd 	ldp	x29, x30, [sp],#48
    1f38:	d65f03c0 	ret

0000000000001f3c <TEE_FreePersistentObjectEnumerator>:
TEE_FreePersistentObjectEnumerator():
/home/ursus/devel/optee/optee_os/lib/libutee/tee_api_objects.c:588
    1f3c:	b4000300 	cbz	x0, 1f9c <TEE_FreePersistentObjectEnumerator+0x60>
/home/ursus/devel/optee/optee_os/lib/libutee/tee_api_objects.c:585
    1f40:	a9be7bfd 	stp	x29, x30, [sp,#-32]!
    1f44:	910003fd 	mov	x29, sp
    1f48:	f9000bf3 	str	x19, [sp,#16]
/home/ursus/devel/optee/optee_os/lib/libutee/tee_api_objects.c:591
    1f4c:	94000ee9 	bl	5af0 <utee_storage_free_enum>
    1f50:	2a0003f3 	mov	w19, w0
/home/ursus/devel/optee/optee_os/lib/libutee/tee_api_objects.c:593
    1f54:	340001e0 	cbz	w0, 1f90 <TEE_FreePersistentObjectEnumerator+0x54>
/home/ursus/devel/optee/optee_os/lib/libutee/tee_api_objects.c:594
    1f58:	2a0003e5 	mov	w5, w0
    1f5c:	f0000040 	adrp	x0, c000 <mpa_set_str+0x4>
    1f60:	9128e000 	add	x0, x0, #0xa38
    1f64:	52800023 	mov	w3, #0x1                   	// #1
    1f68:	52800022 	mov	w2, #0x1                   	// #1
    1f6c:	52804a41 	mov	w1, #0x252                 	// #594
    1f70:	910a2000 	add	x0, x0, #0x288
    1f74:	b0000064 	adrp	x4, e000 <__func__.3633+0x30>
    1f78:	91112884 	add	x4, x4, #0x44a
    1f7c:	94001a9d 	bl	89f0 <trace_printf>
    1f80:	2a1303e0 	mov	w0, w19
/home/ursus/devel/optee/optee_os/lib/libutee/tee_api_objects.c:595
    1f84:	f9400bf3 	ldr	x19, [sp,#16]
    1f88:	a8c27bfd 	ldp	x29, x30, [sp],#32
/home/ursus/devel/optee/optee_os/lib/libutee/tee_api_objects.c:594
    1f8c:	14000d8e 	b	55c4 <__TEE_Panic>
/home/ursus/devel/optee/optee_os/lib/libutee/tee_api_objects.c:595
    1f90:	f9400bf3 	ldr	x19, [sp,#16]
    1f94:	a8c27bfd 	ldp	x29, x30, [sp],#32
    1f98:	d65f03c0 	ret
    1f9c:	d65f03c0 	ret

0000000000001fa0 <TEE_ResetPersistentObjectEnumerator>:
TEE_ResetPersistentObjectEnumerator():
/home/ursus/devel/optee/optee_os/lib/libutee/tee_api_objects.c:601
    1fa0:	b4000300 	cbz	x0, 2000 <TEE_ResetPersistentObjectEnumerator+0x60>
/home/ursus/devel/optee/optee_os/lib/libutee/tee_api_objects.c:598
    1fa4:	a9be7bfd 	stp	x29, x30, [sp,#-32]!
    1fa8:	910003fd 	mov	x29, sp
    1fac:	f9000bf3 	str	x19, [sp,#16]
/home/ursus/devel/optee/optee_os/lib/libutee/tee_api_objects.c:604
    1fb0:	94000ed3 	bl	5afc <utee_storage_reset_enum>
    1fb4:	2a0003f3 	mov	w19, w0
/home/ursus/devel/optee/optee_os/lib/libutee/tee_api_objects.c:606
    1fb8:	340001e0 	cbz	w0, 1ff4 <TEE_ResetPersistentObjectEnumerator+0x54>
/home/ursus/devel/optee/optee_os/lib/libutee/tee_api_objects.c:607
    1fbc:	2a0003e5 	mov	w5, w0
    1fc0:	f0000040 	adrp	x0, c000 <mpa_set_str+0x4>
    1fc4:	9128e000 	add	x0, x0, #0xa38
    1fc8:	52800023 	mov	w3, #0x1                   	// #1
    1fcc:	52800022 	mov	w2, #0x1                   	// #1
    1fd0:	52804be1 	mov	w1, #0x25f                 	// #607
    1fd4:	910ac000 	add	x0, x0, #0x2b0
    1fd8:	b0000064 	adrp	x4, e000 <__func__.3633+0x30>
    1fdc:	91112884 	add	x4, x4, #0x44a
    1fe0:	94001a84 	bl	89f0 <trace_printf>
    1fe4:	2a1303e0 	mov	w0, w19
/home/ursus/devel/optee/optee_os/lib/libutee/tee_api_objects.c:608
    1fe8:	f9400bf3 	ldr	x19, [sp,#16]
    1fec:	a8c27bfd 	ldp	x29, x30, [sp],#32
/home/ursus/devel/optee/optee_os/lib/libutee/tee_api_objects.c:607
    1ff0:	14000d75 	b	55c4 <__TEE_Panic>
/home/ursus/devel/optee/optee_os/lib/libutee/tee_api_objects.c:608
    1ff4:	f9400bf3 	ldr	x19, [sp,#16]
    1ff8:	a8c27bfd 	ldp	x29, x30, [sp],#32
    1ffc:	d65f03c0 	ret
    2000:	d65f03c0 	ret

0000000000002004 <TEE_StartPersistentObjectEnumerator>:
TEE_StartPersistentObjectEnumerator():
/home/ursus/devel/optee/optee_os/lib/libutee/tee_api_objects.c:613
    2004:	a9be7bfd 	stp	x29, x30, [sp,#-32]!
/home/ursus/devel/optee/optee_os/lib/libutee/tee_api_objects.c:616
    2008:	2a0103e1 	mov	w1, w1
/home/ursus/devel/optee/optee_os/lib/libutee/tee_api_objects.c:613
    200c:	910003fd 	mov	x29, sp
    2010:	f9000bf3 	str	x19, [sp,#16]
/home/ursus/devel/optee/optee_os/lib/libutee/tee_api_objects.c:616
    2014:	94000ebd 	bl	5b08 <utee_storage_start_enum>
    2018:	2a0003f3 	mov	w19, w0
/home/ursus/devel/optee/optee_os/lib/libutee/tee_api_objects.c:619
    201c:	7100001f 	cmp	w0, #0x0
    2020:	129ffee0 	mov	w0, #0xffff0008            	// #-65528
    2024:	7a401264 	ccmp	w19, w0, #0x4, ne
    2028:	54000240 	b.eq	2070 <TEE_StartPersistentObjectEnumerator+0x6c>
/home/ursus/devel/optee/optee_os/lib/libutee/tee_api_objects.c:621
    202c:	121e7a61 	and	w1, w19, #0xfffffffd
    2030:	52800020 	mov	w0, #0x1                   	// #1
    2034:	72be0200 	movk	w0, #0xf010, lsl #16
    2038:	6b00003f 	cmp	w1, w0
    203c:	540001a0 	b.eq	2070 <TEE_StartPersistentObjectEnumerator+0x6c>
/home/ursus/devel/optee/optee_os/lib/libutee/tee_api_objects.c:623
    2040:	2a1303e5 	mov	w5, w19
    2044:	90000064 	adrp	x4, e000 <__func__.3633+0x30>
    2048:	91112884 	add	x4, x4, #0x44a
    204c:	52800023 	mov	w3, #0x1                   	// #1
    2050:	52800022 	mov	w2, #0x1                   	// #1
    2054:	52804de1 	mov	w1, #0x26f                 	// #623
    2058:	d0000040 	adrp	x0, c000 <mpa_set_str+0x4>
    205c:	9128e000 	add	x0, x0, #0xa38
    2060:	910b6000 	add	x0, x0, #0x2d8
    2064:	94001a63 	bl	89f0 <trace_printf>
    2068:	2a1303e0 	mov	w0, w19
    206c:	94000d56 	bl	55c4 <__TEE_Panic>
/home/ursus/devel/optee/optee_os/lib/libutee/tee_api_objects.c:626
    2070:	2a1303e0 	mov	w0, w19
    2074:	f9400bf3 	ldr	x19, [sp,#16]
    2078:	a8c27bfd 	ldp	x29, x30, [sp],#32
    207c:	d65f03c0 	ret

0000000000002080 <TEE_GetNextPersistentObject>:
TEE_GetNextPersistentObject():
/home/ursus/devel/optee/optee_os/lib/libutee/tee_api_objects.c:631
    2080:	a9bb7bfd 	stp	x29, x30, [sp,#-80]!
/home/ursus/devel/optee/optee_os/lib/libutee/tee_api_objects.c:642
    2084:	f100005f 	cmp	x2, #0x0
    2088:	fa401864 	ccmp	x3, #0x0, #0x4, ne
/home/ursus/devel/optee/optee_os/lib/libutee/tee_api_objects.c:631
    208c:	910003fd 	mov	x29, sp
    2090:	a90153f3 	stp	x19, x20, [sp,#16]
    2094:	129fff33 	mov	w19, #0xffff0006            	// #-65530
/home/ursus/devel/optee/optee_os/lib/libutee/tee_api_objects.c:642
    2098:	54000180 	b.eq	20c8 <TEE_GetNextPersistentObject+0x48>
    209c:	aa0303f4 	mov	x20, x3
/home/ursus/devel/optee/optee_os/lib/libutee/tee_api_objects.c:651
    20a0:	910143a3 	add	x3, x29, #0x50
/home/ursus/devel/optee/optee_os/lib/libutee/tee_api_objects.c:650
    20a4:	f100003f 	cmp	x1, #0x0
/home/ursus/devel/optee/optee_os/lib/libutee/tee_api_objects.c:651
    20a8:	b9400284 	ldr	w4, [x20]
    20ac:	f81d8c64 	str	x4, [x3,#-40]!
/home/ursus/devel/optee/optee_os/lib/libutee/tee_api_objects.c:652
    20b0:	9100c3a4 	add	x4, x29, #0x30
    20b4:	9a810081 	csel	x1, x4, x1, eq
    20b8:	94000e97 	bl	5b14 <utee_storage_next_enum>
    20bc:	2a0003f3 	mov	w19, w0
/home/ursus/devel/optee/optee_os/lib/libutee/tee_api_objects.c:654
    20c0:	f94017a0 	ldr	x0, [x29,#40]
    20c4:	b9000280 	str	w0, [x20]
/home/ursus/devel/optee/optee_os/lib/libutee/tee_api_objects.c:657
    20c8:	7100027f 	cmp	w19, #0x0
    20cc:	129ffee0 	mov	w0, #0xffff0008            	// #-65528
    20d0:	7a401264 	ccmp	w19, w0, #0x4, ne
    20d4:	54000240 	b.eq	211c <TEE_GetNextPersistentObject+0x9c>
/home/ursus/devel/optee/optee_os/lib/libutee/tee_api_objects.c:659
    20d8:	121e7a61 	and	w1, w19, #0xfffffffd
    20dc:	52800020 	mov	w0, #0x1                   	// #1
    20e0:	72be0200 	movk	w0, #0xf010, lsl #16
    20e4:	6b00003f 	cmp	w1, w0
    20e8:	540001a0 	b.eq	211c <TEE_GetNextPersistentObject+0x9c>
/home/ursus/devel/optee/optee_os/lib/libutee/tee_api_objects.c:661
    20ec:	2a1303e5 	mov	w5, w19
    20f0:	90000064 	adrp	x4, e000 <__func__.3633+0x30>
    20f4:	91112884 	add	x4, x4, #0x44a
    20f8:	52800023 	mov	w3, #0x1                   	// #1
    20fc:	52800022 	mov	w2, #0x1                   	// #1
    2100:	528052a1 	mov	w1, #0x295                 	// #661
    2104:	d0000040 	adrp	x0, c000 <mpa_set_str+0x4>
    2108:	9128e000 	add	x0, x0, #0xa38
    210c:	910c0000 	add	x0, x0, #0x300
    2110:	94001a38 	bl	89f0 <trace_printf>
    2114:	2a1303e0 	mov	w0, w19
    2118:	94000d2b 	bl	55c4 <__TEE_Panic>
/home/ursus/devel/optee/optee_os/lib/libutee/tee_api_objects.c:664
    211c:	2a1303e0 	mov	w0, w19
    2120:	a94153f3 	ldp	x19, x20, [sp,#16]
    2124:	a8c57bfd 	ldp	x29, x30, [sp],#80
    2128:	d65f03c0 	ret

000000000000212c <TEE_ReadObjectData>:
TEE_ReadObjectData():
/home/ursus/devel/optee/optee_os/lib/libutee/tee_api_objects.c:670
    212c:	a9bd7bfd 	stp	x29, x30, [sp,#-48]!
    2130:	910003fd 	mov	x29, sp
    2134:	a90153f3 	stp	x19, x20, [sp,#16]
    2138:	129fff33 	mov	w19, #0xffff0006            	// #-65530
/home/ursus/devel/optee/optee_os/lib/libutee/tee_api_objects.c:674
    213c:	b4000140 	cbz	x0, 2164 <TEE_ReadObjectData+0x38>
    2140:	aa0303f4 	mov	x20, x3
/home/ursus/devel/optee/optee_os/lib/libutee/tee_api_objects.c:679
    2144:	9100c3a3 	add	x3, x29, #0x30
/home/ursus/devel/optee/optee_os/lib/libutee/tee_api_objects.c:680
    2148:	2a0203e2 	mov	w2, w2
/home/ursus/devel/optee/optee_os/lib/libutee/tee_api_objects.c:679
    214c:	b9400284 	ldr	w4, [x20]
    2150:	f81f8c64 	str	x4, [x3,#-8]!
/home/ursus/devel/optee/optee_os/lib/libutee/tee_api_objects.c:680
    2154:	94000e73 	bl	5b20 <utee_storage_obj_read>
    2158:	2a0003f3 	mov	w19, w0
/home/ursus/devel/optee/optee_os/lib/libutee/tee_api_objects.c:682
    215c:	f94017a0 	ldr	x0, [x29,#40]
    2160:	b9000280 	str	w0, [x20]
/home/ursus/devel/optee/optee_os/lib/libutee/tee_api_objects.c:686
    2164:	121e7a60 	and	w0, w19, #0xfffffffd
    2168:	7100027f 	cmp	w19, #0x0
    216c:	52800021 	mov	w1, #0x1                   	// #1
    2170:	72be0201 	movk	w1, #0xf010, lsl #16
    2174:	7a411004 	ccmp	w0, w1, #0x4, ne
    2178:	540001a0 	b.eq	21ac <TEE_ReadObjectData+0x80>
/home/ursus/devel/optee/optee_os/lib/libutee/tee_api_objects.c:688
    217c:	2a1303e5 	mov	w5, w19
    2180:	90000064 	adrp	x4, e000 <__func__.3633+0x30>
    2184:	91112884 	add	x4, x4, #0x44a
    2188:	52800023 	mov	w3, #0x1                   	// #1
    218c:	52800022 	mov	w2, #0x1                   	// #1
    2190:	52805601 	mov	w1, #0x2b0                 	// #688
    2194:	d0000040 	adrp	x0, c000 <mpa_set_str+0x4>
    2198:	9128e000 	add	x0, x0, #0xa38
    219c:	910c8000 	add	x0, x0, #0x320
    21a0:	94001a14 	bl	89f0 <trace_printf>
    21a4:	2a1303e0 	mov	w0, w19
    21a8:	94000d07 	bl	55c4 <__TEE_Panic>
/home/ursus/devel/optee/optee_os/lib/libutee/tee_api_objects.c:691
    21ac:	2a1303e0 	mov	w0, w19
    21b0:	a94153f3 	ldp	x19, x20, [sp,#16]
    21b4:	a8c37bfd 	ldp	x29, x30, [sp],#48
    21b8:	d65f03c0 	ret

00000000000021bc <TEE_WriteObjectData>:
TEE_WriteObjectData():
/home/ursus/devel/optee/optee_os/lib/libutee/tee_api_objects.c:695
    21bc:	a9be7bfd 	stp	x29, x30, [sp,#-32]!
    21c0:	910003fd 	mov	x29, sp
    21c4:	f9000bf3 	str	x19, [sp,#16]
    21c8:	129fff33 	mov	w19, #0xffff0006            	// #-65530
/home/ursus/devel/optee/optee_os/lib/libutee/tee_api_objects.c:698
    21cc:	b4000080 	cbz	x0, 21dc <TEE_WriteObjectData+0x20>
/home/ursus/devel/optee/optee_os/lib/libutee/tee_api_objects.c:708
    21d0:	2a0203e2 	mov	w2, w2
    21d4:	94000e56 	bl	5b2c <utee_storage_obj_write>
    21d8:	2a0003f3 	mov	w19, w0
/home/ursus/devel/optee/optee_os/lib/libutee/tee_api_objects.c:711
    21dc:	7100027f 	cmp	w19, #0x0
    21e0:	1299f7c0 	mov	w0, #0xffff3041            	// #-53183
    21e4:	7a401264 	ccmp	w19, w0, #0x4, ne
    21e8:	54000280 	b.eq	2238 <TEE_WriteObjectData+0x7c>
/home/ursus/devel/optee/optee_os/lib/libutee/tee_api_objects.c:714
    21ec:	121e7a61 	and	w1, w19, #0xfffffffd
    21f0:	52800020 	mov	w0, #0x1                   	// #1
    21f4:	72be0200 	movk	w0, #0xf010, lsl #16
    21f8:	6b00003f 	cmp	w1, w0
    21fc:	1299fe00 	mov	w0, #0xffff300f            	// #-53233
    2200:	7a401264 	ccmp	w19, w0, #0x4, ne
    2204:	540001a0 	b.eq	2238 <TEE_WriteObjectData+0x7c>
/home/ursus/devel/optee/optee_os/lib/libutee/tee_api_objects.c:716
    2208:	2a1303e5 	mov	w5, w19
    220c:	90000064 	adrp	x4, e000 <__func__.3633+0x30>
    2210:	91112884 	add	x4, x4, #0x44a
    2214:	52800023 	mov	w3, #0x1                   	// #1
    2218:	52800022 	mov	w2, #0x1                   	// #1
    221c:	52805981 	mov	w1, #0x2cc                 	// #716
    2220:	d0000040 	adrp	x0, c000 <mpa_set_str+0x4>
    2224:	9128e000 	add	x0, x0, #0xa38
    2228:	910ce000 	add	x0, x0, #0x338
    222c:	940019f1 	bl	89f0 <trace_printf>
    2230:	2a1303e0 	mov	w0, w19
    2234:	94000ce4 	bl	55c4 <__TEE_Panic>
/home/ursus/devel/optee/optee_os/lib/libutee/tee_api_objects.c:719
    2238:	2a1303e0 	mov	w0, w19
    223c:	f9400bf3 	ldr	x19, [sp,#16]
    2240:	a8c27bfd 	ldp	x29, x30, [sp],#32
    2244:	d65f03c0 	ret

0000000000002248 <TEE_TruncateObjectData>:
TEE_TruncateObjectData():
/home/ursus/devel/optee/optee_os/lib/libutee/tee_api_objects.c:722
    2248:	a9be7bfd 	stp	x29, x30, [sp,#-32]!
    224c:	910003fd 	mov	x29, sp
    2250:	f9000bf3 	str	x19, [sp,#16]
    2254:	129fff33 	mov	w19, #0xffff0006            	// #-65530
/home/ursus/devel/optee/optee_os/lib/libutee/tee_api_objects.c:725
    2258:	b4000080 	cbz	x0, 2268 <TEE_TruncateObjectData+0x20>
/home/ursus/devel/optee/optee_os/lib/libutee/tee_api_objects.c:730
    225c:	2a0103e1 	mov	w1, w1
    2260:	94000e36 	bl	5b38 <utee_storage_obj_trunc>
    2264:	2a0003f3 	mov	w19, w0
/home/ursus/devel/optee/optee_os/lib/libutee/tee_api_objects.c:733
    2268:	7100027f 	cmp	w19, #0x0
    226c:	1299f7c0 	mov	w0, #0xffff3041            	// #-53183
    2270:	7a401264 	ccmp	w19, w0, #0x4, ne
    2274:	54000240 	b.eq	22bc <TEE_TruncateObjectData+0x74>
/home/ursus/devel/optee/optee_os/lib/libutee/tee_api_objects.c:735
    2278:	121e7a61 	and	w1, w19, #0xfffffffd
    227c:	52800020 	mov	w0, #0x1                   	// #1
    2280:	72be0200 	movk	w0, #0xf010, lsl #16
    2284:	6b00003f 	cmp	w1, w0
    2288:	540001a0 	b.eq	22bc <TEE_TruncateObjectData+0x74>
/home/ursus/devel/optee/optee_os/lib/libutee/tee_api_objects.c:737
    228c:	2a1303e5 	mov	w5, w19
    2290:	90000064 	adrp	x4, e000 <__func__.3633+0x30>
    2294:	91112884 	add	x4, x4, #0x44a
    2298:	52800023 	mov	w3, #0x1                   	// #1
    229c:	52800022 	mov	w2, #0x1                   	// #1
    22a0:	52805c21 	mov	w1, #0x2e1                 	// #737
    22a4:	d0000040 	adrp	x0, c000 <mpa_set_str+0x4>
    22a8:	9128e000 	add	x0, x0, #0xa38
    22ac:	910d4000 	add	x0, x0, #0x350
    22b0:	940019d0 	bl	89f0 <trace_printf>
    22b4:	2a1303e0 	mov	w0, w19
    22b8:	94000cc3 	bl	55c4 <__TEE_Panic>
/home/ursus/devel/optee/optee_os/lib/libutee/tee_api_objects.c:740
    22bc:	2a1303e0 	mov	w0, w19
    22c0:	f9400bf3 	ldr	x19, [sp,#16]
    22c4:	a8c27bfd 	ldp	x29, x30, [sp],#32
    22c8:	d65f03c0 	ret

00000000000022cc <TEE_SeekObjectData>:
TEE_SeekObjectData():
/home/ursus/devel/optee/optee_os/lib/libutee/tee_api_objects.c:744
    22cc:	a9bb7bfd 	stp	x29, x30, [sp,#-80]!
    22d0:	910003fd 	mov	x29, sp
    22d4:	a90153f3 	stp	x19, x20, [sp,#16]
/home/ursus/devel/optee/optee_os/lib/libutee/tee_api_objects.c:749
    22d8:	129fff33 	mov	w19, #0xffff0006            	// #-65530
/home/ursus/devel/optee/optee_os/lib/libutee/tee_api_objects.c:744
    22dc:	a9025bf5 	stp	x21, x22, [sp,#32]
/home/ursus/devel/optee/optee_os/lib/libutee/tee_api_objects.c:748
    22e0:	b40003e0 	cbz	x0, 235c <TEE_SeekObjectData+0x90>
    22e4:	aa0003f6 	mov	x22, x0
    22e8:	2a0103f4 	mov	w20, w1
    22ec:	2a0203f5 	mov	w21, w2
/home/ursus/devel/optee/optee_os/lib/libutee/tee_api_objects.c:753
    22f0:	9100c3a1 	add	x1, x29, #0x30
    22f4:	94000dbd 	bl	59e8 <utee_cryp_obj_get_info>
    22f8:	2a0003f3 	mov	w19, w0
/home/ursus/devel/optee/optee_os/lib/libutee/tee_api_objects.c:754
    22fc:	35000300 	cbnz	w0, 235c <TEE_SeekObjectData+0x90>
/home/ursus/devel/optee/optee_os/lib/libutee/tee_api_objects.c:757
    2300:	710006bf 	cmp	w21, #0x1
    2304:	540000c0 	b.eq	231c <TEE_SeekObjectData+0x50>
    2308:	34000115 	cbz	w21, 2328 <TEE_SeekObjectData+0x5c>
    230c:	71000abf 	cmp	w21, #0x2
    2310:	54000180 	b.eq	2340 <TEE_SeekObjectData+0x74>
/home/ursus/devel/optee/optee_os/lib/libutee/tee_api_objects.c:783
    2314:	129ffef3 	mov	w19, #0xffff0008            	// #-65528
    2318:	14000011 	b	235c <TEE_SeekObjectData+0x90>
/home/ursus/devel/optee/optee_os/lib/libutee/tee_api_objects.c:768
    231c:	b94047a0 	ldr	w0, [x29,#68]
/home/ursus/devel/optee/optee_os/lib/libutee/tee_api_objects.c:765
    2320:	7100029f 	cmp	w20, #0x0
    2324:	5400014c 	b.gt	234c <TEE_SeekObjectData+0x80>
/home/ursus/devel/optee/optee_os/lib/libutee/tee_api_objects.c:787
    2328:	2a1503e2 	mov	w2, w21
    232c:	2a1403e1 	mov	w1, w20
    2330:	aa1603e0 	mov	x0, x22
    2334:	94000e04 	bl	5b44 <utee_storage_obj_seek>
    2338:	2a0003f3 	mov	w19, w0
    233c:	14000008 	b	235c <TEE_SeekObjectData+0x90>
/home/ursus/devel/optee/optee_os/lib/libutee/tee_api_objects.c:775
    2340:	7100029f 	cmp	w20, #0x0
    2344:	54ffff2d 	b.le	2328 <TEE_SeekObjectData+0x5c>
/home/ursus/devel/optee/optee_os/lib/libutee/tee_api_objects.c:777 (discriminator 1)
    2348:	b94043a0 	ldr	w0, [x29,#64]
    234c:	0b000281 	add	w1, w20, w0
/home/ursus/devel/optee/optee_os/lib/libutee/tee_api_objects.c:770 (discriminator 1)
    2350:	1299fe13 	mov	w19, #0xffff300f            	// #-53233
/home/ursus/devel/optee/optee_os/lib/libutee/tee_api_objects.c:775 (discriminator 1)
    2354:	6b01001f 	cmp	w0, w1
    2358:	54fffe89 	b.ls	2328 <TEE_SeekObjectData+0x5c>
/home/ursus/devel/optee/optee_os/lib/libutee/tee_api_objects.c:790
    235c:	7100027f 	cmp	w19, #0x0
    2360:	1299fe00 	mov	w0, #0xffff300f            	// #-53233
    2364:	7a401264 	ccmp	w19, w0, #0x4, ne
    2368:	54000240 	b.eq	23b0 <TEE_SeekObjectData+0xe4>
/home/ursus/devel/optee/optee_os/lib/libutee/tee_api_objects.c:792
    236c:	121e7a61 	and	w1, w19, #0xfffffffd
    2370:	52800020 	mov	w0, #0x1                   	// #1
    2374:	72be0200 	movk	w0, #0xf010, lsl #16
    2378:	6b00003f 	cmp	w1, w0
    237c:	540001a0 	b.eq	23b0 <TEE_SeekObjectData+0xe4>
/home/ursus/devel/optee/optee_os/lib/libutee/tee_api_objects.c:794
    2380:	2a1303e5 	mov	w5, w19
    2384:	90000064 	adrp	x4, e000 <__func__.3633+0x30>
    2388:	91112884 	add	x4, x4, #0x44a
    238c:	52800023 	mov	w3, #0x1                   	// #1
    2390:	52800022 	mov	w2, #0x1                   	// #1
    2394:	52806341 	mov	w1, #0x31a                 	// #794
    2398:	d0000040 	adrp	x0, c000 <mpa_set_str+0x4>
    239c:	9128e000 	add	x0, x0, #0xa38
    23a0:	910da000 	add	x0, x0, #0x368
    23a4:	94001993 	bl	89f0 <trace_printf>
    23a8:	2a1303e0 	mov	w0, w19
    23ac:	94000c86 	bl	55c4 <__TEE_Panic>
/home/ursus/devel/optee/optee_os/lib/libutee/tee_api_objects.c:797
    23b0:	2a1303e0 	mov	w0, w19
    23b4:	a94153f3 	ldp	x19, x20, [sp,#16]
    23b8:	a9425bf5 	ldp	x21, x22, [sp,#32]
    23bc:	a8c57bfd 	ldp	x29, x30, [sp],#80
    23c0:	d65f03c0 	ret

00000000000023c4 <init_hash_operation>:
init_hash_operation():
/home/ursus/devel/optee/optee_os/lib/libutee/tee_api_operations.c:767
    23c4:	a9be7bfd 	stp	x29, x30, [sp,#-32]!
/home/ursus/devel/optee/optee_os/lib/libutee/tee_api_operations.c:774
    23c8:	2a0203e2 	mov	w2, w2
/home/ursus/devel/optee/optee_os/lib/libutee/tee_api_operations.c:767
    23cc:	910003fd 	mov	x29, sp
    23d0:	a90153f3 	stp	x19, x20, [sp,#16]
    23d4:	aa0003f3 	mov	x19, x0
/home/ursus/devel/optee/optee_os/lib/libutee/tee_api_operations.c:774
    23d8:	b9405800 	ldr	w0, [x0,#88]
    23dc:	94000d71 	bl	59a0 <utee_hash_init>
/home/ursus/devel/optee/optee_os/lib/libutee/tee_api_operations.c:775
    23e0:	340001a0 	cbz	w0, 2414 <init_hash_operation+0x50>
/home/ursus/devel/optee/optee_os/lib/libutee/tee_api_operations.c:776
    23e4:	2a0003e5 	mov	w5, w0
    23e8:	90000064 	adrp	x4, e000 <__func__.3633+0x30>
    23ec:	91112884 	add	x4, x4, #0x44a
    23f0:	52800023 	mov	w3, #0x1                   	// #1
    23f4:	52800022 	mov	w2, #0x1                   	// #1
    23f8:	52806101 	mov	w1, #0x308                 	// #776
    23fc:	2a0003f4 	mov	w20, w0
    2400:	d0000040 	adrp	x0, c000 <mpa_set_str+0x4>
    2404:	9136e000 	add	x0, x0, #0xdb8
    2408:	9400197a 	bl	89f0 <trace_printf>
    240c:	2a1403e0 	mov	w0, w20
    2410:	94000c6d 	bl	55c4 <__TEE_Panic>
/home/ursus/devel/optee/optee_os/lib/libutee/tee_api_operations.c:778
    2414:	b9401e60 	ldr	w0, [x19,#28]
/home/ursus/devel/optee/optee_os/lib/libutee/tee_api_operations.c:777
    2418:	f9002a7f 	str	xzr, [x19,#80]
/home/ursus/devel/optee/optee_os/lib/libutee/tee_api_operations.c:778
    241c:	320f0000 	orr	w0, w0, #0x20000
    2420:	b9001e60 	str	w0, [x19,#28]
/home/ursus/devel/optee/optee_os/lib/libutee/tee_api_operations.c:779
    2424:	a94153f3 	ldp	x19, x20, [sp,#16]
    2428:	a8c27bfd 	ldp	x29, x30, [sp],#32
    242c:	d65f03c0 	ret

0000000000002430 <TEE_FreeOperation>:
TEE_FreeOperation():
/home/ursus/devel/optee/optee_os/lib/libutee/tee_api_operations.c:366
    2430:	a9be7bfd 	stp	x29, x30, [sp,#-32]!
    2434:	910003fd 	mov	x29, sp
    2438:	a90153f3 	stp	x19, x20, [sp,#16]
    243c:	aa0003f3 	mov	x19, x0
/home/ursus/devel/optee/optee_os/lib/libutee/tee_api_operations.c:369
    2440:	b50001a0 	cbnz	x0, 2474 <TEE_FreeOperation+0x44>
/home/ursus/devel/optee/optee_os/lib/libutee/tee_api_operations.c:370
    2444:	90000064 	adrp	x4, e000 <__func__.3633+0x30>
    2448:	91112884 	add	x4, x4, #0x44a
    244c:	52800005 	mov	w5, #0x0                   	// #0
    2450:	52800023 	mov	w3, #0x1                   	// #1
    2454:	52800022 	mov	w2, #0x1                   	// #1
    2458:	52802e41 	mov	w1, #0x172                 	// #370
    245c:	d0000040 	adrp	x0, c000 <mpa_set_str+0x4>
    2460:	9136e000 	add	x0, x0, #0xdb8
    2464:	9100c000 	add	x0, x0, #0x30
    2468:	94001962 	bl	89f0 <trace_printf>
    246c:	52800000 	mov	w0, #0x0                   	// #0
    2470:	94000c55 	bl	55c4 <__TEE_Panic>
/home/ursus/devel/optee/optee_os/lib/libutee/tee_api_operations.c:377
    2474:	b9405a60 	ldr	w0, [x19,#88]
    2478:	94000d47 	bl	5994 <utee_cryp_state_free>
    247c:	2a0003f4 	mov	w20, w0
/home/ursus/devel/optee/optee_os/lib/libutee/tee_api_operations.c:378
    2480:	340001a0 	cbz	w0, 24b4 <TEE_FreeOperation+0x84>
/home/ursus/devel/optee/optee_os/lib/libutee/tee_api_operations.c:379
    2484:	2a0003e5 	mov	w5, w0
    2488:	90000064 	adrp	x4, e000 <__func__.3633+0x30>
    248c:	91112884 	add	x4, x4, #0x44a
    2490:	52800023 	mov	w3, #0x1                   	// #1
    2494:	52800022 	mov	w2, #0x1                   	// #1
    2498:	52802f61 	mov	w1, #0x17b                 	// #379
    249c:	d0000040 	adrp	x0, c000 <mpa_set_str+0x4>
    24a0:	9136e000 	add	x0, x0, #0xdb8
    24a4:	9100c000 	add	x0, x0, #0x30
    24a8:	94001952 	bl	89f0 <trace_printf>
    24ac:	2a1403e0 	mov	w0, w20
    24b0:	94000c45 	bl	55c4 <__TEE_Panic>
/home/ursus/devel/optee/optee_os/lib/libutee/tee_api_operations.c:381
    24b4:	f9401e60 	ldr	x0, [x19,#56]
    24b8:	97fffab8 	bl	f98 <TEE_Free>
/home/ursus/devel/optee/optee_os/lib/libutee/tee_api_operations.c:382
    24bc:	aa1303e0 	mov	x0, x19
/home/ursus/devel/optee/optee_os/lib/libutee/tee_api_operations.c:383
    24c0:	a94153f3 	ldp	x19, x20, [sp,#16]
    24c4:	a8c27bfd 	ldp	x29, x30, [sp],#32
/home/ursus/devel/optee/optee_os/lib/libutee/tee_api_operations.c:382
    24c8:	17fffab4 	b	f98 <TEE_Free>

00000000000024cc <TEE_AllocateOperation>:
TEE_AllocateOperation():
/home/ursus/devel/optee/optee_os/lib/libutee/tee_api_operations.c:59
    24cc:	a9b97bfd 	stp	x29, x30, [sp,#-112]!
    24d0:	910003fd 	mov	x29, sp
    24d4:	a90363f7 	stp	x23, x24, [sp,#48]
    24d8:	2a0203f8 	mov	w24, w2
    24dc:	a90153f3 	stp	x19, x20, [sp,#16]
    24e0:	2a0303f7 	mov	w23, w3
    24e4:	a9025bf5 	stp	x21, x22, [sp,#32]
    24e8:	2a0103f3 	mov	w19, w1
    24ec:	a9046bf9 	stp	x25, x26, [sp,#64]
    24f0:	a90573fb 	stp	x27, x28, [sp,#80]
    24f4:	f90037a0 	str	x0, [x29,#104]
/home/ursus/devel/optee/optee_os/lib/libutee/tee_api_operations.c:68
    24f8:	b50001a0 	cbnz	x0, 252c <TEE_AllocateOperation+0x60>
/home/ursus/devel/optee/optee_os/lib/libutee/tee_api_operations.c:69
    24fc:	90000064 	adrp	x4, e000 <__func__.3633+0x30>
    2500:	91112884 	add	x4, x4, #0x44a
    2504:	52800005 	mov	w5, #0x0                   	// #0
    2508:	52800023 	mov	w3, #0x1                   	// #1
    250c:	52800022 	mov	w2, #0x1                   	// #1
    2510:	528008a1 	mov	w1, #0x45                  	// #69
    2514:	d0000040 	adrp	x0, c000 <mpa_set_str+0x4>
    2518:	9136e000 	add	x0, x0, #0xdb8
    251c:	91012000 	add	x0, x0, #0x48
    2520:	94001934 	bl	89f0 <trace_printf>
    2524:	52800000 	mov	w0, #0x0                   	// #0
    2528:	94000c27 	bl	55c4 <__TEE_Panic>
/home/ursus/devel/optee/optee_os/lib/libutee/tee_api_operations.c:71
    252c:	52808200 	mov	w0, #0x410                 	// #1040
    2530:	72a20000 	movk	w0, #0x1000, lsl #16
    2534:	6b00027f 	cmp	w19, w0
    2538:	54002cc0 	b.eq	2ad0 <TEE_AllocateOperation+0x604>
/home/ursus/devel/optee/optee_os/lib/libutee/tee_api_operations.c:75
    253c:	52882620 	mov	w0, #0x4131                	// #16689
    2540:	72ae0000 	movk	w0, #0x7000, lsl #16
    2544:	6b00027f 	cmp	w19, w0
    2548:	54000e60 	b.eq	2714 <TEE_AllocateOperation+0x248>
    254c:	540007c8 	b.hi	2644 <TEE_AllocateOperation+0x178>
    2550:	52842620 	mov	w0, #0x2131                	// #8497
    2554:	72ae0000 	movk	w0, #0x7000, lsl #16
    2558:	6b00027f 	cmp	w19, w0
    255c:	54000aa0 	b.eq	26b0 <TEE_AllocateOperation+0x1e4>
    2560:	54000568 	b.hi	260c <TEE_AllocateOperation+0x140>
    2564:	52820820 	mov	w0, #0x1041                	// #4161
    2568:	72ae0000 	movk	w0, #0x7000, lsl #16
    256c:	6b00027f 	cmp	w19, w0
    2570:	54000840 	b.eq	2678 <TEE_AllocateOperation+0x1ac>
    2574:	11400400 	add	w0, w0, #0x1, lsl #12
    2578:	6b00027f 	cmp	w19, w0
    257c:	54000d40 	b.eq	2724 <TEE_AllocateOperation+0x258>
/home/ursus/devel/optee/optee_os/lib/libutee/tee_api_operations.c:130
    2580:	52842620 	mov	w0, #0x2131                	// #8497
    2584:	72ae0000 	movk	w0, #0x7000, lsl #16
    2588:	6b00027f 	cmp	w19, w0
    258c:	540009e0 	b.eq	26c8 <TEE_AllocateOperation+0x1fc>
    2590:	54001ae8 	b.hi	28ec <TEE_AllocateOperation+0x420>
    2594:	5280a260 	mov	w0, #0x513                 	// #1299
    2598:	72a60000 	movk	w0, #0x3000, lsl #16
    259c:	6b00027f 	cmp	w19, w0
    25a0:	54001000 	b.eq	27a0 <TEE_AllocateOperation+0x2d4>
    25a4:	54001208 	b.hi	27e4 <TEE_AllocateOperation+0x318>
    25a8:	52806200 	mov	w0, #0x310                 	// #784
    25ac:	72a20000 	movk	w0, #0x1000, lsl #16
    25b0:	6b00027f 	cmp	w19, w0
    25b4:	54002a80 	b.eq	2b04 <TEE_AllocateOperation+0x638>
    25b8:	52802220 	mov	w0, #0x111                 	// #273
    25bc:	54000dc8 	b.hi	2774 <TEE_AllocateOperation+0x2a8>
    25c0:	72a20000 	movk	w0, #0x1000, lsl #16
    25c4:	6b00027f 	cmp	w19, w0
    25c8:	54000c08 	b.hi	2748 <TEE_AllocateOperation+0x27c>
    25cc:	52802200 	mov	w0, #0x110                 	// #272
    25d0:	72a20000 	movk	w0, #0x1000, lsl #16
    25d4:	6b00027f 	cmp	w19, w0
    25d8:	540029a2 	b.cs	2b0c <TEE_AllocateOperation+0x640>
    25dc:	52800200 	mov	w0, #0x10                  	// #16
    25e0:	72a20000 	movk	w0, #0x1000, lsl #16
    25e4:	6b00027f 	cmp	w19, w0
    25e8:	540000e3 	b.cc	2604 <TEE_AllocateOperation+0x138>
    25ec:	11000400 	add	w0, w0, #0x1
    25f0:	6b00027f 	cmp	w19, w0
    25f4:	540028c9 	b.ls	2b0c <TEE_AllocateOperation+0x640>
    25f8:	11000800 	add	w0, w0, #0x2
    25fc:	6b00027f 	cmp	w19, w0
    2600:	54002860 	b.eq	2b0c <TEE_AllocateOperation+0x640>
/home/ursus/devel/optee/optee_os/lib/libutee/tee_api_operations.c:269
    2604:	129ffeb4 	mov	w20, #0xffff000a            	// #-65526
    2608:	1400003b 	b	26f4 <TEE_AllocateOperation+0x228>
/home/ursus/devel/optee/optee_os/lib/libutee/tee_api_operations.c:75
    260c:	52862620 	mov	w0, #0x3131                	// #12593
    2610:	72ae0000 	movk	w0, #0x7000, lsl #16
    2614:	6b00027f 	cmp	w19, w0
    2618:	54000680 	b.eq	26e8 <TEE_AllocateOperation+0x21c>
    261c:	113c4000 	add	w0, w0, #0xf10
    2620:	6b00027f 	cmp	w19, w0
    2624:	54000860 	b.eq	2730 <TEE_AllocateOperation+0x264>
    2628:	52860820 	mov	w0, #0x3041                	// #12353
    262c:	72ae0000 	movk	w0, #0x7000, lsl #16
    2630:	6b00027f 	cmp	w19, w0
    2634:	54fffa61 	b.ne	2580 <TEE_AllocateOperation+0xb4>
/home/ursus/devel/optee/optee_os/lib/libutee/tee_api_operations.c:80
    2638:	129ffeb4 	mov	w20, #0xffff000a            	// #-65526
/home/ursus/devel/optee/optee_os/lib/libutee/tee_api_operations.c:109
    263c:	710402ff 	cmp	w23, #0x100
    2640:	14000010 	b	2680 <TEE_AllocateOperation+0x1b4>
/home/ursus/devel/optee/optee_os/lib/libutee/tee_api_operations.c:75
    2644:	52840840 	mov	w0, #0x2042                	// #8258
    2648:	72b00000 	movk	w0, #0x8000, lsl #16
    264c:	6b00027f 	cmp	w19, w0
    2650:	540006a0 	b.eq	2724 <TEE_AllocateOperation+0x258>
    2654:	540001a8 	b.hi	2688 <TEE_AllocateOperation+0x1bc>
    2658:	528a0820 	mov	w0, #0x5041                	// #20545
    265c:	72ae0000 	movk	w0, #0x7000, lsl #16
    2660:	6b00027f 	cmp	w19, w0
    2664:	540006c0 	b.eq	273c <TEE_AllocateOperation+0x270>
    2668:	52820840 	mov	w0, #0x1042                	// #4162
    266c:	72b00000 	movk	w0, #0x8000, lsl #16
    2670:	6b00027f 	cmp	w19, w0
    2674:	54fff861 	b.ne	2580 <TEE_AllocateOperation+0xb4>
/home/ursus/devel/optee/optee_os/lib/libutee/tee_api_operations.c:97
    2678:	710302ff 	cmp	w23, #0xc0
/home/ursus/devel/optee/optee_os/lib/libutee/tee_api_operations.c:80
    267c:	129ffeb4 	mov	w20, #0xffff000a            	// #-65526
/home/ursus/devel/optee/optee_os/lib/libutee/tee_api_operations.c:121
    2680:	540003a1 	b.ne	26f4 <TEE_AllocateOperation+0x228>
    2684:	17ffffbf 	b	2580 <TEE_AllocateOperation+0xb4>
/home/ursus/devel/optee/optee_os/lib/libutee/tee_api_operations.c:75
    2688:	52880840 	mov	w0, #0x4042                	// #16450
    268c:	72b00000 	movk	w0, #0x8000, lsl #16
    2690:	6b00027f 	cmp	w19, w0
    2694:	540004e0 	b.eq	2730 <TEE_AllocateOperation+0x264>
    2698:	11400400 	add	w0, w0, #0x1, lsl #12
    269c:	6b00027f 	cmp	w19, w0
    26a0:	540004e0 	b.eq	273c <TEE_AllocateOperation+0x270>
    26a4:	52860840 	mov	w0, #0x3042                	// #12354
    26a8:	72b00000 	movk	w0, #0x8000, lsl #16
    26ac:	17ffffe1 	b	2630 <TEE_AllocateOperation+0x164>
/home/ursus/devel/optee/optee_os/lib/libutee/tee_api_operations.c:79
    26b0:	510802e0 	sub	w0, w23, #0x200
/home/ursus/devel/optee/optee_os/lib/libutee/tee_api_operations.c:80
    26b4:	129ffeb4 	mov	w20, #0xffff000a            	// #-65526
/home/ursus/devel/optee/optee_os/lib/libutee/tee_api_operations.c:79
    26b8:	7108001f 	cmp	w0, #0x200
    26bc:	540001c8 	b.hi	26f4 <TEE_AllocateOperation+0x228>
/home/ursus/devel/optee/optee_os/lib/libutee/tee_api_operations.c:81
    26c0:	f24016ff 	tst	x23, #0x3f
    26c4:	54000181 	b.ne	26f4 <TEE_AllocateOperation+0x228>
/home/ursus/devel/optee/optee_os/lib/libutee/tee_api_operations.c:176
    26c8:	71000b1f 	cmp	w24, #0x2
    26cc:	540029c0 	b.eq	2c04 <TEE_AllocateOperation+0x738>
/home/ursus/devel/optee/optee_os/lib/libutee/tee_api_operations.c:179
    26d0:	71000f1f 	cmp	w24, #0x3
    26d4:	54fff981 	b.ne	2604 <TEE_AllocateOperation+0x138>
/home/ursus/devel/optee/optee_os/lib/libutee/tee_api_operations.c:66
    26d8:	52800019 	mov	w25, #0x0                   	// #0
/home/ursus/devel/optee/optee_os/lib/libutee/tee_api_operations.c:65
    26dc:	5280001b 	mov	w27, #0x0                   	// #0
/home/ursus/devel/optee/optee_os/lib/libutee/tee_api_operations.c:180
    26e0:	52800403 	mov	w3, #0x20                  	// #32
    26e4:	140000d6 	b	2a3c <TEE_AllocateOperation+0x570>
/home/ursus/devel/optee/optee_os/lib/libutee/tee_api_operations.c:86
    26e8:	712002ff 	cmp	w23, #0x800
/home/ursus/devel/optee/optee_os/lib/libutee/tee_api_operations.c:80
    26ec:	129ffeb4 	mov	w20, #0xffff000a            	// #-65526
/home/ursus/devel/optee/optee_os/lib/libutee/tee_api_operations.c:91
    26f0:	54fffec0 	b.eq	26c8 <TEE_AllocateOperation+0x1fc>
/home/ursus/devel/optee/optee_os/lib/libutee/tee_api_operations.c:363
    26f4:	2a1403e0 	mov	w0, w20
    26f8:	a94153f3 	ldp	x19, x20, [sp,#16]
    26fc:	a9425bf5 	ldp	x21, x22, [sp,#32]
    2700:	a94363f7 	ldp	x23, x24, [sp,#48]
    2704:	a9446bf9 	ldp	x25, x26, [sp,#64]
    2708:	a94573fb 	ldp	x27, x28, [sp,#80]
    270c:	a8c77bfd 	ldp	x29, x30, [sp],#112
    2710:	d65f03c0 	ret
/home/ursus/devel/optee/optee_os/lib/libutee/tee_api_operations.c:91
    2714:	12157ae0 	and	w0, w23, #0xfffffbff
/home/ursus/devel/optee/optee_os/lib/libutee/tee_api_operations.c:80
    2718:	129ffeb4 	mov	w20, #0xffff000a            	// #-65526
/home/ursus/devel/optee/optee_os/lib/libutee/tee_api_operations.c:91
    271c:	7120001f 	cmp	w0, #0x800
    2720:	17fffff4 	b	26f0 <TEE_AllocateOperation+0x224>
/home/ursus/devel/optee/optee_os/lib/libutee/tee_api_operations.c:80
    2724:	129ffeb4 	mov	w20, #0xffff000a            	// #-65526
/home/ursus/devel/optee/optee_os/lib/libutee/tee_api_operations.c:103
    2728:	710382ff 	cmp	w23, #0xe0
    272c:	17ffffd5 	b	2680 <TEE_AllocateOperation+0x1b4>
/home/ursus/devel/optee/optee_os/lib/libutee/tee_api_operations.c:80
    2730:	129ffeb4 	mov	w20, #0xffff000a            	// #-65526
/home/ursus/devel/optee/optee_os/lib/libutee/tee_api_operations.c:115
    2734:	710602ff 	cmp	w23, #0x180
    2738:	17ffffd2 	b	2680 <TEE_AllocateOperation+0x1b4>
/home/ursus/devel/optee/optee_os/lib/libutee/tee_api_operations.c:80
    273c:	129ffeb4 	mov	w20, #0xffff000a            	// #-65526
/home/ursus/devel/optee/optee_os/lib/libutee/tee_api_operations.c:121
    2740:	710826ff 	cmp	w23, #0x209
    2744:	17ffffcf 	b	2680 <TEE_AllocateOperation+0x1b4>
/home/ursus/devel/optee/optee_os/lib/libutee/tee_api_operations.c:130
    2748:	52802260 	mov	w0, #0x113                 	// #275
    274c:	72a20000 	movk	w0, #0x1000, lsl #16
    2750:	6b00027f 	cmp	w19, w0
    2754:	54001dc0 	b.eq	2b0c <TEE_AllocateOperation+0x640>
    2758:	1103f400 	add	w0, w0, #0xfd
    275c:	6b00027f 	cmp	w19, w0
    2760:	54fff521 	b.ne	2604 <TEE_AllocateOperation+0x138>
    2764:	5280001a 	mov	w26, #0x0                   	// #0
/home/ursus/devel/optee/optee_os/lib/libutee/tee_api_operations.c:66
    2768:	52800019 	mov	w25, #0x0                   	// #0
/home/ursus/devel/optee/optee_os/lib/libutee/tee_api_operations.c:63
    276c:	d2800036 	mov	x22, #0x1                   	// #1
    2770:	140000df 	b	2aec <TEE_AllocateOperation+0x620>
/home/ursus/devel/optee/optee_os/lib/libutee/tee_api_operations.c:130
    2774:	72a60000 	movk	w0, #0x3000, lsl #16
    2778:	6b00027f 	cmp	w19, w0
    277c:	54000208 	b.hi	27bc <TEE_AllocateOperation+0x2f0>
    2780:	52802200 	mov	w0, #0x110                 	// #272
    2784:	72a60000 	movk	w0, #0x3000, lsl #16
    2788:	6b00027f 	cmp	w19, w0
    278c:	540000a2 	b.cs	27a0 <TEE_AllocateOperation+0x2d4>
    2790:	12a60000 	mov	w0, #0xcfffffff            	// #-805306369
    2794:	0b000260 	add	w0, w19, w0
    2798:	7100141f 	cmp	w0, #0x5
    279c:	54fff348 	b.hi	2604 <TEE_AllocateOperation+0x138>
/home/ursus/devel/optee/optee_os/lib/libutee/tee_api_operations.c:80
    27a0:	129ffeb4 	mov	w20, #0xffff000a            	// #-65526
/home/ursus/devel/optee/optee_os/lib/libutee/tee_api_operations.c:263
    27a4:	7100131f 	cmp	w24, #0x4
    27a8:	54fffa61 	b.ne	26f4 <TEE_AllocateOperation+0x228>
/home/ursus/devel/optee/optee_os/lib/libutee/tee_api_operations.c:66
    27ac:	52800019 	mov	w25, #0x0                   	// #0
/home/ursus/devel/optee/optee_os/lib/libutee/tee_api_operations.c:65
    27b0:	5280001b 	mov	w27, #0x0                   	// #0
/home/ursus/devel/optee/optee_os/lib/libutee/tee_api_operations.c:265
    27b4:	52800103 	mov	w3, #0x8                   	// #8
    27b8:	140000a1 	b	2a3c <TEE_AllocateOperation+0x570>
/home/ursus/devel/optee/optee_os/lib/libutee/tee_api_operations.c:130
    27bc:	52802260 	mov	w0, #0x113                 	// #275
    27c0:	72a60000 	movk	w0, #0x3000, lsl #16
    27c4:	6b00027f 	cmp	w19, w0
    27c8:	54fffec0 	b.eq	27a0 <TEE_AllocateOperation+0x2d4>
    27cc:	54fff1c3 	b.cc	2604 <TEE_AllocateOperation+0x138>
    27d0:	529f5e00 	mov	w0, #0xfaf0                	// #64240
    27d4:	72b9ffe0 	movk	w0, #0xcfff, lsl #16
    27d8:	0b000260 	add	w0, w19, w0
    27dc:	7100041f 	cmp	w0, #0x1
    27e0:	17ffffef 	b	279c <TEE_AllocateOperation+0x2d0>
    27e4:	52804600 	mov	w0, #0x230                 	// #560
    27e8:	72ac0420 	movk	w0, #0x6021, lsl #16
    27ec:	6b00027f 	cmp	w19, w0
    27f0:	540003a0 	b.eq	2864 <TEE_AllocateOperation+0x398>
    27f4:	54000468 	b.hi	2880 <TEE_AllocateOperation+0x3b4>
    27f8:	528000c0 	mov	w0, #0x6                   	// #6
    27fc:	72aa0000 	movk	w0, #0x5000, lsl #16
    2800:	6b00027f 	cmp	w19, w0
    2804:	54000228 	b.hi	2848 <TEE_AllocateOperation+0x37c>
    2808:	52800020 	mov	w0, #0x1                   	// #1
    280c:	72aa0000 	movk	w0, #0x5000, lsl #16
    2810:	6b00027f 	cmp	w19, w0
    2814:	54001902 	b.cs	2b34 <TEE_AllocateOperation+0x668>
    2818:	5280e200 	mov	w0, #0x710                 	// #1808
    281c:	72a80000 	movk	w0, #0x4000, lsl #16
    2820:	6b00027f 	cmp	w19, w0
    2824:	54001740 	b.eq	2b0c <TEE_AllocateOperation+0x640>
    2828:	11040000 	add	w0, w0, #0x100
    282c:	6b00027f 	cmp	w19, w0
    2830:	54fff9a0 	b.eq	2764 <TEE_AllocateOperation+0x298>
    2834:	5280c200 	mov	w0, #0x610                 	// #1552
    2838:	72a60000 	movk	w0, #0x3000, lsl #16
    283c:	6b00027f 	cmp	w19, w0
    2840:	54ffee21 	b.ne	2604 <TEE_AllocateOperation+0x138>
    2844:	17ffffd7 	b	27a0 <TEE_AllocateOperation+0x2d4>
    2848:	52800600 	mov	w0, #0x30                  	// #48
    284c:	72ac0000 	movk	w0, #0x6000, lsl #16
    2850:	6b00027f 	cmp	w19, w0
    2854:	54001620 	b.eq	2b18 <TEE_AllocateOperation+0x64c>
    2858:	11040000 	add	w0, w0, #0x100
    285c:	6b00027f 	cmp	w19, w0
    2860:	54ffed21 	b.ne	2604 <TEE_AllocateOperation+0x138>
/home/ursus/devel/optee/optee_os/lib/libutee/tee_api_operations.c:192
    2864:	34001d98 	cbz	w24, 2c14 <TEE_AllocateOperation+0x748>
/home/ursus/devel/optee/optee_os/lib/libutee/tee_api_operations.c:194
    2868:	7100071f 	cmp	w24, #0x1
    286c:	54ffecc1 	b.ne	2604 <TEE_AllocateOperation+0x138>
/home/ursus/devel/optee/optee_os/lib/libutee/tee_api_operations.c:66
    2870:	52800019 	mov	w25, #0x0                   	// #0
/home/ursus/devel/optee/optee_os/lib/libutee/tee_api_operations.c:195
    2874:	2a1803fb 	mov	w27, w24
/home/ursus/devel/optee/optee_os/lib/libutee/tee_api_operations.c:196
    2878:	52800083 	mov	w3, #0x4                   	// #4
    287c:	14000070 	b	2a3c <TEE_AllocateOperation+0x570>
/home/ursus/devel/optee/optee_os/lib/libutee/tee_api_operations.c:130
    2880:	52804600 	mov	w0, #0x230                 	// #560
    2884:	72ac0c20 	movk	w0, #0x6061, lsl #16
    2888:	6b00027f 	cmp	w19, w0
    288c:	54fffec0 	b.eq	2864 <TEE_AllocateOperation+0x398>
    2890:	54000168 	b.hi	28bc <TEE_AllocateOperation+0x3f0>
    2894:	52804600 	mov	w0, #0x230                 	// #560
    2898:	72ac0820 	movk	w0, #0x6041, lsl #16
    289c:	6b00027f 	cmp	w19, w0
    28a0:	54fffe20 	b.eq	2864 <TEE_AllocateOperation+0x398>
    28a4:	11440000 	add	w0, w0, #0x100, lsl #12
    28a8:	6b00027f 	cmp	w19, w0
    28ac:	54fffdc0 	b.eq	2864 <TEE_AllocateOperation+0x398>
    28b0:	52804600 	mov	w0, #0x230                 	// #560
    28b4:	72ac0620 	movk	w0, #0x6031, lsl #16
    28b8:	17ffffe9 	b	285c <TEE_AllocateOperation+0x390>
    28bc:	52830600 	mov	w0, #0x1830                	// #6192
    28c0:	72ae0000 	movk	w0, #0x7000, lsl #16
    28c4:	6b00027f 	cmp	w19, w0
    28c8:	54fff000 	b.eq	26c8 <TEE_AllocateOperation+0x1fc>
    28cc:	11204400 	add	w0, w0, #0x811
    28d0:	6b00027f 	cmp	w19, w0
    28d4:	54ffefa0 	b.eq	26c8 <TEE_AllocateOperation+0x1fc>
    28d8:	52820820 	mov	w0, #0x1041                	// #4161
    28dc:	72ae0000 	movk	w0, #0x7000, lsl #16
    28e0:	6b00027f 	cmp	w19, w0
    28e4:	54ffe901 	b.ne	2604 <TEE_AllocateOperation+0x138>
    28e8:	17ffff78 	b	26c8 <TEE_AllocateOperation+0x1fc>
    28ec:	52800640 	mov	w0, #0x32                  	// #50
    28f0:	72b00000 	movk	w0, #0x8000, lsl #16
    28f4:	6b00027f 	cmp	w19, w0
    28f8:	54000960 	b.eq	2a24 <TEE_AllocateOperation+0x558>
    28fc:	540006c8 	b.hi	29d4 <TEE_AllocateOperation+0x508>
    2900:	528a0820 	mov	w0, #0x5041                	// #20545
    2904:	72ae0000 	movk	w0, #0x7000, lsl #16
    2908:	6b00027f 	cmp	w19, w0
    290c:	54ffede0 	b.eq	26c8 <TEE_AllocateOperation+0x1fc>
    2910:	54000308 	b.hi	2970 <TEE_AllocateOperation+0x4a4>
    2914:	52870600 	mov	w0, #0x3830                	// #14384
    2918:	72ae0000 	movk	w0, #0x7000, lsl #16
    291c:	6b00027f 	cmp	w19, w0
    2920:	54ffed40 	b.eq	26c8 <TEE_AllocateOperation+0x1fc>
    2924:	54000148 	b.hi	294c <TEE_AllocateOperation+0x480>
    2928:	52860820 	mov	w0, #0x3041                	// #12353
    292c:	72ae0000 	movk	w0, #0x7000, lsl #16
    2930:	6b00027f 	cmp	w19, w0
    2934:	54ffeca0 	b.eq	26c8 <TEE_AllocateOperation+0x1fc>
    2938:	1103c000 	add	w0, w0, #0xf0
    293c:	6b00027f 	cmp	w19, w0
    2940:	54ffec40 	b.eq	26c8 <TEE_AllocateOperation+0x1fc>
    2944:	52850600 	mov	w0, #0x2830                	// #10288
    2948:	17ffffe5 	b	28dc <TEE_AllocateOperation+0x410>
    294c:	52882620 	mov	w0, #0x4131                	// #16689
    2950:	72ae0000 	movk	w0, #0x7000, lsl #16
    2954:	6b00027f 	cmp	w19, w0
    2958:	54ffeb80 	b.eq	26c8 <TEE_AllocateOperation+0x1fc>
    295c:	111bfc00 	add	w0, w0, #0x6ff
    2960:	6b00027f 	cmp	w19, w0
    2964:	54ffeb20 	b.eq	26c8 <TEE_AllocateOperation+0x1fc>
    2968:	52880820 	mov	w0, #0x4041                	// #16449
    296c:	17ffffdc 	b	28dc <TEE_AllocateOperation+0x410>
    2970:	52872600 	mov	w0, #0x3930                	// #14640
    2974:	72ae0620 	movk	w0, #0x7031, lsl #16
    2978:	6b00027f 	cmp	w19, w0
    297c:	54ffea60 	b.eq	26c8 <TEE_AllocateOperation+0x1fc>
    2980:	54000168 	b.hi	29ac <TEE_AllocateOperation+0x4e0>
    2984:	528d0600 	mov	w0, #0x6830                	// #26672
    2988:	72ae0000 	movk	w0, #0x7000, lsl #16
    298c:	6b00027f 	cmp	w19, w0
    2990:	54ffe9c0 	b.eq	26c8 <TEE_AllocateOperation+0x1fc>
    2994:	52852600 	mov	w0, #0x2930                	// #10544
    2998:	72ae0420 	movk	w0, #0x7021, lsl #16
    299c:	6b00027f 	cmp	w19, w0
    29a0:	54ffe940 	b.eq	26c8 <TEE_AllocateOperation+0x1fc>
    29a4:	528b0600 	mov	w0, #0x5830                	// #22576
    29a8:	17ffffcd 	b	28dc <TEE_AllocateOperation+0x410>
    29ac:	528b2600 	mov	w0, #0x5930                	// #22832
    29b0:	72ae0a20 	movk	w0, #0x7051, lsl #16
    29b4:	6b00027f 	cmp	w19, w0
    29b8:	54ffe880 	b.eq	26c8 <TEE_AllocateOperation+0x1fc>
    29bc:	11440400 	add	w0, w0, #0x101, lsl #12
    29c0:	6b00027f 	cmp	w19, w0
    29c4:	54ffe820 	b.eq	26c8 <TEE_AllocateOperation+0x1fc>
    29c8:	52892600 	mov	w0, #0x4930                	// #18736
    29cc:	72ae0820 	movk	w0, #0x7041, lsl #16
    29d0:	17ffffc4 	b	28e0 <TEE_AllocateOperation+0x414>
    29d4:	52861820 	mov	w0, #0x30c1                	// #12481
    29d8:	72b00000 	movk	w0, #0x8000, lsl #16
    29dc:	6b00027f 	cmp	w19, w0
    29e0:	54000468 	b.hi	2a6c <TEE_AllocateOperation+0x5a0>
    29e4:	52861800 	mov	w0, #0x30c0                	// #12480
    29e8:	72b00000 	movk	w0, #0x8000, lsl #16
    29ec:	6b00027f 	cmp	w19, w0
    29f0:	540001a2 	b.cs	2a24 <TEE_AllocateOperation+0x558>
    29f4:	52840840 	mov	w0, #0x2042                	// #8258
    29f8:	72b00000 	movk	w0, #0x8000, lsl #16
    29fc:	6b00027f 	cmp	w19, w0
    2a00:	54000120 	b.eq	2a24 <TEE_AllocateOperation+0x558>
    2a04:	54000228 	b.hi	2a48 <TEE_AllocateOperation+0x57c>
    2a08:	52820840 	mov	w0, #0x1042                	// #4162
    2a0c:	72b00000 	movk	w0, #0x8000, lsl #16
    2a10:	6b00027f 	cmp	w19, w0
    2a14:	54000080 	b.eq	2a24 <TEE_AllocateOperation+0x558>
    2a18:	1101f800 	add	w0, w0, #0x7e
    2a1c:	6b00027f 	cmp	w19, w0
    2a20:	54ffdf21 	b.ne	2604 <TEE_AllocateOperation+0x138>
/home/ursus/devel/optee/optee_os/lib/libutee/tee_api_operations.c:80
    2a24:	129ffeb4 	mov	w20, #0xffff000a            	// #-65526
/home/ursus/devel/optee/optee_os/lib/libutee/tee_api_operations.c:231
    2a28:	71001b1f 	cmp	w24, #0x6
    2a2c:	54ffe641 	b.ne	26f4 <TEE_AllocateOperation+0x228>
/home/ursus/devel/optee/optee_os/lib/libutee/tee_api_operations.c:66
    2a30:	52800019 	mov	w25, #0x0                   	// #0
/home/ursus/devel/optee/optee_os/lib/libutee/tee_api_operations.c:233
    2a34:	5280003b 	mov	w27, #0x1                   	// #1
/home/ursus/devel/optee/optee_os/lib/libutee/tee_api_operations.c:234
    2a38:	52800803 	mov	w3, #0x40                  	// #64
/home/ursus/devel/optee/optee_os/lib/libutee/tee_api_operations.c:63
    2a3c:	d2800036 	mov	x22, #0x1                   	// #1
    2a40:	5280001a 	mov	w26, #0x0                   	// #0
    2a44:	14000044 	b	2b54 <TEE_AllocateOperation+0x688>
/home/ursus/devel/optee/optee_os/lib/libutee/tee_api_operations.c:130
    2a48:	52841800 	mov	w0, #0x20c0                	// #8384
    2a4c:	72b00000 	movk	w0, #0x8000, lsl #16
    2a50:	6b00027f 	cmp	w19, w0
    2a54:	54ffdd83 	b.cc	2604 <TEE_AllocateOperation+0x138>
    2a58:	11000800 	add	w0, w0, #0x2
    2a5c:	6b00027f 	cmp	w19, w0
    2a60:	54fffe29 	b.ls	2a24 <TEE_AllocateOperation+0x558>
    2a64:	113e0000 	add	w0, w0, #0xf80
    2a68:	17ffffed 	b	2a1c <TEE_AllocateOperation+0x550>
    2a6c:	528a0840 	mov	w0, #0x5042                	// #20546
    2a70:	72b00000 	movk	w0, #0x8000, lsl #16
    2a74:	6b00027f 	cmp	w19, w0
    2a78:	54fffd60 	b.eq	2a24 <TEE_AllocateOperation+0x558>
    2a7c:	54000188 	b.hi	2aac <TEE_AllocateOperation+0x5e0>
    2a80:	52880840 	mov	w0, #0x4042                	// #16450
    2a84:	72b00000 	movk	w0, #0x8000, lsl #16
    2a88:	6b00027f 	cmp	w19, w0
    2a8c:	54fffcc0 	b.eq	2a24 <TEE_AllocateOperation+0x558>
    2a90:	5297e800 	mov	w0, #0xbf40                	// #48960
    2a94:	54ffdb83 	b.cc	2604 <TEE_AllocateOperation+0x138>
    2a98:	72afffe0 	movk	w0, #0x7fff, lsl #16
    2a9c:	0b000260 	add	w0, w19, w0
    2aa0:	7100041f 	cmp	w0, #0x1
    2aa4:	54fffc09 	b.ls	2a24 <TEE_AllocateOperation+0x558>
    2aa8:	17fffed7 	b	2604 <TEE_AllocateOperation+0x138>
    2aac:	528a1800 	mov	w0, #0x50c0                	// #20672
    2ab0:	72b00000 	movk	w0, #0x8000, lsl #16
    2ab4:	6b00027f 	cmp	w19, w0
    2ab8:	54ffda63 	b.cc	2604 <TEE_AllocateOperation+0x138>
    2abc:	11000400 	add	w0, w0, #0x1
    2ac0:	6b00027f 	cmp	w19, w0
    2ac4:	54fffb09 	b.ls	2a24 <TEE_AllocateOperation+0x558>
    2ac8:	5293e800 	mov	w0, #0x9f40                	// #40768
    2acc:	17fffff3 	b	2a98 <TEE_AllocateOperation+0x5cc>
/home/ursus/devel/optee/optee_os/lib/libutee/tee_api_operations.c:72
    2ad0:	52a0011a 	mov	w26, #0x80000               	// #524288
/home/ursus/devel/optee/optee_os/lib/libutee/tee_api_operations.c:133
    2ad4:	52800039 	mov	w25, #0x1                   	// #1
/home/ursus/devel/optee/optee_os/lib/libutee/tee_api_operations.c:142
    2ad8:	12001e60 	and	w0, w19, #0xff
/home/ursus/devel/optee/optee_os/lib/libutee/tee_api_operations.c:145
    2adc:	d2800216 	mov	x22, #0x10                  	// #16
    2ae0:	7100401f 	cmp	w0, #0x10
    2ae4:	d2800100 	mov	x0, #0x8                   	// #8
    2ae8:	9a8002d6 	csel	x22, x22, x0, eq
/home/ursus/devel/optee/optee_os/lib/libutee/tee_api_operations.c:149
    2aec:	34000878 	cbz	w24, 2bf8 <TEE_AllocateOperation+0x72c>
/home/ursus/devel/optee/optee_os/lib/libutee/tee_api_operations.c:151
    2af0:	7100071f 	cmp	w24, #0x1
    2af4:	54ffd881 	b.ne	2604 <TEE_AllocateOperation+0x138>
/home/ursus/devel/optee/optee_os/lib/libutee/tee_api_operations.c:65
    2af8:	5280001b 	mov	w27, #0x0                   	// #0
/home/ursus/devel/optee/optee_os/lib/libutee/tee_api_operations.c:152
    2afc:	52800083 	mov	w3, #0x4                   	// #4
    2b00:	14000015 	b	2b54 <TEE_AllocateOperation+0x688>
/home/ursus/devel/optee/optee_os/lib/libutee/tee_api_operations.c:130
    2b04:	5280001a 	mov	w26, #0x0                   	// #0
    2b08:	17fffff3 	b	2ad4 <TEE_AllocateOperation+0x608>
    2b0c:	5280001a 	mov	w26, #0x0                   	// #0
/home/ursus/devel/optee/optee_os/lib/libutee/tee_api_operations.c:66
    2b10:	52800019 	mov	w25, #0x0                   	// #0
    2b14:	17fffff1 	b	2ad8 <TEE_AllocateOperation+0x60c>
/home/ursus/devel/optee/optee_os/lib/libutee/tee_api_operations.c:203
    2b18:	340008b8 	cbz	w24, 2c2c <TEE_AllocateOperation+0x760>
/home/ursus/devel/optee/optee_os/lib/libutee/tee_api_operations.c:205
    2b1c:	7100071f 	cmp	w24, #0x1
    2b20:	54ffd721 	b.ne	2604 <TEE_AllocateOperation+0x138>
/home/ursus/devel/optee/optee_os/lib/libutee/tee_api_operations.c:66
    2b24:	52800019 	mov	w25, #0x0                   	// #0
/home/ursus/devel/optee/optee_os/lib/libutee/tee_api_operations.c:206
    2b28:	5280003b 	mov	w27, #0x1                   	// #1
/home/ursus/devel/optee/optee_os/lib/libutee/tee_api_operations.c:207
    2b2c:	52800283 	mov	w3, #0x14                  	// #20
    2b30:	17ffffc3 	b	2a3c <TEE_AllocateOperation+0x570>
/home/ursus/devel/optee/optee_os/lib/libutee/tee_api_operations.c:80
    2b34:	129ffeb4 	mov	w20, #0xffff000a            	// #-65526
/home/ursus/devel/optee/optee_os/lib/libutee/tee_api_operations.c:243
    2b38:	7100171f 	cmp	w24, #0x5
    2b3c:	54ffddc1 	b.ne	26f4 <TEE_AllocateOperation+0x228>
/home/ursus/devel/optee/optee_os/lib/libutee/tee_api_operations.c:66
    2b40:	52800019 	mov	w25, #0x0                   	// #0
/home/ursus/devel/optee/optee_os/lib/libutee/tee_api_operations.c:65
    2b44:	5280001b 	mov	w27, #0x0                   	// #0
/home/ursus/devel/optee/optee_os/lib/libutee/tee_api_operations.c:247
    2b48:	52800003 	mov	w3, #0x0                   	// #0
/home/ursus/devel/optee/optee_os/lib/libutee/tee_api_operations.c:63
    2b4c:	d2800036 	mov	x22, #0x1                   	// #1
/home/ursus/devel/optee/optee_os/lib/libutee/tee_api_operations.c:246
    2b50:	52a0009a 	mov	w26, #0x40000               	// #262144
/home/ursus/devel/optee/optee_os/lib/libutee/tee_api_operations.c:272
    2b54:	52800001 	mov	w1, #0x0                   	// #0
    2b58:	52800c00 	mov	w0, #0x60                  	// #96
    2b5c:	b90067a3 	str	w3, [x29,#100]
/home/ursus/devel/optee/optee_os/lib/libutee/tee_api_operations.c:274
    2b60:	129ffe74 	mov	w20, #0xffff000c            	// #-65524
/home/ursus/devel/optee/optee_os/lib/libutee/tee_api_operations.c:272
    2b64:	97fff909 	bl	f88 <TEE_Malloc>
    2b68:	aa0003f5 	mov	x21, x0
/home/ursus/devel/optee/optee_os/lib/libutee/tee_api_operations.c:273
    2b6c:	b4ffdc40 	cbz	x0, 26f4 <TEE_AllocateOperation+0x228>
/home/ursus/devel/optee/optee_os/lib/libutee/tee_api_operations.c:280
    2b70:	b94067a3 	ldr	w3, [x29,#100]
/home/ursus/devel/optee/optee_os/lib/libutee/tee_api_operations.c:277
    2b74:	531c7e7c 	lsr	w28, w19, #28
/home/ursus/devel/optee/optee_os/lib/libutee/tee_api_operations.c:278
    2b78:	b9000818 	str	w24, [x0,#8]
/home/ursus/devel/optee/optee_os/lib/libutee/tee_api_operations.c:283
    2b7c:	f10006df 	cmp	x22, #0x1
/home/ursus/devel/optee/optee_os/lib/libutee/tee_api_operations.c:277
    2b80:	29007013 	stp	w19, w28, [x0]
/home/ursus/devel/optee/optee_os/lib/libutee/tee_api_operations.c:279
    2b84:	b9001017 	str	w23, [x0,#16]
/home/ursus/devel/optee/optee_os/lib/libutee/tee_api_operations.c:281
    2b88:	29036803 	stp	w3, w26, [x0,#24]
/home/ursus/devel/optee/optee_os/lib/libutee/tee_api_operations.c:283
    2b8c:	540005a1 	b.ne	2c40 <TEE_AllocateOperation+0x774>
/home/ursus/devel/optee/optee_os/lib/libutee/tee_api_operations.c:297
    2b90:	390102b9 	strb	w25, [x21,#64]
/home/ursus/devel/optee/optee_os/lib/libutee/tee_api_operations.c:299
    2b94:	7100179f 	cmp	w28, #0x5
/home/ursus/devel/optee/optee_os/lib/libutee/tee_api_operations.c:296
    2b98:	f90026b6 	str	x22, [x21,#72]
/home/ursus/devel/optee/optee_os/lib/libutee/tee_api_operations.c:299
    2b9c:	54000641 	b.ne	2c64 <TEE_AllocateOperation+0x798>
/home/ursus/devel/optee/optee_os/lib/libutee/tee_api_operations.c:323
    2ba0:	a9420ea2 	ldp	x2, x3, [x21,#32]
    2ba4:	910162a4 	add	x4, x21, #0x58
    2ba8:	2a1803e1 	mov	w1, w24
    2bac:	2a1303e0 	mov	w0, w19
    2bb0:	94000b73 	bl	597c <utee_cryp_state_alloc>
/home/ursus/devel/optee/optee_os/lib/libutee/tee_api_operations.c:325
    2bb4:	35000c40 	cbnz	w0, 2d3c <TEE_AllocateOperation+0x870>
/home/ursus/devel/optee/optee_os/lib/libutee/tee_api_operations.c:333
    2bb8:	7100179f 	cmp	w28, #0x5
    2bbc:	54000141 	b.ne	2be4 <TEE_AllocateOperation+0x718>
/home/ursus/devel/optee/optee_os/lib/libutee/tee_api_operations.c:334
    2bc0:	b9405aa0 	ldr	w0, [x21,#88]
    2bc4:	d2800002 	mov	x2, #0x0                   	// #0
    2bc8:	d2800001 	mov	x1, #0x0                   	// #0
    2bcc:	94000b75 	bl	59a0 <utee_hash_init>
    2bd0:	2a0003f4 	mov	w20, w0
/home/ursus/devel/optee/optee_os/lib/libutee/tee_api_operations.c:335
    2bd4:	35000780 	cbnz	w0, 2cc4 <TEE_AllocateOperation+0x7f8>
/home/ursus/devel/optee/optee_os/lib/libutee/tee_api_operations.c:338
    2bd8:	b9401ea0 	ldr	w0, [x21,#28]
    2bdc:	320f0000 	orr	w0, w0, #0x20000
    2be0:	b9001ea0 	str	w0, [x21,#28]
/home/ursus/devel/optee/optee_os/lib/libutee/tee_api_operations.c:343
    2be4:	f94037a0 	ldr	x0, [x29,#104]
    2be8:	52800014 	mov	w20, #0x0                   	// #0
/home/ursus/devel/optee/optee_os/lib/libutee/tee_api_operations.c:341
    2bec:	b90032bf 	str	wzr, [x21,#48]
/home/ursus/devel/optee/optee_os/lib/libutee/tee_api_operations.c:343
    2bf0:	f9000015 	str	x21, [x0]
    2bf4:	17fffec0 	b	26f4 <TEE_AllocateOperation+0x228>
/home/ursus/devel/optee/optee_os/lib/libutee/tee_api_operations.c:65
    2bf8:	5280001b 	mov	w27, #0x0                   	// #0
/home/ursus/devel/optee/optee_os/lib/libutee/tee_api_operations.c:150
    2bfc:	52800043 	mov	w3, #0x2                   	// #2
    2c00:	17ffffd5 	b	2b54 <TEE_AllocateOperation+0x688>
/home/ursus/devel/optee/optee_os/lib/libutee/tee_api_operations.c:66
    2c04:	52800019 	mov	w25, #0x0                   	// #0
/home/ursus/devel/optee/optee_os/lib/libutee/tee_api_operations.c:177
    2c08:	5280003b 	mov	w27, #0x1                   	// #1
/home/ursus/devel/optee/optee_os/lib/libutee/tee_api_operations.c:178
    2c0c:	52800203 	mov	w3, #0x10                  	// #16
    2c10:	17ffff8b 	b	2a3c <TEE_AllocateOperation+0x570>
    2c14:	5280001a 	mov	w26, #0x0                   	// #0
/home/ursus/devel/optee/optee_os/lib/libutee/tee_api_operations.c:66
    2c18:	52800019 	mov	w25, #0x0                   	// #0
/home/ursus/devel/optee/optee_os/lib/libutee/tee_api_operations.c:65
    2c1c:	5280001b 	mov	w27, #0x0                   	// #0
/home/ursus/devel/optee/optee_os/lib/libutee/tee_api_operations.c:193
    2c20:	52800043 	mov	w3, #0x2                   	// #2
/home/ursus/devel/optee/optee_os/lib/libutee/tee_api_operations.c:63
    2c24:	d2800036 	mov	x22, #0x1                   	// #1
    2c28:	17ffffcb 	b	2b54 <TEE_AllocateOperation+0x688>
    2c2c:	5280001a 	mov	w26, #0x0                   	// #0
/home/ursus/devel/optee/optee_os/lib/libutee/tee_api_operations.c:66
    2c30:	52800019 	mov	w25, #0x0                   	// #0
/home/ursus/devel/optee/optee_os/lib/libutee/tee_api_operations.c:65
    2c34:	5280001b 	mov	w27, #0x0                   	// #0
/home/ursus/devel/optee/optee_os/lib/libutee/tee_api_operations.c:204
    2c38:	52800443 	mov	w3, #0x22                  	// #34
    2c3c:	17fffffa 	b	2c24 <TEE_AllocateOperation+0x758>
/home/ursus/devel/optee/optee_os/lib/libutee/tee_api_operations.c:287
    2c40:	7100033f 	cmp	w25, #0x0
    2c44:	d37ffac0 	lsl	x0, x22, #1
/home/ursus/devel/optee/optee_os/lib/libutee/tee_api_operations.c:289
    2c48:	52b00001 	mov	w1, #0x80000000            	// #-2147483648
    2c4c:	9a961000 	csel	x0, x0, x22, ne
    2c50:	97fff8ce 	bl	f88 <TEE_Malloc>
    2c54:	f9001ea0 	str	x0, [x21,#56]
/home/ursus/devel/optee/optee_os/lib/libutee/tee_api_operations.c:291
    2c58:	b5fff9c0 	cbnz	x0, 2b90 <TEE_AllocateOperation+0x6c4>
/home/ursus/devel/optee/optee_os/lib/libutee/tee_api_operations.c:292
    2c5c:	129ffe74 	mov	w20, #0xffff000c            	// #-65524
    2c60:	14000019 	b	2cc4 <TEE_AllocateOperation+0x7f8>
/home/ursus/devel/optee/optee_os/lib/libutee/tee_api_operations.c:301
    2c64:	7100037f 	cmp	w27, #0x0
    2c68:	52b40001 	mov	w1, #0xa0000000            	// #-1610612736
    2c6c:	52b42000 	mov	w0, #0xa1000000            	// #-1593835520
    2c70:	1a811000 	csel	w0, w0, w1, ne
/home/ursus/devel/optee/optee_os/lib/libutee/tee_api_operations.c:308
    2c74:	b9401ea1 	ldr	w1, [x21,#28]
/home/ursus/devel/optee/optee_os/lib/libutee/tee_api_operations.c:301
    2c78:	12001e76 	and	w22, w19, #0xff
    2c7c:	2a160016 	orr	w22, w0, w22
/home/ursus/devel/optee/optee_os/lib/libutee/tee_api_operations.c:309
    2c80:	53017ee0 	lsr	w0, w23, #1
/home/ursus/devel/optee/optee_os/lib/libutee/tee_api_operations.c:311
    2c84:	910082a2 	add	x2, x21, #0x20
/home/ursus/devel/optee/optee_os/lib/libutee/tee_api_operations.c:309
    2c88:	f26d003f 	tst	x1, #0x80000
    2c8c:	1a971017 	csel	w23, w0, w23, ne
/home/ursus/devel/optee/optee_os/lib/libutee/tee_api_operations.c:311
    2c90:	2a1603e0 	mov	w0, w22
    2c94:	2a1703e1 	mov	w1, w23
    2c98:	97fff9e4 	bl	1428 <TEE_AllocateTransientObject>
    2c9c:	2a0003f4 	mov	w20, w0
/home/ursus/devel/optee/optee_os/lib/libutee/tee_api_operations.c:312
    2ca0:	35000120 	cbnz	w0, 2cc4 <TEE_AllocateOperation+0x7f8>
/home/ursus/devel/optee/optee_os/lib/libutee/tee_api_operations.c:315
    2ca4:	b9401ea0 	ldr	w0, [x21,#28]
    2ca8:	369ff7c0 	tbz	w0, #19, 2ba0 <TEE_AllocateOperation+0x6d4>
/home/ursus/devel/optee/optee_os/lib/libutee/tee_api_operations.c:316
    2cac:	9100a2a2 	add	x2, x21, #0x28
    2cb0:	2a1703e1 	mov	w1, w23
    2cb4:	2a1603e0 	mov	w0, w22
    2cb8:	97fff9dc 	bl	1428 <TEE_AllocateTransientObject>
    2cbc:	2a0003f4 	mov	w20, w0
/home/ursus/devel/optee/optee_os/lib/libutee/tee_api_operations.c:318
    2cc0:	34fff700 	cbz	w0, 2ba0 <TEE_AllocateOperation+0x6d4>
/home/ursus/devel/optee/optee_os/lib/libutee/tee_api_operations.c:348
    2cc4:	529ffec0 	mov	w0, #0xfff6                	// #65526
    2cc8:	0b000280 	add	w0, w20, w0
/home/ursus/devel/optee/optee_os/lib/libutee/tee_api_operations.c:347
    2ccc:	721e781f 	tst	w0, #0xfffffffd
    2cd0:	540001a0 	b.eq	2d04 <TEE_AllocateOperation+0x838>
/home/ursus/devel/optee/optee_os/lib/libutee/tee_api_operations.c:349
    2cd4:	2a1403e5 	mov	w5, w20
    2cd8:	90000064 	adrp	x4, e000 <__func__.3633+0x30>
    2cdc:	91112884 	add	x4, x4, #0x44a
    2ce0:	52800023 	mov	w3, #0x1                   	// #1
    2ce4:	52800022 	mov	w2, #0x1                   	// #1
    2ce8:	52802ba1 	mov	w1, #0x15d                 	// #349
    2cec:	d0000040 	adrp	x0, c000 <mpa_set_str+0x4>
    2cf0:	9136e000 	add	x0, x0, #0xdb8
    2cf4:	91012000 	add	x0, x0, #0x48
    2cf8:	9400173e 	bl	89f0 <trace_printf>
    2cfc:	2a1403e0 	mov	w0, w20
    2d00:	94000a31 	bl	55c4 <__TEE_Panic>
/home/ursus/devel/optee/optee_os/lib/libutee/tee_api_operations.c:351
    2d04:	b9405aa0 	ldr	w0, [x21,#88]
    2d08:	34000080 	cbz	w0, 2d18 <TEE_AllocateOperation+0x84c>
/home/ursus/devel/optee/optee_os/lib/libutee/tee_api_operations.c:352
    2d0c:	aa1503e0 	mov	x0, x21
    2d10:	97fffdc8 	bl	2430 <TEE_FreeOperation>
    2d14:	17fffe78 	b	26f4 <TEE_AllocateOperation+0x228>
/home/ursus/devel/optee/optee_os/lib/libutee/tee_api_operations.c:354
    2d18:	f9401ea0 	ldr	x0, [x21,#56]
    2d1c:	97fff89f 	bl	f98 <TEE_Free>
/home/ursus/devel/optee/optee_os/lib/libutee/tee_api_operations.c:355
    2d20:	f94012a0 	ldr	x0, [x21,#32]
    2d24:	97fff9e5 	bl	14b8 <TEE_FreeTransientObject>
/home/ursus/devel/optee/optee_os/lib/libutee/tee_api_operations.c:356
    2d28:	f94016a0 	ldr	x0, [x21,#40]
    2d2c:	97fff9e3 	bl	14b8 <TEE_FreeTransientObject>
/home/ursus/devel/optee/optee_os/lib/libutee/tee_api_operations.c:357
    2d30:	aa1503e0 	mov	x0, x21
    2d34:	97fff899 	bl	f98 <TEE_Free>
    2d38:	17fffe6f 	b	26f4 <TEE_AllocateOperation+0x228>
    2d3c:	2a0003f4 	mov	w20, w0
    2d40:	17ffffe1 	b	2cc4 <TEE_AllocateOperation+0x7f8>

0000000000002d44 <TEE_GetOperationInfo>:
TEE_GetOperationInfo():
/home/ursus/devel/optee/optee_os/lib/libutee/tee_api_operations.c:387
    2d44:	a9be7bfd 	stp	x29, x30, [sp,#-32]!
    2d48:	910003fd 	mov	x29, sp
    2d4c:	a90153f3 	stp	x19, x20, [sp,#16]
    2d50:	aa0003f4 	mov	x20, x0
    2d54:	aa0103f3 	mov	x19, x1
/home/ursus/devel/optee/optee_os/lib/libutee/tee_api_operations.c:388
    2d58:	b50001a0 	cbnz	x0, 2d8c <TEE_GetOperationInfo+0x48>
/home/ursus/devel/optee/optee_os/lib/libutee/tee_api_operations.c:389
    2d5c:	90000064 	adrp	x4, e000 <__func__.3633+0x30>
    2d60:	91112884 	add	x4, x4, #0x44a
    2d64:	52800005 	mov	w5, #0x0                   	// #0
    2d68:	52800023 	mov	w3, #0x1                   	// #1
    2d6c:	52800022 	mov	w2, #0x1                   	// #1
    2d70:	528030a1 	mov	w1, #0x185                 	// #389
    2d74:	d0000040 	adrp	x0, c000 <mpa_set_str+0x4>
    2d78:	9136e000 	add	x0, x0, #0xdb8
    2d7c:	91018000 	add	x0, x0, #0x60
    2d80:	9400171c 	bl	89f0 <trace_printf>
    2d84:	52800000 	mov	w0, #0x0                   	// #0
    2d88:	94000a0f 	bl	55c4 <__TEE_Panic>
/home/ursus/devel/optee/optee_os/lib/libutee/tee_api_operations.c:391
    2d8c:	b50001b3 	cbnz	x19, 2dc0 <TEE_GetOperationInfo+0x7c>
/home/ursus/devel/optee/optee_os/lib/libutee/tee_api_operations.c:392
    2d90:	90000064 	adrp	x4, e000 <__func__.3633+0x30>
    2d94:	91112884 	add	x4, x4, #0x44a
    2d98:	52800005 	mov	w5, #0x0                   	// #0
    2d9c:	52800023 	mov	w3, #0x1                   	// #1
    2da0:	52800022 	mov	w2, #0x1                   	// #1
    2da4:	52803101 	mov	w1, #0x188                 	// #392
    2da8:	d0000040 	adrp	x0, c000 <mpa_set_str+0x4>
    2dac:	9136e000 	add	x0, x0, #0xdb8
    2db0:	91018000 	add	x0, x0, #0x60
    2db4:	9400170f 	bl	89f0 <trace_printf>
    2db8:	52800000 	mov	w0, #0x0                   	// #0
    2dbc:	94000a02 	bl	55c4 <__TEE_Panic>
/home/ursus/devel/optee/optee_os/lib/libutee/tee_api_operations.c:394
    2dc0:	aa1403e1 	mov	x1, x20
    2dc4:	d2800402 	mov	x2, #0x20                  	// #32
    2dc8:	aa1303e0 	mov	x0, x19
    2dcc:	94001399 	bl	7c30 <memcpy>
/home/ursus/devel/optee/optee_os/lib/libutee/tee_api_operations.c:395
    2dd0:	a94153f3 	ldp	x19, x20, [sp,#16]
    2dd4:	a8c27bfd 	ldp	x29, x30, [sp],#32
    2dd8:	d65f03c0 	ret

0000000000002ddc <TEE_GetOperationInfoMultiple>:
TEE_GetOperationInfoMultiple():
/home/ursus/devel/optee/optee_os/lib/libutee/tee_api_operations.c:400
    2ddc:	a9b97bfd 	stp	x29, x30, [sp,#-112]!
/home/ursus/devel/optee/optee_os/lib/libutee/tee_api_operations.c:417
    2de0:	f100005f 	cmp	x2, #0x0
    2de4:	fa401824 	ccmp	x1, #0x0, #0x4, ne
/home/ursus/devel/optee/optee_os/lib/libutee/tee_api_operations.c:400
    2de8:	910003fd 	mov	x29, sp
    2dec:	a9025bf5 	stp	x21, x22, [sp,#32]
/home/ursus/devel/optee/optee_os/lib/libutee/tee_api_operations.c:417
    2df0:	fa401804 	ccmp	x0, #0x0, #0x4, ne
/home/ursus/devel/optee/optee_os/lib/libutee/tee_api_operations.c:400
    2df4:	a90153f3 	stp	x19, x20, [sp,#16]
/home/ursus/devel/optee/optee_os/lib/libutee/tee_api_operations.c:418
    2df8:	129fff35 	mov	w21, #0xffff0006            	// #-65530
/home/ursus/devel/optee/optee_os/lib/libutee/tee_api_operations.c:417
    2dfc:	540004a0 	b.eq	2e90 <TEE_GetOperationInfoMultiple+0xb4>
/home/ursus/devel/optee/optee_os/lib/libutee/tee_api_operations.c:422
    2e00:	b9400056 	ldr	w22, [x2]
    2e04:	d10082d6 	sub	x22, x22, #0x20
    2e08:	d343fed6 	lsr	x22, x22, #3
/home/ursus/devel/optee/optee_os/lib/libutee/tee_api_operations.c:425
    2e0c:	71000adf 	cmp	w22, #0x2
    2e10:	54000408 	b.hi	2e90 <TEE_GetOperationInfoMultiple+0xb4>
    2e14:	aa0003f4 	mov	x20, x0
/home/ursus/devel/optee/optee_os/lib/libutee/tee_api_operations.c:431
    2e18:	b9401c00 	ldr	w0, [x0,#28]
/home/ursus/devel/optee/optee_os/lib/libutee/tee_api_operations.c:434
    2e1c:	129ffdf5 	mov	w21, #0xffff0010            	// #-65520
/home/ursus/devel/optee/optee_os/lib/libutee/tee_api_operations.c:432
    2e20:	f26d001f 	tst	x0, #0x80000
    2e24:	7a421ac4 	ccmp	w22, #0x2, #0x4, ne
    2e28:	54000341 	b.ne	2e90 <TEE_GetOperationInfoMultiple+0xb4>
/home/ursus/devel/optee/optee_os/lib/libutee/tee_api_operations.c:439
    2e2c:	92407ec2 	and	x2, x22, #0xffffffff
    2e30:	aa0103f3 	mov	x19, x1
    2e34:	91008020 	add	x0, x1, #0x20
/home/ursus/devel/optee/optee_os/lib/libutee/tee_api_operations.c:432
    2e38:	d2800001 	mov	x1, #0x0                   	// #0
/home/ursus/devel/optee/optee_os/lib/libutee/tee_api_operations.c:439 (discriminator 1)
    2e3c:	eb02003f 	cmp	x1, x2
    2e40:	54000523 	b.cc	2ee4 <TEE_GetOperationInfoMultiple+0x108>
/home/ursus/devel/optee/optee_os/lib/libutee/tee_api_operations.c:444
    2e44:	71000adf 	cmp	w22, #0x2
    2e48:	54000561 	b.ne	2ef4 <TEE_GetOperationInfoMultiple+0x118>
/home/ursus/devel/optee/optee_os/lib/libutee/tee_api_operations.c:445
    2e4c:	f9401680 	ldr	x0, [x20,#40]
    2e50:	910143a1 	add	x1, x29, #0x50
    2e54:	97fff888 	bl	1074 <TEE_GetObjectInfo1>
    2e58:	2a0003f5 	mov	w21, w0
/home/ursus/devel/optee/optee_os/lib/libutee/tee_api_operations.c:447
    2e5c:	350001a0 	cbnz	w0, 2e90 <TEE_GetOperationInfoMultiple+0xb4>
/home/ursus/devel/optee/optee_os/lib/libutee/tee_api_operations.c:450
    2e60:	b94057a0 	ldr	w0, [x29,#84]
    2e64:	b9002a60 	str	w0, [x19,#40]
/home/ursus/devel/optee/optee_os/lib/libutee/tee_api_operations.c:452
    2e68:	b9401a80 	ldr	w0, [x20,#24]
    2e6c:	b9002e60 	str	w0, [x19,#44]
/home/ursus/devel/optee/optee_os/lib/libutee/tee_api_operations.c:457
    2e70:	f9401280 	ldr	x0, [x20,#32]
    2e74:	9100c3a1 	add	x1, x29, #0x30
    2e78:	97fff87f 	bl	1074 <TEE_GetObjectInfo1>
    2e7c:	2a0003f5 	mov	w21, w0
/home/ursus/devel/optee/optee_os/lib/libutee/tee_api_operations.c:459
    2e80:	340005c0 	cbz	w0, 2f38 <TEE_GetOperationInfoMultiple+0x15c>
/home/ursus/devel/optee/optee_os/lib/libutee/tee_api_operations.c:460
    2e84:	71000adf 	cmp	w22, #0x2
    2e88:	54000041 	b.ne	2e90 <TEE_GetOperationInfoMultiple+0xb4>
/home/ursus/devel/optee/optee_os/lib/libutee/tee_api_operations.c:464
    2e8c:	29057e7f 	stp	wzr, wzr, [x19,#40]
/home/ursus/devel/optee/optee_os/lib/libutee/tee_api_operations.c:486
    2e90:	710002bf 	cmp	w21, #0x0
    2e94:	129ffde0 	mov	w0, #0xffff0010            	// #-65520
    2e98:	7a4012a4 	ccmp	w21, w0, #0x4, ne
    2e9c:	540001a0 	b.eq	2ed0 <TEE_GetOperationInfoMultiple+0xf4>
/home/ursus/devel/optee/optee_os/lib/libutee/tee_api_operations.c:488
    2ea0:	2a1503e5 	mov	w5, w21
    2ea4:	90000064 	adrp	x4, e000 <__func__.3633+0x30>
    2ea8:	91112884 	add	x4, x4, #0x44a
    2eac:	52800023 	mov	w3, #0x1                   	// #1
    2eb0:	52800022 	mov	w2, #0x1                   	// #1
    2eb4:	52803d01 	mov	w1, #0x1e8                 	// #488
    2eb8:	d0000040 	adrp	x0, c000 <mpa_set_str+0x4>
    2ebc:	9136e000 	add	x0, x0, #0xdb8
    2ec0:	9101e000 	add	x0, x0, #0x78
    2ec4:	940016cb 	bl	89f0 <trace_printf>
    2ec8:	2a1503e0 	mov	w0, w21
    2ecc:	940009be 	bl	55c4 <__TEE_Panic>
/home/ursus/devel/optee/optee_os/lib/libutee/tee_api_operations.c:491
    2ed0:	2a1503e0 	mov	w0, w21
    2ed4:	a94153f3 	ldp	x19, x20, [sp,#16]
    2ed8:	a9425bf5 	ldp	x21, x22, [sp,#32]
    2edc:	a8c77bfd 	ldp	x29, x30, [sp],#112
    2ee0:	d65f03c0 	ret
/home/ursus/devel/optee/optee_os/lib/libutee/tee_api_operations.c:441 (discriminator 3)
    2ee4:	29007c1f 	stp	wzr, wzr, [x0]
/home/ursus/devel/optee/optee_os/lib/libutee/tee_api_operations.c:439 (discriminator 3)
    2ee8:	91000421 	add	x1, x1, #0x1
    2eec:	91002000 	add	x0, x0, #0x8
    2ef0:	17ffffd3 	b	2e3c <TEE_GetOperationInfoMultiple+0x60>
/home/ursus/devel/optee/optee_os/lib/libutee/tee_api_operations.c:456
    2ef4:	35fffbf6 	cbnz	w22, 2e70 <TEE_GetOperationInfoMultiple+0x94>
/home/ursus/devel/optee/optee_os/lib/libutee/tee_api_operations.c:476
    2ef8:	b9400280 	ldr	w0, [x20]
/home/ursus/devel/optee/optee_os/lib/libutee/tee_api_operations.c:483
    2efc:	52800015 	mov	w21, #0x0                   	// #0
/home/ursus/devel/optee/optee_os/lib/libutee/tee_api_operations.c:476
    2f00:	b9000260 	str	w0, [x19]
/home/ursus/devel/optee/optee_os/lib/libutee/tee_api_operations.c:477
    2f04:	b9400680 	ldr	w0, [x20,#4]
    2f08:	b9000660 	str	w0, [x19,#4]
/home/ursus/devel/optee/optee_os/lib/libutee/tee_api_operations.c:478
    2f0c:	b9400a80 	ldr	w0, [x20,#8]
    2f10:	b9000a60 	str	w0, [x19,#8]
/home/ursus/devel/optee/optee_os/lib/libutee/tee_api_operations.c:479
    2f14:	b9400e80 	ldr	w0, [x20,#12]
    2f18:	b9000e60 	str	w0, [x19,#12]
/home/ursus/devel/optee/optee_os/lib/libutee/tee_api_operations.c:480
    2f1c:	b9401280 	ldr	w0, [x20,#16]
    2f20:	b9001260 	str	w0, [x19,#16]
/home/ursus/devel/optee/optee_os/lib/libutee/tee_api_operations.c:481
    2f24:	b9401e80 	ldr	w0, [x20,#28]
    2f28:	b9001660 	str	w0, [x19,#20]
/home/ursus/devel/optee/optee_os/lib/libutee/tee_api_operations.c:482
    2f2c:	b9403280 	ldr	w0, [x20,#48]
/home/ursus/devel/optee/optee_os/lib/libutee/tee_api_operations.c:483
    2f30:	29035a60 	stp	w0, w22, [x19,#24]
    2f34:	17ffffd7 	b	2e90 <TEE_GetOperationInfoMultiple+0xb4>
/home/ursus/devel/optee/optee_os/lib/libutee/tee_api_operations.c:469
    2f38:	b94037a0 	ldr	w0, [x29,#52]
    2f3c:	b9002260 	str	w0, [x19,#32]
/home/ursus/devel/optee/optee_os/lib/libutee/tee_api_operations.c:471
    2f40:	b9401a80 	ldr	w0, [x20,#24]
    2f44:	b9002660 	str	w0, [x19,#36]
    2f48:	17ffffec 	b	2ef8 <TEE_GetOperationInfoMultiple+0x11c>

0000000000002f4c <TEE_ResetOperation>:
TEE_ResetOperation():
/home/ursus/devel/optee/optee_os/lib/libutee/tee_api_operations.c:494
    2f4c:	a9be7bfd 	stp	x29, x30, [sp,#-32]!
    2f50:	910003fd 	mov	x29, sp
    2f54:	a90153f3 	stp	x19, x20, [sp,#16]
    2f58:	aa0003f3 	mov	x19, x0
/home/ursus/devel/optee/optee_os/lib/libutee/tee_api_operations.c:497
    2f5c:	b50001a0 	cbnz	x0, 2f90 <TEE_ResetOperation+0x44>
/home/ursus/devel/optee/optee_os/lib/libutee/tee_api_operations.c:498
    2f60:	90000064 	adrp	x4, e000 <__func__.3633+0x30>
    2f64:	91112884 	add	x4, x4, #0x44a
    2f68:	52800005 	mov	w5, #0x0                   	// #0
    2f6c:	52800023 	mov	w3, #0x1                   	// #1
    2f70:	52800022 	mov	w2, #0x1                   	// #1
    2f74:	52803e41 	mov	w1, #0x1f2                 	// #498
    2f78:	d0000040 	adrp	x0, c000 <mpa_set_str+0x4>
    2f7c:	9136e000 	add	x0, x0, #0xdb8
    2f80:	91026000 	add	x0, x0, #0x98
    2f84:	9400169b 	bl	89f0 <trace_printf>
    2f88:	52800000 	mov	w0, #0x0                   	// #0
    2f8c:	9400098e 	bl	55c4 <__TEE_Panic>
/home/ursus/devel/optee/optee_os/lib/libutee/tee_api_operations.c:500
    2f90:	b9401e60 	ldr	w0, [x19,#28]
    2f94:	379001a0 	tbnz	w0, #18, 2fc8 <TEE_ResetOperation+0x7c>
/home/ursus/devel/optee/optee_os/lib/libutee/tee_api_operations.c:501
    2f98:	90000064 	adrp	x4, e000 <__func__.3633+0x30>
    2f9c:	91112884 	add	x4, x4, #0x44a
    2fa0:	52800005 	mov	w5, #0x0                   	// #0
    2fa4:	52800023 	mov	w3, #0x1                   	// #1
    2fa8:	52800022 	mov	w2, #0x1                   	// #1
    2fac:	52803ea1 	mov	w1, #0x1f5                 	// #501
    2fb0:	d0000040 	adrp	x0, c000 <mpa_set_str+0x4>
    2fb4:	9136e000 	add	x0, x0, #0xdb8
    2fb8:	91026000 	add	x0, x0, #0x98
    2fbc:	9400168d 	bl	89f0 <trace_printf>
    2fc0:	52800000 	mov	w0, #0x0                   	// #0
    2fc4:	94000980 	bl	55c4 <__TEE_Panic>
/home/ursus/devel/optee/optee_os/lib/libutee/tee_api_operations.c:505
    2fc8:	b9400660 	ldr	w0, [x19,#4]
/home/ursus/devel/optee/optee_os/lib/libutee/tee_api_operations.c:503
    2fcc:	b900327f 	str	wzr, [x19,#48]
/home/ursus/devel/optee/optee_os/lib/libutee/tee_api_operations.c:505
    2fd0:	7100141f 	cmp	w0, #0x5
    2fd4:	54000321 	b.ne	3038 <TEE_ResetOperation+0xec>
/home/ursus/devel/optee/optee_os/lib/libutee/tee_api_operations.c:506
    2fd8:	b9405a60 	ldr	w0, [x19,#88]
    2fdc:	d2800002 	mov	x2, #0x0                   	// #0
    2fe0:	d2800001 	mov	x1, #0x0                   	// #0
    2fe4:	94000a6f 	bl	59a0 <utee_hash_init>
    2fe8:	2a0003f4 	mov	w20, w0
/home/ursus/devel/optee/optee_os/lib/libutee/tee_api_operations.c:507
    2fec:	340001a0 	cbz	w0, 3020 <TEE_ResetOperation+0xd4>
/home/ursus/devel/optee/optee_os/lib/libutee/tee_api_operations.c:508
    2ff0:	2a0003e5 	mov	w5, w0
    2ff4:	90000064 	adrp	x4, e000 <__func__.3633+0x30>
    2ff8:	91112884 	add	x4, x4, #0x44a
    2ffc:	52800023 	mov	w3, #0x1                   	// #1
    3000:	52800022 	mov	w2, #0x1                   	// #1
    3004:	52803f81 	mov	w1, #0x1fc                 	// #508
    3008:	b0000040 	adrp	x0, c000 <mpa_set_str+0x4>
    300c:	9136e000 	add	x0, x0, #0xdb8
    3010:	91026000 	add	x0, x0, #0x98
    3014:	94001677 	bl	89f0 <trace_printf>
    3018:	2a1403e0 	mov	w0, w20
    301c:	9400096a 	bl	55c4 <__TEE_Panic>
/home/ursus/devel/optee/optee_os/lib/libutee/tee_api_operations.c:509
    3020:	b9401e60 	ldr	w0, [x19,#28]
    3024:	320f0000 	orr	w0, w0, #0x20000
/home/ursus/devel/optee/optee_os/lib/libutee/tee_api_operations.c:511
    3028:	b9001e60 	str	w0, [x19,#28]
/home/ursus/devel/optee/optee_os/lib/libutee/tee_api_operations.c:513
    302c:	a94153f3 	ldp	x19, x20, [sp,#16]
    3030:	a8c27bfd 	ldp	x29, x30, [sp],#32
    3034:	d65f03c0 	ret
/home/ursus/devel/optee/optee_os/lib/libutee/tee_api_operations.c:511
    3038:	b9401e60 	ldr	w0, [x19,#28]
    303c:	120e7800 	and	w0, w0, #0xfffdffff
    3040:	17fffffa 	b	3028 <TEE_ResetOperation+0xdc>

0000000000003044 <TEE_SetOperationKey>:
TEE_SetOperationKey():
/home/ursus/devel/optee/optee_os/lib/libutee/tee_api_operations.c:517
    3044:	a9bb7bfd 	stp	x29, x30, [sp,#-80]!
    3048:	910003fd 	mov	x29, sp
    304c:	a90153f3 	stp	x19, x20, [sp,#16]
    3050:	a9025bf5 	stp	x21, x22, [sp,#32]
/home/ursus/devel/optee/optee_os/lib/libutee/tee_api_operations.c:522
    3054:	b5000320 	cbnz	x0, 30b8 <TEE_SetOperationKey+0x74>
/home/ursus/devel/optee/optee_os/lib/libutee/tee_api_operations.c:535
    3058:	129fff34 	mov	w20, #0xffff0006            	// #-65530
/home/ursus/devel/optee/optee_os/lib/libutee/tee_api_operations.c:584
    305c:	121e7a80 	and	w0, w20, #0xfffffffd
    3060:	7100029f 	cmp	w20, #0x0
    3064:	52800021 	mov	w1, #0x1                   	// #1
    3068:	72be0201 	movk	w1, #0xf010, lsl #16
    306c:	7a411004 	ccmp	w0, w1, #0x4, ne
    3070:	540001a0 	b.eq	30a4 <TEE_SetOperationKey+0x60>
/home/ursus/devel/optee/optee_os/lib/libutee/tee_api_operations.c:586
    3074:	2a1403e5 	mov	w5, w20
    3078:	f0000044 	adrp	x4, e000 <__func__.3633+0x30>
    307c:	91112884 	add	x4, x4, #0x44a
    3080:	52800023 	mov	w3, #0x1                   	// #1
    3084:	52800022 	mov	w2, #0x1                   	// #1
    3088:	52804941 	mov	w1, #0x24a                 	// #586
    308c:	b0000040 	adrp	x0, c000 <mpa_set_str+0x4>
    3090:	9136e000 	add	x0, x0, #0xdb8
    3094:	9102c000 	add	x0, x0, #0xb0
    3098:	94001656 	bl	89f0 <trace_printf>
    309c:	2a1403e0 	mov	w0, w20
    30a0:	94000949 	bl	55c4 <__TEE_Panic>
/home/ursus/devel/optee/optee_os/lib/libutee/tee_api_operations.c:589
    30a4:	2a1403e0 	mov	w0, w20
    30a8:	a94153f3 	ldp	x19, x20, [sp,#16]
    30ac:	a9425bf5 	ldp	x21, x22, [sp,#32]
    30b0:	a8c57bfd 	ldp	x29, x30, [sp],#80
    30b4:	d65f03c0 	ret
    30b8:	aa0003f3 	mov	x19, x0
/home/ursus/devel/optee/optee_os/lib/libutee/tee_api_operations.c:527
    30bc:	b9403000 	ldr	w0, [x0,#48]
    30c0:	35fffcc0 	cbnz	w0, 3058 <TEE_SetOperationKey+0x14>
    30c4:	aa0103f5 	mov	x21, x1
/home/ursus/devel/optee/optee_os/lib/libutee/tee_api_operations.c:532
    30c8:	b5000081 	cbnz	x1, 30d8 <TEE_SetOperationKey+0x94>
/home/ursus/devel/optee/optee_os/lib/libutee/tee_api_operations.c:534
    30cc:	f9401260 	ldr	x0, [x19,#32]
    30d0:	97fff931 	bl	1594 <TEE_ResetTransientObject>
    30d4:	17ffffe1 	b	3058 <TEE_SetOperationKey+0x14>
/home/ursus/devel/optee/optee_os/lib/libutee/tee_api_operations.c:540
    30d8:	b9400660 	ldr	w0, [x19,#4]
    30dc:	7100141f 	cmp	w0, #0x5
    30e0:	54fffbc0 	b.eq	3058 <TEE_SetOperationKey+0x14>
/home/ursus/devel/optee/optee_os/lib/libutee/tee_api_operations.c:546
    30e4:	b9401e60 	ldr	w0, [x19,#28]
    30e8:	379ffb80 	tbnz	w0, #19, 3058 <TEE_SetOperationKey+0x14>
/home/ursus/devel/optee/optee_os/lib/libutee/tee_api_operations.c:552
    30ec:	9100c3a1 	add	x1, x29, #0x30
    30f0:	aa1503e0 	mov	x0, x21
    30f4:	97fff7e0 	bl	1074 <TEE_GetObjectInfo1>
    30f8:	2a0003f4 	mov	w20, w0
/home/ursus/devel/optee/optee_os/lib/libutee/tee_api_operations.c:554
    30fc:	35fffb00 	cbnz	w0, 305c <TEE_SetOperationKey+0x18>
/home/ursus/devel/optee/optee_os/lib/libutee/tee_api_operations.c:558
    3100:	b9401a60 	ldr	w0, [x19,#24]
    3104:	b9403fa1 	ldr	w1, [x29,#60]
    3108:	6a21001f 	bics	wzr, w0, w1
    310c:	54fffa61 	b.ne	3058 <TEE_SetOperationKey+0x14>
/home/ursus/devel/optee/optee_os/lib/libutee/tee_api_operations.c:564
    3110:	b9401260 	ldr	w0, [x19,#16]
    3114:	b94037b6 	ldr	w22, [x29,#52]
    3118:	6b16001f 	cmp	w0, w22
    311c:	54fff9e3 	b.cc	3058 <TEE_SetOperationKey+0x14>
/home/ursus/devel/optee/optee_os/lib/libutee/tee_api_operations.c:571
    3120:	f9401260 	ldr	x0, [x19,#32]
    3124:	97fff91c 	bl	1594 <TEE_ResetTransientObject>
/home/ursus/devel/optee/optee_os/lib/libutee/tee_api_operations.c:572
    3128:	b9401e60 	ldr	w0, [x19,#28]
/home/ursus/devel/optee/optee_os/lib/libutee/tee_api_operations.c:574
    312c:	aa1503e1 	mov	x1, x21
/home/ursus/devel/optee/optee_os/lib/libutee/tee_api_operations.c:572
    3130:	120d7800 	and	w0, w0, #0xfffbffff
    3134:	b9001e60 	str	w0, [x19,#28]
/home/ursus/devel/optee/optee_os/lib/libutee/tee_api_operations.c:574
    3138:	f9401260 	ldr	x0, [x19,#32]
    313c:	97fff9f9 	bl	1920 <TEE_CopyObjectAttributes1>
    3140:	2a0003f4 	mov	w20, w0
/home/ursus/devel/optee/optee_os/lib/libutee/tee_api_operations.c:575
    3144:	35fff8c0 	cbnz	w0, 305c <TEE_SetOperationKey+0x18>
/home/ursus/devel/optee/optee_os/lib/libutee/tee_api_operations.c:578
    3148:	b9401e60 	ldr	w0, [x19,#28]
/home/ursus/devel/optee/optee_os/lib/libutee/tee_api_operations.c:580
    314c:	b9001676 	str	w22, [x19,#20]
/home/ursus/devel/optee/optee_os/lib/libutee/tee_api_operations.c:578
    3150:	320e0000 	orr	w0, w0, #0x40000
    3154:	b9001e60 	str	w0, [x19,#28]
    3158:	17ffffc1 	b	305c <TEE_SetOperationKey+0x18>

000000000000315c <TEE_SetOperationKey2>:
TEE_SetOperationKey2():
/home/ursus/devel/optee/optee_os/lib/libutee/tee_api_operations.c:593
    315c:	a9b87bfd 	stp	x29, x30, [sp,#-128]!
    3160:	910003fd 	mov	x29, sp
    3164:	a90153f3 	stp	x19, x20, [sp,#16]
    3168:	a9025bf5 	stp	x21, x22, [sp,#32]
    316c:	f9001bf7 	str	x23, [sp,#48]
/home/ursus/devel/optee/optee_os/lib/libutee/tee_api_operations.c:599
    3170:	b5000320 	cbnz	x0, 31d4 <TEE_SetOperationKey2+0x78>
/home/ursus/devel/optee/optee_os/lib/libutee/tee_api_operations.c:620
    3174:	129fff34 	mov	w20, #0xffff0006            	// #-65530
/home/ursus/devel/optee/optee_os/lib/libutee/tee_api_operations.c:707
    3178:	12be0200 	mov	w0, #0xfefffff             	// #267386879
/home/ursus/devel/optee/optee_os/lib/libutee/tee_api_operations.c:706
    317c:	7100029f 	cmp	w20, #0x0
/home/ursus/devel/optee/optee_os/lib/libutee/tee_api_operations.c:707
    3180:	0b000280 	add	w0, w20, w0
/home/ursus/devel/optee/optee_os/lib/libutee/tee_api_operations.c:706
    3184:	7a431800 	ccmp	w0, #0x3, #0x0, ne
    3188:	540001a9 	b.ls	31bc <TEE_SetOperationKey2+0x60>
/home/ursus/devel/optee/optee_os/lib/libutee/tee_api_operations.c:711
    318c:	2a1403e5 	mov	w5, w20
    3190:	f0000044 	adrp	x4, e000 <__func__.3633+0x30>
    3194:	91112884 	add	x4, x4, #0x44a
    3198:	52800023 	mov	w3, #0x1                   	// #1
    319c:	52800022 	mov	w2, #0x1                   	// #1
    31a0:	528058e1 	mov	w1, #0x2c7                 	// #711
    31a4:	b0000040 	adrp	x0, c000 <mpa_set_str+0x4>
    31a8:	9136e000 	add	x0, x0, #0xdb8
    31ac:	91032000 	add	x0, x0, #0xc8
    31b0:	94001610 	bl	89f0 <trace_printf>
    31b4:	2a1403e0 	mov	w0, w20
    31b8:	94000903 	bl	55c4 <__TEE_Panic>
/home/ursus/devel/optee/optee_os/lib/libutee/tee_api_operations.c:714
    31bc:	2a1403e0 	mov	w0, w20
    31c0:	f9401bf7 	ldr	x23, [sp,#48]
    31c4:	a94153f3 	ldp	x19, x20, [sp,#16]
    31c8:	a9425bf5 	ldp	x21, x22, [sp,#32]
    31cc:	a8c87bfd 	ldp	x29, x30, [sp],#128
    31d0:	d65f03c0 	ret
    31d4:	aa0003f3 	mov	x19, x0
/home/ursus/devel/optee/optee_os/lib/libutee/tee_api_operations.c:604
    31d8:	b9403000 	ldr	w0, [x0,#48]
    31dc:	35fffcc0 	cbnz	w0, 3174 <TEE_SetOperationKey2+0x18>
/home/ursus/devel/optee/optee_os/lib/libutee/tee_api_operations.c:613
    31e0:	f100003f 	cmp	x1, #0x0
    31e4:	aa0103f6 	mov	x22, x1
    31e8:	aa0203f5 	mov	x21, x2
    31ec:	fa401844 	ccmp	x2, #0x0, #0x4, ne
    31f0:	54000121 	b.ne	3214 <TEE_SetOperationKey2+0xb8>
/home/ursus/devel/optee/optee_os/lib/libutee/tee_api_operations.c:615
    31f4:	b4000081 	cbz	x1, 3204 <TEE_SetOperationKey2+0xa8>
/home/ursus/devel/optee/optee_os/lib/libutee/tee_api_operations.c:619
    31f8:	f9401660 	ldr	x0, [x19,#40]
    31fc:	97fff8e6 	bl	1594 <TEE_ResetTransientObject>
    3200:	17ffffdd 	b	3174 <TEE_SetOperationKey2+0x18>
/home/ursus/devel/optee/optee_os/lib/libutee/tee_api_operations.c:616
    3204:	f9401260 	ldr	x0, [x19,#32]
    3208:	97fff8e3 	bl	1594 <TEE_ResetTransientObject>
/home/ursus/devel/optee/optee_os/lib/libutee/tee_api_operations.c:618
    320c:	b5fffb55 	cbnz	x21, 3174 <TEE_SetOperationKey2+0x18>
    3210:	17fffffa 	b	31f8 <TEE_SetOperationKey2+0x9c>
/home/ursus/devel/optee/optee_os/lib/libutee/tee_api_operations.c:625
    3214:	b9400660 	ldr	w0, [x19,#4]
    3218:	7100141f 	cmp	w0, #0x5
    321c:	54fffac0 	b.eq	3174 <TEE_SetOperationKey2+0x18>
/home/ursus/devel/optee/optee_os/lib/libutee/tee_api_operations.c:631
    3220:	b9401e60 	ldr	w0, [x19,#28]
    3224:	369ffa80 	tbz	w0, #19, 3174 <TEE_SetOperationKey2+0x18>
/home/ursus/devel/optee/optee_os/lib/libutee/tee_api_operations.c:637
    3228:	910103a1 	add	x1, x29, #0x40
    322c:	aa1603e0 	mov	x0, x22
    3230:	97fff791 	bl	1074 <TEE_GetObjectInfo1>
    3234:	2a0003f4 	mov	w20, w0
/home/ursus/devel/optee/optee_os/lib/libutee/tee_api_operations.c:639
    3238:	35fffa00 	cbnz	w0, 3178 <TEE_SetOperationKey2+0x1c>
/home/ursus/devel/optee/optee_os/lib/libutee/tee_api_operations.c:643
    323c:	b9401a60 	ldr	w0, [x19,#24]
    3240:	b9404fa1 	ldr	w1, [x29,#76]
    3244:	6a21001f 	bics	wzr, w0, w1
    3248:	54fff961 	b.ne	3174 <TEE_SetOperationKey2+0x18>
/home/ursus/devel/optee/optee_os/lib/libutee/tee_api_operations.c:649
    324c:	910183a1 	add	x1, x29, #0x60
    3250:	aa1503e0 	mov	x0, x21
    3254:	97fff788 	bl	1074 <TEE_GetObjectInfo1>
    3258:	2a0003f4 	mov	w20, w0
/home/ursus/devel/optee/optee_os/lib/libutee/tee_api_operations.c:651
    325c:	34000100 	cbz	w0, 327c <TEE_SetOperationKey2+0x120>
/home/ursus/devel/optee/optee_os/lib/libutee/tee_api_operations.c:652
    3260:	52800020 	mov	w0, #0x1                   	// #1
    3264:	72be0200 	movk	w0, #0xf010, lsl #16
    3268:	6b00029f 	cmp	w20, w0
    326c:	54fff861 	b.ne	3178 <TEE_SetOperationKey2+0x1c>
/home/ursus/devel/optee/optee_os/lib/libutee/tee_api_operations.c:653
    3270:	52800054 	mov	w20, #0x2                   	// #2
    3274:	72be0214 	movk	w20, #0xf010, lsl #16
    3278:	17ffffc0 	b	3178 <TEE_SetOperationKey2+0x1c>
/home/ursus/devel/optee/optee_os/lib/libutee/tee_api_operations.c:658
    327c:	b9401a60 	ldr	w0, [x19,#24]
    3280:	b9406fa1 	ldr	w1, [x29,#108]
    3284:	6a21001f 	bics	wzr, w0, w1
    3288:	54fff761 	b.ne	3174 <TEE_SetOperationKey2+0x18>
/home/ursus/devel/optee/optee_os/lib/libutee/tee_api_operations.c:668
    328c:	b9400261 	ldr	w1, [x19]
    3290:	52808200 	mov	w0, #0x410                 	// #1040
    3294:	72a20000 	movk	w0, #0x1000, lsl #16
    3298:	b94047b7 	ldr	w23, [x29,#68]
    329c:	6b00003f 	cmp	w1, w0
    32a0:	54000081 	b.ne	32b0 <TEE_SetOperationKey2+0x154>
/home/ursus/devel/optee/optee_os/lib/libutee/tee_api_operations.c:668 (discriminator 1)
    32a4:	b94067a0 	ldr	w0, [x29,#100]
    32a8:	6b0002ff 	cmp	w23, w0
    32ac:	54fff641 	b.ne	3174 <TEE_SetOperationKey2+0x18>
/home/ursus/devel/optee/optee_os/lib/libutee/tee_api_operations.c:675
    32b0:	b9401260 	ldr	w0, [x19,#16]
    32b4:	6b17001f 	cmp	w0, w23
    32b8:	54fff5e3 	b.cc	3174 <TEE_SetOperationKey2+0x18>
/home/ursus/devel/optee/optee_os/lib/libutee/tee_api_operations.c:686
    32bc:	f9401260 	ldr	x0, [x19,#32]
    32c0:	97fff8b5 	bl	1594 <TEE_ResetTransientObject>
/home/ursus/devel/optee/optee_os/lib/libutee/tee_api_operations.c:687
    32c4:	f9401660 	ldr	x0, [x19,#40]
    32c8:	97fff8b3 	bl	1594 <TEE_ResetTransientObject>
/home/ursus/devel/optee/optee_os/lib/libutee/tee_api_operations.c:688
    32cc:	b9401e60 	ldr	w0, [x19,#28]
/home/ursus/devel/optee/optee_os/lib/libutee/tee_api_operations.c:690
    32d0:	aa1603e1 	mov	x1, x22
/home/ursus/devel/optee/optee_os/lib/libutee/tee_api_operations.c:688
    32d4:	120d7800 	and	w0, w0, #0xfffbffff
    32d8:	b9001e60 	str	w0, [x19,#28]
/home/ursus/devel/optee/optee_os/lib/libutee/tee_api_operations.c:690
    32dc:	f9401260 	ldr	x0, [x19,#32]
    32e0:	97fff990 	bl	1920 <TEE_CopyObjectAttributes1>
    32e4:	2a0003f4 	mov	w20, w0
/home/ursus/devel/optee/optee_os/lib/libutee/tee_api_operations.c:691
    32e8:	35fff480 	cbnz	w0, 3178 <TEE_SetOperationKey2+0x1c>
/home/ursus/devel/optee/optee_os/lib/libutee/tee_api_operations.c:694
    32ec:	f9401660 	ldr	x0, [x19,#40]
    32f0:	aa1503e1 	mov	x1, x21
    32f4:	97fff98b 	bl	1920 <TEE_CopyObjectAttributes1>
    32f8:	2a0003f4 	mov	w20, w0
/home/ursus/devel/optee/optee_os/lib/libutee/tee_api_operations.c:695
    32fc:	35fffb20 	cbnz	w0, 3260 <TEE_SetOperationKey2+0x104>
/home/ursus/devel/optee/optee_os/lib/libutee/tee_api_operations.c:701
    3300:	b9401e60 	ldr	w0, [x19,#28]
/home/ursus/devel/optee/optee_os/lib/libutee/tee_api_operations.c:703
    3304:	b9001677 	str	w23, [x19,#20]
/home/ursus/devel/optee/optee_os/lib/libutee/tee_api_operations.c:701
    3308:	320e0000 	orr	w0, w0, #0x40000
    330c:	b9001e60 	str	w0, [x19,#28]
    3310:	17ffff9a 	b	3178 <TEE_SetOperationKey2+0x1c>

0000000000003314 <TEE_CopyOperation>:
TEE_CopyOperation():
/home/ursus/devel/optee/optee_os/lib/libutee/tee_api_operations.c:717
    3314:	a9be7bfd 	stp	x29, x30, [sp,#-32]!
/home/ursus/devel/optee/optee_os/lib/libutee/tee_api_operations.c:720
    3318:	f100001f 	cmp	x0, #0x0
    331c:	fa401824 	ccmp	x1, #0x0, #0x4, ne
/home/ursus/devel/optee/optee_os/lib/libutee/tee_api_operations.c:717
    3320:	910003fd 	mov	x29, sp
    3324:	a90153f3 	stp	x19, x20, [sp,#16]
    3328:	aa0003f4 	mov	x20, x0
    332c:	aa0103f3 	mov	x19, x1
/home/ursus/devel/optee/optee_os/lib/libutee/tee_api_operations.c:720
    3330:	540001a1 	b.ne	3364 <TEE_CopyOperation+0x50>
/home/ursus/devel/optee/optee_os/lib/libutee/tee_api_operations.c:721
    3334:	f0000044 	adrp	x4, e000 <__func__.3633+0x30>
    3338:	91112884 	add	x4, x4, #0x44a
    333c:	52800005 	mov	w5, #0x0                   	// #0
    3340:	52800023 	mov	w3, #0x1                   	// #1
    3344:	52800022 	mov	w2, #0x1                   	// #1
    3348:	52805a21 	mov	w1, #0x2d1                 	// #721
    334c:	b0000040 	adrp	x0, c000 <mpa_set_str+0x4>
    3350:	9136e000 	add	x0, x0, #0xdb8
    3354:	91038000 	add	x0, x0, #0xe0
    3358:	940015a6 	bl	89f0 <trace_printf>
    335c:	52800000 	mov	w0, #0x0                   	// #0
    3360:	94000899 	bl	55c4 <__TEE_Panic>
/home/ursus/devel/optee/optee_os/lib/libutee/tee_api_operations.c:722
    3364:	b9400260 	ldr	w0, [x19]
    3368:	b9400281 	ldr	w1, [x20]
    336c:	6b00003f 	cmp	w1, w0
    3370:	540001a0 	b.eq	33a4 <TEE_CopyOperation+0x90>
/home/ursus/devel/optee/optee_os/lib/libutee/tee_api_operations.c:723
    3374:	f0000044 	adrp	x4, e000 <__func__.3633+0x30>
    3378:	91112884 	add	x4, x4, #0x44a
    337c:	52800005 	mov	w5, #0x0                   	// #0
    3380:	52800023 	mov	w3, #0x1                   	// #1
    3384:	52800022 	mov	w2, #0x1                   	// #1
    3388:	52805a61 	mov	w1, #0x2d3                 	// #723
    338c:	b0000040 	adrp	x0, c000 <mpa_set_str+0x4>
    3390:	9136e000 	add	x0, x0, #0xdb8
    3394:	91038000 	add	x0, x0, #0xe0
    3398:	94001596 	bl	89f0 <trace_printf>
    339c:	52800000 	mov	w0, #0x0                   	// #0
    33a0:	94000889 	bl	55c4 <__TEE_Panic>
/home/ursus/devel/optee/optee_os/lib/libutee/tee_api_operations.c:724
    33a4:	b9400660 	ldr	w0, [x19,#4]
    33a8:	7100141f 	cmp	w0, #0x5
    33ac:	540000e0 	b.eq	33c8 <TEE_CopyOperation+0xb4>
/home/ursus/devel/optee/optee_os/lib/libutee/tee_api_operations.c:728
    33b0:	b9401e60 	ldr	w0, [x19,#28]
    33b4:	36900900 	tbz	w0, #18, 34d4 <TEE_CopyOperation+0x1c0>
/home/ursus/devel/optee/optee_os/lib/libutee/tee_api_operations.c:730
    33b8:	a9420a61 	ldp	x1, x2, [x19,#32]
/home/ursus/devel/optee/optee_os/lib/libutee/tee_api_operations.c:733
    33bc:	37980920 	tbnz	w0, #19, 34e0 <TEE_CopyOperation+0x1cc>
/home/ursus/devel/optee/optee_os/lib/libutee/tee_api_operations.c:735
    33c0:	aa1403e0 	mov	x0, x20
    33c4:	97ffff20 	bl	3044 <TEE_SetOperationKey>
/home/ursus/devel/optee/optee_os/lib/libutee/tee_api_operations.c:740
    33c8:	b9401e60 	ldr	w0, [x19,#28]
    33cc:	b9001e80 	str	w0, [x20,#28]
/home/ursus/devel/optee/optee_os/lib/libutee/tee_api_operations.c:741
    33d0:	b9401660 	ldr	w0, [x19,#20]
    33d4:	b9001680 	str	w0, [x20,#20]
/home/ursus/devel/optee/optee_os/lib/libutee/tee_api_operations.c:742
    33d8:	b9403260 	ldr	w0, [x19,#48]
/home/ursus/devel/optee/optee_os/lib/libutee/tee_api_operations.c:744
    33dc:	39410281 	ldrb	w1, [x20,#64]
/home/ursus/devel/optee/optee_os/lib/libutee/tee_api_operations.c:742
    33e0:	b9003280 	str	w0, [x20,#48]
/home/ursus/devel/optee/optee_os/lib/libutee/tee_api_operations.c:744
    33e4:	39410260 	ldrb	w0, [x19,#64]
    33e8:	6b00003f 	cmp	w1, w0
    33ec:	540000a1 	b.ne	3400 <TEE_CopyOperation+0xec>
/home/ursus/devel/optee/optee_os/lib/libutee/tee_api_operations.c:744 (discriminator 1)
    33f0:	f9402660 	ldr	x0, [x19,#72]
    33f4:	f9402681 	ldr	x1, [x20,#72]
    33f8:	eb00003f 	cmp	x1, x0
    33fc:	540001a0 	b.eq	3430 <TEE_CopyOperation+0x11c>
/home/ursus/devel/optee/optee_os/lib/libutee/tee_api_operations.c:746
    3400:	f0000044 	adrp	x4, e000 <__func__.3633+0x30>
    3404:	91112884 	add	x4, x4, #0x44a
    3408:	52800005 	mov	w5, #0x0                   	// #0
    340c:	52800023 	mov	w3, #0x1                   	// #1
    3410:	52800022 	mov	w2, #0x1                   	// #1
    3414:	52805d41 	mov	w1, #0x2ea                 	// #746
    3418:	b0000040 	adrp	x0, c000 <mpa_set_str+0x4>
    341c:	9136e000 	add	x0, x0, #0xdb8
    3420:	91038000 	add	x0, x0, #0xe0
    3424:	94001573 	bl	89f0 <trace_printf>
    3428:	52800000 	mov	w0, #0x0                   	// #0
    342c:	94000866 	bl	55c4 <__TEE_Panic>
/home/ursus/devel/optee/optee_os/lib/libutee/tee_api_operations.c:748
    3430:	f9401e81 	ldr	x1, [x20,#56]
    3434:	f9401e60 	ldr	x0, [x19,#56]
    3438:	b40005a1 	cbz	x1, 34ec <TEE_CopyOperation+0x1d8>
/home/ursus/devel/optee/optee_os/lib/libutee/tee_api_operations.c:749
    343c:	b50001a0 	cbnz	x0, 3470 <TEE_CopyOperation+0x15c>
/home/ursus/devel/optee/optee_os/lib/libutee/tee_api_operations.c:750
    3440:	f0000044 	adrp	x4, e000 <__func__.3633+0x30>
    3444:	91112884 	add	x4, x4, #0x44a
    3448:	52800005 	mov	w5, #0x0                   	// #0
    344c:	52800023 	mov	w3, #0x1                   	// #1
    3450:	52800022 	mov	w2, #0x1                   	// #1
    3454:	52805dc1 	mov	w1, #0x2ee                 	// #750
    3458:	b0000040 	adrp	x0, c000 <mpa_set_str+0x4>
    345c:	9136e000 	add	x0, x0, #0xdb8
    3460:	91038000 	add	x0, x0, #0xe0
    3464:	94001563 	bl	89f0 <trace_printf>
    3468:	52800000 	mov	w0, #0x0                   	// #0
    346c:	94000856 	bl	55c4 <__TEE_Panic>
/home/ursus/devel/optee/optee_os/lib/libutee/tee_api_operations.c:752
    3470:	f9401e61 	ldr	x1, [x19,#56]
    3474:	f9402a62 	ldr	x2, [x19,#80]
    3478:	f9401e80 	ldr	x0, [x20,#56]
    347c:	940011ed 	bl	7c30 <memcpy>
/home/ursus/devel/optee/optee_os/lib/libutee/tee_api_operations.c:753
    3480:	f9402a60 	ldr	x0, [x19,#80]
    3484:	f9002a80 	str	x0, [x20,#80]
/home/ursus/devel/optee/optee_os/lib/libutee/tee_api_operations.c:758
    3488:	b9405a61 	ldr	w1, [x19,#88]
    348c:	b9405a80 	ldr	w0, [x20,#88]
    3490:	9400093e 	bl	5988 <utee_cryp_state_copy>
    3494:	2a0003f3 	mov	w19, w0
/home/ursus/devel/optee/optee_os/lib/libutee/tee_api_operations.c:759
    3498:	34000460 	cbz	w0, 3524 <TEE_CopyOperation+0x210>
/home/ursus/devel/optee/optee_os/lib/libutee/tee_api_operations.c:760
    349c:	2a0003e5 	mov	w5, w0
    34a0:	b0000040 	adrp	x0, c000 <mpa_set_str+0x4>
    34a4:	9136e000 	add	x0, x0, #0xdb8
    34a8:	52800023 	mov	w3, #0x1                   	// #1
    34ac:	52800022 	mov	w2, #0x1                   	// #1
    34b0:	52805f01 	mov	w1, #0x2f8                 	// #760
    34b4:	91038000 	add	x0, x0, #0xe0
    34b8:	f0000044 	adrp	x4, e000 <__func__.3633+0x30>
    34bc:	91112884 	add	x4, x4, #0x44a
    34c0:	9400154c 	bl	89f0 <trace_printf>
    34c4:	2a1303e0 	mov	w0, w19
/home/ursus/devel/optee/optee_os/lib/libutee/tee_api_operations.c:761
    34c8:	a94153f3 	ldp	x19, x20, [sp,#16]
    34cc:	a8c27bfd 	ldp	x29, x30, [sp],#32
/home/ursus/devel/optee/optee_os/lib/libutee/tee_api_operations.c:760
    34d0:	1400083d 	b	55c4 <__TEE_Panic>
/home/ursus/devel/optee/optee_os/lib/libutee/tee_api_operations.c:726
    34d4:	d2800002 	mov	x2, #0x0                   	// #0
/home/ursus/devel/optee/optee_os/lib/libutee/tee_api_operations.c:725
    34d8:	d2800001 	mov	x1, #0x0                   	// #0
    34dc:	17ffffb8 	b	33bc <TEE_CopyOperation+0xa8>
/home/ursus/devel/optee/optee_os/lib/libutee/tee_api_operations.c:737
    34e0:	aa1403e0 	mov	x0, x20
    34e4:	97ffff1e 	bl	315c <TEE_SetOperationKey2>
    34e8:	17ffffb8 	b	33c8 <TEE_CopyOperation+0xb4>
/home/ursus/devel/optee/optee_os/lib/libutee/tee_api_operations.c:754
    34ec:	b4fffce0 	cbz	x0, 3488 <TEE_CopyOperation+0x174>
/home/ursus/devel/optee/optee_os/lib/libutee/tee_api_operations.c:755
    34f0:	f0000044 	adrp	x4, e000 <__func__.3633+0x30>
    34f4:	91112884 	add	x4, x4, #0x44a
    34f8:	52800005 	mov	w5, #0x0                   	// #0
    34fc:	52800023 	mov	w3, #0x1                   	// #1
    3500:	52800022 	mov	w2, #0x1                   	// #1
    3504:	52805e61 	mov	w1, #0x2f3                 	// #755
    3508:	b0000040 	adrp	x0, c000 <mpa_set_str+0x4>
    350c:	9136e000 	add	x0, x0, #0xdb8
    3510:	91038000 	add	x0, x0, #0xe0
    3514:	94001537 	bl	89f0 <trace_printf>
    3518:	52800000 	mov	w0, #0x0                   	// #0
    351c:	9400082a 	bl	55c4 <__TEE_Panic>
    3520:	17ffffda 	b	3488 <TEE_CopyOperation+0x174>
/home/ursus/devel/optee/optee_os/lib/libutee/tee_api_operations.c:761
    3524:	a94153f3 	ldp	x19, x20, [sp,#16]
    3528:	a8c27bfd 	ldp	x29, x30, [sp],#32
    352c:	d65f03c0 	ret

0000000000003530 <TEE_DigestUpdate>:
TEE_DigestUpdate():
/home/ursus/devel/optee/optee_os/lib/libutee/tee_api_operations.c:783
    3530:	a9bd7bfd 	stp	x29, x30, [sp,#-48]!
    3534:	910003fd 	mov	x29, sp
    3538:	a9025bf5 	stp	x21, x22, [sp,#32]
    353c:	aa0103f5 	mov	x21, x1
    3540:	a90153f3 	stp	x19, x20, [sp,#16]
    3544:	2a0203f6 	mov	w22, w2
    3548:	aa0003f3 	mov	x19, x0
/home/ursus/devel/optee/optee_os/lib/libutee/tee_api_operations.c:786
    354c:	b4000080 	cbz	x0, 355c <TEE_DigestUpdate+0x2c>
/home/ursus/devel/optee/optee_os/lib/libutee/tee_api_operations.c:786 (discriminator 1)
    3550:	b9400400 	ldr	w0, [x0,#4]
    3554:	7100141f 	cmp	w0, #0x5
    3558:	540001a0 	b.eq	358c <TEE_DigestUpdate+0x5c>
/home/ursus/devel/optee/optee_os/lib/libutee/tee_api_operations.c:788
    355c:	f0000044 	adrp	x4, e000 <__func__.3633+0x30>
    3560:	91112884 	add	x4, x4, #0x44a
    3564:	52800005 	mov	w5, #0x0                   	// #0
    3568:	52800023 	mov	w3, #0x1                   	// #1
    356c:	52800022 	mov	w2, #0x1                   	// #1
    3570:	52806281 	mov	w1, #0x314                 	// #788
    3574:	b0000040 	adrp	x0, c000 <mpa_set_str+0x4>
    3578:	9136e000 	add	x0, x0, #0xdb8
    357c:	9103e000 	add	x0, x0, #0xf8
    3580:	9400151c 	bl	89f0 <trace_printf>
    3584:	52800000 	mov	w0, #0x0                   	// #0
    3588:	9400080f 	bl	55c4 <__TEE_Panic>
/home/ursus/devel/optee/optee_os/lib/libutee/tee_api_operations.c:792
    358c:	b9405a60 	ldr	w0, [x19,#88]
/home/ursus/devel/optee/optee_os/lib/libutee/tee_api_operations.c:790
    3590:	52800034 	mov	w20, #0x1                   	// #1
    3594:	b9003274 	str	w20, [x19,#48]
/home/ursus/devel/optee/optee_os/lib/libutee/tee_api_operations.c:792
    3598:	2a1603e2 	mov	w2, w22
    359c:	aa1503e1 	mov	x1, x21
    35a0:	94000903 	bl	59ac <utee_hash_update>
    35a4:	2a0003f3 	mov	w19, w0
/home/ursus/devel/optee/optee_os/lib/libutee/tee_api_operations.c:793
    35a8:	34000200 	cbz	w0, 35e8 <TEE_DigestUpdate+0xb8>
/home/ursus/devel/optee/optee_os/lib/libutee/tee_api_operations.c:794
    35ac:	2a0003e5 	mov	w5, w0
    35b0:	b0000040 	adrp	x0, c000 <mpa_set_str+0x4>
    35b4:	9136e000 	add	x0, x0, #0xdb8
    35b8:	2a1403e3 	mov	w3, w20
    35bc:	2a1403e2 	mov	w2, w20
    35c0:	52806341 	mov	w1, #0x31a                 	// #794
    35c4:	9103e000 	add	x0, x0, #0xf8
    35c8:	f0000044 	adrp	x4, e000 <__func__.3633+0x30>
    35cc:	91112884 	add	x4, x4, #0x44a
    35d0:	94001508 	bl	89f0 <trace_printf>
    35d4:	2a1303e0 	mov	w0, w19
/home/ursus/devel/optee/optee_os/lib/libutee/tee_api_operations.c:795
    35d8:	a9425bf5 	ldp	x21, x22, [sp,#32]
    35dc:	a94153f3 	ldp	x19, x20, [sp,#16]
    35e0:	a8c37bfd 	ldp	x29, x30, [sp],#48
/home/ursus/devel/optee/optee_os/lib/libutee/tee_api_operations.c:794
    35e4:	140007f8 	b	55c4 <__TEE_Panic>
/home/ursus/devel/optee/optee_os/lib/libutee/tee_api_operations.c:795
    35e8:	a94153f3 	ldp	x19, x20, [sp,#16]
    35ec:	a9425bf5 	ldp	x21, x22, [sp,#32]
    35f0:	a8c37bfd 	ldp	x29, x30, [sp],#48
    35f4:	d65f03c0 	ret

00000000000035f8 <TEE_DigestDoFinal>:
TEE_DigestDoFinal():
/home/ursus/devel/optee/optee_os/lib/libutee/tee_api_operations.c:799
    35f8:	a9bc7bfd 	stp	x29, x30, [sp,#-64]!
    35fc:	910003fd 	mov	x29, sp
    3600:	a90153f3 	stp	x19, x20, [sp,#16]
    3604:	aa0003f4 	mov	x20, x0
    3608:	f90013f5 	str	x21, [sp,#32]
/home/ursus/devel/optee/optee_os/lib/libutee/tee_api_operations.c:808
    360c:	129fff33 	mov	w19, #0xffff0006            	// #-65530
/home/ursus/devel/optee/optee_os/lib/libutee/tee_api_operations.c:803
    3610:	b4000340 	cbz	x0, 3678 <TEE_DigestDoFinal+0x80>
/home/ursus/devel/optee/optee_os/lib/libutee/tee_api_operations.c:804 (discriminator 1)
    3614:	f100003f 	cmp	x1, #0x0
/home/ursus/devel/optee/optee_os/lib/libutee/tee_api_operations.c:803 (discriminator 1)
    3618:	7a400844 	ccmp	w2, #0x0, #0x4, eq
    361c:	540002e1 	b.ne	3678 <TEE_DigestDoFinal+0x80>
/home/ursus/devel/optee/optee_os/lib/libutee/tee_api_operations.c:805
    3620:	f100007f 	cmp	x3, #0x0
    3624:	aa0403f5 	mov	x21, x4
    3628:	fa401884 	ccmp	x4, #0x0, #0x4, ne
    362c:	54000260 	b.eq	3678 <TEE_DigestDoFinal+0x80>
/home/ursus/devel/optee/optee_os/lib/libutee/tee_api_operations.c:806
    3630:	b9400680 	ldr	w0, [x20,#4]
    3634:	7100141f 	cmp	w0, #0x5
    3638:	54000201 	b.ne	3678 <TEE_DigestDoFinal+0x80>
/home/ursus/devel/optee/optee_os/lib/libutee/tee_api_operations.c:812
    363c:	910103a4 	add	x4, x29, #0x40
    3640:	b94002a0 	ldr	w0, [x21]
/home/ursus/devel/optee/optee_os/lib/libutee/tee_api_operations.c:813
    3644:	2a0203e2 	mov	w2, w2
/home/ursus/devel/optee/optee_os/lib/libutee/tee_api_operations.c:812
    3648:	f81f8c80 	str	x0, [x4,#-8]!
/home/ursus/devel/optee/optee_os/lib/libutee/tee_api_operations.c:813
    364c:	b9405a80 	ldr	w0, [x20,#88]
    3650:	940008da 	bl	59b8 <utee_hash_final>
    3654:	2a0003f3 	mov	w19, w0
/home/ursus/devel/optee/optee_os/lib/libutee/tee_api_operations.c:814
    3658:	f9401fa0 	ldr	x0, [x29,#56]
    365c:	b90002a0 	str	w0, [x21]
/home/ursus/devel/optee/optee_os/lib/libutee/tee_api_operations.c:815
    3660:	350000d3 	cbnz	w19, 3678 <TEE_DigestDoFinal+0x80>
/home/ursus/devel/optee/optee_os/lib/libutee/tee_api_operations.c:819
    3664:	52800002 	mov	w2, #0x0                   	// #0
    3668:	d2800001 	mov	x1, #0x0                   	// #0
    366c:	aa1403e0 	mov	x0, x20
    3670:	97fffb55 	bl	23c4 <init_hash_operation>
/home/ursus/devel/optee/optee_os/lib/libutee/tee_api_operations.c:821
    3674:	b900329f 	str	wzr, [x20,#48]
/home/ursus/devel/optee/optee_os/lib/libutee/tee_api_operations.c:824
    3678:	7100027f 	cmp	w19, #0x0
    367c:	129ffde0 	mov	w0, #0xffff0010            	// #-65520
    3680:	7a401264 	ccmp	w19, w0, #0x4, ne
    3684:	540001a0 	b.eq	36b8 <TEE_DigestDoFinal+0xc0>
/home/ursus/devel/optee/optee_os/lib/libutee/tee_api_operations.c:826
    3688:	2a1303e5 	mov	w5, w19
    368c:	f0000044 	adrp	x4, e000 <__func__.3633+0x30>
    3690:	91112884 	add	x4, x4, #0x44a
    3694:	52800023 	mov	w3, #0x1                   	// #1
    3698:	52800022 	mov	w2, #0x1                   	// #1
    369c:	52806741 	mov	w1, #0x33a                 	// #826
    36a0:	b0000040 	adrp	x0, c000 <mpa_set_str+0x4>
    36a4:	9136e000 	add	x0, x0, #0xdb8
    36a8:	91044000 	add	x0, x0, #0x110
    36ac:	940014d1 	bl	89f0 <trace_printf>
    36b0:	2a1303e0 	mov	w0, w19
    36b4:	940007c4 	bl	55c4 <__TEE_Panic>
/home/ursus/devel/optee/optee_os/lib/libutee/tee_api_operations.c:829
    36b8:	2a1303e0 	mov	w0, w19
    36bc:	f94013f5 	ldr	x21, [sp,#32]
    36c0:	a94153f3 	ldp	x19, x20, [sp,#16]
    36c4:	a8c47bfd 	ldp	x29, x30, [sp],#64
    36c8:	d65f03c0 	ret

00000000000036cc <TEE_CipherInit>:
TEE_CipherInit():
/home/ursus/devel/optee/optee_os/lib/libutee/tee_api_operations.c:835
    36cc:	a9bd7bfd 	stp	x29, x30, [sp,#-48]!
    36d0:	910003fd 	mov	x29, sp
    36d4:	a90153f3 	stp	x19, x20, [sp,#16]
    36d8:	aa0003f3 	mov	x19, x0
    36dc:	a9025bf5 	stp	x21, x22, [sp,#32]
    36e0:	aa0103f4 	mov	x20, x1
    36e4:	2a0203f6 	mov	w22, w2
/home/ursus/devel/optee/optee_os/lib/libutee/tee_api_operations.c:838
    36e8:	b50001a0 	cbnz	x0, 371c <TEE_CipherInit+0x50>
/home/ursus/devel/optee/optee_os/lib/libutee/tee_api_operations.c:839
    36ec:	f0000044 	adrp	x4, e000 <__func__.3633+0x30>
    36f0:	91112884 	add	x4, x4, #0x44a
    36f4:	52800005 	mov	w5, #0x0                   	// #0
    36f8:	52800023 	mov	w3, #0x1                   	// #1
    36fc:	52800022 	mov	w2, #0x1                   	// #1
    3700:	528068e1 	mov	w1, #0x347                 	// #839
    3704:	b0000040 	adrp	x0, c000 <mpa_set_str+0x4>
    3708:	9136e000 	add	x0, x0, #0xdb8
    370c:	9104a000 	add	x0, x0, #0x128
    3710:	940014b8 	bl	89f0 <trace_printf>
    3714:	52800000 	mov	w0, #0x0                   	// #0
    3718:	940007ab 	bl	55c4 <__TEE_Panic>
/home/ursus/devel/optee/optee_os/lib/libutee/tee_api_operations.c:841
    371c:	b9400660 	ldr	w0, [x19,#4]
    3720:	7100041f 	cmp	w0, #0x1
    3724:	540001a0 	b.eq	3758 <TEE_CipherInit+0x8c>
/home/ursus/devel/optee/optee_os/lib/libutee/tee_api_operations.c:842
    3728:	f0000044 	adrp	x4, e000 <__func__.3633+0x30>
    372c:	91112884 	add	x4, x4, #0x44a
    3730:	52800005 	mov	w5, #0x0                   	// #0
    3734:	52800023 	mov	w3, #0x1                   	// #1
    3738:	52800022 	mov	w2, #0x1                   	// #1
    373c:	52806941 	mov	w1, #0x34a                 	// #842
    3740:	b0000040 	adrp	x0, c000 <mpa_set_str+0x4>
    3744:	9136e000 	add	x0, x0, #0xdb8
    3748:	9104a000 	add	x0, x0, #0x128
    374c:	940014a9 	bl	89f0 <trace_printf>
    3750:	52800000 	mov	w0, #0x0                   	// #0
    3754:	9400079c 	bl	55c4 <__TEE_Panic>
/home/ursus/devel/optee/optee_os/lib/libutee/tee_api_operations.c:844
    3758:	b9401e60 	ldr	w0, [x19,#28]
    375c:	36900060 	tbz	w0, #18, 3768 <TEE_CipherInit+0x9c>
/home/ursus/devel/optee/optee_os/lib/libutee/tee_api_operations.c:844 (discriminator 1)
    3760:	f9401260 	ldr	x0, [x19,#32]
    3764:	b50001a0 	cbnz	x0, 3798 <TEE_CipherInit+0xcc>
/home/ursus/devel/optee/optee_os/lib/libutee/tee_api_operations.c:846
    3768:	f0000044 	adrp	x4, e000 <__func__.3633+0x30>
    376c:	91112884 	add	x4, x4, #0x44a
    3770:	52800005 	mov	w5, #0x0                   	// #0
    3774:	52800023 	mov	w3, #0x1                   	// #1
    3778:	52800022 	mov	w2, #0x1                   	// #1
    377c:	528069c1 	mov	w1, #0x34e                 	// #846
    3780:	b0000040 	adrp	x0, c000 <mpa_set_str+0x4>
    3784:	9136e000 	add	x0, x0, #0xdb8
    3788:	9104a000 	add	x0, x0, #0x128
    378c:	94001499 	bl	89f0 <trace_printf>
    3790:	52800000 	mov	w0, #0x0                   	// #0
    3794:	9400078c 	bl	55c4 <__TEE_Panic>
/home/ursus/devel/optee/optee_os/lib/libutee/tee_api_operations.c:848
    3798:	b9403260 	ldr	w0, [x19,#48]
    379c:	34000060 	cbz	w0, 37a8 <TEE_CipherInit+0xdc>
/home/ursus/devel/optee/optee_os/lib/libutee/tee_api_operations.c:849
    37a0:	aa1303e0 	mov	x0, x19
    37a4:	97fffdea 	bl	2f4c <TEE_ResetOperation>
/home/ursus/devel/optee/optee_os/lib/libutee/tee_api_operations.c:853
    37a8:	b9405a60 	ldr	w0, [x19,#88]
/home/ursus/devel/optee/optee_os/lib/libutee/tee_api_operations.c:851
    37ac:	52800035 	mov	w21, #0x1                   	// #1
    37b0:	b9003275 	str	w21, [x19,#48]
/home/ursus/devel/optee/optee_os/lib/libutee/tee_api_operations.c:853
    37b4:	aa1403e1 	mov	x1, x20
    37b8:	2a1603e2 	mov	w2, w22
    37bc:	94000882 	bl	59c4 <utee_cipher_init>
    37c0:	2a0003f4 	mov	w20, w0
/home/ursus/devel/optee/optee_os/lib/libutee/tee_api_operations.c:854
    37c4:	340001a0 	cbz	w0, 37f8 <TEE_CipherInit+0x12c>
/home/ursus/devel/optee/optee_os/lib/libutee/tee_api_operations.c:855
    37c8:	2a0003e5 	mov	w5, w0
    37cc:	f0000044 	adrp	x4, e000 <__func__.3633+0x30>
    37d0:	2a1503e3 	mov	w3, w21
    37d4:	91112884 	add	x4, x4, #0x44a
    37d8:	2a1503e2 	mov	w2, w21
    37dc:	52806ae1 	mov	w1, #0x357                 	// #855
    37e0:	b0000040 	adrp	x0, c000 <mpa_set_str+0x4>
    37e4:	9136e000 	add	x0, x0, #0xdb8
    37e8:	9104a000 	add	x0, x0, #0x128
    37ec:	94001481 	bl	89f0 <trace_printf>
    37f0:	2a1403e0 	mov	w0, w20
    37f4:	94000774 	bl	55c4 <__TEE_Panic>
/home/ursus/devel/optee/optee_os/lib/libutee/tee_api_operations.c:858
    37f8:	b9401e60 	ldr	w0, [x19,#28]
/home/ursus/devel/optee/optee_os/lib/libutee/tee_api_operations.c:859
    37fc:	a9425bf5 	ldp	x21, x22, [sp,#32]
/home/ursus/devel/optee/optee_os/lib/libutee/tee_api_operations.c:858
    3800:	320f0000 	orr	w0, w0, #0x20000
/home/ursus/devel/optee/optee_os/lib/libutee/tee_api_operations.c:857
    3804:	f9002a7f 	str	xzr, [x19,#80]
/home/ursus/devel/optee/optee_os/lib/libutee/tee_api_operations.c:858
    3808:	b9001e60 	str	w0, [x19,#28]
/home/ursus/devel/optee/optee_os/lib/libutee/tee_api_operations.c:859
    380c:	a94153f3 	ldp	x19, x20, [sp,#16]
    3810:	a8c37bfd 	ldp	x29, x30, [sp],#48
    3814:	d65f03c0 	ret

0000000000003818 <TEE_CipherUpdate>:
TEE_CipherUpdate():
/home/ursus/devel/optee/optee_os/lib/libutee/tee_api_operations.c:961
    3818:	a9bd7bfd 	stp	x29, x30, [sp,#-48]!
    381c:	910003fd 	mov	x29, sp
    3820:	a90153f3 	stp	x19, x20, [sp,#16]
/home/ursus/devel/optee/optee_os/lib/libutee/tee_api_operations.c:970
    3824:	129fff33 	mov	w19, #0xffff0006            	// #-65530
/home/ursus/devel/optee/optee_os/lib/libutee/tee_api_operations.c:966
    3828:	b40003c0 	cbz	x0, 38a0 <TEE_CipherUpdate+0x88>
/home/ursus/devel/optee/optee_os/lib/libutee/tee_api_operations.c:967 (discriminator 1)
    382c:	f100003f 	cmp	x1, #0x0
    3830:	aa0403f4 	mov	x20, x4
    3834:	1a9f17e5 	cset	w5, eq
    3838:	7100005f 	cmp	w2, #0x0
    383c:	2a0203e6 	mov	w6, w2
    3840:	1a9f07e2 	cset	w2, ne
    3844:	f100029f 	cmp	x20, #0x0
    3848:	0a0200a4 	and	w4, w5, w2
    384c:	1a9f17e2 	cset	w2, eq
    3850:	2a040042 	orr	w2, w2, w4
    3854:	35000262 	cbnz	w2, 38a0 <TEE_CipherUpdate+0x88>
/home/ursus/devel/optee/optee_os/lib/libutee/tee_api_operations.c:968
    3858:	b5000063 	cbnz	x3, 3864 <TEE_CipherUpdate+0x4c>
/home/ursus/devel/optee/optee_os/lib/libutee/tee_api_operations.c:969
    385c:	b9400282 	ldr	w2, [x20]
    3860:	35000202 	cbnz	w2, 38a0 <TEE_CipherUpdate+0x88>
/home/ursus/devel/optee/optee_os/lib/libutee/tee_api_operations.c:974
    3864:	b9400402 	ldr	w2, [x0,#4]
/home/ursus/devel/optee/optee_os/lib/libutee/tee_api_operations.c:970
    3868:	129fff33 	mov	w19, #0xffff0006            	// #-65530
/home/ursus/devel/optee/optee_os/lib/libutee/tee_api_operations.c:974
    386c:	7100045f 	cmp	w2, #0x1
    3870:	54000181 	b.ne	38a0 <TEE_CipherUpdate+0x88>
/home/ursus/devel/optee/optee_os/lib/libutee/tee_api_operations.c:979
    3874:	b9401c02 	ldr	w2, [x0,#28]
    3878:	36880142 	tbz	w2, #17, 38a0 <TEE_CipherUpdate+0x88>
/home/ursus/devel/optee/optee_os/lib/libutee/tee_api_operations.c:984
    387c:	b9403002 	ldr	w2, [x0,#48]
    3880:	7100045f 	cmp	w2, #0x1
    3884:	540000e1 	b.ne	38a0 <TEE_CipherUpdate+0x88>
/home/ursus/devel/optee/optee_os/lib/libutee/tee_api_operations.c:989
    3888:	710000df 	cmp	w6, #0x0
    388c:	1a9f17e2 	cset	w2, eq
    3890:	6a0200bf 	tst	w5, w2
    3894:	540002e0 	b.eq	38f0 <TEE_CipherUpdate+0xd8>
/home/ursus/devel/optee/optee_os/lib/libutee/tee_api_operations.c:991
    3898:	52800013 	mov	w19, #0x0                   	// #0
/home/ursus/devel/optee/optee_os/lib/libutee/tee_api_operations.c:990
    389c:	b900029f 	str	wzr, [x20]
/home/ursus/devel/optee/optee_os/lib/libutee/tee_api_operations.c:1035
    38a0:	7100027f 	cmp	w19, #0x0
    38a4:	129ffde0 	mov	w0, #0xffff0010            	// #-65520
    38a8:	7a401264 	ccmp	w19, w0, #0x4, ne
    38ac:	540001a0 	b.eq	38e0 <TEE_CipherUpdate+0xc8>
/home/ursus/devel/optee/optee_os/lib/libutee/tee_api_operations.c:1037
    38b0:	2a1303e5 	mov	w5, w19
    38b4:	f0000044 	adrp	x4, e000 <__func__.3633+0x30>
    38b8:	91112884 	add	x4, x4, #0x44a
    38bc:	52800023 	mov	w3, #0x1                   	// #1
    38c0:	52800022 	mov	w2, #0x1                   	// #1
    38c4:	528081a1 	mov	w1, #0x40d                 	// #1037
    38c8:	b0000040 	adrp	x0, c000 <mpa_set_str+0x4>
    38cc:	9136e000 	add	x0, x0, #0xdb8
    38d0:	9104e000 	add	x0, x0, #0x138
    38d4:	94001447 	bl	89f0 <trace_printf>
    38d8:	2a1303e0 	mov	w0, w19
    38dc:	9400073a 	bl	55c4 <__TEE_Panic>
/home/ursus/devel/optee/optee_os/lib/libutee/tee_api_operations.c:1040
    38e0:	2a1303e0 	mov	w0, w19
    38e4:	a94153f3 	ldp	x19, x20, [sp,#16]
    38e8:	a8c37bfd 	ldp	x29, x30, [sp],#48
    38ec:	d65f03c0 	ret
/home/ursus/devel/optee/optee_os/lib/libutee/tee_api_operations.c:996
    38f0:	f9402405 	ldr	x5, [x0,#72]
    38f4:	2a0603e2 	mov	w2, w6
/home/ursus/devel/optee/optee_os/lib/libutee/tee_api_operations.c:1000
    38f8:	aa0203e4 	mov	x4, x2
/home/ursus/devel/optee/optee_os/lib/libutee/tee_api_operations.c:996
    38fc:	f10004bf 	cmp	x5, #0x1
    3900:	540000a9 	b.ls	3914 <TEE_CipherUpdate+0xfc>
/home/ursus/devel/optee/optee_os/lib/libutee/tee_api_operations.c:997
    3904:	f9402804 	ldr	x4, [x0,#80]
    3908:	8b040044 	add	x4, x2, x4
    390c:	9ac50884 	udiv	x4, x4, x5
    3910:	9b057c84 	mul	x4, x4, x5
/home/ursus/devel/optee/optee_os/lib/libutee/tee_api_operations.c:1002
    3914:	39410007 	ldrb	w7, [x0,#64]
    3918:	340000a7 	cbz	w7, 392c <TEE_CipherUpdate+0x114>
/home/ursus/devel/optee/optee_os/lib/libutee/tee_api_operations.c:1003
    391c:	d37ff8a7 	lsl	x7, x5, #1
/home/ursus/devel/optee/optee_os/lib/libutee/tee_api_operations.c:1004
    3920:	cb070088 	sub	x8, x4, x7
    3924:	eb07009f 	cmp	x4, x7
    3928:	9a9f8104 	csel	x4, x8, xzr, hi
/home/ursus/devel/optee/optee_os/lib/libutee/tee_api_operations.c:1013
    392c:	b9400287 	ldr	w7, [x20]
    3930:	eb07009f 	cmp	x4, x7
    3934:	54000089 	b.ls	3944 <TEE_CipherUpdate+0x12c>
/home/ursus/devel/optee/optee_os/lib/libutee/tee_api_operations.c:1015
    3938:	129ffdf3 	mov	w19, #0xffff0010            	// #-65520
/home/ursus/devel/optee/optee_os/lib/libutee/tee_api_operations.c:1014
    393c:	b9000284 	str	w4, [x20]
/home/ursus/devel/optee/optee_os/lib/libutee/tee_api_operations.c:1016
    3940:	17ffffd8 	b	38a0 <TEE_CipherUpdate+0x88>
/home/ursus/devel/optee/optee_os/lib/libutee/tee_api_operations.c:1019
    3944:	f90017a7 	str	x7, [x29,#40]
/home/ursus/devel/optee/optee_os/lib/libutee/tee_api_operations.c:1020
    3948:	f10004bf 	cmp	x5, #0x1
    394c:	54000189 	b.ls	397c <TEE_CipherUpdate+0x164>
/home/ursus/devel/optee/optee_os/lib/libutee/tee_api_operations.c:1021
    3950:	aa0303e4 	mov	x4, x3
    3954:	aa0203e3 	mov	x3, x2
    3958:	aa0103e2 	mov	x2, x1
    395c:	f0000041 	adrp	x1, e000 <__func__.3633+0x30>
    3960:	9100a3a5 	add	x5, x29, #0x28
    3964:	f9466c21 	ldr	x1, [x1,#3288]
    3968:	9400066e 	bl	5320 <tee_buffer_update>
/home/ursus/devel/optee/optee_os/lib/libutee/tee_api_operations.c:1025
    396c:	2a0003f3 	mov	w19, w0
/home/ursus/devel/optee/optee_os/lib/libutee/tee_api_operations.c:1032
    3970:	f94017a0 	ldr	x0, [x29,#40]
    3974:	b9000280 	str	w0, [x20]
    3978:	17ffffca 	b	38a0 <TEE_CipherUpdate+0x88>
/home/ursus/devel/optee/optee_os/lib/libutee/tee_api_operations.c:1024
    397c:	340000a6 	cbz	w6, 3990 <TEE_CipherUpdate+0x178>
/home/ursus/devel/optee/optee_os/lib/libutee/tee_api_operations.c:1025
    3980:	b9405800 	ldr	w0, [x0,#88]
    3984:	9100a3a4 	add	x4, x29, #0x28
    3988:	94000812 	bl	59d0 <utee_cipher_update>
    398c:	17fffff8 	b	396c <TEE_CipherUpdate+0x154>
/home/ursus/devel/optee/optee_os/lib/libutee/tee_api_operations.c:1028
    3990:	52800013 	mov	w19, #0x0                   	// #0
/home/ursus/devel/optee/optee_os/lib/libutee/tee_api_operations.c:1029
    3994:	f90017bf 	str	xzr, [x29,#40]
    3998:	17fffff6 	b	3970 <TEE_CipherUpdate+0x158>

000000000000399c <TEE_CipherDoFinal>:
TEE_CipherDoFinal():
/home/ursus/devel/optee/optee_os/lib/libutee/tee_api_operations.c:1045
    399c:	a9bb7bfd 	stp	x29, x30, [sp,#-80]!
    39a0:	910003fd 	mov	x29, sp
    39a4:	a90153f3 	stp	x19, x20, [sp,#16]
/home/ursus/devel/optee/optee_os/lib/libutee/tee_api_operations.c:1056
    39a8:	129fff34 	mov	w20, #0xffff0006            	// #-65530
/home/ursus/devel/optee/optee_os/lib/libutee/tee_api_operations.c:1045
    39ac:	a9025bf5 	stp	x21, x22, [sp,#32]
    39b0:	a90363f7 	stp	x23, x24, [sp,#48]
/home/ursus/devel/optee/optee_os/lib/libutee/tee_api_operations.c:1052
    39b4:	b40005e0 	cbz	x0, 3a70 <TEE_CipherDoFinal+0xd4>
/home/ursus/devel/optee/optee_os/lib/libutee/tee_api_operations.c:1053 (discriminator 1)
    39b8:	f100003f 	cmp	x1, #0x0
    39bc:	aa0403f5 	mov	x21, x4
    39c0:	7a400844 	ccmp	w2, #0x0, #0x4, eq
    39c4:	fa400884 	ccmp	x4, #0x0, #0x4, eq
    39c8:	54000540 	b.eq	3a70 <TEE_CipherDoFinal+0xd4>
    39cc:	aa0003f3 	mov	x19, x0
    39d0:	aa0303f8 	mov	x24, x3
/home/ursus/devel/optee/optee_os/lib/libutee/tee_api_operations.c:1054
    39d4:	b5000063 	cbnz	x3, 39e0 <TEE_CipherDoFinal+0x44>
/home/ursus/devel/optee/optee_os/lib/libutee/tee_api_operations.c:1055
    39d8:	b9400080 	ldr	w0, [x4]
    39dc:	350004a0 	cbnz	w0, 3a70 <TEE_CipherDoFinal+0xd4>
/home/ursus/devel/optee/optee_os/lib/libutee/tee_api_operations.c:1060
    39e0:	b9400660 	ldr	w0, [x19,#4]
/home/ursus/devel/optee/optee_os/lib/libutee/tee_api_operations.c:1056
    39e4:	129fff34 	mov	w20, #0xffff0006            	// #-65530
/home/ursus/devel/optee/optee_os/lib/libutee/tee_api_operations.c:1060
    39e8:	7100041f 	cmp	w0, #0x1
    39ec:	54000421 	b.ne	3a70 <TEE_CipherDoFinal+0xd4>
/home/ursus/devel/optee/optee_os/lib/libutee/tee_api_operations.c:1065
    39f0:	b9401e60 	ldr	w0, [x19,#28]
    39f4:	368803e0 	tbz	w0, #17, 3a70 <TEE_CipherDoFinal+0xd4>
/home/ursus/devel/optee/optee_os/lib/libutee/tee_api_operations.c:1070
    39f8:	b9403260 	ldr	w0, [x19,#48]
    39fc:	7100041f 	cmp	w0, #0x1
    3a00:	54000381 	b.ne	3a70 <TEE_CipherDoFinal+0xd4>
/home/ursus/devel/optee/optee_os/lib/libutee/tee_api_operations.c:1079
    3a04:	b9400260 	ldr	w0, [x19]
    3a08:	529ffe03 	mov	w3, #0xfff0                	// #65520
    3a0c:	72bdffe3 	movk	w3, #0xefff, lsl #16
    3a10:	2a0203e2 	mov	w2, w2
    3a14:	12177800 	and	w0, w0, #0xfffffeff
    3a18:	0b030003 	add	w3, w0, w3
/home/ursus/devel/optee/optee_os/lib/libutee/tee_api_operations.c:1083
    3a1c:	7100047f 	cmp	w3, #0x1
    3a20:	52800263 	mov	w3, #0x13                  	// #19
    3a24:	72a20003 	movk	w3, #0x1000, lsl #16
    3a28:	7a438004 	ccmp	w0, w3, #0x4, hi
    3a2c:	f9402663 	ldr	x3, [x19,#72]
    3a30:	540000c1 	b.ne	3a48 <TEE_CipherDoFinal+0xac>
/home/ursus/devel/optee/optee_os/lib/libutee/tee_api_operations.c:1085
    3a34:	f9402a60 	ldr	x0, [x19,#80]
    3a38:	8b000040 	add	x0, x2, x0
    3a3c:	9ac30804 	udiv	x4, x0, x3
    3a40:	9b038080 	msub	x0, x4, x3, x0
    3a44:	b5000160 	cbnz	x0, 3a70 <TEE_CipherDoFinal+0xd4>
/home/ursus/devel/optee/optee_os/lib/libutee/tee_api_operations.c:1100
    3a48:	aa0203e0 	mov	x0, x2
/home/ursus/devel/optee/optee_os/lib/libutee/tee_api_operations.c:1097
    3a4c:	f100047f 	cmp	x3, #0x1
    3a50:	54000069 	b.ls	3a5c <TEE_CipherDoFinal+0xc0>
/home/ursus/devel/optee/optee_os/lib/libutee/tee_api_operations.c:1098
    3a54:	f9402a60 	ldr	x0, [x19,#80]
    3a58:	8b000040 	add	x0, x2, x0
/home/ursus/devel/optee/optee_os/lib/libutee/tee_api_operations.c:1102
    3a5c:	b94002a4 	ldr	w4, [x21]
    3a60:	eb04001f 	cmp	x0, x4
    3a64:	54000329 	b.ls	3ac8 <TEE_CipherDoFinal+0x12c>
/home/ursus/devel/optee/optee_os/lib/libutee/tee_api_operations.c:1104
    3a68:	129ffdf4 	mov	w20, #0xffff0010            	// #-65520
/home/ursus/devel/optee/optee_os/lib/libutee/tee_api_operations.c:1103
    3a6c:	b90002a0 	str	w0, [x21]
/home/ursus/devel/optee/optee_os/lib/libutee/tee_api_operations.c:1136
    3a70:	7100029f 	cmp	w20, #0x0
    3a74:	129ffde0 	mov	w0, #0xffff0010            	// #-65520
    3a78:	7a401284 	ccmp	w20, w0, #0x4, ne
    3a7c:	540001a0 	b.eq	3ab0 <TEE_CipherDoFinal+0x114>
/home/ursus/devel/optee/optee_os/lib/libutee/tee_api_operations.c:1138
    3a80:	2a1403e5 	mov	w5, w20
    3a84:	f0000044 	adrp	x4, e000 <__func__.3633+0x30>
    3a88:	91112884 	add	x4, x4, #0x44a
    3a8c:	52800023 	mov	w3, #0x1                   	// #1
    3a90:	52800022 	mov	w2, #0x1                   	// #1
    3a94:	52808e41 	mov	w1, #0x472                 	// #1138
    3a98:	b0000040 	adrp	x0, c000 <mpa_set_str+0x4>
    3a9c:	9136e000 	add	x0, x0, #0xdb8
    3aa0:	91054000 	add	x0, x0, #0x150
    3aa4:	940013d3 	bl	89f0 <trace_printf>
    3aa8:	2a1403e0 	mov	w0, w20
    3aac:	940006c6 	bl	55c4 <__TEE_Panic>
/home/ursus/devel/optee/optee_os/lib/libutee/tee_api_operations.c:1141
    3ab0:	2a1403e0 	mov	w0, w20
    3ab4:	a94153f3 	ldp	x19, x20, [sp,#16]
    3ab8:	a9425bf5 	ldp	x21, x22, [sp,#32]
    3abc:	a94363f7 	ldp	x23, x24, [sp,#48]
    3ac0:	a8c57bfd 	ldp	x29, x30, [sp],#80
    3ac4:	d65f03c0 	ret
/home/ursus/devel/optee/optee_os/lib/libutee/tee_api_operations.c:1108
    3ac8:	910143b7 	add	x23, x29, #0x50
/home/ursus/devel/optee/optee_os/lib/libutee/tee_api_operations.c:1109
    3acc:	f100047f 	cmp	x3, #0x1
/home/ursus/devel/optee/optee_os/lib/libutee/tee_api_operations.c:1108
    3ad0:	f81f8ee4 	str	x4, [x23,#-8]!
/home/ursus/devel/optee/optee_os/lib/libutee/tee_api_operations.c:1109
    3ad4:	540003e9 	b.ls	3b50 <TEE_CipherDoFinal+0x1b4>
/home/ursus/devel/optee/optee_os/lib/libutee/tee_api_operations.c:1110
    3ad8:	aa0203e3 	mov	x3, x2
    3adc:	aa0103e2 	mov	x2, x1
    3ae0:	f0000041 	adrp	x1, e000 <__func__.3633+0x30>
    3ae4:	aa1703e5 	mov	x5, x23
    3ae8:	aa1803e4 	mov	x4, x24
    3aec:	aa1303e0 	mov	x0, x19
    3af0:	f9466c21 	ldr	x1, [x1,#3288]
    3af4:	9400060b 	bl	5320 <tee_buffer_update>
    3af8:	2a0003f4 	mov	w20, w0
/home/ursus/devel/optee/optee_os/lib/libutee/tee_api_operations.c:1112
    3afc:	35fffba0 	cbnz	w0, 3a70 <TEE_CipherDoFinal+0xd4>
/home/ursus/devel/optee/optee_os/lib/libutee/tee_api_operations.c:1115
    3b00:	f94027b6 	ldr	x22, [x29,#72]
/home/ursus/devel/optee/optee_os/lib/libutee/tee_api_operations.c:1119
    3b04:	aa1703e4 	mov	x4, x23
/home/ursus/devel/optee/optee_os/lib/libutee/tee_api_operations.c:1118
    3b08:	b94002a0 	ldr	w0, [x21]
/home/ursus/devel/optee/optee_os/lib/libutee/tee_api_operations.c:1119
    3b0c:	f9401e61 	ldr	x1, [x19,#56]
    3b10:	8b160303 	add	x3, x24, x22
/home/ursus/devel/optee/optee_os/lib/libutee/tee_api_operations.c:1118
    3b14:	cb160000 	sub	x0, x0, x22
/home/ursus/devel/optee/optee_os/lib/libutee/tee_api_operations.c:1119
    3b18:	f9402a62 	ldr	x2, [x19,#80]
/home/ursus/devel/optee/optee_os/lib/libutee/tee_api_operations.c:1118
    3b1c:	f90027a0 	str	x0, [x29,#72]
/home/ursus/devel/optee/optee_os/lib/libutee/tee_api_operations.c:1119
    3b20:	b9405a60 	ldr	w0, [x19,#88]
    3b24:	940007ae 	bl	59dc <utee_cipher_final>
    3b28:	2a0003f4 	mov	w20, w0
/home/ursus/devel/optee/optee_os/lib/libutee/tee_api_operations.c:1125
    3b2c:	35fffa34 	cbnz	w20, 3a70 <TEE_CipherDoFinal+0xd4>
/home/ursus/devel/optee/optee_os/lib/libutee/tee_api_operations.c:1128
    3b30:	f94027a0 	ldr	x0, [x29,#72]
    3b34:	8b0002d6 	add	x22, x22, x0
/home/ursus/devel/optee/optee_os/lib/libutee/tee_api_operations.c:1129
    3b38:	b90002b6 	str	w22, [x21]
/home/ursus/devel/optee/optee_os/lib/libutee/tee_api_operations.c:1133
    3b3c:	b900327f 	str	wzr, [x19,#48]
/home/ursus/devel/optee/optee_os/lib/libutee/tee_api_operations.c:1131
    3b40:	b9401e60 	ldr	w0, [x19,#28]
    3b44:	120e7800 	and	w0, w0, #0xfffdffff
    3b48:	b9001e60 	str	w0, [x19,#28]
    3b4c:	17ffffc9 	b	3a70 <TEE_CipherDoFinal+0xd4>
/home/ursus/devel/optee/optee_os/lib/libutee/tee_api_operations.c:1122
    3b50:	b9405a60 	ldr	w0, [x19,#88]
    3b54:	aa1703e4 	mov	x4, x23
    3b58:	aa1803e3 	mov	x3, x24
/home/ursus/devel/optee/optee_os/lib/libutee/tee_api_operations.c:1048
    3b5c:	d2800016 	mov	x22, #0x0                   	// #0
/home/ursus/devel/optee/optee_os/lib/libutee/tee_api_operations.c:1122
    3b60:	9400079f 	bl	59dc <utee_cipher_final>
    3b64:	2a0003f4 	mov	w20, w0
    3b68:	17fffff1 	b	3b2c <TEE_CipherDoFinal+0x190>

0000000000003b6c <TEE_MACInit>:
TEE_MACInit():
/home/ursus/devel/optee/optee_os/lib/libutee/tee_api_operations.c:1146
    3b6c:	a9bd7bfd 	stp	x29, x30, [sp,#-48]!
    3b70:	910003fd 	mov	x29, sp
    3b74:	a90153f3 	stp	x19, x20, [sp,#16]
    3b78:	aa0003f3 	mov	x19, x0
    3b7c:	f90013f5 	str	x21, [sp,#32]
    3b80:	aa0103f4 	mov	x20, x1
    3b84:	2a0203f5 	mov	w21, w2
/home/ursus/devel/optee/optee_os/lib/libutee/tee_api_operations.c:1147
    3b88:	b50001a0 	cbnz	x0, 3bbc <TEE_MACInit+0x50>
/home/ursus/devel/optee/optee_os/lib/libutee/tee_api_operations.c:1148
    3b8c:	f0000044 	adrp	x4, e000 <__func__.3633+0x30>
    3b90:	91112884 	add	x4, x4, #0x44a
    3b94:	52800005 	mov	w5, #0x0                   	// #0
    3b98:	52800023 	mov	w3, #0x1                   	// #1
    3b9c:	52800022 	mov	w2, #0x1                   	// #1
    3ba0:	52808f81 	mov	w1, #0x47c                 	// #1148
    3ba4:	b0000040 	adrp	x0, c000 <mpa_set_str+0x4>
    3ba8:	9136e000 	add	x0, x0, #0xdb8
    3bac:	9105a000 	add	x0, x0, #0x168
    3bb0:	94001390 	bl	89f0 <trace_printf>
    3bb4:	52800000 	mov	w0, #0x0                   	// #0
    3bb8:	94000683 	bl	55c4 <__TEE_Panic>
/home/ursus/devel/optee/optee_os/lib/libutee/tee_api_operations.c:1150
    3bbc:	b9400660 	ldr	w0, [x19,#4]
    3bc0:	71000c1f 	cmp	w0, #0x3
    3bc4:	540001a0 	b.eq	3bf8 <TEE_MACInit+0x8c>
/home/ursus/devel/optee/optee_os/lib/libutee/tee_api_operations.c:1151
    3bc8:	f0000044 	adrp	x4, e000 <__func__.3633+0x30>
    3bcc:	91112884 	add	x4, x4, #0x44a
    3bd0:	52800005 	mov	w5, #0x0                   	// #0
    3bd4:	52800023 	mov	w3, #0x1                   	// #1
    3bd8:	52800022 	mov	w2, #0x1                   	// #1
    3bdc:	52808fe1 	mov	w1, #0x47f                 	// #1151
    3be0:	b0000040 	adrp	x0, c000 <mpa_set_str+0x4>
    3be4:	9136e000 	add	x0, x0, #0xdb8
    3be8:	9105a000 	add	x0, x0, #0x168
    3bec:	94001381 	bl	89f0 <trace_printf>
    3bf0:	52800000 	mov	w0, #0x0                   	// #0
    3bf4:	94000674 	bl	55c4 <__TEE_Panic>
/home/ursus/devel/optee/optee_os/lib/libutee/tee_api_operations.c:1153
    3bf8:	b9401e60 	ldr	w0, [x19,#28]
    3bfc:	36900060 	tbz	w0, #18, 3c08 <TEE_MACInit+0x9c>
/home/ursus/devel/optee/optee_os/lib/libutee/tee_api_operations.c:1153 (discriminator 1)
    3c00:	f9401260 	ldr	x0, [x19,#32]
    3c04:	b50001a0 	cbnz	x0, 3c38 <TEE_MACInit+0xcc>
/home/ursus/devel/optee/optee_os/lib/libutee/tee_api_operations.c:1155
    3c08:	f0000044 	adrp	x4, e000 <__func__.3633+0x30>
    3c0c:	91112884 	add	x4, x4, #0x44a
    3c10:	52800005 	mov	w5, #0x0                   	// #0
    3c14:	52800023 	mov	w3, #0x1                   	// #1
    3c18:	52800022 	mov	w2, #0x1                   	// #1
    3c1c:	52809061 	mov	w1, #0x483                 	// #1155
    3c20:	b0000040 	adrp	x0, c000 <mpa_set_str+0x4>
    3c24:	9136e000 	add	x0, x0, #0xdb8
    3c28:	9105a000 	add	x0, x0, #0x168
    3c2c:	94001371 	bl	89f0 <trace_printf>
    3c30:	52800000 	mov	w0, #0x0                   	// #0
    3c34:	94000664 	bl	55c4 <__TEE_Panic>
/home/ursus/devel/optee/optee_os/lib/libutee/tee_api_operations.c:1157
    3c38:	b9403260 	ldr	w0, [x19,#48]
    3c3c:	34000060 	cbz	w0, 3c48 <TEE_MACInit+0xdc>
/home/ursus/devel/optee/optee_os/lib/libutee/tee_api_operations.c:1158
    3c40:	aa1303e0 	mov	x0, x19
    3c44:	97fffcc2 	bl	2f4c <TEE_ResetOperation>
/home/ursus/devel/optee/optee_os/lib/libutee/tee_api_operations.c:1160
    3c48:	52800020 	mov	w0, #0x1                   	// #1
/home/ursus/devel/optee/optee_os/lib/libutee/tee_api_operations.c:1162
    3c4c:	2a1503e2 	mov	w2, w21
/home/ursus/devel/optee/optee_os/lib/libutee/tee_api_operations.c:1163
    3c50:	f94013f5 	ldr	x21, [sp,#32]
/home/ursus/devel/optee/optee_os/lib/libutee/tee_api_operations.c:1162
    3c54:	aa1403e1 	mov	x1, x20
/home/ursus/devel/optee/optee_os/lib/libutee/tee_api_operations.c:1160
    3c58:	b9003260 	str	w0, [x19,#48]
/home/ursus/devel/optee/optee_os/lib/libutee/tee_api_operations.c:1162
    3c5c:	aa1303e0 	mov	x0, x19
/home/ursus/devel/optee/optee_os/lib/libutee/tee_api_operations.c:1163
    3c60:	a94153f3 	ldp	x19, x20, [sp,#16]
    3c64:	a8c37bfd 	ldp	x29, x30, [sp],#48
/home/ursus/devel/optee/optee_os/lib/libutee/tee_api_operations.c:1162
    3c68:	17fff9d7 	b	23c4 <init_hash_operation>

0000000000003c6c <TEE_MACUpdate>:
TEE_MACUpdate():
/home/ursus/devel/optee/optee_os/lib/libutee/tee_api_operations.c:1167
    3c6c:	a9bd7bfd 	stp	x29, x30, [sp,#-48]!
    3c70:	910003fd 	mov	x29, sp
    3c74:	a90153f3 	stp	x19, x20, [sp,#16]
    3c78:	aa0003f3 	mov	x19, x0
    3c7c:	f90013f5 	str	x21, [sp,#32]
    3c80:	aa0103f4 	mov	x20, x1
    3c84:	2a0203f5 	mov	w21, w2
/home/ursus/devel/optee/optee_os/lib/libutee/tee_api_operations.c:1170
    3c88:	b4000080 	cbz	x0, 3c98 <TEE_MACUpdate+0x2c>
/home/ursus/devel/optee/optee_os/lib/libutee/tee_api_operations.c:1170 (discriminator 1)
    3c8c:	f100003f 	cmp	x1, #0x0
    3c90:	7a400844 	ccmp	w2, #0x0, #0x4, eq
    3c94:	540001a0 	b.eq	3cc8 <TEE_MACUpdate+0x5c>
/home/ursus/devel/optee/optee_os/lib/libutee/tee_api_operations.c:1171
    3c98:	f0000044 	adrp	x4, e000 <__func__.3633+0x30>
    3c9c:	91112884 	add	x4, x4, #0x44a
    3ca0:	52800005 	mov	w5, #0x0                   	// #0
    3ca4:	52800023 	mov	w3, #0x1                   	// #1
    3ca8:	52800022 	mov	w2, #0x1                   	// #1
    3cac:	52809261 	mov	w1, #0x493                 	// #1171
    3cb0:	b0000040 	adrp	x0, c000 <mpa_set_str+0x4>
    3cb4:	9136e000 	add	x0, x0, #0xdb8
    3cb8:	9105e000 	add	x0, x0, #0x178
    3cbc:	9400134d 	bl	89f0 <trace_printf>
    3cc0:	52800000 	mov	w0, #0x0                   	// #0
    3cc4:	94000640 	bl	55c4 <__TEE_Panic>
/home/ursus/devel/optee/optee_os/lib/libutee/tee_api_operations.c:1173
    3cc8:	b9400660 	ldr	w0, [x19,#4]
    3ccc:	71000c1f 	cmp	w0, #0x3
    3cd0:	540001a0 	b.eq	3d04 <TEE_MACUpdate+0x98>
/home/ursus/devel/optee/optee_os/lib/libutee/tee_api_operations.c:1174
    3cd4:	f0000044 	adrp	x4, e000 <__func__.3633+0x30>
    3cd8:	91112884 	add	x4, x4, #0x44a
    3cdc:	52800005 	mov	w5, #0x0                   	// #0
    3ce0:	52800023 	mov	w3, #0x1                   	// #1
    3ce4:	52800022 	mov	w2, #0x1                   	// #1
    3ce8:	528092c1 	mov	w1, #0x496                 	// #1174
    3cec:	b0000040 	adrp	x0, c000 <mpa_set_str+0x4>
    3cf0:	9136e000 	add	x0, x0, #0xdb8
    3cf4:	9105e000 	add	x0, x0, #0x178
    3cf8:	9400133e 	bl	89f0 <trace_printf>
    3cfc:	52800000 	mov	w0, #0x0                   	// #0
    3d00:	94000631 	bl	55c4 <__TEE_Panic>
/home/ursus/devel/optee/optee_os/lib/libutee/tee_api_operations.c:1176
    3d04:	b9401e60 	ldr	w0, [x19,#28]
    3d08:	378801a0 	tbnz	w0, #17, 3d3c <TEE_MACUpdate+0xd0>
/home/ursus/devel/optee/optee_os/lib/libutee/tee_api_operations.c:1177
    3d0c:	f0000044 	adrp	x4, e000 <__func__.3633+0x30>
    3d10:	91112884 	add	x4, x4, #0x44a
    3d14:	52800005 	mov	w5, #0x0                   	// #0
    3d18:	52800023 	mov	w3, #0x1                   	// #1
    3d1c:	52800022 	mov	w2, #0x1                   	// #1
    3d20:	52809321 	mov	w1, #0x499                 	// #1177
    3d24:	b0000040 	adrp	x0, c000 <mpa_set_str+0x4>
    3d28:	9136e000 	add	x0, x0, #0xdb8
    3d2c:	9105e000 	add	x0, x0, #0x178
    3d30:	94001330 	bl	89f0 <trace_printf>
    3d34:	52800000 	mov	w0, #0x0                   	// #0
    3d38:	94000623 	bl	55c4 <__TEE_Panic>
/home/ursus/devel/optee/optee_os/lib/libutee/tee_api_operations.c:1179
    3d3c:	b9403260 	ldr	w0, [x19,#48]
    3d40:	7100041f 	cmp	w0, #0x1
    3d44:	540001a0 	b.eq	3d78 <TEE_MACUpdate+0x10c>
/home/ursus/devel/optee/optee_os/lib/libutee/tee_api_operations.c:1180
    3d48:	f0000044 	adrp	x4, e000 <__func__.3633+0x30>
    3d4c:	91112884 	add	x4, x4, #0x44a
    3d50:	52800005 	mov	w5, #0x0                   	// #0
    3d54:	52800023 	mov	w3, #0x1                   	// #1
    3d58:	52800022 	mov	w2, #0x1                   	// #1
    3d5c:	52809381 	mov	w1, #0x49c                 	// #1180
    3d60:	b0000040 	adrp	x0, c000 <mpa_set_str+0x4>
    3d64:	9136e000 	add	x0, x0, #0xdb8
    3d68:	9105e000 	add	x0, x0, #0x178
    3d6c:	94001321 	bl	89f0 <trace_printf>
    3d70:	52800000 	mov	w0, #0x0                   	// #0
    3d74:	94000614 	bl	55c4 <__TEE_Panic>
/home/ursus/devel/optee/optee_os/lib/libutee/tee_api_operations.c:1182
    3d78:	b9405a60 	ldr	w0, [x19,#88]
    3d7c:	2a1503e2 	mov	w2, w21
    3d80:	aa1403e1 	mov	x1, x20
    3d84:	9400070a 	bl	59ac <utee_hash_update>
    3d88:	2a0003f3 	mov	w19, w0
/home/ursus/devel/optee/optee_os/lib/libutee/tee_api_operations.c:1183
    3d8c:	34000200 	cbz	w0, 3dcc <TEE_MACUpdate+0x160>
/home/ursus/devel/optee/optee_os/lib/libutee/tee_api_operations.c:1184
    3d90:	2a0003e5 	mov	w5, w0
    3d94:	b0000040 	adrp	x0, c000 <mpa_set_str+0x4>
    3d98:	9136e000 	add	x0, x0, #0xdb8
    3d9c:	52800023 	mov	w3, #0x1                   	// #1
    3da0:	52800022 	mov	w2, #0x1                   	// #1
    3da4:	52809401 	mov	w1, #0x4a0                 	// #1184
    3da8:	9105e000 	add	x0, x0, #0x178
    3dac:	f0000044 	adrp	x4, e000 <__func__.3633+0x30>
    3db0:	91112884 	add	x4, x4, #0x44a
    3db4:	9400130f 	bl	89f0 <trace_printf>
    3db8:	2a1303e0 	mov	w0, w19
/home/ursus/devel/optee/optee_os/lib/libutee/tee_api_operations.c:1185
    3dbc:	f94013f5 	ldr	x21, [sp,#32]
    3dc0:	a94153f3 	ldp	x19, x20, [sp,#16]
    3dc4:	a8c37bfd 	ldp	x29, x30, [sp],#48
/home/ursus/devel/optee/optee_os/lib/libutee/tee_api_operations.c:1184
    3dc8:	140005ff 	b	55c4 <__TEE_Panic>
/home/ursus/devel/optee/optee_os/lib/libutee/tee_api_operations.c:1185
    3dcc:	a94153f3 	ldp	x19, x20, [sp,#16]
    3dd0:	f94013f5 	ldr	x21, [sp,#32]
    3dd4:	a8c37bfd 	ldp	x29, x30, [sp],#48
    3dd8:	d65f03c0 	ret

0000000000003ddc <TEE_MACComputeFinal>:
TEE_MACComputeFinal():
/home/ursus/devel/optee/optee_os/lib/libutee/tee_api_operations.c:1190
    3ddc:	a9bc7bfd 	stp	x29, x30, [sp,#-64]!
    3de0:	910003fd 	mov	x29, sp
    3de4:	a90153f3 	stp	x19, x20, [sp,#16]
    3de8:	aa0003f4 	mov	x20, x0
    3dec:	f90013f5 	str	x21, [sp,#32]
/home/ursus/devel/optee/optee_os/lib/libutee/tee_api_operations.c:1198
    3df0:	129fff33 	mov	w19, #0xffff0006            	// #-65530
/home/ursus/devel/optee/optee_os/lib/libutee/tee_api_operations.c:1194
    3df4:	b40003c0 	cbz	x0, 3e6c <TEE_MACComputeFinal+0x90>
/home/ursus/devel/optee/optee_os/lib/libutee/tee_api_operations.c:1195 (discriminator 1)
    3df8:	f100003f 	cmp	x1, #0x0
/home/ursus/devel/optee/optee_os/lib/libutee/tee_api_operations.c:1194 (discriminator 1)
    3dfc:	7a400844 	ccmp	w2, #0x0, #0x4, eq
    3e00:	54000361 	b.ne	3e6c <TEE_MACComputeFinal+0x90>
/home/ursus/devel/optee/optee_os/lib/libutee/tee_api_operations.c:1196
    3e04:	f100007f 	cmp	x3, #0x0
    3e08:	aa0403f5 	mov	x21, x4
    3e0c:	fa401884 	ccmp	x4, #0x0, #0x4, ne
    3e10:	540002e0 	b.eq	3e6c <TEE_MACComputeFinal+0x90>
/home/ursus/devel/optee/optee_os/lib/libutee/tee_api_operations.c:1202
    3e14:	b9400680 	ldr	w0, [x20,#4]
    3e18:	71000c1f 	cmp	w0, #0x3
    3e1c:	54000281 	b.ne	3e6c <TEE_MACComputeFinal+0x90>
/home/ursus/devel/optee/optee_os/lib/libutee/tee_api_operations.c:1207
    3e20:	b9401e80 	ldr	w0, [x20,#28]
    3e24:	36880240 	tbz	w0, #17, 3e6c <TEE_MACComputeFinal+0x90>
/home/ursus/devel/optee/optee_os/lib/libutee/tee_api_operations.c:1212
    3e28:	b9403280 	ldr	w0, [x20,#48]
    3e2c:	7100041f 	cmp	w0, #0x1
    3e30:	540001e1 	b.ne	3e6c <TEE_MACComputeFinal+0x90>
/home/ursus/devel/optee/optee_os/lib/libutee/tee_api_operations.c:1217
    3e34:	910103a4 	add	x4, x29, #0x40
    3e38:	b94002a0 	ldr	w0, [x21]
/home/ursus/devel/optee/optee_os/lib/libutee/tee_api_operations.c:1218
    3e3c:	2a0203e2 	mov	w2, w2
/home/ursus/devel/optee/optee_os/lib/libutee/tee_api_operations.c:1217
    3e40:	f81f8c80 	str	x0, [x4,#-8]!
/home/ursus/devel/optee/optee_os/lib/libutee/tee_api_operations.c:1218
    3e44:	b9405a80 	ldr	w0, [x20,#88]
    3e48:	940006dc 	bl	59b8 <utee_hash_final>
    3e4c:	2a0003f3 	mov	w19, w0
/home/ursus/devel/optee/optee_os/lib/libutee/tee_api_operations.c:1219
    3e50:	f9401fa0 	ldr	x0, [x29,#56]
    3e54:	b90002a0 	str	w0, [x21]
/home/ursus/devel/optee/optee_os/lib/libutee/tee_api_operations.c:1220
    3e58:	350000b3 	cbnz	w19, 3e6c <TEE_MACComputeFinal+0x90>
/home/ursus/devel/optee/optee_os/lib/libutee/tee_api_operations.c:1223
    3e5c:	b9401e80 	ldr	w0, [x20,#28]
/home/ursus/devel/optee/optee_os/lib/libutee/tee_api_operations.c:1225
    3e60:	b900329f 	str	wzr, [x20,#48]
/home/ursus/devel/optee/optee_os/lib/libutee/tee_api_operations.c:1223
    3e64:	120e7800 	and	w0, w0, #0xfffdffff
    3e68:	b9001e80 	str	w0, [x20,#28]
/home/ursus/devel/optee/optee_os/lib/libutee/tee_api_operations.c:1228
    3e6c:	7100027f 	cmp	w19, #0x0
    3e70:	129ffde0 	mov	w0, #0xffff0010            	// #-65520
    3e74:	7a401264 	ccmp	w19, w0, #0x4, ne
    3e78:	540001a0 	b.eq	3eac <TEE_MACComputeFinal+0xd0>
/home/ursus/devel/optee/optee_os/lib/libutee/tee_api_operations.c:1230
    3e7c:	2a1303e5 	mov	w5, w19
    3e80:	f0000044 	adrp	x4, e000 <__func__.3633+0x30>
    3e84:	91112884 	add	x4, x4, #0x44a
    3e88:	52800023 	mov	w3, #0x1                   	// #1
    3e8c:	52800022 	mov	w2, #0x1                   	// #1
    3e90:	528099c1 	mov	w1, #0x4ce                 	// #1230
    3e94:	b0000040 	adrp	x0, c000 <mpa_set_str+0x4>
    3e98:	9136e000 	add	x0, x0, #0xdb8
    3e9c:	91062000 	add	x0, x0, #0x188
    3ea0:	940012d4 	bl	89f0 <trace_printf>
    3ea4:	2a1303e0 	mov	w0, w19
    3ea8:	940005c7 	bl	55c4 <__TEE_Panic>
/home/ursus/devel/optee/optee_os/lib/libutee/tee_api_operations.c:1233
    3eac:	2a1303e0 	mov	w0, w19
    3eb0:	f94013f5 	ldr	x21, [sp,#32]
    3eb4:	a94153f3 	ldp	x19, x20, [sp,#16]
    3eb8:	a8c47bfd 	ldp	x29, x30, [sp],#64
    3ebc:	d65f03c0 	ret

0000000000003ec0 <TEE_MACCompareFinal>:
TEE_MACCompareFinal():
/home/ursus/devel/optee/optee_os/lib/libutee/tee_api_operations.c:1238
    3ec0:	a9b77bfd 	stp	x29, x30, [sp,#-144]!
    3ec4:	910003fd 	mov	x29, sp
    3ec8:	a9025bf5 	stp	x21, x22, [sp,#32]
    3ecc:	aa0303f6 	mov	x22, x3
/home/ursus/devel/optee/optee_os/lib/libutee/tee_api_operations.c:1241
    3ed0:	52800803 	mov	w3, #0x40                  	// #64
/home/ursus/devel/optee/optee_os/lib/libutee/tee_api_operations.c:1238
    3ed4:	a90153f3 	stp	x19, x20, [sp,#16]
/home/ursus/devel/optee/optee_os/lib/libutee/tee_api_operations.c:1241
    3ed8:	b9004fa3 	str	w3, [x29,#76]
/home/ursus/devel/optee/optee_os/lib/libutee/tee_api_operations.c:1244
    3edc:	129fff33 	mov	w19, #0xffff0006            	// #-65530
/home/ursus/devel/optee/optee_os/lib/libutee/tee_api_operations.c:1243
    3ee0:	b9400403 	ldr	w3, [x0,#4]
/home/ursus/devel/optee/optee_os/lib/libutee/tee_api_operations.c:1238
    3ee4:	f9001bf7 	str	x23, [sp,#48]
/home/ursus/devel/optee/optee_os/lib/libutee/tee_api_operations.c:1243
    3ee8:	71000c7f 	cmp	w3, #0x3
    3eec:	54000241 	b.ne	3f34 <TEE_MACCompareFinal+0x74>
/home/ursus/devel/optee/optee_os/lib/libutee/tee_api_operations.c:1248
    3ef0:	b9401c03 	ldr	w3, [x0,#28]
    3ef4:	aa0003f4 	mov	x20, x0
    3ef8:	368801e3 	tbz	w3, #17, 3f34 <TEE_MACCompareFinal+0x74>
/home/ursus/devel/optee/optee_os/lib/libutee/tee_api_operations.c:1253
    3efc:	b9403003 	ldr	w3, [x0,#48]
    3f00:	7100047f 	cmp	w3, #0x1
    3f04:	54000181 	b.ne	3f34 <TEE_MACCompareFinal+0x74>
/home/ursus/devel/optee/optee_os/lib/libutee/tee_api_operations.c:1258
    3f08:	910143b5 	add	x21, x29, #0x50
    3f0c:	2a0403f7 	mov	w23, w4
    3f10:	aa1503e3 	mov	x3, x21
    3f14:	910133a4 	add	x4, x29, #0x4c
    3f18:	97ffffb1 	bl	3ddc <TEE_MACComputeFinal>
    3f1c:	2a0003f3 	mov	w19, w0
/home/ursus/devel/optee/optee_os/lib/libutee/tee_api_operations.c:1260
    3f20:	350000a0 	cbnz	w0, 3f34 <TEE_MACCompareFinal+0x74>
/home/ursus/devel/optee/optee_os/lib/libutee/tee_api_operations.c:1263
    3f24:	b9404fa2 	ldr	w2, [x29,#76]
    3f28:	6b17005f 	cmp	w2, w23
    3f2c:	54000300 	b.eq	3f8c <TEE_MACCompareFinal+0xcc>
/home/ursus/devel/optee/optee_os/lib/libutee/tee_api_operations.c:1264
    3f30:	1299f1d3 	mov	w19, #0xffff3071            	// #-53135
/home/ursus/devel/optee/optee_os/lib/libutee/tee_api_operations.c:1276
    3f34:	7100027f 	cmp	w19, #0x0
    3f38:	1299f1c0 	mov	w0, #0xffff3071            	// #-53135
    3f3c:	7a401264 	ccmp	w19, w0, #0x4, ne
    3f40:	540001a0 	b.eq	3f74 <TEE_MACCompareFinal+0xb4>
/home/ursus/devel/optee/optee_os/lib/libutee/tee_api_operations.c:1278
    3f44:	2a1303e5 	mov	w5, w19
    3f48:	f0000044 	adrp	x4, e000 <__func__.3633+0x30>
    3f4c:	91112884 	add	x4, x4, #0x44a
    3f50:	52800023 	mov	w3, #0x1                   	// #1
    3f54:	52800022 	mov	w2, #0x1                   	// #1
    3f58:	52809fc1 	mov	w1, #0x4fe                 	// #1278
    3f5c:	b0000040 	adrp	x0, c000 <mpa_set_str+0x4>
    3f60:	9136e000 	add	x0, x0, #0xdb8
    3f64:	91068000 	add	x0, x0, #0x1a0
    3f68:	940012a2 	bl	89f0 <trace_printf>
    3f6c:	2a1303e0 	mov	w0, w19
    3f70:	94000595 	bl	55c4 <__TEE_Panic>
/home/ursus/devel/optee/optee_os/lib/libutee/tee_api_operations.c:1281
    3f74:	2a1303e0 	mov	w0, w19
    3f78:	f9401bf7 	ldr	x23, [sp,#48]
    3f7c:	a94153f3 	ldp	x19, x20, [sp,#16]
    3f80:	a9425bf5 	ldp	x21, x22, [sp,#32]
    3f84:	a8c97bfd 	ldp	x29, x30, [sp],#144
    3f88:	d65f03c0 	ret
/home/ursus/devel/optee/optee_os/lib/libutee/tee_api_operations.c:1268
    3f8c:	2a0203e2 	mov	w2, w2
    3f90:	aa1503e1 	mov	x1, x21
    3f94:	aa1603e0 	mov	x0, x22
    3f98:	94001279 	bl	897c <buf_compare_ct>
    3f9c:	35fffca0 	cbnz	w0, 3f30 <TEE_MACCompareFinal+0x70>
/home/ursus/devel/optee/optee_os/lib/libutee/tee_api_operations.c:1273
    3fa0:	b900329f 	str	wzr, [x20,#48]
    3fa4:	17ffffe4 	b	3f34 <TEE_MACCompareFinal+0x74>

0000000000003fa8 <TEE_AEInit>:
TEE_AEInit():
/home/ursus/devel/optee/optee_os/lib/libutee/tee_api_operations.c:1288
    3fa8:	a9bd7bfd 	stp	x29, x30, [sp,#-48]!
/home/ursus/devel/optee/optee_os/lib/libutee/tee_api_operations.c:1291
    3fac:	f100001f 	cmp	x0, #0x0
    3fb0:	fa401824 	ccmp	x1, #0x0, #0x4, ne
/home/ursus/devel/optee/optee_os/lib/libutee/tee_api_operations.c:1288
    3fb4:	910003fd 	mov	x29, sp
    3fb8:	a90153f3 	stp	x19, x20, [sp,#16]
/home/ursus/devel/optee/optee_os/lib/libutee/tee_api_operations.c:1292
    3fbc:	129fff33 	mov	w19, #0xffff0006            	// #-65530
/home/ursus/devel/optee/optee_os/lib/libutee/tee_api_operations.c:1288
    3fc0:	f90013f5 	str	x21, [sp,#32]
/home/ursus/devel/optee/optee_os/lib/libutee/tee_api_operations.c:1291
    3fc4:	540003e0 	b.eq	4040 <TEE_AEInit+0x98>
    3fc8:	aa0003f4 	mov	x20, x0
/home/ursus/devel/optee/optee_os/lib/libutee/tee_api_operations.c:1296
    3fcc:	b9400400 	ldr	w0, [x0,#4]
    3fd0:	7100101f 	cmp	w0, #0x4
    3fd4:	54000361 	b.ne	4040 <TEE_AEInit+0x98>
/home/ursus/devel/optee/optee_os/lib/libutee/tee_api_operations.c:1301
    3fd8:	b9403280 	ldr	w0, [x20,#48]
    3fdc:	35000320 	cbnz	w0, 4040 <TEE_AEInit+0x98>
/home/ursus/devel/optee/optee_os/lib/libutee/tee_api_operations.c:1312
    3fe0:	b9400286 	ldr	w6, [x20]
    3fe4:	52810200 	mov	w0, #0x810                 	// #2064
    3fe8:	72a80000 	movk	w0, #0x4000, lsl #16
    3fec:	6b0000df 	cmp	w6, w0
    3ff0:	540000e1 	b.ne	400c <TEE_AEInit+0x64>
/home/ursus/devel/optee/optee_os/lib/libutee/tee_api_operations.c:1316
    3ff4:	51018060 	sub	w0, w3, #0x60
/home/ursus/devel/optee/optee_os/lib/libutee/tee_api_operations.c:1317
    3ff8:	129ffeb3 	mov	w19, #0xffff000a            	// #-65526
/home/ursus/devel/optee/optee_os/lib/libutee/tee_api_operations.c:1316
    3ffc:	7100801f 	cmp	w0, #0x20
    4000:	54000208 	b.hi	4040 <TEE_AEInit+0x98>
/home/ursus/devel/optee/optee_os/lib/libutee/tee_api_operations.c:1316 (discriminator 1)
    4004:	f240087f 	tst	x3, #0x7
    4008:	540001c1 	b.ne	4040 <TEE_AEInit+0x98>
/home/ursus/devel/optee/optee_os/lib/libutee/tee_api_operations.c:1322
    400c:	b9405a80 	ldr	w0, [x20,#88]
/home/ursus/devel/optee/optee_os/lib/libutee/tee_api_operations.c:1323
    4010:	53037c75 	lsr	w21, w3, #3
/home/ursus/devel/optee/optee_os/lib/libutee/tee_api_operations.c:1322
    4014:	2a0503e5 	mov	w5, w5
    4018:	2a0403e4 	mov	w4, w4
    401c:	924072a3 	and	x3, x21, #0x1fffffff
    4020:	2a0203e2 	mov	w2, w2
    4024:	9400068f 	bl	5a60 <utee_authenc_init>
    4028:	2a0003f3 	mov	w19, w0
/home/ursus/devel/optee/optee_os/lib/libutee/tee_api_operations.c:1324
    402c:	350000a0 	cbnz	w0, 4040 <TEE_AEInit+0x98>
/home/ursus/devel/optee/optee_os/lib/libutee/tee_api_operations.c:1328
    4030:	b9401e80 	ldr	w0, [x20,#28]
/home/ursus/devel/optee/optee_os/lib/libutee/tee_api_operations.c:1327
    4034:	b9005e95 	str	w21, [x20,#92]
/home/ursus/devel/optee/optee_os/lib/libutee/tee_api_operations.c:1328
    4038:	320f0000 	orr	w0, w0, #0x20000
    403c:	b9001e80 	str	w0, [x20,#28]
/home/ursus/devel/optee/optee_os/lib/libutee/tee_api_operations.c:1331
    4040:	7100027f 	cmp	w19, #0x0
    4044:	129ffea0 	mov	w0, #0xffff000a            	// #-65526
    4048:	7a401264 	ccmp	w19, w0, #0x4, ne
    404c:	540001a0 	b.eq	4080 <TEE_AEInit+0xd8>
/home/ursus/devel/optee/optee_os/lib/libutee/tee_api_operations.c:1333
    4050:	2a1303e5 	mov	w5, w19
    4054:	d0000044 	adrp	x4, e000 <__func__.3633+0x30>
    4058:	91112884 	add	x4, x4, #0x44a
    405c:	52800023 	mov	w3, #0x1                   	// #1
    4060:	52800022 	mov	w2, #0x1                   	// #1
    4064:	5280a6a1 	mov	w1, #0x535                 	// #1333
    4068:	90000040 	adrp	x0, c000 <mpa_set_str+0x4>
    406c:	9136e000 	add	x0, x0, #0xdb8
    4070:	9106e000 	add	x0, x0, #0x1b8
    4074:	9400125f 	bl	89f0 <trace_printf>
    4078:	2a1303e0 	mov	w0, w19
    407c:	94000552 	bl	55c4 <__TEE_Panic>
/home/ursus/devel/optee/optee_os/lib/libutee/tee_api_operations.c:1336
    4080:	2a1303e0 	mov	w0, w19
    4084:	f94013f5 	ldr	x21, [sp,#32]
    4088:	a94153f3 	ldp	x19, x20, [sp,#16]
    408c:	a8c37bfd 	ldp	x29, x30, [sp],#48
    4090:	d65f03c0 	ret

0000000000004094 <TEE_AEUpdateAAD>:
TEE_AEUpdateAAD():
/home/ursus/devel/optee/optee_os/lib/libutee/tee_api_operations.c:1340
    4094:	a9bd7bfd 	stp	x29, x30, [sp,#-48]!
    4098:	910003fd 	mov	x29, sp
    409c:	a90153f3 	stp	x19, x20, [sp,#16]
    40a0:	aa0003f3 	mov	x19, x0
    40a4:	f90013f5 	str	x21, [sp,#32]
    40a8:	aa0103f4 	mov	x20, x1
    40ac:	2a0203f5 	mov	w21, w2
/home/ursus/devel/optee/optee_os/lib/libutee/tee_api_operations.c:1343
    40b0:	b4000080 	cbz	x0, 40c0 <TEE_AEUpdateAAD+0x2c>
/home/ursus/devel/optee/optee_os/lib/libutee/tee_api_operations.c:1344 (discriminator 1)
    40b4:	f100003f 	cmp	x1, #0x0
/home/ursus/devel/optee/optee_os/lib/libutee/tee_api_operations.c:1343 (discriminator 1)
    40b8:	7a400844 	ccmp	w2, #0x0, #0x4, eq
    40bc:	540001a0 	b.eq	40f0 <TEE_AEUpdateAAD+0x5c>
/home/ursus/devel/optee/optee_os/lib/libutee/tee_api_operations.c:1345
    40c0:	d0000044 	adrp	x4, e000 <__func__.3633+0x30>
    40c4:	91112884 	add	x4, x4, #0x44a
    40c8:	52800005 	mov	w5, #0x0                   	// #0
    40cc:	52800023 	mov	w3, #0x1                   	// #1
    40d0:	52800022 	mov	w2, #0x1                   	// #1
    40d4:	5280a821 	mov	w1, #0x541                 	// #1345
    40d8:	90000040 	adrp	x0, c000 <mpa_set_str+0x4>
    40dc:	9136e000 	add	x0, x0, #0xdb8
    40e0:	91072000 	add	x0, x0, #0x1c8
    40e4:	94001243 	bl	89f0 <trace_printf>
    40e8:	52800000 	mov	w0, #0x0                   	// #0
    40ec:	94000536 	bl	55c4 <__TEE_Panic>
/home/ursus/devel/optee/optee_os/lib/libutee/tee_api_operations.c:1347
    40f0:	b9400660 	ldr	w0, [x19,#4]
    40f4:	7100101f 	cmp	w0, #0x4
    40f8:	540001a0 	b.eq	412c <TEE_AEUpdateAAD+0x98>
/home/ursus/devel/optee/optee_os/lib/libutee/tee_api_operations.c:1348
    40fc:	d0000044 	adrp	x4, e000 <__func__.3633+0x30>
    4100:	91112884 	add	x4, x4, #0x44a
    4104:	52800005 	mov	w5, #0x0                   	// #0
    4108:	52800023 	mov	w3, #0x1                   	// #1
    410c:	52800022 	mov	w2, #0x1                   	// #1
    4110:	5280a881 	mov	w1, #0x544                 	// #1348
    4114:	90000040 	adrp	x0, c000 <mpa_set_str+0x4>
    4118:	9136e000 	add	x0, x0, #0xdb8
    411c:	91072000 	add	x0, x0, #0x1c8
    4120:	94001234 	bl	89f0 <trace_printf>
    4124:	52800000 	mov	w0, #0x0                   	// #0
    4128:	94000527 	bl	55c4 <__TEE_Panic>
/home/ursus/devel/optee/optee_os/lib/libutee/tee_api_operations.c:1350
    412c:	b9401e60 	ldr	w0, [x19,#28]
    4130:	378801a0 	tbnz	w0, #17, 4164 <TEE_AEUpdateAAD+0xd0>
/home/ursus/devel/optee/optee_os/lib/libutee/tee_api_operations.c:1351
    4134:	d0000044 	adrp	x4, e000 <__func__.3633+0x30>
    4138:	91112884 	add	x4, x4, #0x44a
    413c:	52800005 	mov	w5, #0x0                   	// #0
    4140:	52800023 	mov	w3, #0x1                   	// #1
    4144:	52800022 	mov	w2, #0x1                   	// #1
    4148:	5280a8e1 	mov	w1, #0x547                 	// #1351
    414c:	90000040 	adrp	x0, c000 <mpa_set_str+0x4>
    4150:	9136e000 	add	x0, x0, #0xdb8
    4154:	91072000 	add	x0, x0, #0x1c8
    4158:	94001226 	bl	89f0 <trace_printf>
    415c:	52800000 	mov	w0, #0x0                   	// #0
    4160:	94000519 	bl	55c4 <__TEE_Panic>
/home/ursus/devel/optee/optee_os/lib/libutee/tee_api_operations.c:1353
    4164:	b9405a60 	ldr	w0, [x19,#88]
    4168:	2a1503e2 	mov	w2, w21
    416c:	aa1403e1 	mov	x1, x20
    4170:	9400063f 	bl	5a6c <utee_authenc_update_aad>
    4174:	2a0003f4 	mov	w20, w0
/home/ursus/devel/optee/optee_os/lib/libutee/tee_api_operations.c:1355
    4178:	52800022 	mov	w2, #0x1                   	// #1
    417c:	b9003262 	str	w2, [x19,#48]
/home/ursus/devel/optee/optee_os/lib/libutee/tee_api_operations.c:1357
    4180:	340001e0 	cbz	w0, 41bc <TEE_AEUpdateAAD+0x128>
/home/ursus/devel/optee/optee_os/lib/libutee/tee_api_operations.c:1358
    4184:	2a0003e5 	mov	w5, w0
    4188:	90000040 	adrp	x0, c000 <mpa_set_str+0x4>
    418c:	9136e000 	add	x0, x0, #0xdb8
    4190:	2a0203e3 	mov	w3, w2
    4194:	5280a9c1 	mov	w1, #0x54e                 	// #1358
    4198:	91072000 	add	x0, x0, #0x1c8
    419c:	d0000044 	adrp	x4, e000 <__func__.3633+0x30>
    41a0:	91112884 	add	x4, x4, #0x44a
    41a4:	94001213 	bl	89f0 <trace_printf>
/home/ursus/devel/optee/optee_os/lib/libutee/tee_api_operations.c:1359
    41a8:	f94013f5 	ldr	x21, [sp,#32]
/home/ursus/devel/optee/optee_os/lib/libutee/tee_api_operations.c:1358
    41ac:	2a1403e0 	mov	w0, w20
/home/ursus/devel/optee/optee_os/lib/libutee/tee_api_operations.c:1359
    41b0:	a94153f3 	ldp	x19, x20, [sp,#16]
    41b4:	a8c37bfd 	ldp	x29, x30, [sp],#48
/home/ursus/devel/optee/optee_os/lib/libutee/tee_api_operations.c:1358
    41b8:	14000503 	b	55c4 <__TEE_Panic>
/home/ursus/devel/optee/optee_os/lib/libutee/tee_api_operations.c:1359
    41bc:	a94153f3 	ldp	x19, x20, [sp,#16]
    41c0:	f94013f5 	ldr	x21, [sp,#32]
    41c4:	a8c37bfd 	ldp	x29, x30, [sp],#48
    41c8:	d65f03c0 	ret

00000000000041cc <TEE_AEUpdate>:
TEE_AEUpdate():
/home/ursus/devel/optee/optee_os/lib/libutee/tee_api_operations.c:1363
    41cc:	a9bc7bfd 	stp	x29, x30, [sp,#-64]!
    41d0:	910003fd 	mov	x29, sp
    41d4:	a90153f3 	stp	x19, x20, [sp,#16]
/home/ursus/devel/optee/optee_os/lib/libutee/tee_api_operations.c:1372
    41d8:	129fff33 	mov	w19, #0xffff0006            	// #-65530
/home/ursus/devel/optee/optee_os/lib/libutee/tee_api_operations.c:1363
    41dc:	f90013f5 	str	x21, [sp,#32]
/home/ursus/devel/optee/optee_os/lib/libutee/tee_api_operations.c:1368
    41e0:	b4000560 	cbz	x0, 428c <TEE_AEUpdate+0xc0>
/home/ursus/devel/optee/optee_os/lib/libutee/tee_api_operations.c:1369 (discriminator 1)
    41e4:	f100003f 	cmp	x1, #0x0
    41e8:	aa0403f5 	mov	x21, x4
    41ec:	1a9f17e4 	cset	w4, eq
    41f0:	7100005f 	cmp	w2, #0x0
    41f4:	aa0003f4 	mov	x20, x0
    41f8:	1a9f07e0 	cset	w0, ne
    41fc:	f10002bf 	cmp	x21, #0x0
    4200:	2a0203e5 	mov	w5, w2
    4204:	0a000082 	and	w2, w4, w0
    4208:	1a9f17e0 	cset	w0, eq
    420c:	2a020000 	orr	w0, w0, w2
    4210:	350003e0 	cbnz	w0, 428c <TEE_AEUpdate+0xc0>
/home/ursus/devel/optee/optee_os/lib/libutee/tee_api_operations.c:1370
    4214:	b5000063 	cbnz	x3, 4220 <TEE_AEUpdate+0x54>
/home/ursus/devel/optee/optee_os/lib/libutee/tee_api_operations.c:1371
    4218:	b94002a0 	ldr	w0, [x21]
    421c:	35000380 	cbnz	w0, 428c <TEE_AEUpdate+0xc0>
/home/ursus/devel/optee/optee_os/lib/libutee/tee_api_operations.c:1376
    4220:	b9400680 	ldr	w0, [x20,#4]
/home/ursus/devel/optee/optee_os/lib/libutee/tee_api_operations.c:1372
    4224:	129fff33 	mov	w19, #0xffff0006            	// #-65530
/home/ursus/devel/optee/optee_os/lib/libutee/tee_api_operations.c:1376
    4228:	7100101f 	cmp	w0, #0x4
    422c:	54000301 	b.ne	428c <TEE_AEUpdate+0xc0>
/home/ursus/devel/optee/optee_os/lib/libutee/tee_api_operations.c:1381
    4230:	b9401e80 	ldr	w0, [x20,#28]
    4234:	368802c0 	tbz	w0, #17, 428c <TEE_AEUpdate+0xc0>
/home/ursus/devel/optee/optee_os/lib/libutee/tee_api_operations.c:1386
    4238:	710000bf 	cmp	w5, #0x0
    423c:	1a9f17e0 	cset	w0, eq
    4240:	6a00009f 	tst	w4, w0
    4244:	54000080 	b.eq	4254 <TEE_AEUpdate+0x88>
/home/ursus/devel/optee/optee_os/lib/libutee/tee_api_operations.c:1387
    4248:	b90002bf 	str	wzr, [x21]
/home/ursus/devel/optee/optee_os/lib/libutee/tee_api_operations.c:1429
    424c:	52800013 	mov	w19, #0x0                   	// #0
    4250:	1400000f 	b	428c <TEE_AEUpdate+0xc0>
/home/ursus/devel/optee/optee_os/lib/libutee/tee_api_operations.c:1397
    4254:	f9402684 	ldr	x4, [x20,#72]
    4258:	2a0503e2 	mov	w2, w5
/home/ursus/devel/optee/optee_os/lib/libutee/tee_api_operations.c:1401
    425c:	aa0203e0 	mov	x0, x2
/home/ursus/devel/optee/optee_os/lib/libutee/tee_api_operations.c:1397
    4260:	f100049f 	cmp	x4, #0x1
    4264:	540000a9 	b.ls	4278 <TEE_AEUpdate+0xac>
/home/ursus/devel/optee/optee_os/lib/libutee/tee_api_operations.c:1398
    4268:	f9402a80 	ldr	x0, [x20,#80]
    426c:	cb0403e6 	neg	x6, x4
    4270:	8b000040 	add	x0, x2, x0
    4274:	8a060000 	and	x0, x0, x6
/home/ursus/devel/optee/optee_os/lib/libutee/tee_api_operations.c:1404
    4278:	b94002a6 	ldr	w6, [x21]
    427c:	eb06001f 	cmp	x0, x6
    4280:	54000309 	b.ls	42e0 <TEE_AEUpdate+0x114>
/home/ursus/devel/optee/optee_os/lib/libutee/tee_api_operations.c:1406
    4284:	129ffdf3 	mov	w19, #0xffff0010            	// #-65520
/home/ursus/devel/optee/optee_os/lib/libutee/tee_api_operations.c:1405
    4288:	b90002a0 	str	w0, [x21]
/home/ursus/devel/optee/optee_os/lib/libutee/tee_api_operations.c:1432
    428c:	7100027f 	cmp	w19, #0x0
    4290:	129ffde0 	mov	w0, #0xffff0010            	// #-65520
    4294:	7a401264 	ccmp	w19, w0, #0x4, ne
    4298:	540001a0 	b.eq	42cc <TEE_AEUpdate+0x100>
/home/ursus/devel/optee/optee_os/lib/libutee/tee_api_operations.c:1434
    429c:	2a1303e5 	mov	w5, w19
    42a0:	d0000044 	adrp	x4, e000 <__func__.3633+0x30>
    42a4:	91112884 	add	x4, x4, #0x44a
    42a8:	52800023 	mov	w3, #0x1                   	// #1
    42ac:	52800022 	mov	w2, #0x1                   	// #1
    42b0:	5280b341 	mov	w1, #0x59a                 	// #1434
    42b4:	90000040 	adrp	x0, c000 <mpa_set_str+0x4>
    42b8:	9136e000 	add	x0, x0, #0xdb8
    42bc:	91076000 	add	x0, x0, #0x1d8
    42c0:	940011cc 	bl	89f0 <trace_printf>
    42c4:	2a1303e0 	mov	w0, w19
    42c8:	940004bf 	bl	55c4 <__TEE_Panic>
/home/ursus/devel/optee/optee_os/lib/libutee/tee_api_operations.c:1437
    42cc:	2a1303e0 	mov	w0, w19
    42d0:	f94013f5 	ldr	x21, [sp,#32]
    42d4:	a94153f3 	ldp	x19, x20, [sp,#16]
    42d8:	a8c47bfd 	ldp	x29, x30, [sp],#64
    42dc:	d65f03c0 	ret
/home/ursus/devel/optee/optee_os/lib/libutee/tee_api_operations.c:1410
    42e0:	f9001fa6 	str	x6, [x29,#56]
/home/ursus/devel/optee/optee_os/lib/libutee/tee_api_operations.c:1411
    42e4:	f100049f 	cmp	x4, #0x1
    42e8:	54000209 	b.ls	4328 <TEE_AEUpdate+0x15c>
/home/ursus/devel/optee/optee_os/lib/libutee/tee_api_operations.c:1412
    42ec:	aa0303e4 	mov	x4, x3
    42f0:	aa0203e3 	mov	x3, x2
    42f4:	aa0103e2 	mov	x2, x1
    42f8:	d0000041 	adrp	x1, e000 <__func__.3633+0x30>
    42fc:	9100e3a5 	add	x5, x29, #0x38
    4300:	aa1403e0 	mov	x0, x20
    4304:	f9465c21 	ldr	x1, [x1,#3256]
    4308:	94000406 	bl	5320 <tee_buffer_update>
/home/ursus/devel/optee/optee_os/lib/libutee/tee_api_operations.c:1416
    430c:	2a0003f3 	mov	w19, w0
/home/ursus/devel/optee/optee_os/lib/libutee/tee_api_operations.c:1424
    4310:	35fffbe0 	cbnz	w0, 428c <TEE_AEUpdate+0xc0>
/home/ursus/devel/optee/optee_os/lib/libutee/tee_api_operations.c:1427
    4314:	f9401fa0 	ldr	x0, [x29,#56]
    4318:	b90002a0 	str	w0, [x21]
/home/ursus/devel/optee/optee_os/lib/libutee/tee_api_operations.c:1429
    431c:	52800020 	mov	w0, #0x1                   	// #1
    4320:	b9003280 	str	w0, [x20,#48]
    4324:	17ffffca 	b	424c <TEE_AEUpdate+0x80>
/home/ursus/devel/optee/optee_os/lib/libutee/tee_api_operations.c:1415
    4328:	340000a5 	cbz	w5, 433c <TEE_AEUpdate+0x170>
/home/ursus/devel/optee/optee_os/lib/libutee/tee_api_operations.c:1416
    432c:	b9405a80 	ldr	w0, [x20,#88]
    4330:	9100e3a4 	add	x4, x29, #0x38
    4334:	940005d1 	bl	5a78 <utee_authenc_update_payload>
    4338:	17fffff5 	b	430c <TEE_AEUpdate+0x140>
/home/ursus/devel/optee/optee_os/lib/libutee/tee_api_operations.c:1420
    433c:	f9001fbf 	str	xzr, [x29,#56]
    4340:	17fffff5 	b	4314 <TEE_AEUpdate+0x148>

0000000000004344 <TEE_AEEncryptFinal>:
TEE_AEEncryptFinal():
/home/ursus/devel/optee/optee_os/lib/libutee/tee_api_operations.c:1443
    4344:	a9ba7bfd 	stp	x29, x30, [sp,#-96]!
    4348:	910003fd 	mov	x29, sp
    434c:	a90153f3 	stp	x19, x20, [sp,#16]
/home/ursus/devel/optee/optee_os/lib/libutee/tee_api_operations.c:1456
    4350:	129fff33 	mov	w19, #0xffff0006            	// #-65530
/home/ursus/devel/optee/optee_os/lib/libutee/tee_api_operations.c:1443
    4354:	a9025bf5 	stp	x21, x22, [sp,#32]
    4358:	a90363f7 	stp	x23, x24, [sp,#48]
    435c:	a9046bf9 	stp	x25, x26, [sp,#64]
/home/ursus/devel/optee/optee_os/lib/libutee/tee_api_operations.c:1451
    4360:	b40003c0 	cbz	x0, 43d8 <TEE_AEEncryptFinal+0x94>
/home/ursus/devel/optee/optee_os/lib/libutee/tee_api_operations.c:1452 (discriminator 1)
    4364:	f100003f 	cmp	x1, #0x0
    4368:	aa0403f5 	mov	x21, x4
    436c:	7a400844 	ccmp	w2, #0x0, #0x4, eq
    4370:	fa400884 	ccmp	x4, #0x0, #0x4, eq
    4374:	54000320 	b.eq	43d8 <TEE_AEEncryptFinal+0x94>
    4378:	aa0003f4 	mov	x20, x0
    437c:	aa0303f9 	mov	x25, x3
    4380:	aa0503fa 	mov	x26, x5
    4384:	aa0603f8 	mov	x24, x6
/home/ursus/devel/optee/optee_os/lib/libutee/tee_api_operations.c:1453
    4388:	b5000063 	cbnz	x3, 4394 <TEE_AEEncryptFinal+0x50>
/home/ursus/devel/optee/optee_os/lib/libutee/tee_api_operations.c:1454
    438c:	b9400080 	ldr	w0, [x4]
    4390:	35000240 	cbnz	w0, 43d8 <TEE_AEEncryptFinal+0x94>
/home/ursus/devel/optee/optee_os/lib/libutee/tee_api_operations.c:1455
    4394:	f100035f 	cmp	x26, #0x0
/home/ursus/devel/optee/optee_os/lib/libutee/tee_api_operations.c:1456
    4398:	129fff33 	mov	w19, #0xffff0006            	// #-65530
/home/ursus/devel/optee/optee_os/lib/libutee/tee_api_operations.c:1455
    439c:	fa401b04 	ccmp	x24, #0x0, #0x4, ne
    43a0:	540001c0 	b.eq	43d8 <TEE_AEEncryptFinal+0x94>
/home/ursus/devel/optee/optee_os/lib/libutee/tee_api_operations.c:1460
    43a4:	b9400680 	ldr	w0, [x20,#4]
    43a8:	7100101f 	cmp	w0, #0x4
    43ac:	54000161 	b.ne	43d8 <TEE_AEEncryptFinal+0x94>
/home/ursus/devel/optee/optee_os/lib/libutee/tee_api_operations.c:1465
    43b0:	b9401e80 	ldr	w0, [x20,#28]
    43b4:	36880120 	tbz	w0, #17, 43d8 <TEE_AEEncryptFinal+0x94>
/home/ursus/devel/optee/optee_os/lib/libutee/tee_api_operations.c:1475
    43b8:	f9402a80 	ldr	x0, [x20,#80]
    43bc:	2a0203e2 	mov	w2, w2
/home/ursus/devel/optee/optee_os/lib/libutee/tee_api_operations.c:1476
    43c0:	b94002a3 	ldr	w3, [x21]
/home/ursus/devel/optee/optee_os/lib/libutee/tee_api_operations.c:1475
    43c4:	8b000040 	add	x0, x2, x0
/home/ursus/devel/optee/optee_os/lib/libutee/tee_api_operations.c:1476
    43c8:	eb03001f 	cmp	x0, x3
    43cc:	54000349 	b.ls	4434 <TEE_AEEncryptFinal+0xf0>
/home/ursus/devel/optee/optee_os/lib/libutee/tee_api_operations.c:1477
    43d0:	b90002a0 	str	w0, [x21]
/home/ursus/devel/optee/optee_os/lib/libutee/tee_api_operations.c:1488
    43d4:	129ffdf3 	mov	w19, #0xffff0010            	// #-65520
/home/ursus/devel/optee/optee_os/lib/libutee/tee_api_operations.c:1525
    43d8:	7100027f 	cmp	w19, #0x0
    43dc:	129ffde0 	mov	w0, #0xffff0010            	// #-65520
    43e0:	7a401264 	ccmp	w19, w0, #0x4, ne
    43e4:	540001a0 	b.eq	4418 <TEE_AEEncryptFinal+0xd4>
/home/ursus/devel/optee/optee_os/lib/libutee/tee_api_operations.c:1527
    43e8:	2a1303e5 	mov	w5, w19
    43ec:	d0000044 	adrp	x4, e000 <__func__.3633+0x30>
    43f0:	91112884 	add	x4, x4, #0x44a
    43f4:	52800023 	mov	w3, #0x1                   	// #1
    43f8:	52800022 	mov	w2, #0x1                   	// #1
    43fc:	5280bee1 	mov	w1, #0x5f7                 	// #1527
    4400:	90000040 	adrp	x0, c000 <mpa_set_str+0x4>
    4404:	9136e000 	add	x0, x0, #0xdb8
    4408:	9107a000 	add	x0, x0, #0x1e8
    440c:	94001179 	bl	89f0 <trace_printf>
    4410:	2a1303e0 	mov	w0, w19
    4414:	9400046c 	bl	55c4 <__TEE_Panic>
/home/ursus/devel/optee/optee_os/lib/libutee/tee_api_operations.c:1530
    4418:	2a1303e0 	mov	w0, w19
    441c:	a94153f3 	ldp	x19, x20, [sp,#16]
    4420:	a9425bf5 	ldp	x21, x22, [sp,#32]
    4424:	a94363f7 	ldp	x23, x24, [sp,#48]
    4428:	a9446bf9 	ldp	x25, x26, [sp,#64]
    442c:	a8c67bfd 	ldp	x29, x30, [sp],#96
    4430:	d65f03c0 	ret
/home/ursus/devel/optee/optee_os/lib/libutee/tee_api_operations.c:1486
    4434:	b9405e84 	ldr	w4, [x20,#92]
    4438:	b9400300 	ldr	w0, [x24]
    443c:	6b04001f 	cmp	w0, w4
    4440:	54000062 	b.cs	444c <TEE_AEEncryptFinal+0x108>
/home/ursus/devel/optee/optee_os/lib/libutee/tee_api_operations.c:1487
    4444:	b9000304 	str	w4, [x24]
    4448:	17ffffe3 	b	43d4 <TEE_AEEncryptFinal+0x90>
/home/ursus/devel/optee/optee_os/lib/libutee/tee_api_operations.c:1493
    444c:	910183b7 	add	x23, x29, #0x60
/home/ursus/devel/optee/optee_os/lib/libutee/tee_api_operations.c:1492
    4450:	2a0003e0 	mov	w0, w0
    4454:	f9002fa0 	str	x0, [x29,#88]
/home/ursus/devel/optee/optee_os/lib/libutee/tee_api_operations.c:1494
    4458:	f9402680 	ldr	x0, [x20,#72]
/home/ursus/devel/optee/optee_os/lib/libutee/tee_api_operations.c:1493
    445c:	f81f0ee3 	str	x3, [x23,#-16]!
/home/ursus/devel/optee/optee_os/lib/libutee/tee_api_operations.c:1494
    4460:	f100041f 	cmp	x0, #0x1
    4464:	54000469 	b.ls	44f0 <TEE_AEEncryptFinal+0x1ac>
/home/ursus/devel/optee/optee_os/lib/libutee/tee_api_operations.c:1495
    4468:	aa0203e3 	mov	x3, x2
    446c:	aa0103e2 	mov	x2, x1
    4470:	d0000041 	adrp	x1, e000 <__func__.3633+0x30>
    4474:	aa1703e5 	mov	x5, x23
    4478:	aa1903e4 	mov	x4, x25
    447c:	aa1403e0 	mov	x0, x20
    4480:	f9465c21 	ldr	x1, [x1,#3256]
    4484:	940003a7 	bl	5320 <tee_buffer_update>
    4488:	2a0003f3 	mov	w19, w0
/home/ursus/devel/optee/optee_os/lib/libutee/tee_api_operations.c:1497
    448c:	35fffa60 	cbnz	w0, 43d8 <TEE_AEEncryptFinal+0x94>
/home/ursus/devel/optee/optee_os/lib/libutee/tee_api_operations.c:1500
    4490:	f9402bb6 	ldr	x22, [x29,#80]
/home/ursus/devel/optee/optee_os/lib/libutee/tee_api_operations.c:1504
    4494:	910163a6 	add	x6, x29, #0x58
/home/ursus/devel/optee/optee_os/lib/libutee/tee_api_operations.c:1503
    4498:	b94002a0 	ldr	w0, [x21]
/home/ursus/devel/optee/optee_os/lib/libutee/tee_api_operations.c:1504
    449c:	aa1a03e5 	mov	x5, x26
    44a0:	f9401e81 	ldr	x1, [x20,#56]
    44a4:	aa1703e4 	mov	x4, x23
/home/ursus/devel/optee/optee_os/lib/libutee/tee_api_operations.c:1503
    44a8:	cb160000 	sub	x0, x0, x22
/home/ursus/devel/optee/optee_os/lib/libutee/tee_api_operations.c:1504
    44ac:	f9402a82 	ldr	x2, [x20,#80]
/home/ursus/devel/optee/optee_os/lib/libutee/tee_api_operations.c:1503
    44b0:	f9002ba0 	str	x0, [x29,#80]
/home/ursus/devel/optee/optee_os/lib/libutee/tee_api_operations.c:1504
    44b4:	8b160323 	add	x3, x25, x22
    44b8:	b9405a80 	ldr	w0, [x20,#88]
    44bc:	94000572 	bl	5a84 <utee_authenc_enc_final>
    44c0:	2a0003f3 	mov	w19, w0
/home/ursus/devel/optee/optee_os/lib/libutee/tee_api_operations.c:1513
    44c4:	f9402fa0 	ldr	x0, [x29,#88]
    44c8:	b9000300 	str	w0, [x24]
/home/ursus/devel/optee/optee_os/lib/libutee/tee_api_operations.c:1514
    44cc:	35fff873 	cbnz	w19, 43d8 <TEE_AEEncryptFinal+0x94>
/home/ursus/devel/optee/optee_os/lib/libutee/tee_api_operations.c:1517
    44d0:	f9402ba0 	ldr	x0, [x29,#80]
    44d4:	8b0002d6 	add	x22, x22, x0
/home/ursus/devel/optee/optee_os/lib/libutee/tee_api_operations.c:1518
    44d8:	b90002b6 	str	w22, [x21]
/home/ursus/devel/optee/optee_os/lib/libutee/tee_api_operations.c:1522
    44dc:	b900329f 	str	wzr, [x20,#48]
/home/ursus/devel/optee/optee_os/lib/libutee/tee_api_operations.c:1520
    44e0:	b9401e80 	ldr	w0, [x20,#28]
    44e4:	120e7800 	and	w0, w0, #0xfffdffff
    44e8:	b9001e80 	str	w0, [x20,#28]
    44ec:	17ffffbb 	b	43d8 <TEE_AEEncryptFinal+0x94>
/home/ursus/devel/optee/optee_os/lib/libutee/tee_api_operations.c:1509
    44f0:	b9405a80 	ldr	w0, [x20,#88]
    44f4:	910163a6 	add	x6, x29, #0x58
    44f8:	aa1a03e5 	mov	x5, x26
    44fc:	aa1703e4 	mov	x4, x23
    4500:	aa1903e3 	mov	x3, x25
/home/ursus/devel/optee/optee_os/lib/libutee/tee_api_operations.c:1446
    4504:	d2800016 	mov	x22, #0x0                   	// #0
/home/ursus/devel/optee/optee_os/lib/libutee/tee_api_operations.c:1509
    4508:	9400055f 	bl	5a84 <utee_authenc_enc_final>
    450c:	2a0003f3 	mov	w19, w0
    4510:	17ffffed 	b	44c4 <TEE_AEEncryptFinal+0x180>

0000000000004514 <TEE_AEDecryptFinal>:
TEE_AEDecryptFinal():
/home/ursus/devel/optee/optee_os/lib/libutee/tee_api_operations.c:1536
    4514:	a9ba7bfd 	stp	x29, x30, [sp,#-96]!
    4518:	910003fd 	mov	x29, sp
    451c:	a90153f3 	stp	x19, x20, [sp,#16]
/home/ursus/devel/optee/optee_os/lib/libutee/tee_api_operations.c:1548
    4520:	129fff33 	mov	w19, #0xffff0006            	// #-65530
/home/ursus/devel/optee/optee_os/lib/libutee/tee_api_operations.c:1536
    4524:	a9025bf5 	stp	x21, x22, [sp,#32]
    4528:	a90363f7 	stp	x23, x24, [sp,#48]
    452c:	a9046bf9 	stp	x25, x26, [sp,#64]
/home/ursus/devel/optee/optee_os/lib/libutee/tee_api_operations.c:1543
    4530:	b40003c0 	cbz	x0, 45a8 <TEE_AEDecryptFinal+0x94>
/home/ursus/devel/optee/optee_os/lib/libutee/tee_api_operations.c:1544 (discriminator 1)
    4534:	f100003f 	cmp	x1, #0x0
    4538:	aa0403f8 	mov	x24, x4
    453c:	7a400844 	ccmp	w2, #0x0, #0x4, eq
    4540:	fa400884 	ccmp	x4, #0x0, #0x4, eq
    4544:	54000320 	b.eq	45a8 <TEE_AEDecryptFinal+0x94>
    4548:	aa0003f7 	mov	x23, x0
    454c:	aa0303f9 	mov	x25, x3
    4550:	aa0503fa 	mov	x26, x5
    4554:	2a0603f6 	mov	w22, w6
/home/ursus/devel/optee/optee_os/lib/libutee/tee_api_operations.c:1545
    4558:	b5000063 	cbnz	x3, 4564 <TEE_AEDecryptFinal+0x50>
/home/ursus/devel/optee/optee_os/lib/libutee/tee_api_operations.c:1546
    455c:	b9400080 	ldr	w0, [x4]
    4560:	35000240 	cbnz	w0, 45a8 <TEE_AEDecryptFinal+0x94>
/home/ursus/devel/optee/optee_os/lib/libutee/tee_api_operations.c:1547 (discriminator 1)
    4564:	f100035f 	cmp	x26, #0x0
/home/ursus/devel/optee/optee_os/lib/libutee/tee_api_operations.c:1548 (discriminator 1)
    4568:	129fff33 	mov	w19, #0xffff0006            	// #-65530
/home/ursus/devel/optee/optee_os/lib/libutee/tee_api_operations.c:1546 (discriminator 1)
    456c:	7a400ac4 	ccmp	w22, #0x0, #0x4, eq
    4570:	540001c1 	b.ne	45a8 <TEE_AEDecryptFinal+0x94>
/home/ursus/devel/optee/optee_os/lib/libutee/tee_api_operations.c:1552
    4574:	b94006e0 	ldr	w0, [x23,#4]
    4578:	7100101f 	cmp	w0, #0x4
    457c:	54000161 	b.ne	45a8 <TEE_AEDecryptFinal+0x94>
/home/ursus/devel/optee/optee_os/lib/libutee/tee_api_operations.c:1557
    4580:	b9401ee0 	ldr	w0, [x23,#28]
    4584:	36880120 	tbz	w0, #17, 45a8 <TEE_AEDecryptFinal+0x94>
/home/ursus/devel/optee/optee_os/lib/libutee/tee_api_operations.c:1567
    4588:	f9402ae0 	ldr	x0, [x23,#80]
    458c:	2a0203e2 	mov	w2, w2
/home/ursus/devel/optee/optee_os/lib/libutee/tee_api_operations.c:1568
    4590:	b9400303 	ldr	w3, [x24]
/home/ursus/devel/optee/optee_os/lib/libutee/tee_api_operations.c:1567
    4594:	8b000040 	add	x0, x2, x0
/home/ursus/devel/optee/optee_os/lib/libutee/tee_api_operations.c:1568
    4598:	eb03001f 	cmp	x0, x3
    459c:	54000389 	b.ls	460c <TEE_AEDecryptFinal+0xf8>
/home/ursus/devel/optee/optee_os/lib/libutee/tee_api_operations.c:1570
    45a0:	129ffdf3 	mov	w19, #0xffff0010            	// #-65520
/home/ursus/devel/optee/optee_os/lib/libutee/tee_api_operations.c:1569
    45a4:	b9000300 	str	w0, [x24]
/home/ursus/devel/optee/optee_os/lib/libutee/tee_api_operations.c:1610
    45a8:	7100027f 	cmp	w19, #0x0
    45ac:	129ffde0 	mov	w0, #0xffff0010            	// #-65520
    45b0:	7a401264 	ccmp	w19, w0, #0x4, ne
    45b4:	1299f1c0 	mov	w0, #0xffff3071            	// #-53135
    45b8:	7a401264 	ccmp	w19, w0, #0x4, ne
    45bc:	540001a0 	b.eq	45f0 <TEE_AEDecryptFinal+0xdc>
/home/ursus/devel/optee/optee_os/lib/libutee/tee_api_operations.c:1612
    45c0:	2a1303e5 	mov	w5, w19
    45c4:	d0000044 	adrp	x4, e000 <__func__.3633+0x30>
    45c8:	91112884 	add	x4, x4, #0x44a
    45cc:	52800023 	mov	w3, #0x1                   	// #1
    45d0:	52800022 	mov	w2, #0x1                   	// #1
    45d4:	5280c981 	mov	w1, #0x64c                 	// #1612
    45d8:	90000040 	adrp	x0, c000 <mpa_set_str+0x4>
    45dc:	9136e000 	add	x0, x0, #0xdb8
    45e0:	91080000 	add	x0, x0, #0x200
    45e4:	94001103 	bl	89f0 <trace_printf>
    45e8:	2a1303e0 	mov	w0, w19
    45ec:	940003f6 	bl	55c4 <__TEE_Panic>
/home/ursus/devel/optee/optee_os/lib/libutee/tee_api_operations.c:1615
    45f0:	2a1303e0 	mov	w0, w19
    45f4:	a94153f3 	ldp	x19, x20, [sp,#16]
    45f8:	a9425bf5 	ldp	x21, x22, [sp,#32]
    45fc:	a94363f7 	ldp	x23, x24, [sp,#48]
    4600:	a9446bf9 	ldp	x25, x26, [sp,#64]
    4604:	a8c67bfd 	ldp	x29, x30, [sp],#96
    4608:	d65f03c0 	ret
/home/ursus/devel/optee/optee_os/lib/libutee/tee_api_operations.c:1574
    460c:	910183b5 	add	x21, x29, #0x60
/home/ursus/devel/optee/optee_os/lib/libutee/tee_api_operations.c:1575
    4610:	f94026e0 	ldr	x0, [x23,#72]
    4614:	f100041f 	cmp	x0, #0x1
/home/ursus/devel/optee/optee_os/lib/libutee/tee_api_operations.c:1574
    4618:	f81f8ea3 	str	x3, [x21,#-8]!
/home/ursus/devel/optee/optee_os/lib/libutee/tee_api_operations.c:1575
    461c:	540004a9 	b.ls	46b0 <TEE_AEDecryptFinal+0x19c>
/home/ursus/devel/optee/optee_os/lib/libutee/tee_api_operations.c:1576
    4620:	aa0203e3 	mov	x3, x2
    4624:	aa0103e2 	mov	x2, x1
    4628:	d0000041 	adrp	x1, e000 <__func__.3633+0x30>
    462c:	aa1503e5 	mov	x5, x21
    4630:	aa1903e4 	mov	x4, x25
    4634:	aa1703e0 	mov	x0, x23
    4638:	f9465c21 	ldr	x1, [x1,#3256]
    463c:	94000339 	bl	5320 <tee_buffer_update>
    4640:	2a0003f3 	mov	w19, w0
/home/ursus/devel/optee/optee_os/lib/libutee/tee_api_operations.c:1578
    4644:	35fffb20 	cbnz	w0, 45a8 <TEE_AEDecryptFinal+0x94>
/home/ursus/devel/optee/optee_os/lib/libutee/tee_api_operations.c:1581
    4648:	f9402fb4 	ldr	x20, [x29,#88]
/home/ursus/devel/optee/optee_os/lib/libutee/tee_api_operations.c:1585
    464c:	2a1603e6 	mov	w6, w22
/home/ursus/devel/optee/optee_os/lib/libutee/tee_api_operations.c:1584
    4650:	b9400300 	ldr	w0, [x24]
/home/ursus/devel/optee/optee_os/lib/libutee/tee_api_operations.c:1585
    4654:	aa1a03e5 	mov	x5, x26
    4658:	f9401ee1 	ldr	x1, [x23,#56]
    465c:	aa1503e4 	mov	x4, x21
/home/ursus/devel/optee/optee_os/lib/libutee/tee_api_operations.c:1584
    4660:	cb140000 	sub	x0, x0, x20
/home/ursus/devel/optee/optee_os/lib/libutee/tee_api_operations.c:1585
    4664:	f9402ae2 	ldr	x2, [x23,#80]
/home/ursus/devel/optee/optee_os/lib/libutee/tee_api_operations.c:1584
    4668:	f9002fa0 	str	x0, [x29,#88]
/home/ursus/devel/optee/optee_os/lib/libutee/tee_api_operations.c:1585
    466c:	8b140323 	add	x3, x25, x20
    4670:	b9405ae0 	ldr	w0, [x23,#88]
    4674:	94000507 	bl	5a90 <utee_authenc_dec_final>
    4678:	2a0003f3 	mov	w19, w0
/home/ursus/devel/optee/optee_os/lib/libutee/tee_api_operations.c:1594
    467c:	35fff973 	cbnz	w19, 45a8 <TEE_AEDecryptFinal+0x94>
/home/ursus/devel/optee/optee_os/lib/libutee/tee_api_operations.c:1598
    4680:	b9405ee0 	ldr	w0, [x23,#92]
/home/ursus/devel/optee/optee_os/lib/libutee/tee_api_operations.c:1599
    4684:	1299f1d3 	mov	w19, #0xffff3071            	// #-53135
    4688:	6b0002df 	cmp	w22, w0
/home/ursus/devel/optee/optee_os/lib/libutee/tee_api_operations.c:1601
    468c:	f9402fa0 	ldr	x0, [x29,#88]
/home/ursus/devel/optee/optee_os/lib/libutee/tee_api_operations.c:1599
    4690:	1a9303f3 	csel	w19, wzr, w19, eq
/home/ursus/devel/optee/optee_os/lib/libutee/tee_api_operations.c:1601
    4694:	8b000294 	add	x20, x20, x0
/home/ursus/devel/optee/optee_os/lib/libutee/tee_api_operations.c:1602
    4698:	b9000314 	str	w20, [x24]
/home/ursus/devel/optee/optee_os/lib/libutee/tee_api_operations.c:1606
    469c:	b90032ff 	str	wzr, [x23,#48]
/home/ursus/devel/optee/optee_os/lib/libutee/tee_api_operations.c:1604
    46a0:	b9401ee0 	ldr	w0, [x23,#28]
    46a4:	120e7800 	and	w0, w0, #0xfffdffff
    46a8:	b9001ee0 	str	w0, [x23,#28]
    46ac:	17ffffbf 	b	45a8 <TEE_AEDecryptFinal+0x94>
/home/ursus/devel/optee/optee_os/lib/libutee/tee_api_operations.c:1590
    46b0:	b9405ae0 	ldr	w0, [x23,#88]
    46b4:	2a1603e6 	mov	w6, w22
    46b8:	aa1a03e5 	mov	x5, x26
    46bc:	aa1503e4 	mov	x4, x21
    46c0:	aa1903e3 	mov	x3, x25
/home/ursus/devel/optee/optee_os/lib/libutee/tee_api_operations.c:1539
    46c4:	d2800014 	mov	x20, #0x0                   	// #0
/home/ursus/devel/optee/optee_os/lib/libutee/tee_api_operations.c:1590
    46c8:	940004f2 	bl	5a90 <utee_authenc_dec_final>
    46cc:	2a0003f3 	mov	w19, w0
    46d0:	17ffffeb 	b	467c <TEE_AEDecryptFinal+0x168>

00000000000046d4 <TEE_AsymmetricEncrypt>:
TEE_AsymmetricEncrypt():
/home/ursus/devel/optee/optee_os/lib/libutee/tee_api_operations.c:1624
    46d4:	a9b97bfd 	stp	x29, x30, [sp,#-112]!
    46d8:	910003fd 	mov	x29, sp
    46dc:	a9046bf9 	stp	x25, x26, [sp,#64]
    46e0:	2a0203fa 	mov	w26, w2
    46e4:	a90153f3 	stp	x19, x20, [sp,#16]
    46e8:	aa0003f3 	mov	x19, x0
/home/ursus/devel/optee/optee_os/lib/libutee/tee_api_operations.c:1626
    46ec:	52800300 	mov	w0, #0x18                  	// #24
/home/ursus/devel/optee/optee_os/lib/libutee/tee_api_operations.c:1624
    46f0:	a9025bf5 	stp	x21, x22, [sp,#32]
    46f4:	a90363f7 	stp	x23, x24, [sp,#48]
    46f8:	aa0103f9 	mov	x25, x1
/home/ursus/devel/optee/optee_os/lib/libutee/tee_api_operations.c:1626
    46fc:	9ba07f40 	umull	x0, w26, w0
/home/ursus/devel/optee/optee_os/lib/libutee/tee_api_operations.c:1624
    4700:	f9002bfb 	str	x27, [sp,#80]
    4704:	aa1a03f5 	mov	x21, x26
    4708:	aa0303f6 	mov	x22, x3
/home/ursus/devel/optee/optee_os/lib/libutee/tee_api_operations.c:1626
    470c:	91005800 	add	x0, x0, #0x16
/home/ursus/devel/optee/optee_os/lib/libutee/tee_api_operations.c:1624
    4710:	2a0403f7 	mov	w23, w4
/home/ursus/devel/optee/optee_os/lib/libutee/tee_api_operations.c:1626
    4714:	927c8400 	and	x0, x0, #0x3ffffffff0
/home/ursus/devel/optee/optee_os/lib/libutee/tee_api_operations.c:1624
    4718:	aa0503f8 	mov	x24, x5
/home/ursus/devel/optee/optee_os/lib/libutee/tee_api_operations.c:1626
    471c:	cb2063ff 	sub	sp, sp, x0
/home/ursus/devel/optee/optee_os/lib/libutee/tee_api_operations.c:1624
    4720:	aa0603f4 	mov	x20, x6
/home/ursus/devel/optee/optee_os/lib/libutee/tee_api_operations.c:1626
    4724:	910003fb 	mov	x27, sp
/home/ursus/devel/optee/optee_os/lib/libutee/tee_api_operations.c:1629
    4728:	b4000113 	cbz	x19, 4748 <TEE_AsymmetricEncrypt+0x74>
/home/ursus/devel/optee/optee_os/lib/libutee/tee_api_operations.c:1629 (discriminator 1)
    472c:	f100007f 	cmp	x3, #0x0
    4730:	7a400884 	ccmp	w4, #0x0, #0x4, eq
    4734:	fa4008c4 	ccmp	x6, #0x0, #0x4, eq
    4738:	54000080 	b.eq	4748 <TEE_AsymmetricEncrypt+0x74>
/home/ursus/devel/optee/optee_os/lib/libutee/tee_api_operations.c:1630
    473c:	b50001e5 	cbnz	x5, 4778 <TEE_AsymmetricEncrypt+0xa4>
/home/ursus/devel/optee/optee_os/lib/libutee/tee_api_operations.c:1630 (discriminator 1)
    4740:	b94000c0 	ldr	w0, [x6]
    4744:	340001a0 	cbz	w0, 4778 <TEE_AsymmetricEncrypt+0xa4>
/home/ursus/devel/optee/optee_os/lib/libutee/tee_api_operations.c:1631
    4748:	d0000044 	adrp	x4, e000 <__func__.3633+0x30>
    474c:	91112884 	add	x4, x4, #0x44a
    4750:	52800005 	mov	w5, #0x0                   	// #0
    4754:	52800023 	mov	w3, #0x1                   	// #1
    4758:	52800022 	mov	w2, #0x1                   	// #1
    475c:	5280cbe1 	mov	w1, #0x65f                 	// #1631
    4760:	90000040 	adrp	x0, c000 <mpa_set_str+0x4>
    4764:	9136e000 	add	x0, x0, #0xdb8
    4768:	91086000 	add	x0, x0, #0x218
    476c:	940010a1 	bl	89f0 <trace_printf>
    4770:	52800000 	mov	w0, #0x0                   	// #0
    4774:	94000394 	bl	55c4 <__TEE_Panic>
/home/ursus/devel/optee/optee_os/lib/libutee/tee_api_operations.c:1632
    4778:	f100033f 	cmp	x25, #0x0
    477c:	7a400aa4 	ccmp	w21, #0x0, #0x4, eq
    4780:	540001a0 	b.eq	47b4 <TEE_AsymmetricEncrypt+0xe0>
/home/ursus/devel/optee/optee_os/lib/libutee/tee_api_operations.c:1633
    4784:	d0000044 	adrp	x4, e000 <__func__.3633+0x30>
    4788:	91112884 	add	x4, x4, #0x44a
    478c:	52800005 	mov	w5, #0x0                   	// #0
    4790:	52800023 	mov	w3, #0x1                   	// #1
    4794:	52800022 	mov	w2, #0x1                   	// #1
    4798:	5280cc21 	mov	w1, #0x661                 	// #1633
    479c:	90000040 	adrp	x0, c000 <mpa_set_str+0x4>
    47a0:	9136e000 	add	x0, x0, #0xdb8
    47a4:	91086000 	add	x0, x0, #0x218
    47a8:	94001092 	bl	89f0 <trace_printf>
    47ac:	52800000 	mov	w0, #0x0                   	// #0
    47b0:	94000385 	bl	55c4 <__TEE_Panic>
/home/ursus/devel/optee/optee_os/lib/libutee/tee_api_operations.c:1634
    47b4:	f9401260 	ldr	x0, [x19,#32]
    47b8:	b50001a0 	cbnz	x0, 47ec <TEE_AsymmetricEncrypt+0x118>
/home/ursus/devel/optee/optee_os/lib/libutee/tee_api_operations.c:1635
    47bc:	d0000044 	adrp	x4, e000 <__func__.3633+0x30>
    47c0:	91112884 	add	x4, x4, #0x44a
    47c4:	52800005 	mov	w5, #0x0                   	// #0
    47c8:	52800023 	mov	w3, #0x1                   	// #1
    47cc:	52800022 	mov	w2, #0x1                   	// #1
    47d0:	5280cc61 	mov	w1, #0x663                 	// #1635
    47d4:	90000040 	adrp	x0, c000 <mpa_set_str+0x4>
    47d8:	9136e000 	add	x0, x0, #0xdb8
    47dc:	91086000 	add	x0, x0, #0x218
    47e0:	94001084 	bl	89f0 <trace_printf>
    47e4:	52800000 	mov	w0, #0x0                   	// #0
    47e8:	94000377 	bl	55c4 <__TEE_Panic>
/home/ursus/devel/optee/optee_os/lib/libutee/tee_api_operations.c:1636
    47ec:	b9400660 	ldr	w0, [x19,#4]
    47f0:	7100181f 	cmp	w0, #0x6
    47f4:	540001a0 	b.eq	4828 <TEE_AsymmetricEncrypt+0x154>
/home/ursus/devel/optee/optee_os/lib/libutee/tee_api_operations.c:1637
    47f8:	d0000044 	adrp	x4, e000 <__func__.3633+0x30>
    47fc:	91112884 	add	x4, x4, #0x44a
    4800:	52800005 	mov	w5, #0x0                   	// #0
    4804:	52800023 	mov	w3, #0x1                   	// #1
    4808:	52800022 	mov	w2, #0x1                   	// #1
    480c:	5280cca1 	mov	w1, #0x665                 	// #1637
    4810:	90000040 	adrp	x0, c000 <mpa_set_str+0x4>
    4814:	9136e000 	add	x0, x0, #0xdb8
    4818:	91086000 	add	x0, x0, #0x218
    481c:	94001075 	bl	89f0 <trace_printf>
    4820:	52800000 	mov	w0, #0x0                   	// #0
    4824:	94000368 	bl	55c4 <__TEE_Panic>
/home/ursus/devel/optee/optee_os/lib/libutee/tee_api_operations.c:1638
    4828:	b9400a60 	ldr	w0, [x19,#8]
    482c:	340001a0 	cbz	w0, 4860 <TEE_AsymmetricEncrypt+0x18c>
/home/ursus/devel/optee/optee_os/lib/libutee/tee_api_operations.c:1639
    4830:	d0000044 	adrp	x4, e000 <__func__.3633+0x30>
    4834:	91112884 	add	x4, x4, #0x44a
    4838:	52800005 	mov	w5, #0x0                   	// #0
    483c:	52800023 	mov	w3, #0x1                   	// #1
    4840:	52800022 	mov	w2, #0x1                   	// #1
    4844:	5280cce1 	mov	w1, #0x667                 	// #1639
    4848:	90000040 	adrp	x0, c000 <mpa_set_str+0x4>
    484c:	9136e000 	add	x0, x0, #0xdb8
    4850:	91086000 	add	x0, x0, #0x218
    4854:	94001067 	bl	89f0 <trace_printf>
    4858:	52800000 	mov	w0, #0x0                   	// #0
    485c:	9400035a 	bl	55c4 <__TEE_Panic>
/home/ursus/devel/optee/optee_os/lib/libutee/tee_api_operations.c:1641
    4860:	2a1503e2 	mov	w2, w21
    4864:	aa1903e1 	mov	x1, x25
    4868:	aa1b03e0 	mov	x0, x27
    486c:	97fff1d2 	bl	fb4 <__utee_from_attr>
/home/ursus/devel/optee/optee_os/lib/libutee/tee_api_operations.c:1642
    4870:	9101c3a6 	add	x6, x29, #0x70
    4874:	b9400280 	ldr	w0, [x20]
/home/ursus/devel/optee/optee_os/lib/libutee/tee_api_operations.c:1643
    4878:	aa1803e5 	mov	x5, x24
    487c:	2a1703e4 	mov	w4, w23
    4880:	aa1603e3 	mov	x3, x22
    4884:	aa1a03e2 	mov	x2, x26
/home/ursus/devel/optee/optee_os/lib/libutee/tee_api_operations.c:1642
    4888:	f81f8cc0 	str	x0, [x6,#-8]!
/home/ursus/devel/optee/optee_os/lib/libutee/tee_api_operations.c:1643
    488c:	aa1b03e1 	mov	x1, x27
    4890:	b9405a60 	ldr	w0, [x19,#88]
    4894:	94000482 	bl	5a9c <utee_asymm_operate>
    4898:	2a0003f3 	mov	w19, w0
/home/ursus/devel/optee/optee_os/lib/libutee/tee_api_operations.c:1648
    489c:	7100001f 	cmp	w0, #0x0
/home/ursus/devel/optee/optee_os/lib/libutee/tee_api_operations.c:1645
    48a0:	f94037a0 	ldr	x0, [x29,#104]
    48a4:	b9000280 	str	w0, [x20]
/home/ursus/devel/optee/optee_os/lib/libutee/tee_api_operations.c:1648
    48a8:	129ffde0 	mov	w0, #0xffff0010            	// #-65520
    48ac:	7a401264 	ccmp	w19, w0, #0x4, ne
    48b0:	129fff20 	mov	w0, #0xffff0006            	// #-65530
    48b4:	7a401264 	ccmp	w19, w0, #0x4, ne
    48b8:	540001a0 	b.eq	48ec <TEE_AsymmetricEncrypt+0x218>
/home/ursus/devel/optee/optee_os/lib/libutee/tee_api_operations.c:1650
    48bc:	2a1303e5 	mov	w5, w19
    48c0:	d0000044 	adrp	x4, e000 <__func__.3633+0x30>
    48c4:	91112884 	add	x4, x4, #0x44a
    48c8:	52800023 	mov	w3, #0x1                   	// #1
    48cc:	52800022 	mov	w2, #0x1                   	// #1
    48d0:	5280ce41 	mov	w1, #0x672                 	// #1650
    48d4:	90000040 	adrp	x0, c000 <mpa_set_str+0x4>
    48d8:	9136e000 	add	x0, x0, #0xdb8
    48dc:	91086000 	add	x0, x0, #0x218
    48e0:	94001044 	bl	89f0 <trace_printf>
    48e4:	2a1303e0 	mov	w0, w19
    48e8:	94000337 	bl	55c4 <__TEE_Panic>
/home/ursus/devel/optee/optee_os/lib/libutee/tee_api_operations.c:1653
    48ec:	910003bf 	mov	sp, x29
    48f0:	2a1303e0 	mov	w0, w19
    48f4:	f9402bfb 	ldr	x27, [sp,#80]
    48f8:	a94153f3 	ldp	x19, x20, [sp,#16]
    48fc:	a9425bf5 	ldp	x21, x22, [sp,#32]
    4900:	a94363f7 	ldp	x23, x24, [sp,#48]
    4904:	a9446bf9 	ldp	x25, x26, [sp,#64]
    4908:	a8c77bfd 	ldp	x29, x30, [sp],#112
    490c:	d65f03c0 	ret

0000000000004910 <TEE_AsymmetricDecrypt>:
TEE_AsymmetricDecrypt():
/home/ursus/devel/optee/optee_os/lib/libutee/tee_api_operations.c:1660
    4910:	a9b97bfd 	stp	x29, x30, [sp,#-112]!
    4914:	910003fd 	mov	x29, sp
    4918:	a9046bf9 	stp	x25, x26, [sp,#64]
    491c:	2a0203fa 	mov	w26, w2
    4920:	a90153f3 	stp	x19, x20, [sp,#16]
    4924:	aa0003f3 	mov	x19, x0
/home/ursus/devel/optee/optee_os/lib/libutee/tee_api_operations.c:1662
    4928:	52800300 	mov	w0, #0x18                  	// #24
/home/ursus/devel/optee/optee_os/lib/libutee/tee_api_operations.c:1660
    492c:	a9025bf5 	stp	x21, x22, [sp,#32]
    4930:	a90363f7 	stp	x23, x24, [sp,#48]
    4934:	aa0103f9 	mov	x25, x1
/home/ursus/devel/optee/optee_os/lib/libutee/tee_api_operations.c:1662
    4938:	9ba07f40 	umull	x0, w26, w0
/home/ursus/devel/optee/optee_os/lib/libutee/tee_api_operations.c:1660
    493c:	f9002bfb 	str	x27, [sp,#80]
    4940:	aa1a03f5 	mov	x21, x26
    4944:	aa0303f6 	mov	x22, x3
/home/ursus/devel/optee/optee_os/lib/libutee/tee_api_operations.c:1662
    4948:	91005800 	add	x0, x0, #0x16
/home/ursus/devel/optee/optee_os/lib/libutee/tee_api_operations.c:1660
    494c:	2a0403f7 	mov	w23, w4
/home/ursus/devel/optee/optee_os/lib/libutee/tee_api_operations.c:1662
    4950:	927c8400 	and	x0, x0, #0x3ffffffff0
/home/ursus/devel/optee/optee_os/lib/libutee/tee_api_operations.c:1660
    4954:	aa0503f8 	mov	x24, x5
/home/ursus/devel/optee/optee_os/lib/libutee/tee_api_operations.c:1662
    4958:	cb2063ff 	sub	sp, sp, x0
/home/ursus/devel/optee/optee_os/lib/libutee/tee_api_operations.c:1660
    495c:	aa0603f4 	mov	x20, x6
/home/ursus/devel/optee/optee_os/lib/libutee/tee_api_operations.c:1662
    4960:	910003fb 	mov	x27, sp
/home/ursus/devel/optee/optee_os/lib/libutee/tee_api_operations.c:1665
    4964:	b4000113 	cbz	x19, 4984 <TEE_AsymmetricDecrypt+0x74>
/home/ursus/devel/optee/optee_os/lib/libutee/tee_api_operations.c:1665 (discriminator 1)
    4968:	f100007f 	cmp	x3, #0x0
    496c:	7a400884 	ccmp	w4, #0x0, #0x4, eq
    4970:	fa4008c4 	ccmp	x6, #0x0, #0x4, eq
    4974:	54000080 	b.eq	4984 <TEE_AsymmetricDecrypt+0x74>
/home/ursus/devel/optee/optee_os/lib/libutee/tee_api_operations.c:1666
    4978:	b50001e5 	cbnz	x5, 49b4 <TEE_AsymmetricDecrypt+0xa4>
/home/ursus/devel/optee/optee_os/lib/libutee/tee_api_operations.c:1666 (discriminator 1)
    497c:	b94000c0 	ldr	w0, [x6]
    4980:	340001a0 	cbz	w0, 49b4 <TEE_AsymmetricDecrypt+0xa4>
/home/ursus/devel/optee/optee_os/lib/libutee/tee_api_operations.c:1667
    4984:	d0000044 	adrp	x4, e000 <__func__.3633+0x30>
    4988:	91112884 	add	x4, x4, #0x44a
    498c:	52800005 	mov	w5, #0x0                   	// #0
    4990:	52800023 	mov	w3, #0x1                   	// #1
    4994:	52800022 	mov	w2, #0x1                   	// #1
    4998:	5280d061 	mov	w1, #0x683                 	// #1667
    499c:	90000040 	adrp	x0, c000 <mpa_set_str+0x4>
    49a0:	9136e000 	add	x0, x0, #0xdb8
    49a4:	9108c000 	add	x0, x0, #0x230
    49a8:	94001012 	bl	89f0 <trace_printf>
    49ac:	52800000 	mov	w0, #0x0                   	// #0
    49b0:	94000305 	bl	55c4 <__TEE_Panic>
/home/ursus/devel/optee/optee_os/lib/libutee/tee_api_operations.c:1668
    49b4:	f100033f 	cmp	x25, #0x0
    49b8:	7a400aa4 	ccmp	w21, #0x0, #0x4, eq
    49bc:	540001a0 	b.eq	49f0 <TEE_AsymmetricDecrypt+0xe0>
/home/ursus/devel/optee/optee_os/lib/libutee/tee_api_operations.c:1669
    49c0:	d0000044 	adrp	x4, e000 <__func__.3633+0x30>
    49c4:	91112884 	add	x4, x4, #0x44a
    49c8:	52800005 	mov	w5, #0x0                   	// #0
    49cc:	52800023 	mov	w3, #0x1                   	// #1
    49d0:	52800022 	mov	w2, #0x1                   	// #1
    49d4:	5280d0a1 	mov	w1, #0x685                 	// #1669
    49d8:	90000040 	adrp	x0, c000 <mpa_set_str+0x4>
    49dc:	9136e000 	add	x0, x0, #0xdb8
    49e0:	9108c000 	add	x0, x0, #0x230
    49e4:	94001003 	bl	89f0 <trace_printf>
    49e8:	52800000 	mov	w0, #0x0                   	// #0
    49ec:	940002f6 	bl	55c4 <__TEE_Panic>
/home/ursus/devel/optee/optee_os/lib/libutee/tee_api_operations.c:1670
    49f0:	f9401260 	ldr	x0, [x19,#32]
    49f4:	b50001a0 	cbnz	x0, 4a28 <TEE_AsymmetricDecrypt+0x118>
/home/ursus/devel/optee/optee_os/lib/libutee/tee_api_operations.c:1671
    49f8:	d0000044 	adrp	x4, e000 <__func__.3633+0x30>
    49fc:	91112884 	add	x4, x4, #0x44a
    4a00:	52800005 	mov	w5, #0x0                   	// #0
    4a04:	52800023 	mov	w3, #0x1                   	// #1
    4a08:	52800022 	mov	w2, #0x1                   	// #1
    4a0c:	5280d0e1 	mov	w1, #0x687                 	// #1671
    4a10:	90000040 	adrp	x0, c000 <mpa_set_str+0x4>
    4a14:	9136e000 	add	x0, x0, #0xdb8
    4a18:	9108c000 	add	x0, x0, #0x230
    4a1c:	94000ff5 	bl	89f0 <trace_printf>
    4a20:	52800000 	mov	w0, #0x0                   	// #0
    4a24:	940002e8 	bl	55c4 <__TEE_Panic>
/home/ursus/devel/optee/optee_os/lib/libutee/tee_api_operations.c:1672
    4a28:	b9400660 	ldr	w0, [x19,#4]
    4a2c:	7100181f 	cmp	w0, #0x6
    4a30:	540001a0 	b.eq	4a64 <TEE_AsymmetricDecrypt+0x154>
/home/ursus/devel/optee/optee_os/lib/libutee/tee_api_operations.c:1673
    4a34:	d0000044 	adrp	x4, e000 <__func__.3633+0x30>
    4a38:	91112884 	add	x4, x4, #0x44a
    4a3c:	52800005 	mov	w5, #0x0                   	// #0
    4a40:	52800023 	mov	w3, #0x1                   	// #1
    4a44:	52800022 	mov	w2, #0x1                   	// #1
    4a48:	5280d121 	mov	w1, #0x689                 	// #1673
    4a4c:	90000040 	adrp	x0, c000 <mpa_set_str+0x4>
    4a50:	9136e000 	add	x0, x0, #0xdb8
    4a54:	9108c000 	add	x0, x0, #0x230
    4a58:	94000fe6 	bl	89f0 <trace_printf>
    4a5c:	52800000 	mov	w0, #0x0                   	// #0
    4a60:	940002d9 	bl	55c4 <__TEE_Panic>
/home/ursus/devel/optee/optee_os/lib/libutee/tee_api_operations.c:1674
    4a64:	b9400a60 	ldr	w0, [x19,#8]
    4a68:	7100041f 	cmp	w0, #0x1
    4a6c:	540001a0 	b.eq	4aa0 <TEE_AsymmetricDecrypt+0x190>
/home/ursus/devel/optee/optee_os/lib/libutee/tee_api_operations.c:1675
    4a70:	d0000044 	adrp	x4, e000 <__func__.3633+0x30>
    4a74:	91112884 	add	x4, x4, #0x44a
    4a78:	52800005 	mov	w5, #0x0                   	// #0
    4a7c:	52800023 	mov	w3, #0x1                   	// #1
    4a80:	52800022 	mov	w2, #0x1                   	// #1
    4a84:	5280d161 	mov	w1, #0x68b                 	// #1675
    4a88:	90000040 	adrp	x0, c000 <mpa_set_str+0x4>
    4a8c:	9136e000 	add	x0, x0, #0xdb8
    4a90:	9108c000 	add	x0, x0, #0x230
    4a94:	94000fd7 	bl	89f0 <trace_printf>
    4a98:	52800000 	mov	w0, #0x0                   	// #0
    4a9c:	940002ca 	bl	55c4 <__TEE_Panic>
/home/ursus/devel/optee/optee_os/lib/libutee/tee_api_operations.c:1677
    4aa0:	2a1503e2 	mov	w2, w21
    4aa4:	aa1903e1 	mov	x1, x25
    4aa8:	aa1b03e0 	mov	x0, x27
    4aac:	97fff142 	bl	fb4 <__utee_from_attr>
/home/ursus/devel/optee/optee_os/lib/libutee/tee_api_operations.c:1678
    4ab0:	9101c3a6 	add	x6, x29, #0x70
    4ab4:	b9400280 	ldr	w0, [x20]
/home/ursus/devel/optee/optee_os/lib/libutee/tee_api_operations.c:1679
    4ab8:	aa1803e5 	mov	x5, x24
    4abc:	2a1703e4 	mov	w4, w23
    4ac0:	aa1603e3 	mov	x3, x22
    4ac4:	aa1a03e2 	mov	x2, x26
/home/ursus/devel/optee/optee_os/lib/libutee/tee_api_operations.c:1678
    4ac8:	f81f8cc0 	str	x0, [x6,#-8]!
/home/ursus/devel/optee/optee_os/lib/libutee/tee_api_operations.c:1679
    4acc:	aa1b03e1 	mov	x1, x27
    4ad0:	b9405a60 	ldr	w0, [x19,#88]
    4ad4:	940003f2 	bl	5a9c <utee_asymm_operate>
    4ad8:	2a0003f3 	mov	w19, w0
/home/ursus/devel/optee/optee_os/lib/libutee/tee_api_operations.c:1684
    4adc:	7100001f 	cmp	w0, #0x0
/home/ursus/devel/optee/optee_os/lib/libutee/tee_api_operations.c:1681
    4ae0:	f94037a0 	ldr	x0, [x29,#104]
    4ae4:	b9000280 	str	w0, [x20]
/home/ursus/devel/optee/optee_os/lib/libutee/tee_api_operations.c:1684
    4ae8:	129ffde0 	mov	w0, #0xffff0010            	// #-65520
    4aec:	7a401264 	ccmp	w19, w0, #0x4, ne
    4af0:	129fff20 	mov	w0, #0xffff0006            	// #-65530
    4af4:	7a401264 	ccmp	w19, w0, #0x4, ne
    4af8:	540001a0 	b.eq	4b2c <TEE_AsymmetricDecrypt+0x21c>
/home/ursus/devel/optee/optee_os/lib/libutee/tee_api_operations.c:1686
    4afc:	2a1303e5 	mov	w5, w19
    4b00:	d0000044 	adrp	x4, e000 <__func__.3633+0x30>
    4b04:	91112884 	add	x4, x4, #0x44a
    4b08:	52800023 	mov	w3, #0x1                   	// #1
    4b0c:	52800022 	mov	w2, #0x1                   	// #1
    4b10:	5280d2c1 	mov	w1, #0x696                 	// #1686
    4b14:	90000040 	adrp	x0, c000 <mpa_set_str+0x4>
    4b18:	9136e000 	add	x0, x0, #0xdb8
    4b1c:	9108c000 	add	x0, x0, #0x230
    4b20:	94000fb4 	bl	89f0 <trace_printf>
    4b24:	2a1303e0 	mov	w0, w19
    4b28:	940002a7 	bl	55c4 <__TEE_Panic>
/home/ursus/devel/optee/optee_os/lib/libutee/tee_api_operations.c:1689
    4b2c:	910003bf 	mov	sp, x29
    4b30:	2a1303e0 	mov	w0, w19
    4b34:	f9402bfb 	ldr	x27, [sp,#80]
    4b38:	a94153f3 	ldp	x19, x20, [sp,#16]
    4b3c:	a9425bf5 	ldp	x21, x22, [sp,#32]
    4b40:	a94363f7 	ldp	x23, x24, [sp,#48]
    4b44:	a9446bf9 	ldp	x25, x26, [sp,#64]
    4b48:	a8c77bfd 	ldp	x29, x30, [sp],#112
    4b4c:	d65f03c0 	ret

0000000000004b50 <TEE_AsymmetricSignDigest>:
TEE_AsymmetricSignDigest():
/home/ursus/devel/optee/optee_os/lib/libutee/tee_api_operations.c:1696
    4b50:	a9b97bfd 	stp	x29, x30, [sp,#-112]!
    4b54:	910003fd 	mov	x29, sp
    4b58:	a9046bf9 	stp	x25, x26, [sp,#64]
    4b5c:	2a0203fa 	mov	w26, w2
    4b60:	a90153f3 	stp	x19, x20, [sp,#16]
    4b64:	aa0003f3 	mov	x19, x0
/home/ursus/devel/optee/optee_os/lib/libutee/tee_api_operations.c:1698
    4b68:	52800300 	mov	w0, #0x18                  	// #24
/home/ursus/devel/optee/optee_os/lib/libutee/tee_api_operations.c:1696
    4b6c:	a9025bf5 	stp	x21, x22, [sp,#32]
    4b70:	a90363f7 	stp	x23, x24, [sp,#48]
    4b74:	aa0103f9 	mov	x25, x1
/home/ursus/devel/optee/optee_os/lib/libutee/tee_api_operations.c:1698
    4b78:	9ba07f40 	umull	x0, w26, w0
/home/ursus/devel/optee/optee_os/lib/libutee/tee_api_operations.c:1696
    4b7c:	f9002bfb 	str	x27, [sp,#80]
    4b80:	aa1a03f4 	mov	x20, x26
    4b84:	aa0303f6 	mov	x22, x3
/home/ursus/devel/optee/optee_os/lib/libutee/tee_api_operations.c:1698
    4b88:	91005800 	add	x0, x0, #0x16
/home/ursus/devel/optee/optee_os/lib/libutee/tee_api_operations.c:1696
    4b8c:	2a0403f7 	mov	w23, w4
/home/ursus/devel/optee/optee_os/lib/libutee/tee_api_operations.c:1698
    4b90:	927c8400 	and	x0, x0, #0x3ffffffff0
/home/ursus/devel/optee/optee_os/lib/libutee/tee_api_operations.c:1696
    4b94:	aa0503f8 	mov	x24, x5
/home/ursus/devel/optee/optee_os/lib/libutee/tee_api_operations.c:1698
    4b98:	cb2063ff 	sub	sp, sp, x0
/home/ursus/devel/optee/optee_os/lib/libutee/tee_api_operations.c:1696
    4b9c:	aa0603f5 	mov	x21, x6
/home/ursus/devel/optee/optee_os/lib/libutee/tee_api_operations.c:1698
    4ba0:	910003fb 	mov	x27, sp
/home/ursus/devel/optee/optee_os/lib/libutee/tee_api_operations.c:1701
    4ba4:	b40000f3 	cbz	x19, 4bc0 <TEE_AsymmetricSignDigest+0x70>
/home/ursus/devel/optee/optee_os/lib/libutee/tee_api_operations.c:1702 (discriminator 1)
    4ba8:	f100007f 	cmp	x3, #0x0
/home/ursus/devel/optee/optee_os/lib/libutee/tee_api_operations.c:1701 (discriminator 1)
    4bac:	7a400884 	ccmp	w4, #0x0, #0x4, eq
    4bb0:	54000081 	b.ne	4bc0 <TEE_AsymmetricSignDigest+0x70>
/home/ursus/devel/optee/optee_os/lib/libutee/tee_api_operations.c:1703
    4bb4:	f10000bf 	cmp	x5, #0x0
    4bb8:	fa4018c4 	ccmp	x6, #0x0, #0x4, ne
    4bbc:	540001a1 	b.ne	4bf0 <TEE_AsymmetricSignDigest+0xa0>
/home/ursus/devel/optee/optee_os/lib/libutee/tee_api_operations.c:1704
    4bc0:	d0000044 	adrp	x4, e000 <__func__.3633+0x30>
    4bc4:	91112884 	add	x4, x4, #0x44a
    4bc8:	52800005 	mov	w5, #0x0                   	// #0
    4bcc:	52800023 	mov	w3, #0x1                   	// #1
    4bd0:	52800022 	mov	w2, #0x1                   	// #1
    4bd4:	5280d501 	mov	w1, #0x6a8                 	// #1704
    4bd8:	90000040 	adrp	x0, c000 <mpa_set_str+0x4>
    4bdc:	9136e000 	add	x0, x0, #0xdb8
    4be0:	91092000 	add	x0, x0, #0x248
    4be4:	94000f83 	bl	89f0 <trace_printf>
    4be8:	52800000 	mov	w0, #0x0                   	// #0
    4bec:	94000276 	bl	55c4 <__TEE_Panic>
/home/ursus/devel/optee/optee_os/lib/libutee/tee_api_operations.c:1705
    4bf0:	f100033f 	cmp	x25, #0x0
    4bf4:	7a400a84 	ccmp	w20, #0x0, #0x4, eq
    4bf8:	540001a0 	b.eq	4c2c <TEE_AsymmetricSignDigest+0xdc>
/home/ursus/devel/optee/optee_os/lib/libutee/tee_api_operations.c:1706
    4bfc:	d0000044 	adrp	x4, e000 <__func__.3633+0x30>
    4c00:	91112884 	add	x4, x4, #0x44a
    4c04:	52800005 	mov	w5, #0x0                   	// #0
    4c08:	52800023 	mov	w3, #0x1                   	// #1
    4c0c:	52800022 	mov	w2, #0x1                   	// #1
    4c10:	5280d541 	mov	w1, #0x6aa                 	// #1706
    4c14:	90000040 	adrp	x0, c000 <mpa_set_str+0x4>
    4c18:	9136e000 	add	x0, x0, #0xdb8
    4c1c:	91092000 	add	x0, x0, #0x248
    4c20:	94000f74 	bl	89f0 <trace_printf>
    4c24:	52800000 	mov	w0, #0x0                   	// #0
    4c28:	94000267 	bl	55c4 <__TEE_Panic>
/home/ursus/devel/optee/optee_os/lib/libutee/tee_api_operations.c:1707
    4c2c:	f9401260 	ldr	x0, [x19,#32]
    4c30:	b50001a0 	cbnz	x0, 4c64 <TEE_AsymmetricSignDigest+0x114>
/home/ursus/devel/optee/optee_os/lib/libutee/tee_api_operations.c:1708
    4c34:	d0000044 	adrp	x4, e000 <__func__.3633+0x30>
    4c38:	91112884 	add	x4, x4, #0x44a
    4c3c:	52800005 	mov	w5, #0x0                   	// #0
    4c40:	52800023 	mov	w3, #0x1                   	// #1
    4c44:	52800022 	mov	w2, #0x1                   	// #1
    4c48:	5280d581 	mov	w1, #0x6ac                 	// #1708
    4c4c:	90000040 	adrp	x0, c000 <mpa_set_str+0x4>
    4c50:	9136e000 	add	x0, x0, #0xdb8
    4c54:	91092000 	add	x0, x0, #0x248
    4c58:	94000f66 	bl	89f0 <trace_printf>
    4c5c:	52800000 	mov	w0, #0x0                   	// #0
    4c60:	94000259 	bl	55c4 <__TEE_Panic>
/home/ursus/devel/optee/optee_os/lib/libutee/tee_api_operations.c:1709
    4c64:	b9400660 	ldr	w0, [x19,#4]
    4c68:	71001c1f 	cmp	w0, #0x7
    4c6c:	540001a0 	b.eq	4ca0 <TEE_AsymmetricSignDigest+0x150>
/home/ursus/devel/optee/optee_os/lib/libutee/tee_api_operations.c:1711
    4c70:	d0000044 	adrp	x4, e000 <__func__.3633+0x30>
    4c74:	91112884 	add	x4, x4, #0x44a
    4c78:	52800005 	mov	w5, #0x0                   	// #0
    4c7c:	52800023 	mov	w3, #0x1                   	// #1
    4c80:	52800022 	mov	w2, #0x1                   	// #1
    4c84:	5280d5e1 	mov	w1, #0x6af                 	// #1711
    4c88:	90000040 	adrp	x0, c000 <mpa_set_str+0x4>
    4c8c:	9136e000 	add	x0, x0, #0xdb8
    4c90:	91092000 	add	x0, x0, #0x248
    4c94:	94000f57 	bl	89f0 <trace_printf>
    4c98:	52800000 	mov	w0, #0x0                   	// #0
    4c9c:	9400024a 	bl	55c4 <__TEE_Panic>
/home/ursus/devel/optee/optee_os/lib/libutee/tee_api_operations.c:1712
    4ca0:	b9400a60 	ldr	w0, [x19,#8]
    4ca4:	7100081f 	cmp	w0, #0x2
    4ca8:	540001a0 	b.eq	4cdc <TEE_AsymmetricSignDigest+0x18c>
/home/ursus/devel/optee/optee_os/lib/libutee/tee_api_operations.c:1713
    4cac:	d0000044 	adrp	x4, e000 <__func__.3633+0x30>
    4cb0:	91112884 	add	x4, x4, #0x44a
    4cb4:	52800005 	mov	w5, #0x0                   	// #0
    4cb8:	52800023 	mov	w3, #0x1                   	// #1
    4cbc:	52800022 	mov	w2, #0x1                   	// #1
    4cc0:	5280d621 	mov	w1, #0x6b1                 	// #1713
    4cc4:	90000040 	adrp	x0, c000 <mpa_set_str+0x4>
    4cc8:	9136e000 	add	x0, x0, #0xdb8
    4ccc:	91092000 	add	x0, x0, #0x248
    4cd0:	94000f48 	bl	89f0 <trace_printf>
    4cd4:	52800000 	mov	w0, #0x0                   	// #0
    4cd8:	9400023b 	bl	55c4 <__TEE_Panic>
/home/ursus/devel/optee/optee_os/lib/libutee/tee_api_operations.c:1715
    4cdc:	2a1403e2 	mov	w2, w20
    4ce0:	aa1903e1 	mov	x1, x25
    4ce4:	aa1b03e0 	mov	x0, x27
    4ce8:	97fff0b3 	bl	fb4 <__utee_from_attr>
/home/ursus/devel/optee/optee_os/lib/libutee/tee_api_operations.c:1716
    4cec:	9101c3a6 	add	x6, x29, #0x70
    4cf0:	b94002a0 	ldr	w0, [x21]
/home/ursus/devel/optee/optee_os/lib/libutee/tee_api_operations.c:1717
    4cf4:	aa1803e5 	mov	x5, x24
    4cf8:	2a1703e4 	mov	w4, w23
    4cfc:	aa1603e3 	mov	x3, x22
    4d00:	aa1a03e2 	mov	x2, x26
/home/ursus/devel/optee/optee_os/lib/libutee/tee_api_operations.c:1716
    4d04:	f81f8cc0 	str	x0, [x6,#-8]!
/home/ursus/devel/optee/optee_os/lib/libutee/tee_api_operations.c:1717
    4d08:	aa1b03e1 	mov	x1, x27
    4d0c:	b9405a60 	ldr	w0, [x19,#88]
    4d10:	94000363 	bl	5a9c <utee_asymm_operate>
    4d14:	2a0003f3 	mov	w19, w0
/home/ursus/devel/optee/optee_os/lib/libutee/tee_api_operations.c:1721
    4d18:	7100001f 	cmp	w0, #0x0
/home/ursus/devel/optee/optee_os/lib/libutee/tee_api_operations.c:1719
    4d1c:	f94037a0 	ldr	x0, [x29,#104]
    4d20:	b90002a0 	str	w0, [x21]
/home/ursus/devel/optee/optee_os/lib/libutee/tee_api_operations.c:1721
    4d24:	129ffde0 	mov	w0, #0xffff0010            	// #-65520
    4d28:	7a401264 	ccmp	w19, w0, #0x4, ne
    4d2c:	540001a0 	b.eq	4d60 <TEE_AsymmetricSignDigest+0x210>
/home/ursus/devel/optee/optee_os/lib/libutee/tee_api_operations.c:1722
    4d30:	2a1303e5 	mov	w5, w19
    4d34:	d0000044 	adrp	x4, e000 <__func__.3633+0x30>
    4d38:	91112884 	add	x4, x4, #0x44a
    4d3c:	52800023 	mov	w3, #0x1                   	// #1
    4d40:	52800022 	mov	w2, #0x1                   	// #1
    4d44:	5280d741 	mov	w1, #0x6ba                 	// #1722
    4d48:	90000040 	adrp	x0, c000 <mpa_set_str+0x4>
    4d4c:	9136e000 	add	x0, x0, #0xdb8
    4d50:	91092000 	add	x0, x0, #0x248
    4d54:	94000f27 	bl	89f0 <trace_printf>
    4d58:	2a1303e0 	mov	w0, w19
    4d5c:	9400021a 	bl	55c4 <__TEE_Panic>
/home/ursus/devel/optee/optee_os/lib/libutee/tee_api_operations.c:1725
    4d60:	910003bf 	mov	sp, x29
    4d64:	2a1303e0 	mov	w0, w19
    4d68:	f9402bfb 	ldr	x27, [sp,#80]
    4d6c:	a94153f3 	ldp	x19, x20, [sp,#16]
    4d70:	a9425bf5 	ldp	x21, x22, [sp,#32]
    4d74:	a94363f7 	ldp	x23, x24, [sp,#48]
    4d78:	a9446bf9 	ldp	x25, x26, [sp,#64]
    4d7c:	a8c77bfd 	ldp	x29, x30, [sp],#112
    4d80:	d65f03c0 	ret

0000000000004d84 <TEE_AsymmetricVerifyDigest>:
TEE_AsymmetricVerifyDigest():
/home/ursus/devel/optee/optee_os/lib/libutee/tee_api_operations.c:1733
    4d84:	a9ba7bfd 	stp	x29, x30, [sp,#-96]!
    4d88:	910003fd 	mov	x29, sp
    4d8c:	a9046bf9 	stp	x25, x26, [sp,#64]
    4d90:	2a0203fa 	mov	w26, w2
    4d94:	a90153f3 	stp	x19, x20, [sp,#16]
    4d98:	aa0003f3 	mov	x19, x0
/home/ursus/devel/optee/optee_os/lib/libutee/tee_api_operations.c:1735
    4d9c:	52800300 	mov	w0, #0x18                  	// #24
/home/ursus/devel/optee/optee_os/lib/libutee/tee_api_operations.c:1733
    4da0:	a9025bf5 	stp	x21, x22, [sp,#32]
    4da4:	a90363f7 	stp	x23, x24, [sp,#48]
    4da8:	aa0103f9 	mov	x25, x1
/home/ursus/devel/optee/optee_os/lib/libutee/tee_api_operations.c:1735
    4dac:	9ba07f40 	umull	x0, w26, w0
/home/ursus/devel/optee/optee_os/lib/libutee/tee_api_operations.c:1733
    4db0:	f9002bfb 	str	x27, [sp,#80]
    4db4:	aa1a03f4 	mov	x20, x26
    4db8:	aa0303f5 	mov	x21, x3
/home/ursus/devel/optee/optee_os/lib/libutee/tee_api_operations.c:1735
    4dbc:	91005800 	add	x0, x0, #0x16
/home/ursus/devel/optee/optee_os/lib/libutee/tee_api_operations.c:1733
    4dc0:	2a0403f6 	mov	w22, w4
/home/ursus/devel/optee/optee_os/lib/libutee/tee_api_operations.c:1735
    4dc4:	927c8400 	and	x0, x0, #0x3ffffffff0
/home/ursus/devel/optee/optee_os/lib/libutee/tee_api_operations.c:1733
    4dc8:	aa0503f7 	mov	x23, x5
/home/ursus/devel/optee/optee_os/lib/libutee/tee_api_operations.c:1735
    4dcc:	cb2063ff 	sub	sp, sp, x0
/home/ursus/devel/optee/optee_os/lib/libutee/tee_api_operations.c:1733
    4dd0:	2a0603f8 	mov	w24, w6
/home/ursus/devel/optee/optee_os/lib/libutee/tee_api_operations.c:1735
    4dd4:	910003fb 	mov	x27, sp
/home/ursus/devel/optee/optee_os/lib/libutee/tee_api_operations.c:1737
    4dd8:	b40000f3 	cbz	x19, 4df4 <TEE_AsymmetricVerifyDigest+0x70>
/home/ursus/devel/optee/optee_os/lib/libutee/tee_api_operations.c:1738 (discriminator 1)
    4ddc:	f100007f 	cmp	x3, #0x0
/home/ursus/devel/optee/optee_os/lib/libutee/tee_api_operations.c:1737 (discriminator 1)
    4de0:	7a400884 	ccmp	w4, #0x0, #0x4, eq
    4de4:	54000081 	b.ne	4df4 <TEE_AsymmetricVerifyDigest+0x70>
/home/ursus/devel/optee/optee_os/lib/libutee/tee_api_operations.c:1739
    4de8:	f10000bf 	cmp	x5, #0x0
/home/ursus/devel/optee/optee_os/lib/libutee/tee_api_operations.c:1738
    4dec:	7a4008c4 	ccmp	w6, #0x0, #0x4, eq
    4df0:	540001a0 	b.eq	4e24 <TEE_AsymmetricVerifyDigest+0xa0>
/home/ursus/devel/optee/optee_os/lib/libutee/tee_api_operations.c:1740
    4df4:	d0000044 	adrp	x4, e000 <__func__.3633+0x30>
    4df8:	91112884 	add	x4, x4, #0x44a
    4dfc:	52800005 	mov	w5, #0x0                   	// #0
    4e00:	52800023 	mov	w3, #0x1                   	// #1
    4e04:	52800022 	mov	w2, #0x1                   	// #1
    4e08:	5280d981 	mov	w1, #0x6cc                 	// #1740
    4e0c:	90000040 	adrp	x0, c000 <mpa_set_str+0x4>
    4e10:	9136e000 	add	x0, x0, #0xdb8
    4e14:	9109a000 	add	x0, x0, #0x268
    4e18:	94000ef6 	bl	89f0 <trace_printf>
    4e1c:	52800000 	mov	w0, #0x0                   	// #0
    4e20:	940001e9 	bl	55c4 <__TEE_Panic>
/home/ursus/devel/optee/optee_os/lib/libutee/tee_api_operations.c:1741
    4e24:	f100033f 	cmp	x25, #0x0
    4e28:	7a400a84 	ccmp	w20, #0x0, #0x4, eq
    4e2c:	540001a0 	b.eq	4e60 <TEE_AsymmetricVerifyDigest+0xdc>
/home/ursus/devel/optee/optee_os/lib/libutee/tee_api_operations.c:1742
    4e30:	d0000044 	adrp	x4, e000 <__func__.3633+0x30>
    4e34:	91112884 	add	x4, x4, #0x44a
    4e38:	52800005 	mov	w5, #0x0                   	// #0
    4e3c:	52800023 	mov	w3, #0x1                   	// #1
    4e40:	52800022 	mov	w2, #0x1                   	// #1
    4e44:	5280d9c1 	mov	w1, #0x6ce                 	// #1742
    4e48:	90000040 	adrp	x0, c000 <mpa_set_str+0x4>
    4e4c:	9136e000 	add	x0, x0, #0xdb8
    4e50:	9109a000 	add	x0, x0, #0x268
    4e54:	94000ee7 	bl	89f0 <trace_printf>
    4e58:	52800000 	mov	w0, #0x0                   	// #0
    4e5c:	940001da 	bl	55c4 <__TEE_Panic>
/home/ursus/devel/optee/optee_os/lib/libutee/tee_api_operations.c:1743
    4e60:	f9401260 	ldr	x0, [x19,#32]
    4e64:	b50001a0 	cbnz	x0, 4e98 <TEE_AsymmetricVerifyDigest+0x114>
/home/ursus/devel/optee/optee_os/lib/libutee/tee_api_operations.c:1744
    4e68:	d0000044 	adrp	x4, e000 <__func__.3633+0x30>
    4e6c:	91112884 	add	x4, x4, #0x44a
    4e70:	52800005 	mov	w5, #0x0                   	// #0
    4e74:	52800023 	mov	w3, #0x1                   	// #1
    4e78:	52800022 	mov	w2, #0x1                   	// #1
    4e7c:	5280da01 	mov	w1, #0x6d0                 	// #1744
    4e80:	90000040 	adrp	x0, c000 <mpa_set_str+0x4>
    4e84:	9136e000 	add	x0, x0, #0xdb8
    4e88:	9109a000 	add	x0, x0, #0x268
    4e8c:	94000ed9 	bl	89f0 <trace_printf>
    4e90:	52800000 	mov	w0, #0x0                   	// #0
    4e94:	940001cc 	bl	55c4 <__TEE_Panic>
/home/ursus/devel/optee/optee_os/lib/libutee/tee_api_operations.c:1745
    4e98:	b9400660 	ldr	w0, [x19,#4]
    4e9c:	71001c1f 	cmp	w0, #0x7
    4ea0:	540001a0 	b.eq	4ed4 <TEE_AsymmetricVerifyDigest+0x150>
/home/ursus/devel/optee/optee_os/lib/libutee/tee_api_operations.c:1747
    4ea4:	d0000044 	adrp	x4, e000 <__func__.3633+0x30>
    4ea8:	91112884 	add	x4, x4, #0x44a
    4eac:	52800005 	mov	w5, #0x0                   	// #0
    4eb0:	52800023 	mov	w3, #0x1                   	// #1
    4eb4:	52800022 	mov	w2, #0x1                   	// #1
    4eb8:	5280da61 	mov	w1, #0x6d3                 	// #1747
    4ebc:	90000040 	adrp	x0, c000 <mpa_set_str+0x4>
    4ec0:	9136e000 	add	x0, x0, #0xdb8
    4ec4:	9109a000 	add	x0, x0, #0x268
    4ec8:	94000eca 	bl	89f0 <trace_printf>
    4ecc:	52800000 	mov	w0, #0x0                   	// #0
    4ed0:	940001bd 	bl	55c4 <__TEE_Panic>
/home/ursus/devel/optee/optee_os/lib/libutee/tee_api_operations.c:1748
    4ed4:	b9400a60 	ldr	w0, [x19,#8]
    4ed8:	71000c1f 	cmp	w0, #0x3
    4edc:	540001a0 	b.eq	4f10 <TEE_AsymmetricVerifyDigest+0x18c>
/home/ursus/devel/optee/optee_os/lib/libutee/tee_api_operations.c:1749
    4ee0:	d0000044 	adrp	x4, e000 <__func__.3633+0x30>
    4ee4:	91112884 	add	x4, x4, #0x44a
    4ee8:	52800005 	mov	w5, #0x0                   	// #0
    4eec:	52800023 	mov	w3, #0x1                   	// #1
    4ef0:	52800022 	mov	w2, #0x1                   	// #1
    4ef4:	5280daa1 	mov	w1, #0x6d5                 	// #1749
    4ef8:	90000040 	adrp	x0, c000 <mpa_set_str+0x4>
    4efc:	9136e000 	add	x0, x0, #0xdb8
    4f00:	9109a000 	add	x0, x0, #0x268
    4f04:	94000ebb 	bl	89f0 <trace_printf>
    4f08:	52800000 	mov	w0, #0x0                   	// #0
    4f0c:	940001ae 	bl	55c4 <__TEE_Panic>
/home/ursus/devel/optee/optee_os/lib/libutee/tee_api_operations.c:1751
    4f10:	2a1403e2 	mov	w2, w20
    4f14:	aa1903e1 	mov	x1, x25
    4f18:	aa1b03e0 	mov	x0, x27
    4f1c:	97fff026 	bl	fb4 <__utee_from_attr>
/home/ursus/devel/optee/optee_os/lib/libutee/tee_api_operations.c:1752
    4f20:	b9405a60 	ldr	w0, [x19,#88]
    4f24:	2a1803e6 	mov	w6, w24
    4f28:	aa1703e5 	mov	x5, x23
    4f2c:	2a1603e4 	mov	w4, w22
    4f30:	aa1503e3 	mov	x3, x21
    4f34:	aa1a03e2 	mov	x2, x26
    4f38:	aa1b03e1 	mov	x1, x27
    4f3c:	940002db 	bl	5aa8 <utee_asymm_verify>
    4f40:	2a0003f3 	mov	w19, w0
/home/ursus/devel/optee/optee_os/lib/libutee/tee_api_operations.c:1755
    4f44:	7100001f 	cmp	w0, #0x0
    4f48:	1299f1a0 	mov	w0, #0xffff3072            	// #-53134
    4f4c:	7a401264 	ccmp	w19, w0, #0x4, ne
    4f50:	540001a0 	b.eq	4f84 <TEE_AsymmetricVerifyDigest+0x200>
/home/ursus/devel/optee/optee_os/lib/libutee/tee_api_operations.c:1756
    4f54:	2a1303e5 	mov	w5, w19
    4f58:	d0000044 	adrp	x4, e000 <__func__.3633+0x30>
    4f5c:	91112884 	add	x4, x4, #0x44a
    4f60:	52800023 	mov	w3, #0x1                   	// #1
    4f64:	52800022 	mov	w2, #0x1                   	// #1
    4f68:	5280db81 	mov	w1, #0x6dc                 	// #1756
    4f6c:	90000040 	adrp	x0, c000 <mpa_set_str+0x4>
    4f70:	9136e000 	add	x0, x0, #0xdb8
    4f74:	9109a000 	add	x0, x0, #0x268
    4f78:	94000e9e 	bl	89f0 <trace_printf>
    4f7c:	2a1303e0 	mov	w0, w19
    4f80:	94000191 	bl	55c4 <__TEE_Panic>
/home/ursus/devel/optee/optee_os/lib/libutee/tee_api_operations.c:1759
    4f84:	910003bf 	mov	sp, x29
    4f88:	2a1303e0 	mov	w0, w19
    4f8c:	f9402bfb 	ldr	x27, [sp,#80]
    4f90:	a94153f3 	ldp	x19, x20, [sp,#16]
    4f94:	a9425bf5 	ldp	x21, x22, [sp,#32]
    4f98:	a94363f7 	ldp	x23, x24, [sp,#48]
    4f9c:	a9446bf9 	ldp	x25, x26, [sp,#64]
    4fa0:	a8c67bfd 	ldp	x29, x30, [sp],#96
    4fa4:	d65f03c0 	ret

0000000000004fa8 <TEE_DeriveKey>:
TEE_DeriveKey():
/home/ursus/devel/optee/optee_os/lib/libutee/tee_api_operations.c:1766
    4fa8:	a9b97bfd 	stp	x29, x30, [sp,#-112]!
    4fac:	910003fd 	mov	x29, sp
    4fb0:	a90363f7 	stp	x23, x24, [sp,#48]
    4fb4:	2a0203f7 	mov	w23, w2
    4fb8:	a90153f3 	stp	x19, x20, [sp,#16]
    4fbc:	aa0003f3 	mov	x19, x0
/home/ursus/devel/optee/optee_os/lib/libutee/tee_api_operations.c:1769
    4fc0:	52800300 	mov	w0, #0x18                  	// #24
/home/ursus/devel/optee/optee_os/lib/libutee/tee_api_operations.c:1766
    4fc4:	a9025bf5 	stp	x21, x22, [sp,#32]
    4fc8:	f90023f9 	str	x25, [sp,#64]
/home/ursus/devel/optee/optee_os/lib/libutee/tee_api_operations.c:1771
    4fcc:	f100027f 	cmp	x19, #0x0
/home/ursus/devel/optee/optee_os/lib/libutee/tee_api_operations.c:1769
    4fd0:	9ba07ee0 	umull	x0, w23, w0
/home/ursus/devel/optee/optee_os/lib/libutee/tee_api_operations.c:1766
    4fd4:	aa0103f6 	mov	x22, x1
    4fd8:	aa1703f4 	mov	x20, x23
    4fdc:	aa0303f5 	mov	x21, x3
/home/ursus/devel/optee/optee_os/lib/libutee/tee_api_operations.c:1769
    4fe0:	91005800 	add	x0, x0, #0x16
/home/ursus/devel/optee/optee_os/lib/libutee/tee_api_operations.c:1771
    4fe4:	fa401864 	ccmp	x3, #0x0, #0x4, ne
/home/ursus/devel/optee/optee_os/lib/libutee/tee_api_operations.c:1769
    4fe8:	927c8400 	and	x0, x0, #0x3ffffffff0
    4fec:	cb2063ff 	sub	sp, sp, x0
    4ff0:	910003f8 	mov	x24, sp
/home/ursus/devel/optee/optee_os/lib/libutee/tee_api_operations.c:1771
    4ff4:	540001a1 	b.ne	5028 <TEE_DeriveKey+0x80>
/home/ursus/devel/optee/optee_os/lib/libutee/tee_api_operations.c:1772
    4ff8:	d0000044 	adrp	x4, e000 <__func__.3633+0x30>
    4ffc:	91112884 	add	x4, x4, #0x44a
    5000:	52800005 	mov	w5, #0x0                   	// #0
    5004:	52800023 	mov	w3, #0x1                   	// #1
    5008:	52800022 	mov	w2, #0x1                   	// #1
    500c:	5280dd81 	mov	w1, #0x6ec                 	// #1772
    5010:	f0000020 	adrp	x0, c000 <mpa_set_str+0x4>
    5014:	9136e000 	add	x0, x0, #0xdb8
    5018:	910a2000 	add	x0, x0, #0x288
    501c:	94000e75 	bl	89f0 <trace_printf>
    5020:	52800000 	mov	w0, #0x0                   	// #0
    5024:	94000168 	bl	55c4 <__TEE_Panic>
/home/ursus/devel/optee/optee_os/lib/libutee/tee_api_operations.c:1773
    5028:	f10002df 	cmp	x22, #0x0
    502c:	7a400a84 	ccmp	w20, #0x0, #0x4, eq
    5030:	540001a0 	b.eq	5064 <TEE_DeriveKey+0xbc>
/home/ursus/devel/optee/optee_os/lib/libutee/tee_api_operations.c:1774
    5034:	b0000044 	adrp	x4, e000 <__func__.3633+0x30>
    5038:	91112884 	add	x4, x4, #0x44a
    503c:	52800005 	mov	w5, #0x0                   	// #0
    5040:	52800023 	mov	w3, #0x1                   	// #1
    5044:	52800022 	mov	w2, #0x1                   	// #1
    5048:	5280ddc1 	mov	w1, #0x6ee                 	// #1774
    504c:	f0000020 	adrp	x0, c000 <mpa_set_str+0x4>
    5050:	9136e000 	add	x0, x0, #0xdb8
    5054:	910a2000 	add	x0, x0, #0x288
    5058:	94000e66 	bl	89f0 <trace_printf>
    505c:	52800000 	mov	w0, #0x0                   	// #0
    5060:	94000159 	bl	55c4 <__TEE_Panic>
/home/ursus/devel/optee/optee_os/lib/libutee/tee_api_operations.c:1775
    5064:	b9400260 	ldr	w0, [x19]
    5068:	531c7c00 	lsr	w0, w0, #28
    506c:	7100201f 	cmp	w0, #0x8
    5070:	540001a0 	b.eq	50a4 <TEE_DeriveKey+0xfc>
/home/ursus/devel/optee/optee_os/lib/libutee/tee_api_operations.c:1777
    5074:	b0000044 	adrp	x4, e000 <__func__.3633+0x30>
    5078:	91112884 	add	x4, x4, #0x44a
    507c:	52800005 	mov	w5, #0x0                   	// #0
    5080:	52800023 	mov	w3, #0x1                   	// #1
    5084:	52800022 	mov	w2, #0x1                   	// #1
    5088:	5280de21 	mov	w1, #0x6f1                 	// #1777
    508c:	f0000020 	adrp	x0, c000 <mpa_set_str+0x4>
    5090:	9136e000 	add	x0, x0, #0xdb8
    5094:	910a2000 	add	x0, x0, #0x288
    5098:	94000e56 	bl	89f0 <trace_printf>
    509c:	52800000 	mov	w0, #0x0                   	// #0
    50a0:	94000149 	bl	55c4 <__TEE_Panic>
/home/ursus/devel/optee/optee_os/lib/libutee/tee_api_operations.c:1779
    50a4:	b9400660 	ldr	w0, [x19,#4]
    50a8:	7100201f 	cmp	w0, #0x8
    50ac:	540001a0 	b.eq	50e0 <TEE_DeriveKey+0x138>
/home/ursus/devel/optee/optee_os/lib/libutee/tee_api_operations.c:1780
    50b0:	b0000044 	adrp	x4, e000 <__func__.3633+0x30>
    50b4:	91112884 	add	x4, x4, #0x44a
    50b8:	52800005 	mov	w5, #0x0                   	// #0
    50bc:	52800023 	mov	w3, #0x1                   	// #1
    50c0:	52800022 	mov	w2, #0x1                   	// #1
    50c4:	5280de81 	mov	w1, #0x6f4                 	// #1780
    50c8:	f0000020 	adrp	x0, c000 <mpa_set_str+0x4>
    50cc:	9136e000 	add	x0, x0, #0xdb8
    50d0:	910a2000 	add	x0, x0, #0x288
    50d4:	94000e47 	bl	89f0 <trace_printf>
    50d8:	52800000 	mov	w0, #0x0                   	// #0
    50dc:	9400013a 	bl	55c4 <__TEE_Panic>
/home/ursus/devel/optee/optee_os/lib/libutee/tee_api_operations.c:1781
    50e0:	f9401260 	ldr	x0, [x19,#32]
    50e4:	b50001a0 	cbnz	x0, 5118 <TEE_DeriveKey+0x170>
/home/ursus/devel/optee/optee_os/lib/libutee/tee_api_operations.c:1782
    50e8:	b0000044 	adrp	x4, e000 <__func__.3633+0x30>
    50ec:	91112884 	add	x4, x4, #0x44a
    50f0:	52800005 	mov	w5, #0x0                   	// #0
    50f4:	52800023 	mov	w3, #0x1                   	// #1
    50f8:	52800022 	mov	w2, #0x1                   	// #1
    50fc:	5280dec1 	mov	w1, #0x6f6                 	// #1782
    5100:	f0000020 	adrp	x0, c000 <mpa_set_str+0x4>
    5104:	9136e000 	add	x0, x0, #0xdb8
    5108:	910a2000 	add	x0, x0, #0x288
    510c:	94000e39 	bl	89f0 <trace_printf>
    5110:	52800000 	mov	w0, #0x0                   	// #0
    5114:	9400012c 	bl	55c4 <__TEE_Panic>
/home/ursus/devel/optee/optee_os/lib/libutee/tee_api_operations.c:1783
    5118:	b9400a60 	ldr	w0, [x19,#8]
    511c:	7100181f 	cmp	w0, #0x6
    5120:	540001a0 	b.eq	5154 <TEE_DeriveKey+0x1ac>
/home/ursus/devel/optee/optee_os/lib/libutee/tee_api_operations.c:1784
    5124:	b0000044 	adrp	x4, e000 <__func__.3633+0x30>
    5128:	91112884 	add	x4, x4, #0x44a
    512c:	52800005 	mov	w5, #0x0                   	// #0
    5130:	52800023 	mov	w3, #0x1                   	// #1
    5134:	52800022 	mov	w2, #0x1                   	// #1
    5138:	5280df01 	mov	w1, #0x6f8                 	// #1784
    513c:	f0000020 	adrp	x0, c000 <mpa_set_str+0x4>
    5140:	9136e000 	add	x0, x0, #0xdb8
    5144:	910a2000 	add	x0, x0, #0x288
    5148:	94000e2a 	bl	89f0 <trace_printf>
    514c:	52800000 	mov	w0, #0x0                   	// #0
    5150:	9400011d 	bl	55c4 <__TEE_Panic>
/home/ursus/devel/optee/optee_os/lib/libutee/tee_api_operations.c:1785
    5154:	b9401e60 	ldr	w0, [x19,#28]
    5158:	379001a0 	tbnz	w0, #18, 518c <TEE_DeriveKey+0x1e4>
/home/ursus/devel/optee/optee_os/lib/libutee/tee_api_operations.c:1786
    515c:	b0000044 	adrp	x4, e000 <__func__.3633+0x30>
    5160:	91112884 	add	x4, x4, #0x44a
    5164:	52800005 	mov	w5, #0x0                   	// #0
    5168:	52800023 	mov	w3, #0x1                   	// #1
    516c:	52800022 	mov	w2, #0x1                   	// #1
    5170:	5280df41 	mov	w1, #0x6fa                 	// #1786
    5174:	f0000020 	adrp	x0, c000 <mpa_set_str+0x4>
    5178:	9136e000 	add	x0, x0, #0xdb8
    517c:	910a2000 	add	x0, x0, #0x288
    5180:	94000e1c 	bl	89f0 <trace_printf>
    5184:	52800000 	mov	w0, #0x0                   	// #0
    5188:	9400010f 	bl	55c4 <__TEE_Panic>
/home/ursus/devel/optee/optee_os/lib/libutee/tee_api_operations.c:1788
    518c:	910143a1 	add	x1, x29, #0x50
    5190:	aa1503e0 	mov	x0, x21
    5194:	94000215 	bl	59e8 <utee_cryp_obj_get_info>
    5198:	2a0003f9 	mov	w25, w0
/home/ursus/devel/optee/optee_os/lib/libutee/tee_api_operations.c:1789
    519c:	340001a0 	cbz	w0, 51d0 <TEE_DeriveKey+0x228>
/home/ursus/devel/optee/optee_os/lib/libutee/tee_api_operations.c:1790
    51a0:	2a0003e5 	mov	w5, w0
    51a4:	b0000044 	adrp	x4, e000 <__func__.3633+0x30>
    51a8:	91112884 	add	x4, x4, #0x44a
    51ac:	52800023 	mov	w3, #0x1                   	// #1
    51b0:	52800022 	mov	w2, #0x1                   	// #1
    51b4:	5280dfc1 	mov	w1, #0x6fe                 	// #1790
    51b8:	f0000020 	adrp	x0, c000 <mpa_set_str+0x4>
    51bc:	9136e000 	add	x0, x0, #0xdb8
    51c0:	910a2000 	add	x0, x0, #0x288
    51c4:	94000e0b 	bl	89f0 <trace_printf>
    51c8:	2a1903e0 	mov	w0, w25
    51cc:	940000fe 	bl	55c4 <__TEE_Panic>
/home/ursus/devel/optee/optee_os/lib/libutee/tee_api_operations.c:1792
    51d0:	b94053a1 	ldr	w1, [x29,#80]
    51d4:	52b40000 	mov	w0, #0xa0000000            	// #-1610612736
    51d8:	6b00003f 	cmp	w1, w0
    51dc:	540001a0 	b.eq	5210 <TEE_DeriveKey+0x268>
/home/ursus/devel/optee/optee_os/lib/libutee/tee_api_operations.c:1793
    51e0:	b0000044 	adrp	x4, e000 <__func__.3633+0x30>
    51e4:	91112884 	add	x4, x4, #0x44a
    51e8:	52800005 	mov	w5, #0x0                   	// #0
    51ec:	52800023 	mov	w3, #0x1                   	// #1
    51f0:	52800022 	mov	w2, #0x1                   	// #1
    51f4:	5280e021 	mov	w1, #0x701                 	// #1793
    51f8:	f0000020 	adrp	x0, c000 <mpa_set_str+0x4>
    51fc:	9136e000 	add	x0, x0, #0xdb8
    5200:	910a2000 	add	x0, x0, #0x288
    5204:	94000dfb 	bl	89f0 <trace_printf>
    5208:	52800000 	mov	w0, #0x0                   	// #0
    520c:	940000ee 	bl	55c4 <__TEE_Panic>
/home/ursus/devel/optee/optee_os/lib/libutee/tee_api_operations.c:1794
    5210:	b9406ba0 	ldr	w0, [x29,#104]
    5214:	368801a0 	tbz	w0, #17, 5248 <TEE_DeriveKey+0x2a0>
/home/ursus/devel/optee/optee_os/lib/libutee/tee_api_operations.c:1795
    5218:	b0000044 	adrp	x4, e000 <__func__.3633+0x30>
    521c:	91112884 	add	x4, x4, #0x44a
    5220:	52800005 	mov	w5, #0x0                   	// #0
    5224:	52800023 	mov	w3, #0x1                   	// #1
    5228:	52800022 	mov	w2, #0x1                   	// #1
    522c:	5280e061 	mov	w1, #0x703                 	// #1795
    5230:	f0000020 	adrp	x0, c000 <mpa_set_str+0x4>
    5234:	9136e000 	add	x0, x0, #0xdb8
    5238:	910a2000 	add	x0, x0, #0x288
    523c:	94000ded 	bl	89f0 <trace_printf>
    5240:	52800000 	mov	w0, #0x0                   	// #0
    5244:	940000e0 	bl	55c4 <__TEE_Panic>
/home/ursus/devel/optee/optee_os/lib/libutee/tee_api_operations.c:1797
    5248:	2a1403e2 	mov	w2, w20
    524c:	aa1603e1 	mov	x1, x22
    5250:	aa1803e0 	mov	x0, x24
    5254:	97ffef58 	bl	fb4 <__utee_from_attr>
/home/ursus/devel/optee/optee_os/lib/libutee/tee_api_operations.c:1798
    5258:	b9405a60 	ldr	w0, [x19,#88]
    525c:	aa1503e3 	mov	x3, x21
    5260:	aa1703e2 	mov	x2, x23
    5264:	aa1803e1 	mov	x1, x24
    5268:	940001f8 	bl	5a48 <utee_cryp_derive_key>
    526c:	2a0003f3 	mov	w19, w0
/home/ursus/devel/optee/optee_os/lib/libutee/tee_api_operations.c:1800
    5270:	340001a0 	cbz	w0, 52a4 <TEE_DeriveKey+0x2fc>
/home/ursus/devel/optee/optee_os/lib/libutee/tee_api_operations.c:1801
    5274:	2a0003e5 	mov	w5, w0
    5278:	b0000044 	adrp	x4, e000 <__func__.3633+0x30>
    527c:	91112884 	add	x4, x4, #0x44a
    5280:	52800023 	mov	w3, #0x1                   	// #1
    5284:	52800022 	mov	w2, #0x1                   	// #1
    5288:	5280e121 	mov	w1, #0x709                 	// #1801
    528c:	f0000020 	adrp	x0, c000 <mpa_set_str+0x4>
    5290:	9136e000 	add	x0, x0, #0xdb8
    5294:	910a2000 	add	x0, x0, #0x288
    5298:	94000dd6 	bl	89f0 <trace_printf>
    529c:	2a1303e0 	mov	w0, w19
    52a0:	940000c9 	bl	55c4 <__TEE_Panic>
/home/ursus/devel/optee/optee_os/lib/libutee/tee_api_operations.c:1802
    52a4:	910003bf 	mov	sp, x29
    52a8:	f94023f9 	ldr	x25, [sp,#64]
    52ac:	a94153f3 	ldp	x19, x20, [sp,#16]
    52b0:	a9425bf5 	ldp	x21, x22, [sp,#32]
    52b4:	a94363f7 	ldp	x23, x24, [sp,#48]
    52b8:	a8c77bfd 	ldp	x29, x30, [sp],#112
    52bc:	d65f03c0 	ret

00000000000052c0 <TEE_GenerateRandom>:
TEE_GenerateRandom():
/home/ursus/devel/optee/optee_os/lib/libutee/tee_api_operations.c:1807
    52c0:	a9be7bfd 	stp	x29, x30, [sp,#-32]!
/home/ursus/devel/optee/optee_os/lib/libutee/tee_api_operations.c:1810
    52c4:	2a0103e1 	mov	w1, w1
/home/ursus/devel/optee/optee_os/lib/libutee/tee_api_operations.c:1807
    52c8:	910003fd 	mov	x29, sp
    52cc:	f9000bf3 	str	x19, [sp,#16]
/home/ursus/devel/optee/optee_os/lib/libutee/tee_api_operations.c:1810
    52d0:	940001e1 	bl	5a54 <utee_cryp_random_number_generate>
/home/ursus/devel/optee/optee_os/lib/libutee/tee_api_operations.c:1811
    52d4:	34000200 	cbz	w0, 5314 <TEE_GenerateRandom+0x54>
    52d8:	2a0003f3 	mov	w19, w0
/home/ursus/devel/optee/optee_os/lib/libutee/tee_api_operations.c:1812
    52dc:	2a0003e5 	mov	w5, w0
    52e0:	f0000020 	adrp	x0, c000 <mpa_set_str+0x4>
    52e4:	9136e000 	add	x0, x0, #0xdb8
    52e8:	52800023 	mov	w3, #0x1                   	// #1
    52ec:	52800022 	mov	w2, #0x1                   	// #1
    52f0:	5280e281 	mov	w1, #0x714                 	// #1812
    52f4:	910a6000 	add	x0, x0, #0x298
    52f8:	b0000044 	adrp	x4, e000 <__func__.3633+0x30>
    52fc:	91112884 	add	x4, x4, #0x44a
    5300:	94000dbc 	bl	89f0 <trace_printf>
    5304:	2a1303e0 	mov	w0, w19
/home/ursus/devel/optee/optee_os/lib/libutee/tee_api_operations.c:1813
    5308:	f9400bf3 	ldr	x19, [sp,#16]
    530c:	a8c27bfd 	ldp	x29, x30, [sp],#32
/home/ursus/devel/optee/optee_os/lib/libutee/tee_api_operations.c:1812
    5310:	140000ad 	b	55c4 <__TEE_Panic>
/home/ursus/devel/optee/optee_os/lib/libutee/tee_api_operations.c:1813
    5314:	f9400bf3 	ldr	x19, [sp,#16]
    5318:	a8c27bfd 	ldp	x29, x30, [sp],#32
    531c:	d65f03c0 	ret

0000000000005320 <tee_buffer_update>:
tee_buffer_update():
/home/ursus/devel/optee/optee_os/lib/libutee/tee_api_operations.c:867
    5320:	a9b87bfd 	stp	x29, x30, [sp,#-128]!
    5324:	910003fd 	mov	x29, sp
    5328:	a90153f3 	stp	x19, x20, [sp,#16]
    532c:	aa0003f3 	mov	x19, x0
    5330:	a9025bf5 	stp	x21, x22, [sp,#32]
    5334:	a9046bf9 	stp	x25, x26, [sp,#64]
    5338:	aa0303f9 	mov	x25, x3
    533c:	a90363f7 	stp	x23, x24, [sp,#48]
    5340:	a90573fb 	stp	x27, x28, [sp,#80]
    5344:	f90037a5 	str	x5, [x29,#104]
/home/ursus/devel/optee/optee_os/lib/libutee/tee_api_operations.c:872
    5348:	f94000b6 	ldr	x22, [x5]
/home/ursus/devel/optee/optee_os/lib/libutee/tee_api_operations.c:879
    534c:	b5000342 	cbnz	x2, 53b4 <tee_buffer_update+0x94>
/home/ursus/devel/optee/optee_os/lib/libutee/tee_api_operations.c:880
    5350:	b5000183 	cbnz	x3, 5380 <tee_buffer_update+0x60>
/home/ursus/devel/optee/optee_os/lib/libutee/tee_api_operations.c:873
    5354:	d2800017 	mov	x23, #0x0                   	// #0
/home/ursus/devel/optee/optee_os/lib/libutee/tee_api_operations.c:955
    5358:	f94037a0 	ldr	x0, [x29,#104]
/home/ursus/devel/optee/optee_os/lib/libutee/tee_api_operations.c:957
    535c:	a94153f3 	ldp	x19, x20, [sp,#16]
    5360:	a9425bf5 	ldp	x21, x22, [sp,#32]
    5364:	a9446bf9 	ldp	x25, x26, [sp,#64]
    5368:	a94573fb 	ldp	x27, x28, [sp,#80]
/home/ursus/devel/optee/optee_os/lib/libutee/tee_api_operations.c:955
    536c:	f9000017 	str	x23, [x0]
/home/ursus/devel/optee/optee_os/lib/libutee/tee_api_operations.c:957
    5370:	a94363f7 	ldp	x23, x24, [sp,#48]
    5374:	52800000 	mov	w0, #0x0                   	// #0
    5378:	a8c87bfd 	ldp	x29, x30, [sp],#128
    537c:	d65f03c0 	ret
/home/ursus/devel/optee/optee_os/lib/libutee/tee_api_operations.c:881
    5380:	b0000044 	adrp	x4, e000 <__func__.3633+0x30>
    5384:	91112884 	add	x4, x4, #0x44a
    5388:	52800005 	mov	w5, #0x0                   	// #0
    538c:	52800023 	mov	w3, #0x1                   	// #1
    5390:	52800022 	mov	w2, #0x1                   	// #1
    5394:	52806e21 	mov	w1, #0x371                 	// #881
    5398:	f0000020 	adrp	x0, c000 <mpa_set_str+0x4>
    539c:	9136e000 	add	x0, x0, #0xdb8
    53a0:	91006000 	add	x0, x0, #0x18
    53a4:	94000d93 	bl	89f0 <trace_printf>
    53a8:	52800000 	mov	w0, #0x0                   	// #0
    53ac:	94000086 	bl	55c4 <__TEE_Panic>
    53b0:	17ffffe9 	b	5354 <tee_buffer_update+0x34>
/home/ursus/devel/optee/optee_os/lib/libutee/tee_api_operations.c:885
    53b4:	39410000 	ldrb	w0, [x0,#64]
    53b8:	aa0103f8 	mov	x24, x1
    53bc:	aa0203f5 	mov	x21, x2
    53c0:	aa0403fb 	mov	x27, x4
    53c4:	f940267a 	ldr	x26, [x19,#72]
    53c8:	340009e0 	cbz	w0, 5504 <tee_buffer_update+0x1e4>
/home/ursus/devel/optee/optee_os/lib/libutee/tee_api_operations.c:886
    53cc:	d37ffb54 	lsl	x20, x26, #1
/home/ursus/devel/optee/optee_os/lib/libutee/tee_api_operations.c:887
    53d0:	d280003c 	mov	x28, #0x1                   	// #1
/home/ursus/devel/optee/optee_os/lib/libutee/tee_api_operations.c:893
    53d4:	f9402a60 	ldr	x0, [x19,#80]
    53d8:	b4000260 	cbz	x0, 5424 <tee_buffer_update+0x104>
/home/ursus/devel/optee/optee_os/lib/libutee/tee_api_operations.c:895
    53dc:	eb1a001f 	cmp	x0, x26
    53e0:	54000982 	b.cs	5510 <tee_buffer_update+0x1f0>
/home/ursus/devel/optee/optee_os/lib/libutee/tee_api_operations.c:896
    53e4:	cb00035a 	sub	x26, x26, x0
/home/ursus/devel/optee/optee_os/lib/libutee/tee_api_operations.c:899
    53e8:	f9401e63 	ldr	x3, [x19,#56]
/home/ursus/devel/optee/optee_os/lib/libutee/tee_api_operations.c:898
    53ec:	eb19035f 	cmp	x26, x25
    53f0:	9a99935a 	csel	x26, x26, x25, ls
/home/ursus/devel/optee/optee_os/lib/libutee/tee_api_operations.c:899
    53f4:	aa1503e1 	mov	x1, x21
    53f8:	aa1a03e2 	mov	x2, x26
    53fc:	8b000060 	add	x0, x3, x0
    5400:	94000a0c 	bl	7c30 <memcpy>
/home/ursus/devel/optee/optee_os/lib/libutee/tee_api_operations.c:900
    5404:	a9448262 	ldp	x2, x0, [x19,#72]
    5408:	8b000340 	add	x0, x26, x0
    540c:	f9002a60 	str	x0, [x19,#80]
/home/ursus/devel/optee/optee_os/lib/libutee/tee_api_operations.c:903
    5410:	9ac20801 	udiv	x1, x0, x2
    5414:	9b028020 	msub	x0, x1, x2, x0
    5418:	b5fff9e0 	cbnz	x0, 5354 <tee_buffer_update+0x34>
/home/ursus/devel/optee/optee_os/lib/libutee/tee_api_operations.c:901
    541c:	8b1a02b5 	add	x21, x21, x26
/home/ursus/devel/optee/optee_os/lib/libutee/tee_api_operations.c:902
    5420:	cb1a0339 	sub	x25, x25, x26
/home/ursus/devel/optee/optee_os/lib/libutee/tee_api_operations.c:908
    5424:	f9402a77 	ldr	x23, [x19,#80]
    5428:	8b1c029c 	add	x28, x20, x28
    542c:	b4000797 	cbz	x23, 551c <tee_buffer_update+0x1fc>
/home/ursus/devel/optee/optee_os/lib/libutee/tee_api_operations.c:909 (discriminator 1)
    5430:	8b170320 	add	x0, x25, x23
/home/ursus/devel/optee/optee_os/lib/libutee/tee_api_operations.c:908 (discriminator 1)
    5434:	eb1c001f 	cmp	x0, x28
    5438:	54000703 	b.cc	5518 <tee_buffer_update+0x1f8>
/home/ursus/devel/optee/optee_os/lib/libutee/tee_api_operations.c:910
    543c:	f9402661 	ldr	x1, [x19,#72]
    5440:	cb14001a 	sub	x26, x0, x20
/home/ursus/devel/optee/optee_os/lib/libutee/tee_api_operations.c:913
    5444:	910203a4 	add	x4, x29, #0x80
/home/ursus/devel/optee/optee_os/lib/libutee/tee_api_operations.c:914
    5448:	aa1b03e3 	mov	x3, x27
/home/ursus/devel/optee/optee_os/lib/libutee/tee_api_operations.c:910
    544c:	d1000420 	sub	x0, x1, #0x1
    5450:	cb0103e1 	neg	x1, x1
    5454:	8b00035a 	add	x26, x26, x0
/home/ursus/devel/optee/optee_os/lib/libutee/tee_api_operations.c:914
    5458:	b9405a60 	ldr	w0, [x19,#88]
/home/ursus/devel/optee/optee_os/lib/libutee/tee_api_operations.c:910
    545c:	8a01035a 	and	x26, x26, x1
/home/ursus/devel/optee/optee_os/lib/libutee/tee_api_operations.c:914
    5460:	f9401e61 	ldr	x1, [x19,#56]
/home/ursus/devel/optee/optee_os/lib/libutee/tee_api_operations.c:912
    5464:	eb17035f 	cmp	x26, x23
/home/ursus/devel/optee/optee_os/lib/libutee/tee_api_operations.c:913
    5468:	f81f8c96 	str	x22, [x4,#-8]!
/home/ursus/devel/optee/optee_os/lib/libutee/tee_api_operations.c:912
    546c:	9a97935a 	csel	x26, x26, x23, ls
/home/ursus/devel/optee/optee_os/lib/libutee/tee_api_operations.c:914
    5470:	aa1a03e2 	mov	x2, x26
    5474:	d63f0300 	blr	x24
    5478:	2a0003f7 	mov	w23, w0
/home/ursus/devel/optee/optee_os/lib/libutee/tee_api_operations.c:915
    547c:	340001a0 	cbz	w0, 54b0 <tee_buffer_update+0x190>
/home/ursus/devel/optee/optee_os/lib/libutee/tee_api_operations.c:916
    5480:	2a0003e5 	mov	w5, w0
    5484:	b0000044 	adrp	x4, e000 <__func__.3633+0x30>
    5488:	91112884 	add	x4, x4, #0x44a
    548c:	52800023 	mov	w3, #0x1                   	// #1
    5490:	52800022 	mov	w2, #0x1                   	// #1
    5494:	52807281 	mov	w1, #0x394                 	// #916
    5498:	f0000020 	adrp	x0, c000 <mpa_set_str+0x4>
    549c:	9136e000 	add	x0, x0, #0xdb8
    54a0:	91006000 	add	x0, x0, #0x18
    54a4:	94000d53 	bl	89f0 <trace_printf>
    54a8:	2a1703e0 	mov	w0, w23
    54ac:	94000046 	bl	55c4 <__TEE_Panic>
/home/ursus/devel/optee/optee_os/lib/libutee/tee_api_operations.c:920
    54b0:	f9402a60 	ldr	x0, [x19,#80]
/home/ursus/devel/optee/optee_os/lib/libutee/tee_api_operations.c:917
    54b4:	f9403fb7 	ldr	x23, [x29,#120]
/home/ursus/devel/optee/optee_os/lib/libutee/tee_api_operations.c:920
    54b8:	cb1a0000 	sub	x0, x0, x26
    54bc:	f9002a60 	str	x0, [x19,#80]
/home/ursus/devel/optee/optee_os/lib/libutee/tee_api_operations.c:917
    54c0:	8b17037b 	add	x27, x27, x23
/home/ursus/devel/optee/optee_os/lib/libutee/tee_api_operations.c:918
    54c4:	cb1702d6 	sub	x22, x22, x23
/home/ursus/devel/optee/optee_os/lib/libutee/tee_api_operations.c:921
    54c8:	b40002a0 	cbz	x0, 551c <tee_buffer_update+0x1fc>
/home/ursus/devel/optee/optee_os/lib/libutee/tee_api_operations.c:925
    54cc:	f9401e60 	ldr	x0, [x19,#56]
    54d0:	cb1a0282 	sub	x2, x20, x26
    54d4:	8b1a0001 	add	x1, x0, x26
    54d8:	940009d6 	bl	7c30 <memcpy>
/home/ursus/devel/optee/optee_os/lib/libutee/tee_api_operations.c:951
    54dc:	f9401e63 	ldr	x3, [x19,#56]
    54e0:	aa1903e2 	mov	x2, x25
    54e4:	f9402a60 	ldr	x0, [x19,#80]
    54e8:	aa1503e1 	mov	x1, x21
    54ec:	8b000060 	add	x0, x3, x0
    54f0:	940009d0 	bl	7c30 <memcpy>
/home/ursus/devel/optee/optee_os/lib/libutee/tee_api_operations.c:952
    54f4:	f9402a60 	ldr	x0, [x19,#80]
    54f8:	8b190019 	add	x25, x0, x25
    54fc:	f9002a79 	str	x25, [x19,#80]
    5500:	17ffff96 	b	5358 <tee_buffer_update+0x38>
/home/ursus/devel/optee/optee_os/lib/libutee/tee_api_operations.c:889
    5504:	aa1a03f4 	mov	x20, x26
/home/ursus/devel/optee/optee_os/lib/libutee/tee_api_operations.c:890
    5508:	d280001c 	mov	x28, #0x0                   	// #0
    550c:	17ffffb2 	b	53d4 <tee_buffer_update+0xb4>
/home/ursus/devel/optee/optee_os/lib/libutee/tee_api_operations.c:898
    5510:	cb00029a 	sub	x26, x20, x0
    5514:	17ffffb5 	b	53e8 <tee_buffer_update+0xc8>
/home/ursus/devel/optee/optee_os/lib/libutee/tee_api_operations.c:873
    5518:	d2800017 	mov	x23, #0x0                   	// #0
/home/ursus/devel/optee/optee_os/lib/libutee/tee_api_operations.c:932
    551c:	eb1c033f 	cmp	x25, x28
    5520:	54fffde3 	b.cc	54dc <tee_buffer_update+0x1bc>
/home/ursus/devel/optee/optee_os/lib/libutee/tee_api_operations.c:934
    5524:	52806200 	mov	w0, #0x310                 	// #784
    5528:	b9400261 	ldr	w1, [x19]
    552c:	72a20000 	movk	w0, #0x1000, lsl #16
    5530:	6b00003f 	cmp	w1, w0
    5534:	f9402660 	ldr	x0, [x19,#72]
    5538:	54000401 	b.ne	55b8 <tee_buffer_update+0x298>
/home/ursus/devel/optee/optee_os/lib/libutee/tee_api_operations.c:935
    553c:	cb140334 	sub	x20, x25, x20
    5540:	d1000401 	sub	x1, x0, #0x1
    5544:	8b010294 	add	x20, x20, x1
/home/ursus/devel/optee/optee_os/lib/libutee/tee_api_operations.c:937
    5548:	cb0003e0 	neg	x0, x0
/home/ursus/devel/optee/optee_os/lib/libutee/tee_api_operations.c:939
    554c:	910203a4 	add	x4, x29, #0x80
/home/ursus/devel/optee/optee_os/lib/libutee/tee_api_operations.c:937
    5550:	8a000294 	and	x20, x20, x0
/home/ursus/devel/optee/optee_os/lib/libutee/tee_api_operations.c:940
    5554:	b9405a60 	ldr	w0, [x19,#88]
    5558:	aa1b03e3 	mov	x3, x27
    555c:	aa1403e2 	mov	x2, x20
/home/ursus/devel/optee/optee_os/lib/libutee/tee_api_operations.c:939
    5560:	f81f8c96 	str	x22, [x4,#-8]!
/home/ursus/devel/optee/optee_os/lib/libutee/tee_api_operations.c:940
    5564:	aa1503e1 	mov	x1, x21
    5568:	d63f0300 	blr	x24
    556c:	2a0003f6 	mov	w22, w0
/home/ursus/devel/optee/optee_os/lib/libutee/tee_api_operations.c:941
    5570:	340001a0 	cbz	w0, 55a4 <tee_buffer_update+0x284>
/home/ursus/devel/optee/optee_os/lib/libutee/tee_api_operations.c:942
    5574:	2a0003e5 	mov	w5, w0
    5578:	b0000044 	adrp	x4, e000 <__func__.3633+0x30>
    557c:	91112884 	add	x4, x4, #0x44a
    5580:	52800023 	mov	w3, #0x1                   	// #1
    5584:	52800022 	mov	w2, #0x1                   	// #1
    5588:	528075c1 	mov	w1, #0x3ae                 	// #942
    558c:	f0000020 	adrp	x0, c000 <mpa_set_str+0x4>
    5590:	9136e000 	add	x0, x0, #0xdb8
    5594:	91006000 	add	x0, x0, #0x18
    5598:	94000d16 	bl	89f0 <trace_printf>
    559c:	2a1603e0 	mov	w0, w22
    55a0:	94000009 	bl	55c4 <__TEE_Panic>
/home/ursus/devel/optee/optee_os/lib/libutee/tee_api_operations.c:947
    55a4:	f9403fa0 	ldr	x0, [x29,#120]
/home/ursus/devel/optee/optee_os/lib/libutee/tee_api_operations.c:943
    55a8:	8b1402b5 	add	x21, x21, x20
/home/ursus/devel/optee/optee_os/lib/libutee/tee_api_operations.c:944
    55ac:	cb140339 	sub	x25, x25, x20
/home/ursus/devel/optee/optee_os/lib/libutee/tee_api_operations.c:947
    55b0:	8b0002f7 	add	x23, x23, x0
    55b4:	17ffffca 	b	54dc <tee_buffer_update+0x1bc>
/home/ursus/devel/optee/optee_os/lib/libutee/tee_api_operations.c:937
    55b8:	cb140014 	sub	x20, x0, x20
    55bc:	8b190294 	add	x20, x20, x25
    55c0:	17ffffe2 	b	5548 <tee_buffer_update+0x228>

00000000000055c4 <__TEE_Panic>:
__TEE_Panic():
    55c4:	a9bf7bfd 	stp	x29, x30, [sp,#-16]!
    55c8:	2a0003e0 	mov	w0, w0
    55cc:	910003fd 	mov	x29, sp
    55d0:	940000c4 	bl	58e0 <utee_panic>

00000000000055d4 <TEE_Panic>:
TEE_Panic():
/home/ursus/devel/optee/optee_os/lib/libutee/tee_api_panic.c:40
    55d4:	a9bf7bfd 	stp	x29, x30, [sp,#-16]!
__TEE_Panic():
/home/ursus/devel/optee/optee_os/lib/libutee/tee_api_panic.c:36
    55d8:	2a0003e0 	mov	w0, w0
TEE_Panic():
/home/ursus/devel/optee/optee_os/lib/libutee/tee_api_panic.c:40
    55dc:	910003fd 	mov	x29, sp
__TEE_Panic():
/home/ursus/devel/optee/optee_os/lib/libutee/tee_api_panic.c:36
    55e0:	940000c0 	bl	58e0 <utee_panic>

00000000000055e4 <ta_header_get_session>:
ta_header_get_session():
/home/ursus/devel/optee/optee_os/lib/libutee/arch/arm/user_ta_entry.c:85
    55e4:	2a0003e1 	mov	w1, w0
/home/ursus/devel/optee/optee_os/lib/libutee/arch/arm/user_ta_entry.c:88
    55e8:	f0000040 	adrp	x0, 10000 <modulus>
    55ec:	f940bc00 	ldr	x0, [x0,#376]
/home/ursus/devel/optee/optee_os/lib/libutee/arch/arm/user_ta_entry.c:88 (discriminator 1)
    55f0:	b5000040 	cbnz	x0, 55f8 <ta_header_get_session+0x14>
/home/ursus/devel/optee/optee_os/lib/libutee/arch/arm/user_ta_entry.c:93
    55f4:	d65f03c0 	ret
/home/ursus/devel/optee/optee_os/lib/libutee/arch/arm/user_ta_entry.c:89
    55f8:	b9400002 	ldr	w2, [x0]
    55fc:	6b01005f 	cmp	w2, w1
    5600:	54ffffa0 	b.eq	55f4 <ta_header_get_session+0x10>
/home/ursus/devel/optee/optee_os/lib/libutee/arch/arm/user_ta_entry.c:88 (discriminator 2)
    5604:	f9400800 	ldr	x0, [x0,#16]
    5608:	17fffffa 	b	55f0 <ta_header_get_session+0xc>

000000000000560c <ta_header_remove_session>:
ta_header_remove_session():
/home/ursus/devel/optee/optee_os/lib/libutee/arch/arm/user_ta_entry.c:135
    560c:	f0000041 	adrp	x1, 10000 <modulus>
/home/ursus/devel/optee/optee_os/lib/libutee/arch/arm/user_ta_entry.c:132
    5610:	2a0003e3 	mov	w3, w0
/home/ursus/devel/optee/optee_os/lib/libutee/arch/arm/user_ta_entry.c:135
    5614:	f940bc20 	ldr	x0, [x1,#376]
/home/ursus/devel/optee/optee_os/lib/libutee/arch/arm/user_ta_entry.c:135 (discriminator 1)
    5618:	b5000040 	cbnz	x0, 5620 <ta_header_remove_session+0x14>
    561c:	d65f03c0 	ret
/home/ursus/devel/optee/optee_os/lib/libutee/arch/arm/user_ta_entry.c:136
    5620:	b9400002 	ldr	w2, [x0]
    5624:	6b03005f 	cmp	w2, w3
    5628:	f9400802 	ldr	x2, [x0,#16]
    562c:	54000261 	b.ne	5678 <ta_header_remove_session+0x6c>
/home/ursus/devel/optee/optee_os/lib/libutee/arch/arm/user_ta_entry.c:132
    5630:	a9bf7bfd 	stp	x29, x30, [sp,#-16]!
    5634:	910003fd 	mov	x29, sp
    5638:	f9400c03 	ldr	x3, [x0,#24]
/home/ursus/devel/optee/optee_os/lib/libutee/arch/arm/user_ta_entry.c:137
    563c:	b4000182 	cbz	x2, 566c <ta_header_remove_session+0x60>
/home/ursus/devel/optee/optee_os/lib/libutee/arch/arm/user_ta_entry.c:137 (discriminator 1)
    5640:	f9000c43 	str	x3, [x2,#24]
/home/ursus/devel/optee/optee_os/lib/libutee/arch/arm/user_ta_entry.c:137 (discriminator 4)
    5644:	f9400c01 	ldr	x1, [x0,#24]
    5648:	f9000022 	str	x2, [x1]
/home/ursus/devel/optee/optee_os/lib/libutee/arch/arm/user_ta_entry.c:138 (discriminator 4)
    564c:	97ffee53 	bl	f98 <TEE_Free>
/home/ursus/devel/optee/optee_os/lib/libutee/arch/arm/user_ta_entry.c:140 (discriminator 4)
    5650:	b00000a1 	adrp	x1, 1a000 <buf.3605+0x230>
    5654:	b94dd420 	ldr	w0, [x1,#3540]
    5658:	51000400 	sub	w0, w0, #0x1
    565c:	b90dd420 	str	w0, [x1,#3540]
/home/ursus/devel/optee/optee_os/lib/libutee/arch/arm/user_ta_entry.c:141 (discriminator 4)
    5660:	35000100 	cbnz	w0, 5680 <ta_header_remove_session+0x74>
/home/ursus/devel/optee/optee_os/lib/libutee/arch/arm/user_ta_entry.c:149
    5664:	a8c17bfd 	ldp	x29, x30, [sp],#16
/home/ursus/devel/optee/optee_os/lib/libutee/arch/arm/user_ta_entry.c:143
    5668:	17ffea7b 	b	54 <TA_DestroyEntryPoint>
/home/ursus/devel/optee/optee_os/lib/libutee/arch/arm/user_ta_entry.c:137 (discriminator 2)
    566c:	9105e021 	add	x1, x1, #0x178
    5670:	f9000423 	str	x3, [x1,#8]
    5674:	17fffff4 	b	5644 <ta_header_remove_session+0x38>
/home/ursus/devel/optee/optee_os/lib/libutee/arch/arm/user_ta_entry.c:135 (discriminator 2)
    5678:	aa0203e0 	mov	x0, x2
    567c:	17ffffe7 	b	5618 <ta_header_remove_session+0xc>
/home/ursus/devel/optee/optee_os/lib/libutee/arch/arm/user_ta_entry.c:149
    5680:	a8c17bfd 	ldp	x29, x30, [sp],#16
    5684:	d65f03c0 	ret

0000000000005688 <__utee_entry>:
__utee_entry():
/home/ursus/devel/optee/optee_os/lib/libutee/arch/arm/user_ta_entry.c:216
    5688:	a9b77bfd 	stp	x29, x30, [sp,#-144]!
/home/ursus/devel/optee/optee_os/lib/libutee/arch/arm/user_ta_entry.c:227
    568c:	f100041f 	cmp	x0, #0x1
/home/ursus/devel/optee/optee_os/lib/libutee/arch/arm/user_ta_entry.c:216
    5690:	910003fd 	mov	x29, sp
    5694:	a90153f3 	stp	x19, x20, [sp,#16]
    5698:	aa0103f4 	mov	x20, x1
    569c:	a9025bf5 	stp	x21, x22, [sp,#32]
    56a0:	f9001bf7 	str	x23, [sp,#48]
/home/ursus/devel/optee/optee_os/lib/libutee/arch/arm/user_ta_entry.c:227
    56a4:	54000c20 	b.eq	5828 <__utee_entry+0x1a0>
    56a8:	aa0203f6 	mov	x22, x2
    56ac:	b4000200 	cbz	x0, 56ec <__utee_entry+0x64>
    56b0:	f100081f 	cmp	x0, #0x2
    56b4:	54000ce0 	b.eq	5850 <__utee_entry+0x1c8>
/home/ursus/devel/optee/optee_os/lib/libutee/arch/arm/user_ta_entry.c:239
    56b8:	b0000044 	adrp	x4, e000 <__func__.3633+0x30>
    56bc:	91112884 	add	x4, x4, #0x44a
    56c0:	52800005 	mov	w5, #0x0                   	// #0
    56c4:	52800023 	mov	w3, #0x1                   	// #1
    56c8:	52800022 	mov	w2, #0x1                   	// #1
    56cc:	52801de1 	mov	w1, #0xef                  	// #239
    56d0:	90000040 	adrp	x0, d000 <__func__.4585>
    56d4:	9101a000 	add	x0, x0, #0x68
    56d8:	94000cc6 	bl	89f0 <trace_printf>
/home/ursus/devel/optee/optee_os/lib/libutee/arch/arm/user_ta_entry.c:238
    56dc:	12800013 	mov	w19, #0xffffffff            	// #-1
/home/ursus/devel/optee/optee_os/lib/libutee/arch/arm/user_ta_entry.c:239
    56e0:	52800000 	mov	w0, #0x0                   	// #0
    56e4:	97ffffb8 	bl	55c4 <__TEE_Panic>
/home/ursus/devel/optee/optee_os/lib/libutee/arch/arm/user_ta_entry.c:240
    56e8:	14000010 	b	5728 <__utee_entry+0xa0>
ta_header_add_session():
/home/ursus/devel/optee/optee_os/lib/libutee/arch/arm/user_ta_entry.c:97
    56ec:	2a0103e0 	mov	w0, w1
    56f0:	97ffffbd 	bl	55e4 <ta_header_get_session>
/home/ursus/devel/optee/optee_os/lib/libutee/arch/arm/user_ta_entry.c:99
    56f4:	b50005c0 	cbnz	x0, 57ac <__utee_entry+0x124>
/home/ursus/devel/optee/optee_os/lib/libutee/arch/arm/user_ta_entry.c:102
    56f8:	b00000a0 	adrp	x0, 1a000 <buf.3605+0x230>
    56fc:	91375015 	add	x21, x0, #0xdd4
    5700:	b94dd413 	ldr	w19, [x0,#3540]
    5704:	11000673 	add	w19, w19, #0x1
    5708:	b90dd413 	str	w19, [x0,#3540]
/home/ursus/devel/optee/optee_os/lib/libutee/arch/arm/user_ta_entry.c:104
    570c:	7100067f 	cmp	w19, #0x1
    5710:	540001e0 	b.eq	574c <__utee_entry+0xc4>
/home/ursus/devel/optee/optee_os/lib/libutee/arch/arm/user_ta_entry.c:120
    5714:	52b00001 	mov	w1, #0x80000000            	// #-2147483648
    5718:	52800400 	mov	w0, #0x20                  	// #32
/home/ursus/devel/optee/optee_os/lib/libutee/arch/arm/user_ta_entry.c:123
    571c:	129ffe73 	mov	w19, #0xffff000c            	// #-65524
/home/ursus/devel/optee/optee_os/lib/libutee/arch/arm/user_ta_entry.c:120
    5720:	97ffee1a 	bl	f88 <TEE_Malloc>
/home/ursus/devel/optee/optee_os/lib/libutee/arch/arm/user_ta_entry.c:122
    5724:	b5000320 	cbnz	x0, 5788 <__utee_entry+0x100>
ta_header_save_params():
/home/ursus/devel/optee/optee_os/lib/libutee/arch/arm/user_ta_entry.c:76
    5728:	b0000040 	adrp	x0, e000 <__func__.3633+0x30>
/home/ursus/devel/optee/optee_os/lib/libutee/arch/arm/user_ta_entry.c:81
    572c:	d2800802 	mov	x2, #0x40                  	// #64
/home/ursus/devel/optee/optee_os/lib/libutee/arch/arm/user_ta_entry.c:76
    5730:	f9466801 	ldr	x1, [x0,#3280]
/home/ursus/devel/optee/optee_os/lib/libutee/arch/arm/user_ta_entry.c:81
    5734:	f9467400 	ldr	x0, [x0,#3304]
/home/ursus/devel/optee/optee_os/lib/libutee/arch/arm/user_ta_entry.c:76
    5738:	b900003f 	str	wzr, [x1]
/home/ursus/devel/optee/optee_os/lib/libutee/arch/arm/user_ta_entry.c:81
    573c:	52800001 	mov	w1, #0x0                   	// #0
    5740:	94000957 	bl	7c9c <memset>
__utee_entry():
/home/ursus/devel/optee/optee_os/lib/libutee/arch/arm/user_ta_entry.c:243
    5744:	2a1303e0 	mov	w0, w19
    5748:	94000060 	bl	58c8 <utee_return>
ta_header_add_session():
/home/ursus/devel/optee/optee_os/lib/libutee/arch/arm/user_ta_entry.c:107
    574c:	394012a0 	ldrb	w0, [x21,#4]
    5750:	35000140 	cbnz	w0, 5778 <__utee_entry+0xf0>
/home/ursus/devel/optee/optee_os/lib/libutee/arch/arm/user_ta_entry.c:108
    5754:	97ffec80 	bl	954 <tahead_get_trace_level>
    5758:	94000c99 	bl	89bc <trace_set_level>
/home/ursus/devel/optee/optee_os/lib/libutee/arch/arm/user_ta_entry.c:110
    575c:	b0000040 	adrp	x0, e000 <__func__.3633+0x30>
    5760:	f9464c01 	ldr	x1, [x0,#3224]
    5764:	f9466400 	ldr	x0, [x0,#3272]
    5768:	f9400021 	ldr	x1, [x1]
    576c:	94000838 	bl	784c <malloc_add_pool>
/home/ursus/devel/optee/optee_os/lib/libutee/arch/arm/user_ta_entry.c:111
    5770:	940002c4 	bl	6280 <_TEE_MathAPI_Init>
/home/ursus/devel/optee/optee_os/lib/libutee/arch/arm/user_ta_entry.c:112
    5774:	390012b3 	strb	w19, [x21,#4]
/home/ursus/devel/optee/optee_os/lib/libutee/arch/arm/user_ta_entry.c:115
    5778:	97ffea2a 	bl	20 <TA_CreateEntryPoint>
    577c:	2a0003f3 	mov	w19, w0
/home/ursus/devel/optee/optee_os/lib/libutee/arch/arm/user_ta_entry.c:116
    5780:	34fffca0 	cbz	w0, 5714 <__utee_entry+0x8c>
    5784:	17ffffe9 	b	5728 <__utee_entry+0xa0>
/home/ursus/devel/optee/optee_os/lib/libutee/arch/arm/user_ta_entry.c:126
    5788:	f0000041 	adrp	x1, 10000 <modulus>
    578c:	9105e021 	add	x1, x1, #0x178
    5790:	f9400422 	ldr	x2, [x1,#8]
    5794:	f9000c02 	str	x2, [x0,#24]
/home/ursus/devel/optee/optee_os/lib/libutee/arch/arm/user_ta_entry.c:124
    5798:	b9000014 	str	w20, [x0]
/home/ursus/devel/optee/optee_os/lib/libutee/arch/arm/user_ta_entry.c:126
    579c:	a900fc1f 	stp	xzr, xzr, [x0,#8]
    57a0:	f9000040 	str	x0, [x2]
    57a4:	91004000 	add	x0, x0, #0x10
    57a8:	f9000420 	str	x0, [x1,#8]
entry_open_session():
/home/ursus/devel/optee/optee_os/lib/libutee/arch/arm/user_ta_entry.c:163
    57ac:	2a1403e0 	mov	w0, w20
/home/ursus/devel/optee/optee_os/lib/libutee/arch/arm/user_ta_entry.c:165
    57b0:	129fff13 	mov	w19, #0xffff0007            	// #-65529
/home/ursus/devel/optee/optee_os/lib/libutee/arch/arm/user_ta_entry.c:163
    57b4:	97ffff8c 	bl	55e4 <ta_header_get_session>
    57b8:	aa0003f7 	mov	x23, x0
/home/ursus/devel/optee/optee_os/lib/libutee/arch/arm/user_ta_entry.c:164
    57bc:	b4fffb60 	cbz	x0, 5728 <__utee_entry+0xa0>
/home/ursus/devel/optee/optee_os/lib/libutee/arch/arm/user_ta_entry.c:167
    57c0:	910143b5 	add	x21, x29, #0x50
    57c4:	aa1603e2 	mov	x2, x22
    57c8:	910133a1 	add	x1, x29, #0x4c
    57cc:	aa1503e0 	mov	x0, x21
    57d0:	97ffec81 	bl	9d4 <__utee_to_param>
/home/ursus/devel/optee/optee_os/lib/libutee/arch/arm/user_ta_entry.c:168
    57d4:	b9404fb3 	ldr	w19, [x29,#76]
ta_header_save_params():
/home/ursus/devel/optee/optee_os/lib/libutee/arch/arm/user_ta_entry.c:76
    57d8:	b0000040 	adrp	x0, e000 <__func__.3633+0x30>
/home/ursus/devel/optee/optee_os/lib/libutee/arch/arm/user_ta_entry.c:79
    57dc:	d2800802 	mov	x2, #0x40                  	// #64
/home/ursus/devel/optee/optee_os/lib/libutee/arch/arm/user_ta_entry.c:76
    57e0:	f9466801 	ldr	x1, [x0,#3280]
/home/ursus/devel/optee/optee_os/lib/libutee/arch/arm/user_ta_entry.c:79
    57e4:	f9467400 	ldr	x0, [x0,#3304]
/home/ursus/devel/optee/optee_os/lib/libutee/arch/arm/user_ta_entry.c:76
    57e8:	b9000033 	str	w19, [x1]
/home/ursus/devel/optee/optee_os/lib/libutee/arch/arm/user_ta_entry.c:79
    57ec:	aa1503e1 	mov	x1, x21
    57f0:	94000910 	bl	7c30 <memcpy>
entry_open_session():
/home/ursus/devel/optee/optee_os/lib/libutee/arch/arm/user_ta_entry.c:170
    57f4:	910022e2 	add	x2, x23, #0x8
    57f8:	aa1503e1 	mov	x1, x21
    57fc:	2a1303e0 	mov	w0, w19
    5800:	97ffea1e 	bl	78 <TA_OpenSessionEntryPoint>
/home/ursus/devel/optee/optee_os/lib/libutee/arch/arm/user_ta_entry.c:173
    5804:	b9404fa1 	ldr	w1, [x29,#76]
/home/ursus/devel/optee/optee_os/lib/libutee/arch/arm/user_ta_entry.c:170
    5808:	2a0003f3 	mov	w19, w0
/home/ursus/devel/optee/optee_os/lib/libutee/arch/arm/user_ta_entry.c:173
    580c:	aa1503e2 	mov	x2, x21
    5810:	aa1603e0 	mov	x0, x22
    5814:	97ffec52 	bl	95c <__utee_from_param>
/home/ursus/devel/optee/optee_os/lib/libutee/arch/arm/user_ta_entry.c:175
    5818:	34fff893 	cbz	w19, 5728 <__utee_entry+0xa0>
/home/ursus/devel/optee/optee_os/lib/libutee/arch/arm/user_ta_entry.c:176
    581c:	2a1403e0 	mov	w0, w20
    5820:	97ffff7b 	bl	560c <ta_header_remove_session>
    5824:	17ffffc1 	b	5728 <__utee_entry+0xa0>
entry_close_session():
/home/ursus/devel/optee/optee_os/lib/libutee/arch/arm/user_ta_entry.c:182
    5828:	2a0103e0 	mov	w0, w1
/home/ursus/devel/optee/optee_os/lib/libutee/arch/arm/user_ta_entry.c:185
    582c:	129fff13 	mov	w19, #0xffff0007            	// #-65529
/home/ursus/devel/optee/optee_os/lib/libutee/arch/arm/user_ta_entry.c:182
    5830:	97ffff6d 	bl	55e4 <ta_header_get_session>
/home/ursus/devel/optee/optee_os/lib/libutee/arch/arm/user_ta_entry.c:184
    5834:	b4fff7a0 	cbz	x0, 5728 <__utee_entry+0xa0>
/home/ursus/devel/optee/optee_os/lib/libutee/arch/arm/user_ta_entry.c:187
    5838:	f9400400 	ldr	x0, [x0,#8]
/home/ursus/devel/optee/optee_os/lib/libutee/arch/arm/user_ta_entry.c:190
    583c:	52800013 	mov	w19, #0x0                   	// #0
/home/ursus/devel/optee/optee_os/lib/libutee/arch/arm/user_ta_entry.c:187
    5840:	97ffea1c 	bl	b0 <TA_CloseSessionEntryPoint>
/home/ursus/devel/optee/optee_os/lib/libutee/arch/arm/user_ta_entry.c:189
    5844:	2a1403e0 	mov	w0, w20
    5848:	97ffff71 	bl	560c <ta_header_remove_session>
    584c:	17ffffb7 	b	5728 <__utee_entry+0xa0>
entry_invoke_command():
/home/ursus/devel/optee/optee_os/lib/libutee/arch/arm/user_ta_entry.c:199
    5850:	2a0103e0 	mov	w0, w1
/home/ursus/devel/optee/optee_os/lib/libutee/arch/arm/user_ta_entry.c:202
    5854:	129fff13 	mov	w19, #0xffff0007            	// #-65529
/home/ursus/devel/optee/optee_os/lib/libutee/arch/arm/user_ta_entry.c:199
    5858:	97ffff63 	bl	55e4 <ta_header_get_session>
    585c:	aa0003f5 	mov	x21, x0
/home/ursus/devel/optee/optee_os/lib/libutee/arch/arm/user_ta_entry.c:201
    5860:	b4fff640 	cbz	x0, 5728 <__utee_entry+0xa0>
/home/ursus/devel/optee/optee_os/lib/libutee/arch/arm/user_ta_entry.c:204
    5864:	910143b4 	add	x20, x29, #0x50
    5868:	aa0303f7 	mov	x23, x3
    586c:	aa1603e2 	mov	x2, x22
    5870:	910133a1 	add	x1, x29, #0x4c
    5874:	aa1403e0 	mov	x0, x20
    5878:	97ffec57 	bl	9d4 <__utee_to_param>
ta_header_save_params():
/home/ursus/devel/optee/optee_os/lib/libutee/arch/arm/user_ta_entry.c:76
    587c:	b0000040 	adrp	x0, e000 <__func__.3633+0x30>
entry_invoke_command():
/home/ursus/devel/optee/optee_os/lib/libutee/arch/arm/user_ta_entry.c:205
    5880:	b9404fb3 	ldr	w19, [x29,#76]
ta_header_save_params():
/home/ursus/devel/optee/optee_os/lib/libutee/arch/arm/user_ta_entry.c:79
    5884:	d2800802 	mov	x2, #0x40                  	// #64
/home/ursus/devel/optee/optee_os/lib/libutee/arch/arm/user_ta_entry.c:76
    5888:	f9466801 	ldr	x1, [x0,#3280]
/home/ursus/devel/optee/optee_os/lib/libutee/arch/arm/user_ta_entry.c:79
    588c:	f9467400 	ldr	x0, [x0,#3304]
/home/ursus/devel/optee/optee_os/lib/libutee/arch/arm/user_ta_entry.c:76
    5890:	b9000033 	str	w19, [x1]
/home/ursus/devel/optee/optee_os/lib/libutee/arch/arm/user_ta_entry.c:79
    5894:	aa1403e1 	mov	x1, x20
    5898:	940008e6 	bl	7c30 <memcpy>
entry_invoke_command():
/home/ursus/devel/optee/optee_os/lib/libutee/arch/arm/user_ta_entry.c:207
    589c:	f94006a0 	ldr	x0, [x21,#8]
    58a0:	2a1303e2 	mov	w2, w19
    58a4:	2a1703e1 	mov	w1, w23
    58a8:	aa1403e3 	mov	x3, x20
    58ac:	97ffea0a 	bl	d4 <TA_InvokeCommandEntryPoint>
    58b0:	2a0003f3 	mov	w19, w0
/home/ursus/devel/optee/optee_os/lib/libutee/arch/arm/user_ta_entry.c:210
    58b4:	b9404fa1 	ldr	w1, [x29,#76]
    58b8:	aa1403e2 	mov	x2, x20
    58bc:	aa1603e0 	mov	x0, x22
    58c0:	97ffec27 	bl	95c <__utee_from_param>
    58c4:	17ffff99 	b	5728 <__utee_entry+0xa0>

00000000000058c8 <utee_return>:
utee_return():
    58c8:	d2800008 	mov	x8, #0x0                   	// #0
    58cc:	d4000001 	svc	#0x0
    58d0:	d65f03c0 	ret

00000000000058d4 <utee_log>:
utee_log():
    58d4:	d2800028 	mov	x8, #0x1                   	// #1
    58d8:	d4000001 	svc	#0x0
    58dc:	d65f03c0 	ret

00000000000058e0 <utee_panic>:
utee_panic():
    58e0:	d2800048 	mov	x8, #0x2                   	// #2
    58e4:	d4000001 	svc	#0x0
    58e8:	d65f03c0 	ret

00000000000058ec <utee_get_property>:
utee_get_property():
    58ec:	d2800068 	mov	x8, #0x3                   	// #3
    58f0:	d4000001 	svc	#0x0
    58f4:	d65f03c0 	ret

00000000000058f8 <utee_get_property_name_to_index>:
utee_get_property_name_to_index():
    58f8:	d2800088 	mov	x8, #0x4                   	// #4
    58fc:	d4000001 	svc	#0x0
    5900:	d65f03c0 	ret

0000000000005904 <utee_open_ta_session>:
utee_open_ta_session():
    5904:	d28000a8 	mov	x8, #0x5                   	// #5
    5908:	d4000001 	svc	#0x0
    590c:	d65f03c0 	ret

0000000000005910 <utee_close_ta_session>:
utee_close_ta_session():
    5910:	d28000c8 	mov	x8, #0x6                   	// #6
    5914:	d4000001 	svc	#0x0
    5918:	d65f03c0 	ret

000000000000591c <utee_invoke_ta_command>:
utee_invoke_ta_command():
    591c:	d28000e8 	mov	x8, #0x7                   	// #7
    5920:	d4000001 	svc	#0x0
    5924:	d65f03c0 	ret

0000000000005928 <utee_get_cancellation_flag>:
utee_get_cancellation_flag():
    5928:	d2800128 	mov	x8, #0x9                   	// #9
    592c:	d4000001 	svc	#0x0
    5930:	d65f03c0 	ret

0000000000005934 <utee_check_access_rights>:
utee_check_access_rights():
    5934:	d2800108 	mov	x8, #0x8                   	// #8
    5938:	d4000001 	svc	#0x0
    593c:	d65f03c0 	ret

0000000000005940 <utee_unmask_cancellation>:
utee_unmask_cancellation():
    5940:	d2800148 	mov	x8, #0xa                   	// #10
    5944:	d4000001 	svc	#0x0
    5948:	d65f03c0 	ret

000000000000594c <utee_mask_cancellation>:
utee_mask_cancellation():
    594c:	d2800168 	mov	x8, #0xb                   	// #11
    5950:	d4000001 	svc	#0x0
    5954:	d65f03c0 	ret

0000000000005958 <utee_wait>:
utee_wait():
    5958:	d2800188 	mov	x8, #0xc                   	// #12
    595c:	d4000001 	svc	#0x0
    5960:	d65f03c0 	ret

0000000000005964 <utee_get_time>:
utee_get_time():
    5964:	d28001a8 	mov	x8, #0xd                   	// #13
    5968:	d4000001 	svc	#0x0
    596c:	d65f03c0 	ret

0000000000005970 <utee_set_ta_time>:
utee_set_ta_time():
    5970:	d28001c8 	mov	x8, #0xe                   	// #14
    5974:	d4000001 	svc	#0x0
    5978:	d65f03c0 	ret

000000000000597c <utee_cryp_state_alloc>:
utee_cryp_state_alloc():
    597c:	d28001e8 	mov	x8, #0xf                   	// #15
    5980:	d4000001 	svc	#0x0
    5984:	d65f03c0 	ret

0000000000005988 <utee_cryp_state_copy>:
utee_cryp_state_copy():
    5988:	d2800208 	mov	x8, #0x10                  	// #16
    598c:	d4000001 	svc	#0x0
    5990:	d65f03c0 	ret

0000000000005994 <utee_cryp_state_free>:
utee_cryp_state_free():
    5994:	d2800228 	mov	x8, #0x11                  	// #17
    5998:	d4000001 	svc	#0x0
    599c:	d65f03c0 	ret

00000000000059a0 <utee_hash_init>:
utee_hash_init():
    59a0:	d2800248 	mov	x8, #0x12                  	// #18
    59a4:	d4000001 	svc	#0x0
    59a8:	d65f03c0 	ret

00000000000059ac <utee_hash_update>:
utee_hash_update():
    59ac:	d2800268 	mov	x8, #0x13                  	// #19
    59b0:	d4000001 	svc	#0x0
    59b4:	d65f03c0 	ret

00000000000059b8 <utee_hash_final>:
utee_hash_final():
    59b8:	d2800288 	mov	x8, #0x14                  	// #20
    59bc:	d4000001 	svc	#0x0
    59c0:	d65f03c0 	ret

00000000000059c4 <utee_cipher_init>:
utee_cipher_init():
    59c4:	d28002a8 	mov	x8, #0x15                  	// #21
    59c8:	d4000001 	svc	#0x0
    59cc:	d65f03c0 	ret

00000000000059d0 <utee_cipher_update>:
utee_cipher_update():
    59d0:	d28002c8 	mov	x8, #0x16                  	// #22
    59d4:	d4000001 	svc	#0x0
    59d8:	d65f03c0 	ret

00000000000059dc <utee_cipher_final>:
utee_cipher_final():
    59dc:	d28002e8 	mov	x8, #0x17                  	// #23
    59e0:	d4000001 	svc	#0x0
    59e4:	d65f03c0 	ret

00000000000059e8 <utee_cryp_obj_get_info>:
utee_cryp_obj_get_info():
    59e8:	d2800308 	mov	x8, #0x18                  	// #24
    59ec:	d4000001 	svc	#0x0
    59f0:	d65f03c0 	ret

00000000000059f4 <utee_cryp_obj_restrict_usage>:
utee_cryp_obj_restrict_usage():
    59f4:	d2800328 	mov	x8, #0x19                  	// #25
    59f8:	d4000001 	svc	#0x0
    59fc:	d65f03c0 	ret

0000000000005a00 <utee_cryp_obj_get_attr>:
utee_cryp_obj_get_attr():
    5a00:	d2800348 	mov	x8, #0x1a                  	// #26
    5a04:	d4000001 	svc	#0x0
    5a08:	d65f03c0 	ret

0000000000005a0c <utee_cryp_obj_alloc>:
utee_cryp_obj_alloc():
    5a0c:	d2800368 	mov	x8, #0x1b                  	// #27
    5a10:	d4000001 	svc	#0x0
    5a14:	d65f03c0 	ret

0000000000005a18 <utee_cryp_obj_close>:
utee_cryp_obj_close():
    5a18:	d2800388 	mov	x8, #0x1c                  	// #28
    5a1c:	d4000001 	svc	#0x0
    5a20:	d65f03c0 	ret

0000000000005a24 <utee_cryp_obj_reset>:
utee_cryp_obj_reset():
    5a24:	d28003a8 	mov	x8, #0x1d                  	// #29
    5a28:	d4000001 	svc	#0x0
    5a2c:	d65f03c0 	ret

0000000000005a30 <utee_cryp_obj_populate>:
utee_cryp_obj_populate():
    5a30:	d28003c8 	mov	x8, #0x1e                  	// #30
    5a34:	d4000001 	svc	#0x0
    5a38:	d65f03c0 	ret

0000000000005a3c <utee_cryp_obj_copy>:
utee_cryp_obj_copy():
    5a3c:	d28003e8 	mov	x8, #0x1f                  	// #31
    5a40:	d4000001 	svc	#0x0
    5a44:	d65f03c0 	ret

0000000000005a48 <utee_cryp_derive_key>:
utee_cryp_derive_key():
    5a48:	d2800408 	mov	x8, #0x20                  	// #32
    5a4c:	d4000001 	svc	#0x0
    5a50:	d65f03c0 	ret

0000000000005a54 <utee_cryp_random_number_generate>:
utee_cryp_random_number_generate():
    5a54:	d2800428 	mov	x8, #0x21                  	// #33
    5a58:	d4000001 	svc	#0x0
    5a5c:	d65f03c0 	ret

0000000000005a60 <utee_authenc_init>:
utee_authenc_init():
    5a60:	d2800448 	mov	x8, #0x22                  	// #34
    5a64:	d4000001 	svc	#0x0
    5a68:	d65f03c0 	ret

0000000000005a6c <utee_authenc_update_aad>:
utee_authenc_update_aad():
    5a6c:	d2800468 	mov	x8, #0x23                  	// #35
    5a70:	d4000001 	svc	#0x0
    5a74:	d65f03c0 	ret

0000000000005a78 <utee_authenc_update_payload>:
utee_authenc_update_payload():
    5a78:	d2800488 	mov	x8, #0x24                  	// #36
    5a7c:	d4000001 	svc	#0x0
    5a80:	d65f03c0 	ret

0000000000005a84 <utee_authenc_enc_final>:
utee_authenc_enc_final():
    5a84:	d28004a8 	mov	x8, #0x25                  	// #37
    5a88:	d4000001 	svc	#0x0
    5a8c:	d65f03c0 	ret

0000000000005a90 <utee_authenc_dec_final>:
utee_authenc_dec_final():
    5a90:	d28004c8 	mov	x8, #0x26                  	// #38
    5a94:	d4000001 	svc	#0x0
    5a98:	d65f03c0 	ret

0000000000005a9c <utee_asymm_operate>:
utee_asymm_operate():
    5a9c:	d28004e8 	mov	x8, #0x27                  	// #39
    5aa0:	d4000001 	svc	#0x0
    5aa4:	d65f03c0 	ret

0000000000005aa8 <utee_asymm_verify>:
utee_asymm_verify():
    5aa8:	d2800508 	mov	x8, #0x28                  	// #40
    5aac:	d4000001 	svc	#0x0
    5ab0:	d65f03c0 	ret

0000000000005ab4 <utee_storage_obj_open>:
utee_storage_obj_open():
    5ab4:	d2800528 	mov	x8, #0x29                  	// #41
    5ab8:	d4000001 	svc	#0x0
    5abc:	d65f03c0 	ret

0000000000005ac0 <utee_storage_obj_create>:
utee_storage_obj_create():
    5ac0:	d2800548 	mov	x8, #0x2a                  	// #42
    5ac4:	d4000001 	svc	#0x0
    5ac8:	d65f03c0 	ret

0000000000005acc <utee_storage_obj_del>:
utee_storage_obj_del():
    5acc:	d2800568 	mov	x8, #0x2b                  	// #43
    5ad0:	d4000001 	svc	#0x0
    5ad4:	d65f03c0 	ret

0000000000005ad8 <utee_storage_obj_rename>:
utee_storage_obj_rename():
    5ad8:	d2800588 	mov	x8, #0x2c                  	// #44
    5adc:	d4000001 	svc	#0x0
    5ae0:	d65f03c0 	ret

0000000000005ae4 <utee_storage_alloc_enum>:
utee_storage_alloc_enum():
    5ae4:	d28005a8 	mov	x8, #0x2d                  	// #45
    5ae8:	d4000001 	svc	#0x0
    5aec:	d65f03c0 	ret

0000000000005af0 <utee_storage_free_enum>:
utee_storage_free_enum():
    5af0:	d28005c8 	mov	x8, #0x2e                  	// #46
    5af4:	d4000001 	svc	#0x0
    5af8:	d65f03c0 	ret

0000000000005afc <utee_storage_reset_enum>:
utee_storage_reset_enum():
    5afc:	d28005e8 	mov	x8, #0x2f                  	// #47
    5b00:	d4000001 	svc	#0x0
    5b04:	d65f03c0 	ret

0000000000005b08 <utee_storage_start_enum>:
utee_storage_start_enum():
    5b08:	d2800608 	mov	x8, #0x30                  	// #48
    5b0c:	d4000001 	svc	#0x0
    5b10:	d65f03c0 	ret

0000000000005b14 <utee_storage_next_enum>:
utee_storage_next_enum():
    5b14:	d2800628 	mov	x8, #0x31                  	// #49
    5b18:	d4000001 	svc	#0x0
    5b1c:	d65f03c0 	ret

0000000000005b20 <utee_storage_obj_read>:
utee_storage_obj_read():
    5b20:	d2800648 	mov	x8, #0x32                  	// #50
    5b24:	d4000001 	svc	#0x0
    5b28:	d65f03c0 	ret

0000000000005b2c <utee_storage_obj_write>:
utee_storage_obj_write():
    5b2c:	d2800668 	mov	x8, #0x33                  	// #51
    5b30:	d4000001 	svc	#0x0
    5b34:	d65f03c0 	ret

0000000000005b38 <utee_storage_obj_trunc>:
utee_storage_obj_trunc():
    5b38:	d2800688 	mov	x8, #0x34                  	// #52
    5b3c:	d4000001 	svc	#0x0
    5b40:	d65f03c0 	ret

0000000000005b44 <utee_storage_obj_seek>:
utee_storage_obj_seek():
    5b44:	d28006a8 	mov	x8, #0x35                  	// #53
    5b48:	d4000001 	svc	#0x0
    5b4c:	d65f03c0 	ret

0000000000005b50 <utee_cryp_obj_generate_key>:
utee_cryp_obj_generate_key():
    5b50:	d28006c8 	mov	x8, #0x36                  	// #54
    5b54:	d4000001 	svc	#0x0
    5b58:	d65f03c0 	ret

0000000000005b5c <utee_se_service_open>:
utee_se_service_open():
    5b5c:	d28006e8 	mov	x8, #0x37                  	// #55
    5b60:	d4000001 	svc	#0x0
    5b64:	d65f03c0 	ret

0000000000005b68 <utee_se_service_close>:
utee_se_service_close():
    5b68:	d2800708 	mov	x8, #0x38                  	// #56
    5b6c:	d4000001 	svc	#0x0
    5b70:	d65f03c0 	ret

0000000000005b74 <utee_se_service_get_readers>:
utee_se_service_get_readers():
    5b74:	d2800728 	mov	x8, #0x39                  	// #57
    5b78:	d4000001 	svc	#0x0
    5b7c:	d65f03c0 	ret

0000000000005b80 <utee_se_reader_get_prop>:
utee_se_reader_get_prop():
    5b80:	d2800748 	mov	x8, #0x3a                  	// #58
    5b84:	d4000001 	svc	#0x0
    5b88:	d65f03c0 	ret

0000000000005b8c <utee_se_reader_get_name>:
utee_se_reader_get_name():
    5b8c:	d2800768 	mov	x8, #0x3b                  	// #59
    5b90:	d4000001 	svc	#0x0
    5b94:	d65f03c0 	ret

0000000000005b98 <utee_se_reader_open_session>:
utee_se_reader_open_session():
    5b98:	d2800788 	mov	x8, #0x3c                  	// #60
    5b9c:	d4000001 	svc	#0x0
    5ba0:	d65f03c0 	ret

0000000000005ba4 <utee_se_reader_close_sessions>:
utee_se_reader_close_sessions():
    5ba4:	d28007a8 	mov	x8, #0x3d                  	// #61
    5ba8:	d4000001 	svc	#0x0
    5bac:	d65f03c0 	ret

0000000000005bb0 <utee_se_session_is_closed>:
utee_se_session_is_closed():
    5bb0:	d28007c8 	mov	x8, #0x3e                  	// #62
    5bb4:	d4000001 	svc	#0x0
    5bb8:	d65f03c0 	ret

0000000000005bbc <utee_se_session_get_atr>:
utee_se_session_get_atr():
    5bbc:	d28007e8 	mov	x8, #0x3f                  	// #63
    5bc0:	d4000001 	svc	#0x0
    5bc4:	d65f03c0 	ret

0000000000005bc8 <utee_se_session_open_channel>:
utee_se_session_open_channel():
    5bc8:	d2800808 	mov	x8, #0x40                  	// #64
    5bcc:	d4000001 	svc	#0x0
    5bd0:	d65f03c0 	ret

0000000000005bd4 <utee_se_session_close>:
utee_se_session_close():
    5bd4:	d2800828 	mov	x8, #0x41                  	// #65
    5bd8:	d4000001 	svc	#0x0
    5bdc:	d65f03c0 	ret

0000000000005be0 <utee_se_channel_select_next>:
utee_se_channel_select_next():
    5be0:	d2800848 	mov	x8, #0x42                  	// #66
    5be4:	d4000001 	svc	#0x0
    5be8:	d65f03c0 	ret

0000000000005bec <utee_se_channel_get_select_resp>:
utee_se_channel_get_select_resp():
    5bec:	d2800868 	mov	x8, #0x43                  	// #67
    5bf0:	d4000001 	svc	#0x0
    5bf4:	d65f03c0 	ret

0000000000005bf8 <utee_se_channel_transmit>:
utee_se_channel_transmit():
    5bf8:	d2800888 	mov	x8, #0x44                  	// #68
    5bfc:	d4000001 	svc	#0x0
    5c00:	d65f03c0 	ret

0000000000005c04 <utee_se_channel_close>:
utee_se_channel_close():
    5c04:	d28008a8 	mov	x8, #0x45                  	// #69
    5c08:	d4000001 	svc	#0x0
    5c0c:	d65f03c0 	ret

0000000000005c10 <utee_cache_operation>:
utee_cache_operation():
    5c10:	d28008c8 	mov	x8, #0x46                  	// #70
    5c14:	d4000001 	svc	#0x0
    5c18:	d65f03c0 	ret

0000000000005c1c <__utee_mcount>:
__utee_mcount():
    5c1c:	d65f03c0 	ret

0000000000005c20 <print_buf>:
print_buf():
/home/ursus/devel/optee/optee_os/lib/libutee/tee_user_mem.c:165
    5c20:	d100c3ff 	sub	sp, sp, #0x30
/home/ursus/devel/optee/optee_os/lib/libutee/tee_user_mem.c:166
    5c24:	aa0303e7 	mov	x7, x3
    5c28:	2a0203e6 	mov	w6, w2
    5c2c:	52800023 	mov	w3, #0x1                   	// #1
    5c30:	2a0003e2 	mov	w2, w0
    5c34:	d2800000 	mov	x0, #0x0                   	// #0
/home/ursus/devel/optee/optee_os/lib/libutee/tee_user_mem.c:165
    5c38:	a9027bfd 	stp	x29, x30, [sp,#32]
    5c3c:	910083fd 	add	x29, sp, #0x20
buf_size():
/home/ursus/devel/optee/optee_os/lib/libutee/tee_user_mem.c:136
    5c40:	f9400885 	ldr	x5, [x4,#16]
print_buf():
/home/ursus/devel/optee/optee_os/lib/libutee/tee_user_mem.c:166
    5c44:	f90003e4 	str	x4, [sp]
buf_size():
/home/ursus/devel/optee/optee_os/lib/libutee/tee_user_mem.c:136
    5c48:	d10084a5 	sub	x5, x5, #0x21
print_buf():
/home/ursus/devel/optee/optee_os/lib/libutee/tee_user_mem.c:166
    5c4c:	f9000be5 	str	x5, [sp,#16]
buf_addr():
/home/ursus/devel/optee/optee_os/lib/libutee/tee_user_mem.c:131
    5c50:	91008085 	add	x5, x4, #0x20
print_buf():
/home/ursus/devel/optee/optee_os/lib/libutee/tee_user_mem.c:166
    5c54:	f90007e5 	str	x5, [sp,#8]
    5c58:	b0000044 	adrp	x4, e000 <__func__.3633+0x30>
    5c5c:	aa0103e5 	mov	x5, x1
    5c60:	91115484 	add	x4, x4, #0x455
    5c64:	52800001 	mov	w1, #0x0                   	// #0
    5c68:	94000b62 	bl	89f0 <trace_printf>
/home/ursus/devel/optee/optee_os/lib/libutee/tee_user_mem.c:169
    5c6c:	a9427bfd 	ldp	x29, x30, [sp,#32]
    5c70:	9100c3ff 	add	sp, sp, #0x30
    5c74:	d65f03c0 	ret

0000000000005c78 <check_elem>:
check_elem():
/home/ursus/devel/optee/optee_os/lib/libutee/tee_user_mem.c:240
    5c78:	b4000900 	cbz	x0, 5d98 <check_elem+0x120>
/home/ursus/devel/optee/optee_os/lib/libutee/tee_user_mem.c:236
    5c7c:	a9be7bfd 	stp	x29, x30, [sp,#-32]!
/home/ursus/devel/optee/optee_os/lib/libutee/tee_user_mem.c:243
    5c80:	f240041f 	tst	x0, #0x3
/home/ursus/devel/optee/optee_os/lib/libutee/tee_user_mem.c:236
    5c84:	910003fd 	mov	x29, sp
    5c88:	a90153f3 	stp	x19, x20, [sp,#16]
    5c8c:	aa0003f3 	mov	x19, x0
/home/ursus/devel/optee/optee_os/lib/libutee/tee_user_mem.c:243
    5c90:	54000280 	b.eq	5ce0 <check_elem+0x68>
/home/ursus/devel/optee/optee_os/lib/libutee/tee_user_mem.c:244
    5c94:	90000054 	adrp	x20, d000 <__func__.4585>
    5c98:	9101e294 	add	x20, x20, #0x78
    5c9c:	52800023 	mov	w3, #0x1                   	// #1
    5ca0:	52800022 	mov	w2, #0x1                   	// #1
    5ca4:	52801e81 	mov	w1, #0xf4                  	// #244
    5ca8:	aa1403e0 	mov	x0, x20
    5cac:	b0000044 	adrp	x4, e000 <__func__.3633+0x30>
    5cb0:	9111dc84 	add	x4, x4, #0x477
    5cb4:	94000b4f 	bl	89f0 <trace_printf>
/home/ursus/devel/optee/optee_os/lib/libutee/tee_user_mem.c:245
    5cb8:	b0000044 	adrp	x4, e000 <__func__.3633+0x30>
    5cbc:	91112884 	add	x4, x4, #0x44a
    5cc0:	52800005 	mov	w5, #0x0                   	// #0
    5cc4:	52800023 	mov	w3, #0x1                   	// #1
    5cc8:	52800022 	mov	w2, #0x1                   	// #1
    5ccc:	52801ea1 	mov	w1, #0xf5                  	// #245
    5cd0:	aa1403e0 	mov	x0, x20
    5cd4:	94000b47 	bl	89f0 <trace_printf>
    5cd8:	52800000 	mov	w0, #0x0                   	// #0
    5cdc:	97fffe3a 	bl	55c4 <__TEE_Panic>
/home/ursus/devel/optee/optee_os/lib/libutee/tee_user_mem.c:248
    5ce0:	f9400264 	ldr	x4, [x19]
/home/ursus/devel/optee/optee_os/lib/libutee/tee_user_mem.c:249
    5ce4:	b4000224 	cbz	x4, 5d28 <check_elem+0xb0>
/home/ursus/devel/optee/optee_os/lib/libutee/tee_user_mem.c:249 (discriminator 1)
    5ce8:	f9400480 	ldr	x0, [x4,#8]
    5cec:	f9400400 	ldr	x0, [x0,#8]
    5cf0:	f9400000 	ldr	x0, [x0]
    5cf4:	eb00027f 	cmp	x19, x0
    5cf8:	54000180 	b.eq	5d28 <check_elem+0xb0>
/home/ursus/devel/optee/optee_os/lib/libutee/tee_user_mem.c:250
    5cfc:	b0000043 	adrp	x3, e000 <__func__.3633+0x30>
    5d00:	91123463 	add	x3, x3, #0x48d
    5d04:	52801f42 	mov	w2, #0xfa                  	// #250
/home/ursus/devel/optee/optee_os/lib/libutee/tee_user_mem.c:256
    5d08:	90000041 	adrp	x1, d000 <__func__.4585>
    5d0c:	9101e021 	add	x1, x1, #0x78
    5d10:	52800020 	mov	w0, #0x1                   	// #1
check_elem_end():
/home/ursus/devel/optee/optee_os/lib/libutee/tee_user_mem.c:228
    5d14:	97ffffc3 	bl	5c20 <print_buf>
/home/ursus/devel/optee/optee_os/lib/libutee/tee_user_mem.c:229
    5d18:	52800000 	mov	w0, #0x0                   	// #0
check_elem():
/home/ursus/devel/optee/optee_os/lib/libutee/tee_user_mem.c:261
    5d1c:	a94153f3 	ldp	x19, x20, [sp,#16]
    5d20:	a8c27bfd 	ldp	x29, x30, [sp],#32
    5d24:	d65f03c0 	ret
/home/ursus/devel/optee/optee_os/lib/libutee/tee_user_mem.c:254
    5d28:	f9400660 	ldr	x0, [x19,#8]
    5d2c:	f9400400 	ldr	x0, [x0,#8]
    5d30:	f9400004 	ldr	x4, [x0]
/home/ursus/devel/optee/optee_os/lib/libutee/tee_user_mem.c:255
    5d34:	b4000104 	cbz	x4, 5d54 <check_elem+0xdc>
    5d38:	f9400080 	ldr	x0, [x4]
    5d3c:	eb00027f 	cmp	x19, x0
    5d40:	540000a0 	b.eq	5d54 <check_elem+0xdc>
/home/ursus/devel/optee/optee_os/lib/libutee/tee_user_mem.c:256
    5d44:	b0000043 	adrp	x3, e000 <__func__.3633+0x30>
    5d48:	52802002 	mov	w2, #0x100                 	// #256
    5d4c:	91123463 	add	x3, x3, #0x48d
    5d50:	17ffffee 	b	5d08 <check_elem+0x90>
check_elem_end():
/home/ursus/devel/optee/optee_os/lib/libutee/tee_user_mem.c:226
    5d54:	f9400a60 	ldr	x0, [x19,#16]
/home/ursus/devel/optee/optee_os/lib/libutee/tee_user_mem.c:227
    5d58:	92401e61 	and	x1, x19, #0xff
/home/ursus/devel/optee/optee_os/lib/libutee/tee_user_mem.c:226
    5d5c:	8b000260 	add	x0, x19, x0
    5d60:	385ff002 	ldurb	w2, [x0,#-1]
/home/ursus/devel/optee/optee_os/lib/libutee/tee_user_mem.c:227
    5d64:	d28018a0 	mov	x0, #0xc5                  	// #197
    5d68:	ca000021 	eor	x1, x1, x0
/home/ursus/devel/optee/optee_os/lib/libutee/tee_user_mem.c:232
    5d6c:	52800020 	mov	w0, #0x1                   	// #1
/home/ursus/devel/optee/optee_os/lib/libutee/tee_user_mem.c:226
    5d70:	eb01005f 	cmp	x2, x1
    5d74:	54fffd40 	b.eq	5d1c <check_elem+0xa4>
/home/ursus/devel/optee/optee_os/lib/libutee/tee_user_mem.c:228
    5d78:	90000041 	adrp	x1, d000 <__func__.4585>
    5d7c:	9101e021 	add	x1, x1, #0x78
    5d80:	b0000043 	adrp	x3, e000 <__func__.3633+0x30>
    5d84:	aa1303e4 	mov	x4, x19
    5d88:	91126063 	add	x3, x3, #0x498
    5d8c:	52801c82 	mov	w2, #0xe4                  	// #228
    5d90:	91004021 	add	x1, x1, #0x10
    5d94:	17ffffe0 	b	5d14 <check_elem+0x9c>
check_elem():
/home/ursus/devel/optee/optee_os/lib/libutee/tee_user_mem.c:241
    5d98:	52800000 	mov	w0, #0x0                   	// #0
    5d9c:	d65f03c0 	ret

0000000000005da0 <tee_user_mem_alloc>:
tee_user_mem_alloc():
/home/ursus/devel/optee/optee_os/lib/libutee/tee_user_mem.c:297
    5da0:	a9bd7bfd 	stp	x29, x30, [sp,#-48]!
    5da4:	910003fd 	mov	x29, sp
    5da8:	a90153f3 	stp	x19, x20, [sp,#16]
    5dac:	a9025bf5 	stp	x21, x22, [sp,#32]
/home/ursus/devel/optee/optee_os/lib/libutee/tee_user_mem.c:306
    5db0:	36f800e0 	tbz	w0, #31, 5dcc <tee_user_mem_alloc+0x2c>
/home/ursus/devel/optee/optee_os/lib/libutee/tee_user_mem.c:324
    5db4:	d2800013 	mov	x19, #0x0                   	// #0
/home/ursus/devel/optee/optee_os/lib/libutee/tee_user_mem.c:358
    5db8:	aa1303e0 	mov	x0, x19
    5dbc:	a94153f3 	ldp	x19, x20, [sp,#16]
    5dc0:	a9425bf5 	ldp	x21, x22, [sp,#32]
    5dc4:	a8c37bfd 	ldp	x29, x30, [sp],#48
    5dc8:	d65f03c0 	ret
/home/ursus/devel/optee/optee_os/lib/libutee/tee_user_mem.c:313
    5dcc:	d2800213 	mov	x19, #0x10                  	// #16
/home/ursus/devel/optee/optee_os/lib/libutee/tee_user_mem.c:311
    5dd0:	b4ffff40 	cbz	x0, 5db8 <tee_user_mem_alloc+0x18>
    5dd4:	2a0103f6 	mov	w22, w1
    5dd8:	aa0003f4 	mov	x20, x0
/home/ursus/devel/optee/optee_os/lib/libutee/tee_user_mem.c:317
    5ddc:	340001e1 	cbz	w1, 5e18 <tee_user_mem_alloc+0x78>
    5de0:	52b00000 	mov	w0, #0x80000000            	// #-2147483648
    5de4:	6b00003f 	cmp	w1, w0
    5de8:	54000180 	b.eq	5e18 <tee_user_mem_alloc+0x78>
/home/ursus/devel/optee/optee_os/lib/libutee/tee_user_mem.c:322
    5dec:	90000040 	adrp	x0, d000 <__func__.4585>
    5df0:	9101e000 	add	x0, x0, #0x78
    5df4:	2a0103e5 	mov	w5, w1
    5df8:	b0000044 	adrp	x4, e000 <__func__.3633+0x30>
    5dfc:	52800023 	mov	w3, #0x1                   	// #1
    5e00:	91129084 	add	x4, x4, #0x4a4
    5e04:	52800022 	mov	w2, #0x1                   	// #1
    5e08:	52802841 	mov	w1, #0x142                 	// #322
    5e0c:	91008000 	add	x0, x0, #0x20
    5e10:	94000af8 	bl	89f0 <trace_printf>
    5e14:	17ffffe8 	b	5db4 <tee_user_mem_alloc+0x14>
/home/ursus/devel/optee/optee_os/lib/libutee/tee_user_mem.c:300
    5e18:	91008695 	add	x21, x20, #0x21
/home/ursus/devel/optee/optee_os/lib/libutee/tee_user_mem.c:327
    5e1c:	aa1503e0 	mov	x0, x21
    5e20:	940002d3 	bl	696c <utee_malloc>
    5e24:	aa0003f3 	mov	x19, x0
/home/ursus/devel/optee/optee_os/lib/libutee/tee_user_mem.c:328
    5e28:	b4fffc60 	cbz	x0, 5db4 <tee_user_mem_alloc+0x14>
heap_inc():
/home/ursus/devel/optee/optee_os/lib/libutee/tee_user_mem.c:197
    5e2c:	f0000082 	adrp	x2, 18000 <ta_heap+0x7e40>
    5e30:	91084040 	add	x0, x2, #0x210
/home/ursus/devel/optee/optee_os/lib/libutee/tee_user_mem.c:199
    5e34:	91002001 	add	x1, x0, #0x8
tee_user_mem_alloc():
/home/ursus/devel/optee/optee_os/lib/libutee/tee_user_mem.c:330
    5e38:	f9000a75 	str	x21, [x19,#16]
heap_inc():
/home/ursus/devel/optee/optee_os/lib/libutee/tee_user_mem.c:197
    5e3c:	f9410843 	ldr	x3, [x2,#528]
tee_user_mem_alloc():
/home/ursus/devel/optee/optee_os/lib/libutee/tee_user_mem.c:343
    5e40:	aa1303e4 	mov	x4, x19
/home/ursus/devel/optee/optee_os/lib/libutee/tee_user_mem.c:331
    5e44:	b9001a76 	str	w22, [x19,#24]
heap_inc():
/home/ursus/devel/optee/optee_os/lib/libutee/tee_user_mem.c:197
    5e48:	8b150063 	add	x3, x3, x21
    5e4c:	f9010843 	str	x3, [x2,#528]
/home/ursus/devel/optee/optee_os/lib/libutee/tee_user_mem.c:199
    5e50:	b9400802 	ldr	w2, [x0,#8]
tee_user_mem_alloc():
/home/ursus/devel/optee/optee_os/lib/libutee/tee_user_mem.c:343
    5e54:	b0000043 	adrp	x3, e000 <__func__.3633+0x30>
    5e58:	9112f863 	add	x3, x3, #0x4be
heap_inc():
/home/ursus/devel/optee/optee_os/lib/libutee/tee_user_mem.c:199
    5e5c:	11000442 	add	w2, w2, #0x1
    5e60:	b9000802 	str	w2, [x0,#8]
/home/ursus/devel/optee/optee_os/lib/libutee/tee_user_mem.c:200
    5e64:	f9400800 	ldr	x0, [x0,#16]
tee_user_mem_alloc():
/home/ursus/devel/optee/optee_os/lib/libutee/tee_user_mem.c:343
    5e68:	52802ae2 	mov	w2, #0x157                 	// #343
heap_inc():
/home/ursus/devel/optee/optee_os/lib/libutee/tee_user_mem.c:200
    5e6c:	8b150015 	add	x21, x0, x21
tee_user_mem_alloc():
/home/ursus/devel/optee/optee_os/lib/libutee/tee_user_mem.c:335
    5e70:	f0000040 	adrp	x0, 10000 <modulus>
    5e74:	91062000 	add	x0, x0, #0x188
heap_inc():
/home/ursus/devel/optee/optee_os/lib/libutee/tee_user_mem.c:200
    5e78:	f9000435 	str	x21, [x1,#8]
tee_user_mem_alloc():
/home/ursus/devel/optee/optee_os/lib/libutee/tee_user_mem.c:335
    5e7c:	f9400401 	ldr	x1, [x0,#8]
    5e80:	a900067f 	stp	xzr, x1, [x19]
    5e84:	f9000033 	str	x19, [x1]
/home/ursus/devel/optee/optee_os/lib/libutee/tee_user_mem.c:339
    5e88:	8b140261 	add	x1, x19, x20
/home/ursus/devel/optee/optee_os/lib/libutee/tee_user_mem.c:335
    5e8c:	f9000413 	str	x19, [x0,#8]
/home/ursus/devel/optee/optee_os/lib/libutee/tee_user_mem.c:340
    5e90:	12800740 	mov	w0, #0xffffffc5            	// #-59
    5e94:	4a130000 	eor	w0, w0, w19
buf_addr():
/home/ursus/devel/optee/optee_os/lib/libutee/tee_user_mem.c:131
    5e98:	91008273 	add	x19, x19, #0x20
tee_user_mem_alloc():
/home/ursus/devel/optee/optee_os/lib/libutee/tee_user_mem.c:339
    5e9c:	39008020 	strb	w0, [x1,#32]
/home/ursus/devel/optee/optee_os/lib/libutee/tee_user_mem.c:343
    5ea0:	90000040 	adrp	x0, d000 <__func__.4585>
    5ea4:	9101e000 	add	x0, x0, #0x78
    5ea8:	91008001 	add	x1, x0, #0x20
    5eac:	52800080 	mov	w0, #0x4                   	// #4
    5eb0:	97ffff5c 	bl	5c20 <print_buf>
/home/ursus/devel/optee/optee_os/lib/libutee/tee_user_mem.c:347
    5eb4:	350000d6 	cbnz	w22, 5ecc <tee_user_mem_alloc+0x12c>
/home/ursus/devel/optee/optee_os/lib/libutee/tee_user_mem.c:348
    5eb8:	aa1403e2 	mov	x2, x20
    5ebc:	52800001 	mov	w1, #0x0                   	// #0
    5ec0:	aa1303e0 	mov	x0, x19
    5ec4:	94000776 	bl	7c9c <memset>
    5ec8:	17ffffbc 	b	5db8 <tee_user_mem_alloc+0x18>
/home/ursus/devel/optee/optee_os/lib/libutee/tee_user_mem.c:350
    5ecc:	52b00000 	mov	w0, #0x80000000            	// #-2147483648
    5ed0:	6b0002df 	cmp	w22, w0
    5ed4:	54fff721 	b.ne	5db8 <tee_user_mem_alloc+0x18>
/home/ursus/devel/optee/optee_os/lib/libutee/tee_user_mem.c:352
    5ed8:	aa1403e2 	mov	x2, x20
    5edc:	52801761 	mov	w1, #0xbb                  	// #187
    5ee0:	aa1303e0 	mov	x0, x19
    5ee4:	9400076e 	bl	7c9c <memset>
    5ee8:	17ffffb4 	b	5db8 <tee_user_mem_alloc+0x18>

0000000000005eec <tee_user_mem_free>:
tee_user_mem_free():
/home/ursus/devel/optee/optee_os/lib/libutee/tee_user_mem.c:430
    5eec:	f100001f 	cmp	x0, #0x0
    5ef0:	fa501804 	ccmp	x0, #0x10, #0x4, ne
    5ef4:	54000ac0 	b.eq	604c <tee_user_mem_free+0x160>
/home/ursus/devel/optee/optee_os/lib/libutee/tee_user_mem.c:423
    5ef8:	a9bd7bfd 	stp	x29, x30, [sp,#-48]!
is_buffer_valid():
/home/ursus/devel/optee/optee_os/lib/libutee/tee_user_mem.c:151
    5efc:	f0000041 	adrp	x1, 10000 <modulus>
tee_user_mem_free():
/home/ursus/devel/optee/optee_os/lib/libutee/tee_user_mem.c:423
    5f00:	910003fd 	mov	x29, sp
    5f04:	a90153f3 	stp	x19, x20, [sp,#16]
is_buffer_valid():
/home/ursus/devel/optee/optee_os/lib/libutee/tee_user_mem.c:151
    5f08:	f940c434 	ldr	x20, [x1,#392]
tee_user_mem_free():
/home/ursus/devel/optee/optee_os/lib/libutee/tee_user_mem.c:423
    5f0c:	a9025bf5 	stp	x21, x22, [sp,#32]
    5f10:	aa0103f6 	mov	x22, x1
is_buffer_valid():
/home/ursus/devel/optee/optee_os/lib/libutee/tee_user_mem.c:151
    5f14:	b50001d4 	cbnz	x20, 5f4c <tee_user_mem_free+0x60>
tee_user_mem_free():
/home/ursus/devel/optee/optee_os/lib/libutee/tee_user_mem.c:468
    5f18:	a94153f3 	ldp	x19, x20, [sp,#16]
/home/ursus/devel/optee/optee_os/lib/libutee/tee_user_mem.c:435
    5f1c:	aa0003e5 	mov	x5, x0
/home/ursus/devel/optee/optee_os/lib/libutee/tee_user_mem.c:468
    5f20:	a9425bf5 	ldp	x21, x22, [sp,#32]
/home/ursus/devel/optee/optee_os/lib/libutee/tee_user_mem.c:435
    5f24:	90000040 	adrp	x0, d000 <__func__.4585>
/home/ursus/devel/optee/optee_os/lib/libutee/tee_user_mem.c:468
    5f28:	a8c37bfd 	ldp	x29, x30, [sp],#48
/home/ursus/devel/optee/optee_os/lib/libutee/tee_user_mem.c:435
    5f2c:	9101e000 	add	x0, x0, #0x78
    5f30:	b0000044 	adrp	x4, e000 <__func__.3633+0x30>
    5f34:	52800023 	mov	w3, #0x1                   	// #1
    5f38:	91137884 	add	x4, x4, #0x4de
    5f3c:	52800022 	mov	w2, #0x1                   	// #1
    5f40:	52803661 	mov	w1, #0x1b3                 	// #435
    5f44:	9100e000 	add	x0, x0, #0x38
    5f48:	14000aaa 	b	89f0 <trace_printf>
buf_addr():
/home/ursus/devel/optee/optee_os/lib/libutee/tee_user_mem.c:131
    5f4c:	91008281 	add	x1, x20, #0x20
is_buffer_valid():
/home/ursus/devel/optee/optee_os/lib/libutee/tee_user_mem.c:152
    5f50:	eb01001f 	cmp	x0, x1
    5f54:	540000c0 	b.eq	5f6c <tee_user_mem_free+0x80>
/home/ursus/devel/optee/optee_os/lib/libutee/tee_user_mem.c:151
    5f58:	f9400294 	ldr	x20, [x20]
    5f5c:	17ffffee 	b	5f14 <tee_user_mem_free+0x28>
tee_user_mem_free():
/home/ursus/devel/optee/optee_os/lib/libutee/tee_user_mem.c:451
    5f60:	910622d6 	add	x22, x22, #0x188
    5f64:	f90006c1 	str	x1, [x22,#8]
    5f68:	14000023 	b	5ff4 <tee_user_mem_free+0x108>
/home/ursus/devel/optee/optee_os/lib/libutee/tee_user_mem.c:442
    5f6c:	90000055 	adrp	x21, d000 <__func__.4585>
    5f70:	9101e2b5 	add	x21, x21, #0x78
    5f74:	9100e2b5 	add	x21, x21, #0x38
    5f78:	aa1403e4 	mov	x4, x20
    5f7c:	b0000043 	adrp	x3, e000 <__func__.3633+0x30>
    5f80:	aa1503e1 	mov	x1, x21
    5f84:	9113e063 	add	x3, x3, #0x4f8
    5f88:	52803742 	mov	w2, #0x1ba                 	// #442
    5f8c:	aa0003f3 	mov	x19, x0
    5f90:	52800080 	mov	w0, #0x4                   	// #4
    5f94:	97ffff23 	bl	5c20 <print_buf>
/home/ursus/devel/optee/optee_os/lib/libutee/tee_user_mem.c:445
    5f98:	aa1403e0 	mov	x0, x20
    5f9c:	97ffff37 	bl	5c78 <check_elem>
    5fa0:	35000240 	cbnz	w0, 5fe8 <tee_user_mem_free+0xfc>
/home/ursus/devel/optee/optee_os/lib/libutee/tee_user_mem.c:446
    5fa4:	52800023 	mov	w3, #0x1                   	// #1
    5fa8:	52800022 	mov	w2, #0x1                   	// #1
    5fac:	528037c1 	mov	w1, #0x1be                 	// #446
    5fb0:	aa1503e0 	mov	x0, x21
    5fb4:	b0000044 	adrp	x4, e000 <__func__.3633+0x30>
    5fb8:	91132484 	add	x4, x4, #0x4c9
    5fbc:	94000a8d 	bl	89f0 <trace_printf>
/home/ursus/devel/optee/optee_os/lib/libutee/tee_user_mem.c:447
    5fc0:	b0000044 	adrp	x4, e000 <__func__.3633+0x30>
    5fc4:	91112884 	add	x4, x4, #0x44a
    5fc8:	52800005 	mov	w5, #0x0                   	// #0
    5fcc:	52800023 	mov	w3, #0x1                   	// #1
    5fd0:	52800022 	mov	w2, #0x1                   	// #1
    5fd4:	528037e1 	mov	w1, #0x1bf                 	// #447
    5fd8:	aa1503e0 	mov	x0, x21
    5fdc:	94000a85 	bl	89f0 <trace_printf>
    5fe0:	52800000 	mov	w0, #0x0                   	// #0
    5fe4:	97fffd78 	bl	55c4 <__TEE_Panic>
    5fe8:	a97e0660 	ldp	x0, x1, [x19,#-32]
/home/ursus/devel/optee/optee_os/lib/libutee/tee_user_mem.c:451
    5fec:	b4fffba0 	cbz	x0, 5f60 <tee_user_mem_free+0x74>
    5ff0:	f9000401 	str	x1, [x0,#8]
/home/ursus/devel/optee/optee_os/lib/libutee/tee_user_mem.c:453
    5ff4:	a97e8a61 	ldp	x1, x2, [x19,#-24]
/home/ursus/devel/optee/optee_os/lib/libutee/tee_user_mem.c:451
    5ff8:	f9000020 	str	x0, [x1]
heap_dec():
/home/ursus/devel/optee/optee_os/lib/libutee/tee_user_mem.c:207
    5ffc:	f0000081 	adrp	x1, 18000 <ta_heap+0x7e40>
    6000:	91084020 	add	x0, x1, #0x210
    6004:	f9410823 	ldr	x3, [x1,#528]
    6008:	cb020063 	sub	x3, x3, x2
    600c:	f9010823 	str	x3, [x1,#528]
/home/ursus/devel/optee/optee_os/lib/libutee/tee_user_mem.c:209
    6010:	b9400801 	ldr	w1, [x0,#8]
    6014:	91002003 	add	x3, x0, #0x8
    6018:	51000421 	sub	w1, w1, #0x1
    601c:	b9000801 	str	w1, [x0,#8]
/home/ursus/devel/optee/optee_os/lib/libutee/tee_user_mem.c:210
    6020:	f9400800 	ldr	x0, [x0,#16]
tee_user_mem_free():
/home/ursus/devel/optee/optee_os/lib/libutee/tee_user_mem.c:462
    6024:	52801541 	mov	w1, #0xaa                  	// #170
heap_dec():
/home/ursus/devel/optee/optee_os/lib/libutee/tee_user_mem.c:210
    6028:	cb020000 	sub	x0, x0, x2
    602c:	f9000460 	str	x0, [x3,#8]
tee_user_mem_free():
/home/ursus/devel/optee/optee_os/lib/libutee/tee_user_mem.c:462
    6030:	aa1403e0 	mov	x0, x20
    6034:	9400071a 	bl	7c9c <memset>
/home/ursus/devel/optee/optee_os/lib/libutee/tee_user_mem.c:465
    6038:	aa1403e0 	mov	x0, x20
/home/ursus/devel/optee/optee_os/lib/libutee/tee_user_mem.c:468
    603c:	a9425bf5 	ldp	x21, x22, [sp,#32]
    6040:	a94153f3 	ldp	x19, x20, [sp,#16]
    6044:	a8c37bfd 	ldp	x29, x30, [sp],#48
/home/ursus/devel/optee/optee_os/lib/libutee/tee_user_mem.c:465
    6048:	1400024f 	b	6984 <utee_free>
    604c:	d65f03c0 	ret

0000000000006050 <tee_user_mem_realloc>:
tee_user_mem_realloc():
/home/ursus/devel/optee/optee_os/lib/libutee/tee_user_mem.c:367
    6050:	a9bd7bfd 	stp	x29, x30, [sp,#-48]!
    6054:	910003fd 	mov	x29, sp
    6058:	a90153f3 	stp	x19, x20, [sp,#16]
    605c:	a9025bf5 	stp	x21, x22, [sp,#32]
/home/ursus/devel/optee/optee_os/lib/libutee/tee_user_mem.c:374
    6060:	37f80261 	tbnz	w1, #31, 60ac <tee_user_mem_realloc+0x5c>
/home/ursus/devel/optee/optee_os/lib/libutee/tee_user_mem.c:384 (discriminator 1)
    6064:	f100001f 	cmp	x0, #0x0
    6068:	aa0103f4 	mov	x20, x1
    606c:	fa501804 	ccmp	x0, #0x10, #0x4, ne
    6070:	54000080 	b.eq	6080 <tee_user_mem_realloc+0x30>
is_buffer_valid():
/home/ursus/devel/optee/optee_os/lib/libutee/tee_user_mem.c:151
    6074:	d0000041 	adrp	x1, 10000 <modulus>
    6078:	f940c421 	ldr	x1, [x1,#392]
    607c:	b50000e1 	cbnz	x1, 6098 <tee_user_mem_realloc+0x48>
tee_user_mem_realloc():
/home/ursus/devel/optee/optee_os/lib/libutee/tee_user_mem.c:385
    6080:	aa1403e0 	mov	x0, x20
    6084:	52800001 	mov	w1, #0x0                   	// #0
/home/ursus/devel/optee/optee_os/lib/libutee/tee_user_mem.c:416
    6088:	a94153f3 	ldp	x19, x20, [sp,#16]
    608c:	a9425bf5 	ldp	x21, x22, [sp,#32]
    6090:	a8c37bfd 	ldp	x29, x30, [sp],#48
/home/ursus/devel/optee/optee_os/lib/libutee/tee_user_mem.c:385
    6094:	17ffff43 	b	5da0 <tee_user_mem_alloc>
buf_addr():
/home/ursus/devel/optee/optee_os/lib/libutee/tee_user_mem.c:131
    6098:	91008023 	add	x3, x1, #0x20
is_buffer_valid():
/home/ursus/devel/optee/optee_os/lib/libutee/tee_user_mem.c:152
    609c:	eb03001f 	cmp	x0, x3
    60a0:	540000a0 	b.eq	60b4 <tee_user_mem_realloc+0x64>
/home/ursus/devel/optee/optee_os/lib/libutee/tee_user_mem.c:151
    60a4:	f9400021 	ldr	x1, [x1]
    60a8:	17fffff5 	b	607c <tee_user_mem_realloc+0x2c>
tee_user_mem_realloc():
/home/ursus/devel/optee/optee_os/lib/libutee/tee_user_mem.c:376
    60ac:	d2800016 	mov	x22, #0x0                   	// #0
    60b0:	14000012 	b	60f8 <tee_user_mem_realloc+0xa8>
buf_size():
/home/ursus/devel/optee/optee_os/lib/libutee/tee_user_mem.c:136
    60b4:	f85f0015 	ldur	x21, [x0,#-16]
tee_user_mem_realloc():
    60b8:	aa0003f6 	mov	x22, x0
buf_size():
    60bc:	d10086b5 	sub	x21, x21, #0x21
tee_user_mem_realloc():
/home/ursus/devel/optee/optee_os/lib/libutee/tee_user_mem.c:396
    60c0:	eb15029f 	cmp	x20, x21
    60c4:	540001a0 	b.eq	60f8 <tee_user_mem_realloc+0xa8>
/home/ursus/devel/optee/optee_os/lib/libutee/tee_user_mem.c:406
    60c8:	b9401821 	ldr	w1, [x1,#24]
    60cc:	aa0003f3 	mov	x19, x0
    60d0:	aa1403e0 	mov	x0, x20
    60d4:	97ffff33 	bl	5da0 <tee_user_mem_alloc>
    60d8:	aa0003f6 	mov	x22, x0
/home/ursus/devel/optee/optee_os/lib/libutee/tee_user_mem.c:407
    60dc:	b40000e0 	cbz	x0, 60f8 <tee_user_mem_realloc+0xa8>
/home/ursus/devel/optee/optee_os/lib/libutee/tee_user_mem.c:408
    60e0:	eb15029f 	cmp	x20, x21
    60e4:	aa1303e1 	mov	x1, x19
    60e8:	9a959282 	csel	x2, x20, x21, ls
    60ec:	940006d1 	bl	7c30 <memcpy>
/home/ursus/devel/optee/optee_os/lib/libutee/tee_user_mem.c:411
    60f0:	aa1303e0 	mov	x0, x19
    60f4:	97ffff7e 	bl	5eec <tee_user_mem_free>
/home/ursus/devel/optee/optee_os/lib/libutee/tee_user_mem.c:416
    60f8:	aa1603e0 	mov	x0, x22
    60fc:	a94153f3 	ldp	x19, x20, [sp,#16]
    6100:	a9425bf5 	ldp	x21, x22, [sp,#32]
    6104:	a8c37bfd 	ldp	x29, x30, [sp],#48
    6108:	d65f03c0 	ret

000000000000610c <tee_user_mem_mark_heap>:
tee_user_mem_mark_heap():
/home/ursus/devel/optee/optee_os/lib/libutee/tee_user_mem.c:478
    610c:	d0000080 	adrp	x0, 18000 <ta_heap+0x7e40>
    6110:	f901081f 	str	xzr, [x0,#528]
    6114:	d65f03c0 	ret

0000000000006118 <tee_user_mem_check_heap>:
tee_user_mem_check_heap():
/home/ursus/devel/optee/optee_os/lib/libutee/tee_user_mem.c:488
    6118:	a9be7bfd 	stp	x29, x30, [sp,#-32]!
    611c:	910003fd 	mov	x29, sp
    6120:	a90153f3 	stp	x19, x20, [sp,#16]
/home/ursus/devel/optee/optee_os/lib/libutee/tee_user_mem.c:492
    6124:	d0000094 	adrp	x20, 18000 <ta_heap+0x7e40>
    6128:	f9410a93 	ldr	x19, [x20,#528]
    612c:	b4000213 	cbz	x19, 616c <tee_user_mem_check_heap+0x54>
/home/ursus/devel/optee/optee_os/lib/libutee/tee_user_mem.c:493
    6130:	f0000020 	adrp	x0, d000 <__func__.4585>
    6134:	9101e000 	add	x0, x0, #0x78
    6138:	aa1303e5 	mov	x5, x19
    613c:	90000044 	adrp	x4, e000 <__func__.3633+0x30>
    6140:	52800023 	mov	w3, #0x1                   	// #1
    6144:	9113fc84 	add	x4, x4, #0x4ff
    6148:	52800022 	mov	w2, #0x1                   	// #1
    614c:	52803da1 	mov	w1, #0x1ed                 	// #493
    6150:	91014000 	add	x0, x0, #0x50
    6154:	94000a27 	bl	89f0 <trace_printf>
/home/ursus/devel/optee/optee_os/lib/libutee/tee_user_mem.c:495
    6158:	f9410a93 	ldr	x19, [x20,#528]
/home/ursus/devel/optee/optee_os/lib/libutee/tee_user_mem.c:502
    615c:	aa1303e0 	mov	x0, x19
    6160:	a94153f3 	ldp	x19, x20, [sp,#16]
    6164:	a8c27bfd 	ldp	x29, x30, [sp],#32
    6168:	d65f03c0 	ret
is_mem_coherent():
/home/ursus/devel/optee/optee_os/lib/libutee/tee_user_mem.c:268
    616c:	d0000040 	adrp	x0, 10000 <modulus>
    6170:	f940c414 	ldr	x20, [x0,#392]
    6174:	b4ffff54 	cbz	x20, 615c <tee_user_mem_check_heap+0x44>
/home/ursus/devel/optee/optee_os/lib/libutee/tee_user_mem.c:269
    6178:	aa1403e0 	mov	x0, x20
    617c:	97fffebf 	bl	5c78 <check_elem>
    6180:	35000160 	cbnz	w0, 61ac <tee_user_mem_check_heap+0x94>
/home/ursus/devel/optee/optee_os/lib/libutee/tee_user_mem.c:270
    6184:	f0000023 	adrp	x3, d000 <__func__.4585>
    6188:	9101e063 	add	x3, x3, #0x78
    618c:	9101a063 	add	x3, x3, #0x68
    6190:	90000041 	adrp	x1, e000 <__func__.3633+0x30>
    6194:	90000040 	adrp	x0, e000 <__func__.3633+0x30>
    6198:	91147021 	add	x1, x1, #0x51c
    619c:	911c6c00 	add	x0, x0, #0x71b
    61a0:	528021c2 	mov	w2, #0x10e                 	// #270
    61a4:	94000022 	bl	622c <_assert_log>
    61a8:	94000032 	bl	6270 <_assert_break>
/home/ursus/devel/optee/optee_os/lib/libutee/tee_user_mem.c:268
    61ac:	f9400294 	ldr	x20, [x20]
    61b0:	17fffff1 	b	6174 <tee_user_mem_check_heap+0x5c>

00000000000061b4 <tee_user_mem_garbage>:
tee_user_mem_garbage():
/home/ursus/devel/optee/optee_os/lib/libutee/tee_user_mem.c:537
    61b4:	a9bd7bfd 	stp	x29, x30, [sp,#-48]!
tee_user_mem_status():
/home/ursus/devel/optee/optee_os/lib/libutee/tee_user_mem.c:518
    61b8:	d0000040 	adrp	x0, 10000 <modulus>
tee_user_mem_garbage():
/home/ursus/devel/optee/optee_os/lib/libutee/tee_user_mem.c:537
    61bc:	910003fd 	mov	x29, sp
    61c0:	a90153f3 	stp	x19, x20, [sp,#16]
tee_user_mem_status():
/home/ursus/devel/optee/optee_os/lib/libutee/tee_user_mem.c:519
    61c4:	f0000033 	adrp	x19, d000 <__func__.4585>
tee_user_mem_garbage():
/home/ursus/devel/optee/optee_os/lib/libutee/tee_user_mem.c:537
    61c8:	a9025bf5 	stp	x21, x22, [sp,#32]
tee_user_mem_status():
/home/ursus/devel/optee/optee_os/lib/libutee/tee_user_mem.c:519
    61cc:	9101e273 	add	x19, x19, #0x78
/home/ursus/devel/optee/optee_os/lib/libutee/tee_user_mem.c:518
    61d0:	f940c415 	ldr	x21, [x0,#392]
/home/ursus/devel/optee/optee_os/lib/libutee/tee_user_mem.c:519
    61d4:	90000056 	adrp	x22, e000 <__func__.3633+0x30>
    61d8:	aa0003f4 	mov	x20, x0
    61dc:	9116f6d6 	add	x22, x22, #0x5bd
    61e0:	9101e273 	add	x19, x19, #0x78
/home/ursus/devel/optee/optee_os/lib/libutee/tee_user_mem.c:518
    61e4:	b50000f5 	cbnz	x21, 6200 <tee_user_mem_garbage+0x4c>
tee_user_mem_garbage():
/home/ursus/devel/optee/optee_os/lib/libutee/tee_user_mem.c:542
    61e8:	f940c680 	ldr	x0, [x20,#392]
    61ec:	b50001a0 	cbnz	x0, 6220 <tee_user_mem_garbage+0x6c>
/home/ursus/devel/optee/optee_os/lib/libutee/tee_user_mem.c:544
    61f0:	a94153f3 	ldp	x19, x20, [sp,#16]
    61f4:	a9425bf5 	ldp	x21, x22, [sp,#32]
    61f8:	a8c37bfd 	ldp	x29, x30, [sp],#48
    61fc:	d65f03c0 	ret
tee_user_mem_status():
/home/ursus/devel/optee/optee_os/lib/libutee/tee_user_mem.c:519
    6200:	aa1503e4 	mov	x4, x21
    6204:	aa1603e3 	mov	x3, x22
    6208:	528040e2 	mov	w2, #0x207                 	// #519
    620c:	aa1303e1 	mov	x1, x19
    6210:	52800020 	mov	w0, #0x1                   	// #1
    6214:	97fffe83 	bl	5c20 <print_buf>
/home/ursus/devel/optee/optee_os/lib/libutee/tee_user_mem.c:518
    6218:	f94002b5 	ldr	x21, [x21]
    621c:	17fffff2 	b	61e4 <tee_user_mem_garbage+0x30>
tee_user_mem_garbage():
/home/ursus/devel/optee/optee_os/lib/libutee/tee_user_mem.c:543
    6220:	91008000 	add	x0, x0, #0x20
    6224:	97ffff32 	bl	5eec <tee_user_mem_free>
    6228:	17fffff0 	b	61e8 <tee_user_mem_garbage+0x34>

000000000000622c <_assert_log>:
_assert_log():
/home/ursus/devel/optee/optee_os/lib/libutee/assert.c:39
    622c:	d10083ff 	sub	sp, sp, #0x20
/home/ursus/devel/optee/optee_os/lib/libutee/assert.c:40
    6230:	2a0203e7 	mov	w7, w2
    6234:	aa0103e6 	mov	x6, x1
    6238:	aa0003e5 	mov	x5, x0
    623c:	52800022 	mov	w2, #0x1                   	// #1
    6240:	52800001 	mov	w1, #0x0                   	// #0
/home/ursus/devel/optee/optee_os/lib/libutee/assert.c:39
    6244:	a9017bfd 	stp	x29, x30, [sp,#16]
    6248:	910043fd 	add	x29, sp, #0x10
/home/ursus/devel/optee/optee_os/lib/libutee/assert.c:40
    624c:	d2800000 	mov	x0, #0x0                   	// #0
    6250:	90000044 	adrp	x4, e000 <__func__.3633+0x30>
    6254:	9114dc84 	add	x4, x4, #0x537
    6258:	f90003e3 	str	x3, [sp]
    625c:	52800023 	mov	w3, #0x1                   	// #1
    6260:	940009e4 	bl	89f0 <trace_printf>
/home/ursus/devel/optee/optee_os/lib/libutee/assert.c:42
    6264:	a9417bfd 	ldp	x29, x30, [sp,#16]
    6268:	910083ff 	add	sp, sp, #0x20
    626c:	d65f03c0 	ret

0000000000006270 <_assert_break>:
_assert_break():
/home/ursus/devel/optee/optee_os/lib/libutee/assert.c:45
    6270:	a9bf7bfd 	stp	x29, x30, [sp,#-16]!
/home/ursus/devel/optee/optee_os/lib/libutee/assert.c:46
    6274:	d2bfffe0 	mov	x0, #0xffff0000            	// #4294901760
/home/ursus/devel/optee/optee_os/lib/libutee/assert.c:45
    6278:	910003fd 	mov	x29, sp
/home/ursus/devel/optee/optee_os/lib/libutee/assert.c:46
    627c:	97fffd99 	bl	58e0 <utee_panic>

0000000000006280 <_TEE_MathAPI_Init>:
_TEE_MathAPI_Init():
/home/ursus/devel/optee/optee_os/lib/libutee/tee_api_arith.c:78
    6280:	a9bf7bfd 	stp	x29, x30, [sp,#-16]!
/home/ursus/devel/optee/optee_os/lib/libutee/tee_api_arith.c:79
    6284:	52810002 	mov	w2, #0x800                 	// #2048
    6288:	d2836801 	mov	x1, #0x1b40                	// #6976
    628c:	d0000080 	adrp	x0, 18000 <ta_heap+0x7e40>
/home/ursus/devel/optee/optee_os/lib/libutee/tee_api_arith.c:78
    6290:	910003fd 	mov	x29, sp
/home/ursus/devel/optee/optee_os/lib/libutee/tee_api_arith.c:79
    6294:	9108a000 	add	x0, x0, #0x228
    6298:	94001154 	bl	a7e8 <mpa_init_scratch_mem>
/home/ursus/devel/optee/optee_os/lib/libutee/tee_api_arith.c:81
    629c:	90000040 	adrp	x0, e000 <__func__.3633+0x30>
/home/ursus/devel/optee/optee_os/lib/libutee/tee_api_arith.c:82
    62a0:	a8c17bfd 	ldp	x29, x30, [sp],#16
/home/ursus/devel/optee/optee_os/lib/libutee/tee_api_arith.c:81
    62a4:	f9465400 	ldr	x0, [x0,#3240]
    62a8:	14001282 	b	acb0 <mpa_set_random_generator>

00000000000062ac <TEE_BigIntInit>:
TEE_BigIntInit():
/home/ursus/devel/optee/optee_os/lib/libutee/tee_api_arith.c:89
    62ac:	140016cc 	b	bddc <mpa_init_static>

00000000000062b0 <TEE_BigIntInitFMM>:
TEE_BigIntInitFMM():
/home/ursus/devel/optee/optee_os/lib/libutee/tee_api_arith.c:99
    62b0:	531e7421 	lsl	w1, w1, #2
    62b4:	51002021 	sub	w1, w1, #0x8
    62b8:	d3427c21 	ubfx	x1, x1, #2, #30
/home/ursus/devel/optee/optee_os/lib/libutee/tee_api_arith.c:100
    62bc:	29007c01 	stp	w1, wzr, [x0]
    62c0:	d65f03c0 	ret

00000000000062c4 <TEE_BigIntInitFMMContext>:
TEE_BigIntInitFMMContext():
/home/ursus/devel/optee/optee_os/lib/libutee/tee_api_arith.c:108
    62c4:	a9be7bfd 	stp	x29, x30, [sp,#-32]!
    62c8:	910003fd 	mov	x29, sp
    62cc:	a90153f3 	stp	x19, x20, [sp,#16]
    62d0:	aa0003f3 	mov	x19, x0
    62d4:	aa0203f4 	mov	x20, x2
/home/ursus/devel/optee/optee_os/lib/libutee/tee_api_arith.c:112
    62d8:	940016c8 	bl	bdf8 <mpa_init_static_fmm_context>
/home/ursus/devel/optee/optee_os/lib/libutee/tee_api_arith.c:113
    62dc:	91004263 	add	x3, x19, #0x10
    62e0:	aa1403e0 	mov	x0, x20
    62e4:	a9400a61 	ldp	x1, x2, [x19]
    62e8:	d0000084 	adrp	x4, 18000 <ta_heap+0x7e40>
/home/ursus/devel/optee/optee_os/lib/libutee/tee_api_arith.c:116
    62ec:	a94153f3 	ldp	x19, x20, [sp,#16]
/home/ursus/devel/optee/optee_os/lib/libutee/tee_api_arith.c:113
    62f0:	9108a084 	add	x4, x4, #0x228
/home/ursus/devel/optee/optee_os/lib/libutee/tee_api_arith.c:116
    62f4:	a8c27bfd 	ldp	x29, x30, [sp],#32
/home/ursus/devel/optee/optee_os/lib/libutee/tee_api_arith.c:113
    62f8:	14000b45 	b	900c <mpa_compute_fmm_context>

00000000000062fc <TEE_BigIntFMMSizeInU32>:
TEE_BigIntFMMSizeInU32():
/home/ursus/devel/optee/optee_os/lib/libutee/tee_api_arith.c:127
    62fc:	11007c00 	add	w0, w0, #0x1f
    6300:	53057c00 	lsr	w0, w0, #5
/home/ursus/devel/optee/optee_os/lib/libutee/tee_api_arith.c:128
    6304:	11000c00 	add	w0, w0, #0x3
    6308:	d65f03c0 	ret

000000000000630c <TEE_BigIntFMMContextSizeInU32>:
TEE_BigIntFMMContextSizeInU32():
/home/ursus/devel/optee/optee_os/lib/libutee/tee_api_arith.c:135
    630c:	11007c00 	add	w0, w0, #0x1f
    6310:	53057c00 	lsr	w0, w0, #5
    6314:	11001c00 	add	w0, w0, #0x7
/home/ursus/devel/optee/optee_os/lib/libutee/tee_api_arith.c:136
    6318:	531f7800 	lsl	w0, w0, #1
    631c:	d65f03c0 	ret

0000000000006320 <TEE_BigIntConvertFromOctetString>:
TEE_BigIntConvertFromOctetString():
/home/ursus/devel/optee/optee_os/lib/libutee/tee_api_arith.c:149
    6320:	a9bf7bfd 	stp	x29, x30, [sp,#-16]!
/home/ursus/devel/optee/optee_os/lib/libutee/tee_api_arith.c:154
    6324:	531f7c63 	lsr	w3, w3, #31
    6328:	2a0203e2 	mov	w2, w2
/home/ursus/devel/optee/optee_os/lib/libutee/tee_api_arith.c:149
    632c:	910003fd 	mov	x29, sp
/home/ursus/devel/optee/optee_os/lib/libutee/tee_api_arith.c:154
    6330:	940017fa 	bl	c318 <mpa_set_oct_str>
/home/ursus/devel/optee/optee_os/lib/libutee/tee_api_arith.c:155
    6334:	7100001f 	cmp	w0, #0x0
/home/ursus/devel/optee/optee_os/lib/libutee/tee_api_arith.c:164
    6338:	a8c17bfd 	ldp	x29, x30, [sp],#16
    633c:	1299fe00 	mov	w0, #0xffff300f            	// #-53233
    6340:	1a9f1000 	csel	w0, w0, wzr, ne
    6344:	d65f03c0 	ret

0000000000006348 <TEE_BigIntConvertToOctetString>:
TEE_BigIntConvertToOctetString():
/home/ursus/devel/optee/optee_os/lib/libutee/tee_api_arith.c:172
    6348:	a9bd7bfd 	stp	x29, x30, [sp,#-48]!
    634c:	910003fd 	mov	x29, sp
    6350:	f9000bf3 	str	x19, [sp,#16]
    6354:	aa0103f3 	mov	x19, x1
/home/ursus/devel/optee/optee_os/lib/libutee/tee_api_arith.c:174
    6358:	9100c3a1 	add	x1, x29, #0x30
    635c:	b9400263 	ldr	w3, [x19]
    6360:	f81f8c23 	str	x3, [x1,#-8]!
/home/ursus/devel/optee/optee_os/lib/libutee/tee_api_arith.c:177
    6364:	94001831 	bl	c428 <mpa_get_oct_str>
/home/ursus/devel/optee/optee_os/lib/libutee/tee_api_arith.c:178
    6368:	7100001f 	cmp	w0, #0x0
/home/ursus/devel/optee/optee_os/lib/libutee/tee_api_arith.c:182
    636c:	f94017a0 	ldr	x0, [x29,#40]
    6370:	b9000260 	str	w0, [x19]
/home/ursus/devel/optee/optee_os/lib/libutee/tee_api_arith.c:189
    6374:	f9400bf3 	ldr	x19, [sp,#16]
    6378:	129ffde0 	mov	w0, #0xffff0010            	// #-65520
    637c:	1a9f1000 	csel	w0, w0, wzr, ne
    6380:	a8c37bfd 	ldp	x29, x30, [sp],#48
    6384:	d65f03c0 	ret

0000000000006388 <TEE_BigIntConvertFromS32>:
TEE_BigIntConvertFromS32():
/home/ursus/devel/optee/optee_os/lib/libutee/tee_api_arith.c:199
    6388:	14000c7d 	b	957c <mpa_set_S32>

000000000000638c <TEE_BigIntConvertToS32>:
TEE_BigIntConvertToS32():
/home/ursus/devel/optee/optee_os/lib/libutee/tee_api_arith.c:209
    638c:	a9bf7bfd 	stp	x29, x30, [sp,#-16]!
    6390:	910003fd 	mov	x29, sp
/home/ursus/devel/optee/optee_os/lib/libutee/tee_api_arith.c:213
    6394:	94000c85 	bl	95a8 <mpa_get_S32>
/home/ursus/devel/optee/optee_os/lib/libutee/tee_api_arith.c:214
    6398:	7100001f 	cmp	w0, #0x0
/home/ursus/devel/optee/optee_os/lib/libutee/tee_api_arith.c:223
    639c:	a8c17bfd 	ldp	x29, x30, [sp],#16
    63a0:	1299fe00 	mov	w0, #0xffff300f            	// #-53233
    63a4:	1a9f1000 	csel	w0, w0, wzr, ne
    63a8:	d65f03c0 	ret

00000000000063ac <TEE_BigIntCmp>:
TEE_BigIntCmp():
/home/ursus/devel/optee/optee_os/lib/libutee/tee_api_arith.c:237
    63ac:	140015f3 	b	bb78 <mpa_cmp>

00000000000063b0 <TEE_BigIntCmpS32>:
TEE_BigIntCmpS32():
/home/ursus/devel/optee/optee_os/lib/libutee/tee_api_arith.c:247
    63b0:	1400160c 	b	bbe0 <mpa_cmp_short>

00000000000063b4 <TEE_BigIntShiftRight>:
TEE_BigIntShiftRight():
/home/ursus/devel/optee/optee_os/lib/libutee/tee_api_arith.c:259
    63b4:	1400132a 	b	b05c <mpa_shift_right>

00000000000063b8 <TEE_BigIntGetBit>:
TEE_BigIntGetBit():
/home/ursus/devel/optee/optee_os/lib/libutee/tee_api_arith.c:266
    63b8:	a9bf7bfd 	stp	x29, x30, [sp,#-16]!
    63bc:	910003fd 	mov	x29, sp
/home/ursus/devel/optee/optee_os/lib/libutee/tee_api_arith.c:269
    63c0:	94000a6a 	bl	8d68 <mpa_get_bit>
    63c4:	7100001f 	cmp	w0, #0x0
/home/ursus/devel/optee/optee_os/lib/libutee/tee_api_arith.c:270
    63c8:	1a9f07e0 	cset	w0, ne
    63cc:	a8c17bfd 	ldp	x29, x30, [sp],#16
    63d0:	d65f03c0 	ret

00000000000063d4 <TEE_BigIntGetBitCount>:
TEE_BigIntGetBitCount():
/home/ursus/devel/optee/optee_os/lib/libutee/tee_api_arith.c:276
    63d4:	a9bf7bfd 	stp	x29, x30, [sp,#-16]!
    63d8:	910003fd 	mov	x29, sp
/home/ursus/devel/optee/optee_os/lib/libutee/tee_api_arith.c:279
    63dc:	94000a52 	bl	8d24 <mpa_highest_bit_index>
/home/ursus/devel/optee/optee_os/lib/libutee/tee_api_arith.c:280
    63e0:	11000400 	add	w0, w0, #0x1
    63e4:	a8c17bfd 	ldp	x29, x30, [sp],#16
    63e8:	d65f03c0 	ret

00000000000063ec <TEE_BigIntAdd>:
TEE_BigIntAdd():
/home/ursus/devel/optee/optee_os/lib/libutee/tee_api_arith.c:296
    63ec:	d0000083 	adrp	x3, 18000 <ta_heap+0x7e40>
    63f0:	9108a063 	add	x3, x3, #0x228
    63f4:	14001434 	b	b4c4 <mpa_add>

00000000000063f8 <TEE_BigIntSub>:
TEE_BigIntSub():
/home/ursus/devel/optee/optee_os/lib/libutee/tee_api_arith.c:309
    63f8:	d0000083 	adrp	x3, 18000 <ta_heap+0x7e40>
    63fc:	9108a063 	add	x3, x3, #0x228
    6400:	14001496 	b	b658 <mpa_sub>

0000000000006404 <TEE_BigIntNeg>:
TEE_BigIntNeg():
/home/ursus/devel/optee/optee_os/lib/libutee/tee_api_arith.c:320
    6404:	140014fc 	b	b7f4 <mpa_neg>

0000000000006408 <TEE_BigIntMul>:
TEE_BigIntMul():
/home/ursus/devel/optee/optee_os/lib/libutee/tee_api_arith.c:333
    6408:	d0000083 	adrp	x3, 18000 <ta_heap+0x7e40>
    640c:	9108a063 	add	x3, x3, #0x228
    6410:	140011be 	b	ab08 <mpa_mul>

0000000000006414 <TEE_BigIntSquare>:
TEE_BigIntSquare():
/home/ursus/devel/optee/optee_os/lib/libutee/tee_api_arith.c:344
    6414:	d0000083 	adrp	x3, 18000 <ta_heap+0x7e40>
    6418:	aa0103e2 	mov	x2, x1
    641c:	9108a063 	add	x3, x3, #0x228
    6420:	140011ba 	b	ab08 <mpa_mul>

0000000000006424 <TEE_BigIntDiv>:
TEE_BigIntDiv():
/home/ursus/devel/optee/optee_os/lib/libutee/tee_api_arith.c:352
    6424:	a9bd7bfd 	stp	x29, x30, [sp,#-48]!
    6428:	910003fd 	mov	x29, sp
    642c:	a90153f3 	stp	x19, x20, [sp,#16]
    6430:	aa0003f4 	mov	x20, x0
    6434:	a9025bf5 	stp	x21, x22, [sp,#32]
    6438:	aa0303f3 	mov	x19, x3
    643c:	aa0103f5 	mov	x21, x1
    6440:	aa0203f6 	mov	x22, x2
TEE_BigIntCmpS32():
/home/ursus/devel/optee/optee_os/lib/libutee/tee_api_arith.c:247
    6444:	52800001 	mov	w1, #0x0                   	// #0
    6448:	aa0303e0 	mov	x0, x3
    644c:	940015e5 	bl	bbe0 <mpa_cmp_short>
TEE_BigIntDiv():
/home/ursus/devel/optee/optee_os/lib/libutee/tee_api_arith.c:358
    6450:	35000080 	cbnz	w0, 6460 <TEE_BigIntDiv+0x3c>
/home/ursus/devel/optee/optee_os/lib/libutee/tee_api_arith.c:359
    6454:	90000040 	adrp	x0, e000 <__func__.3633+0x30>
    6458:	9115a400 	add	x0, x0, #0x569
    645c:	9400012e 	bl	6914 <TEE_BigInt_Panic>
/home/ursus/devel/optee/optee_os/lib/libutee/tee_api_arith.c:361
    6460:	aa1303e3 	mov	x3, x19
    6464:	aa1603e2 	mov	x2, x22
    6468:	aa1503e1 	mov	x1, x21
    646c:	aa1403e0 	mov	x0, x20
/home/ursus/devel/optee/optee_os/lib/libutee/tee_api_arith.c:362
    6470:	a9425bf5 	ldp	x21, x22, [sp,#32]
/home/ursus/devel/optee/optee_os/lib/libutee/tee_api_arith.c:361
    6474:	d0000084 	adrp	x4, 18000 <ta_heap+0x7e40>
/home/ursus/devel/optee/optee_os/lib/libutee/tee_api_arith.c:362
    6478:	a94153f3 	ldp	x19, x20, [sp,#16]
/home/ursus/devel/optee/optee_os/lib/libutee/tee_api_arith.c:361
    647c:	9108a084 	add	x4, x4, #0x228
/home/ursus/devel/optee/optee_os/lib/libutee/tee_api_arith.c:362
    6480:	a8c37bfd 	ldp	x29, x30, [sp],#48
/home/ursus/devel/optee/optee_os/lib/libutee/tee_api_arith.c:361
    6484:	14000e79 	b	9e68 <mpa_div>

0000000000006488 <TEE_BigIntMod>:
TEE_BigIntMod():
/home/ursus/devel/optee/optee_os/lib/libutee/tee_api_arith.c:373
    6488:	a9bd7bfd 	stp	x29, x30, [sp,#-48]!
    648c:	910003fd 	mov	x29, sp
    6490:	a9025bf5 	stp	x21, x22, [sp,#32]
    6494:	aa0103f6 	mov	x22, x1
    6498:	a90153f3 	stp	x19, x20, [sp,#16]
    649c:	aa0203f5 	mov	x21, x2
    64a0:	aa0003f4 	mov	x20, x0
TEE_BigIntCmpS32():
/home/ursus/devel/optee/optee_os/lib/libutee/tee_api_arith.c:247
    64a4:	52800041 	mov	w1, #0x2                   	// #2
    64a8:	aa0203e0 	mov	x0, x2
    64ac:	940015cd 	bl	bbe0 <mpa_cmp_short>
TEE_BigIntMod():
/home/ursus/devel/optee/optee_os/lib/libutee/tee_api_arith.c:378
    64b0:	36f80080 	tbz	w0, #31, 64c0 <TEE_BigIntMod+0x38>
/home/ursus/devel/optee/optee_os/lib/libutee/tee_api_arith.c:379
    64b4:	90000040 	adrp	x0, e000 <__func__.3633+0x30>
    64b8:	9115e400 	add	x0, x0, #0x579
    64bc:	94000116 	bl	6914 <TEE_BigInt_Panic>
/home/ursus/devel/optee/optee_os/lib/libutee/tee_api_arith.c:381
    64c0:	d0000093 	adrp	x19, 18000 <ta_heap+0x7e40>
    64c4:	9108a273 	add	x19, x19, #0x228
    64c8:	aa1303e3 	mov	x3, x19
    64cc:	aa1503e2 	mov	x2, x21
    64d0:	aa1603e1 	mov	x1, x22
    64d4:	aa1403e0 	mov	x0, x20
    64d8:	94001831 	bl	c59c <mpa_mod>
/home/ursus/devel/optee/optee_os/lib/libutee/tee_api_arith.c:383
    64dc:	52800001 	mov	w1, #0x0                   	// #0
    64e0:	aa1403e0 	mov	x0, x20
    64e4:	940015bf 	bl	bbe0 <mpa_cmp_short>
    64e8:	36f80120 	tbz	w0, #31, 650c <TEE_BigIntMod+0x84>
/home/ursus/devel/optee/optee_os/lib/libutee/tee_api_arith.c:384
    64ec:	aa1303e3 	mov	x3, x19
    64f0:	aa1503e2 	mov	x2, x21
    64f4:	aa1403e1 	mov	x1, x20
    64f8:	aa1403e0 	mov	x0, x20
/home/ursus/devel/optee/optee_os/lib/libutee/tee_api_arith.c:385
    64fc:	a9425bf5 	ldp	x21, x22, [sp,#32]
    6500:	a94153f3 	ldp	x19, x20, [sp,#16]
    6504:	a8c37bfd 	ldp	x29, x30, [sp],#48
/home/ursus/devel/optee/optee_os/lib/libutee/tee_api_arith.c:384
    6508:	140013ef 	b	b4c4 <mpa_add>
/home/ursus/devel/optee/optee_os/lib/libutee/tee_api_arith.c:385
    650c:	a94153f3 	ldp	x19, x20, [sp,#16]
    6510:	a9425bf5 	ldp	x21, x22, [sp,#32]
    6514:	a8c37bfd 	ldp	x29, x30, [sp],#48
    6518:	d65f03c0 	ret

000000000000651c <TEE_BigIntAddMod>:
TEE_BigIntAddMod():
/home/ursus/devel/optee/optee_os/lib/libutee/tee_api_arith.c:392
    651c:	a9bc7bfd 	stp	x29, x30, [sp,#-64]!
    6520:	910003fd 	mov	x29, sp
    6524:	a9025bf5 	stp	x21, x22, [sp,#32]
    6528:	aa0103f6 	mov	x22, x1
    652c:	a90153f3 	stp	x19, x20, [sp,#16]
    6530:	aa0303f5 	mov	x21, x3
    6534:	f9001bf7 	str	x23, [sp,#48]
    6538:	aa0003f4 	mov	x20, x0
TEE_BigIntCmpS32():
/home/ursus/devel/optee/optee_os/lib/libutee/tee_api_arith.c:247
    653c:	52800041 	mov	w1, #0x2                   	// #2
    6540:	aa0303e0 	mov	x0, x3
TEE_BigIntAddMod():
/home/ursus/devel/optee/optee_os/lib/libutee/tee_api_arith.c:392
    6544:	aa0203f7 	mov	x23, x2
TEE_BigIntCmpS32():
/home/ursus/devel/optee/optee_os/lib/libutee/tee_api_arith.c:247
    6548:	940015a6 	bl	bbe0 <mpa_cmp_short>
TEE_BigIntAddMod():
/home/ursus/devel/optee/optee_os/lib/libutee/tee_api_arith.c:398
    654c:	36f80080 	tbz	w0, #31, 655c <TEE_BigIntAddMod+0x40>
/home/ursus/devel/optee/optee_os/lib/libutee/tee_api_arith.c:399
    6550:	90000040 	adrp	x0, e000 <__func__.3633+0x30>
    6554:	9115e400 	add	x0, x0, #0x579
    6558:	940000ef 	bl	6914 <TEE_BigInt_Panic>
/home/ursus/devel/optee/optee_os/lib/libutee/tee_api_arith.c:401
    655c:	d0000093 	adrp	x19, 18000 <ta_heap+0x7e40>
    6560:	9108a273 	add	x19, x19, #0x228
    6564:	aa1303e4 	mov	x4, x19
    6568:	aa1503e3 	mov	x3, x21
    656c:	aa1703e2 	mov	x2, x23
    6570:	aa1603e1 	mov	x1, x22
    6574:	aa1403e0 	mov	x0, x20
    6578:	9400180f 	bl	c5b4 <mpa_add_mod>
/home/ursus/devel/optee/optee_os/lib/libutee/tee_api_arith.c:402
    657c:	52800001 	mov	w1, #0x0                   	// #0
    6580:	aa1403e0 	mov	x0, x20
    6584:	94001597 	bl	bbe0 <mpa_cmp_short>
    6588:	36f80140 	tbz	w0, #31, 65b0 <TEE_BigIntAddMod+0x94>
/home/ursus/devel/optee/optee_os/lib/libutee/tee_api_arith.c:403
    658c:	aa1303e3 	mov	x3, x19
    6590:	aa1503e2 	mov	x2, x21
    6594:	aa1403e1 	mov	x1, x20
    6598:	aa1403e0 	mov	x0, x20
/home/ursus/devel/optee/optee_os/lib/libutee/tee_api_arith.c:404
    659c:	a9425bf5 	ldp	x21, x22, [sp,#32]
    65a0:	a94153f3 	ldp	x19, x20, [sp,#16]
    65a4:	f9401bf7 	ldr	x23, [sp,#48]
    65a8:	a8c47bfd 	ldp	x29, x30, [sp],#64
/home/ursus/devel/optee/optee_os/lib/libutee/tee_api_arith.c:403
    65ac:	140013c6 	b	b4c4 <mpa_add>
/home/ursus/devel/optee/optee_os/lib/libutee/tee_api_arith.c:404
    65b0:	a94153f3 	ldp	x19, x20, [sp,#16]
    65b4:	a9425bf5 	ldp	x21, x22, [sp,#32]
    65b8:	f9401bf7 	ldr	x23, [sp,#48]
    65bc:	a8c47bfd 	ldp	x29, x30, [sp],#64
    65c0:	d65f03c0 	ret

00000000000065c4 <TEE_BigIntSubMod>:
TEE_BigIntSubMod():
/home/ursus/devel/optee/optee_os/lib/libutee/tee_api_arith.c:411
    65c4:	a9bc7bfd 	stp	x29, x30, [sp,#-64]!
    65c8:	910003fd 	mov	x29, sp
    65cc:	a9025bf5 	stp	x21, x22, [sp,#32]
    65d0:	aa0103f6 	mov	x22, x1
    65d4:	a90153f3 	stp	x19, x20, [sp,#16]
    65d8:	aa0303f5 	mov	x21, x3
    65dc:	f9001bf7 	str	x23, [sp,#48]
    65e0:	aa0003f4 	mov	x20, x0
TEE_BigIntCmpS32():
/home/ursus/devel/optee/optee_os/lib/libutee/tee_api_arith.c:247
    65e4:	52800041 	mov	w1, #0x2                   	// #2
    65e8:	aa0303e0 	mov	x0, x3
TEE_BigIntSubMod():
/home/ursus/devel/optee/optee_os/lib/libutee/tee_api_arith.c:411
    65ec:	aa0203f7 	mov	x23, x2
TEE_BigIntCmpS32():
/home/ursus/devel/optee/optee_os/lib/libutee/tee_api_arith.c:247
    65f0:	9400157c 	bl	bbe0 <mpa_cmp_short>
TEE_BigIntSubMod():
/home/ursus/devel/optee/optee_os/lib/libutee/tee_api_arith.c:417
    65f4:	36f80080 	tbz	w0, #31, 6604 <TEE_BigIntSubMod+0x40>
/home/ursus/devel/optee/optee_os/lib/libutee/tee_api_arith.c:418
    65f8:	90000040 	adrp	x0, e000 <__func__.3633+0x30>
    65fc:	9115e400 	add	x0, x0, #0x579
    6600:	940000c5 	bl	6914 <TEE_BigInt_Panic>
/home/ursus/devel/optee/optee_os/lib/libutee/tee_api_arith.c:420
    6604:	d0000093 	adrp	x19, 18000 <ta_heap+0x7e40>
    6608:	9108a273 	add	x19, x19, #0x228
    660c:	aa1303e4 	mov	x4, x19
    6610:	aa1503e3 	mov	x3, x21
    6614:	aa1703e2 	mov	x2, x23
    6618:	aa1603e1 	mov	x1, x22
    661c:	aa1403e0 	mov	x0, x20
    6620:	94001806 	bl	c638 <mpa_sub_mod>
/home/ursus/devel/optee/optee_os/lib/libutee/tee_api_arith.c:421
    6624:	52800001 	mov	w1, #0x0                   	// #0
    6628:	aa1403e0 	mov	x0, x20
    662c:	9400156d 	bl	bbe0 <mpa_cmp_short>
    6630:	36f80140 	tbz	w0, #31, 6658 <TEE_BigIntSubMod+0x94>
/home/ursus/devel/optee/optee_os/lib/libutee/tee_api_arith.c:422
    6634:	aa1303e3 	mov	x3, x19
    6638:	aa1503e2 	mov	x2, x21
    663c:	aa1403e1 	mov	x1, x20
    6640:	aa1403e0 	mov	x0, x20
/home/ursus/devel/optee/optee_os/lib/libutee/tee_api_arith.c:423
    6644:	a9425bf5 	ldp	x21, x22, [sp,#32]
    6648:	a94153f3 	ldp	x19, x20, [sp,#16]
    664c:	f9401bf7 	ldr	x23, [sp,#48]
    6650:	a8c47bfd 	ldp	x29, x30, [sp],#64
/home/ursus/devel/optee/optee_os/lib/libutee/tee_api_arith.c:422
    6654:	1400139c 	b	b4c4 <mpa_add>
/home/ursus/devel/optee/optee_os/lib/libutee/tee_api_arith.c:423
    6658:	a94153f3 	ldp	x19, x20, [sp,#16]
    665c:	a9425bf5 	ldp	x21, x22, [sp,#32]
    6660:	f9401bf7 	ldr	x23, [sp,#48]
    6664:	a8c47bfd 	ldp	x29, x30, [sp],#64
    6668:	d65f03c0 	ret

000000000000666c <TEE_BigIntMulMod>:
TEE_BigIntMulMod():
/home/ursus/devel/optee/optee_os/lib/libutee/tee_api_arith.c:430
    666c:	a9ba7bfd 	stp	x29, x30, [sp,#-96]!
    6670:	910003fd 	mov	x29, sp
    6674:	a90363f7 	stp	x23, x24, [sp,#48]
    6678:	aa0003f7 	mov	x23, x0
    667c:	a90153f3 	stp	x19, x20, [sp,#16]
    6680:	aa0103f8 	mov	x24, x1
    6684:	f90023f9 	str	x25, [sp,#64]
    6688:	aa0303f4 	mov	x20, x3
    668c:	a9025bf5 	stp	x21, x22, [sp,#32]
TEE_BigIntCmpS32():
/home/ursus/devel/optee/optee_os/lib/libutee/tee_api_arith.c:247
    6690:	52800041 	mov	w1, #0x2                   	// #2
    6694:	aa0303e0 	mov	x0, x3
TEE_BigIntMulMod():
/home/ursus/devel/optee/optee_os/lib/libutee/tee_api_arith.c:430
    6698:	aa0203f9 	mov	x25, x2
TEE_BigIntCmpS32():
/home/ursus/devel/optee/optee_os/lib/libutee/tee_api_arith.c:247
    669c:	94001551 	bl	bbe0 <mpa_cmp_short>
TEE_BigIntMulMod():
/home/ursus/devel/optee/optee_os/lib/libutee/tee_api_arith.c:437
    66a0:	36f80080 	tbz	w0, #31, 66b0 <TEE_BigIntMulMod+0x44>
/home/ursus/devel/optee/optee_os/lib/libutee/tee_api_arith.c:438
    66a4:	90000040 	adrp	x0, e000 <__func__.3633+0x30>
    66a8:	9115e400 	add	x0, x0, #0x579
    66ac:	9400009a 	bl	6914 <TEE_BigInt_Panic>
/home/ursus/devel/optee/optee_os/lib/libutee/tee_api_arith.c:448
    66b0:	d0000093 	adrp	x19, 18000 <ta_heap+0x7e40>
    66b4:	910163b6 	add	x22, x29, #0x58
    66b8:	9108a275 	add	x21, x19, #0x228
    66bc:	aa1603e0 	mov	x0, x22
    66c0:	aa1503e1 	mov	x1, x21
    66c4:	94001089 	bl	a8e8 <mpa_alloc_static_temp_var>
/home/ursus/devel/optee/optee_os/lib/libutee/tee_api_arith.c:449
    66c8:	f9402fa0 	ldr	x0, [x29,#88]
    66cc:	aa1803e1 	mov	x1, x24
    66d0:	aa1503e4 	mov	x4, x21
    66d4:	aa1403e3 	mov	x3, x20
    66d8:	aa1903e2 	mov	x2, x25
    66dc:	940017f8 	bl	c6bc <mpa_mul_mod>
/home/ursus/devel/optee/optee_os/lib/libutee/tee_api_arith.c:450
    66e0:	f9402fa0 	ldr	x0, [x29,#88]
    66e4:	52800001 	mov	w1, #0x0                   	// #0
    66e8:	9400153e 	bl	bbe0 <mpa_cmp_short>
    66ec:	36f800c0 	tbz	w0, #31, 6704 <TEE_BigIntMulMod+0x98>
/home/ursus/devel/optee/optee_os/lib/libutee/tee_api_arith.c:451
    66f0:	f9402fa1 	ldr	x1, [x29,#88]
    66f4:	aa1503e3 	mov	x3, x21
    66f8:	aa1403e2 	mov	x2, x20
    66fc:	aa0103e0 	mov	x0, x1
    6700:	94001371 	bl	b4c4 <mpa_add>
/home/ursus/devel/optee/optee_os/lib/libutee/tee_api_arith.c:452
    6704:	f9402fa1 	ldr	x1, [x29,#88]
    6708:	aa1703e0 	mov	x0, x23
    670c:	94000965 	bl	8ca0 <mpa_copy>
/home/ursus/devel/optee/optee_os/lib/libutee/tee_api_arith.c:453
    6710:	9108a261 	add	x1, x19, #0x228
    6714:	aa1603e0 	mov	x0, x22
    6718:	94001078 	bl	a8f8 <mpa_free_static_temp_var>
/home/ursus/devel/optee/optee_os/lib/libutee/tee_api_arith.c:454
    671c:	f94023f9 	ldr	x25, [sp,#64]
    6720:	a94153f3 	ldp	x19, x20, [sp,#16]
    6724:	a9425bf5 	ldp	x21, x22, [sp,#32]
    6728:	a94363f7 	ldp	x23, x24, [sp,#48]
    672c:	a8c67bfd 	ldp	x29, x30, [sp],#96
    6730:	d65f03c0 	ret

0000000000006734 <TEE_BigIntSquareMod>:
TEE_BigIntSquareMod():
/home/ursus/devel/optee/optee_os/lib/libutee/tee_api_arith.c:462
    6734:	aa0203e3 	mov	x3, x2
    6738:	aa0103e2 	mov	x2, x1
    673c:	17ffffcc 	b	666c <TEE_BigIntMulMod>

0000000000006740 <TEE_BigIntInvMod>:
TEE_BigIntInvMod():
/home/ursus/devel/optee/optee_os/lib/libutee/tee_api_arith.c:470
    6740:	a9bd7bfd 	stp	x29, x30, [sp,#-48]!
    6744:	910003fd 	mov	x29, sp
    6748:	a90153f3 	stp	x19, x20, [sp,#16]
    674c:	aa0103f3 	mov	x19, x1
    6750:	f90013f5 	str	x21, [sp,#32]
    6754:	aa0203f4 	mov	x20, x2
    6758:	aa0003f5 	mov	x21, x0
TEE_BigIntCmpS32():
/home/ursus/devel/optee/optee_os/lib/libutee/tee_api_arith.c:247
    675c:	52800041 	mov	w1, #0x2                   	// #2
    6760:	aa0203e0 	mov	x0, x2
    6764:	9400151f 	bl	bbe0 <mpa_cmp_short>
TEE_BigIntInvMod():
/home/ursus/devel/optee/optee_os/lib/libutee/tee_api_arith.c:475
    6768:	36f80080 	tbz	w0, #31, 6778 <TEE_BigIntInvMod+0x38>
/home/ursus/devel/optee/optee_os/lib/libutee/tee_api_arith.c:476
    676c:	90000040 	adrp	x0, e000 <__func__.3633+0x30>
    6770:	91163800 	add	x0, x0, #0x58e
    6774:	94000068 	bl	6914 <TEE_BigInt_Panic>
TEE_BigIntCmpS32():
/home/ursus/devel/optee/optee_os/lib/libutee/tee_api_arith.c:247
    6778:	52800001 	mov	w1, #0x0                   	// #0
    677c:	aa1303e0 	mov	x0, x19
    6780:	94001518 	bl	bbe0 <mpa_cmp_short>
TEE_BigIntInvMod():
/home/ursus/devel/optee/optee_os/lib/libutee/tee_api_arith.c:475
    6784:	34ffff40 	cbz	w0, 676c <TEE_BigIntInvMod+0x2c>
/home/ursus/devel/optee/optee_os/lib/libutee/tee_api_arith.c:478
    6788:	aa1403e2 	mov	x2, x20
    678c:	aa1303e1 	mov	x1, x19
    6790:	aa1503e0 	mov	x0, x21
/home/ursus/devel/optee/optee_os/lib/libutee/tee_api_arith.c:479
    6794:	f94013f5 	ldr	x21, [sp,#32]
    6798:	a94153f3 	ldp	x19, x20, [sp,#16]
/home/ursus/devel/optee/optee_os/lib/libutee/tee_api_arith.c:478
    679c:	d0000083 	adrp	x3, 18000 <ta_heap+0x7e40>
/home/ursus/devel/optee/optee_os/lib/libutee/tee_api_arith.c:479
    67a0:	a8c37bfd 	ldp	x29, x30, [sp],#48
/home/ursus/devel/optee/optee_os/lib/libutee/tee_api_arith.c:478
    67a4:	9108a063 	add	x3, x3, #0x228
    67a8:	140017e6 	b	c740 <mpa_inv_mod>

00000000000067ac <TEE_BigIntRelativePrime>:
TEE_BigIntRelativePrime():
/home/ursus/devel/optee/optee_os/lib/libutee/tee_api_arith.c:489
    67ac:	a9bc7bfd 	stp	x29, x30, [sp,#-64]!
    67b0:	910003fd 	mov	x29, sp
    67b4:	a90153f3 	stp	x19, x20, [sp,#16]
/home/ursus/devel/optee/optee_os/lib/libutee/tee_api_arith.c:495
    67b8:	9100e3b4 	add	x20, x29, #0x38
    67bc:	d0000093 	adrp	x19, 18000 <ta_heap+0x7e40>
    67c0:	9108a273 	add	x19, x19, #0x228
/home/ursus/devel/optee/optee_os/lib/libutee/tee_api_arith.c:489
    67c4:	a9025bf5 	stp	x21, x22, [sp,#32]
    67c8:	aa0003f5 	mov	x21, x0
    67cc:	aa0103f6 	mov	x22, x1
/home/ursus/devel/optee/optee_os/lib/libutee/tee_api_arith.c:495
    67d0:	aa1403e0 	mov	x0, x20
    67d4:	aa1303e1 	mov	x1, x19
    67d8:	94001044 	bl	a8e8 <mpa_alloc_static_temp_var>
/home/ursus/devel/optee/optee_os/lib/libutee/tee_api_arith.c:497
    67dc:	f9401fa0 	ldr	x0, [x29,#56]
    67e0:	aa1303e3 	mov	x3, x19
    67e4:	aa1603e2 	mov	x2, x22
    67e8:	aa1503e1 	mov	x1, x21
    67ec:	94000f36 	bl	a4c4 <mpa_gcd>
/home/ursus/devel/optee/optee_os/lib/libutee/tee_api_arith.c:498
    67f0:	f9401fa0 	ldr	x0, [x29,#56]
    67f4:	52800021 	mov	w1, #0x1                   	// #1
    67f8:	940014fa 	bl	bbe0 <mpa_cmp_short>
    67fc:	2a0003f5 	mov	w21, w0
/home/ursus/devel/optee/optee_os/lib/libutee/tee_api_arith.c:500
    6800:	aa1303e1 	mov	x1, x19
    6804:	aa1403e0 	mov	x0, x20
    6808:	9400103c 	bl	a8f8 <mpa_free_static_temp_var>
/home/ursus/devel/optee/optee_os/lib/libutee/tee_api_arith.c:502
    680c:	710002bf 	cmp	w21, #0x0
/home/ursus/devel/optee/optee_os/lib/libutee/tee_api_arith.c:503
    6810:	a94153f3 	ldp	x19, x20, [sp,#16]
    6814:	1a9f17e0 	cset	w0, eq
    6818:	a9425bf5 	ldp	x21, x22, [sp,#32]
    681c:	a8c47bfd 	ldp	x29, x30, [sp],#64
    6820:	d65f03c0 	ret

0000000000006824 <TEE_BigIntComputeExtendedGcd>:
TEE_BigIntComputeExtendedGcd():
/home/ursus/devel/optee/optee_os/lib/libutee/tee_api_arith.c:518
    6824:	d0000085 	adrp	x5, 18000 <ta_heap+0x7e40>
    6828:	9108a0a5 	add	x5, x5, #0x228
    682c:	14000f6e 	b	a5e4 <mpa_extended_gcd>

0000000000006830 <TEE_BigIntIsProbablePrime>:
TEE_BigIntIsProbablePrime():
/home/ursus/devel/optee/optee_os/lib/libutee/tee_api_arith.c:526
    6830:	7104003f 	cmp	w1, #0x100
    6834:	52802002 	mov	w2, #0x100                 	// #256
    6838:	1a829021 	csel	w1, w1, w2, ls
/home/ursus/devel/optee/optee_os/lib/libutee/tee_api_arith.c:535
    683c:	52800a03 	mov	w3, #0x50                  	// #80
    6840:	7101403f 	cmp	w1, #0x50
    6844:	d0000082 	adrp	x2, 18000 <ta_heap+0x7e40>
    6848:	1a832021 	csel	w1, w1, w3, cs
    684c:	9108a042 	add	x2, x2, #0x228
    6850:	14000a60 	b	91d0 <mpa_is_prob_prime>

0000000000006854 <TEE_BigIntConvertToFMM>:
TEE_BigIntConvertToFMM():
/home/ursus/devel/optee/optee_os/lib/libutee/tee_api_arith.c:549
    6854:	aa0303e6 	mov	x6, x3
/home/ursus/devel/optee/optee_os/lib/libutee/tee_api_arith.c:556
    6858:	aa0203e3 	mov	x3, x2
    685c:	d0000085 	adrp	x5, 18000 <ta_heap+0x7e40>
    6860:	9108a0a5 	add	x5, x5, #0x228
    6864:	b94010c4 	ldr	w4, [x6,#16]
    6868:	f94004c2 	ldr	x2, [x6,#8]
    686c:	14000a37 	b	9148 <mpa_montgomery_mul>

0000000000006870 <TEE_BigIntConvertFromFMM>:
TEE_BigIntConvertFromFMM():
/home/ursus/devel/optee/optee_os/lib/libutee/tee_api_arith.c:567
    6870:	a9ba7bfd 	stp	x29, x30, [sp,#-96]!
    6874:	910003fd 	mov	x29, sp
    6878:	a90153f3 	stp	x19, x20, [sp,#16]
/home/ursus/devel/optee/optee_os/lib/libutee/tee_api_arith.c:579
    687c:	d0000093 	adrp	x19, 18000 <ta_heap+0x7e40>
    6880:	9108a273 	add	x19, x19, #0x228
/home/ursus/devel/optee/optee_os/lib/libutee/tee_api_arith.c:567
    6884:	a90363f7 	stp	x23, x24, [sp,#48]
    6888:	aa0103f7 	mov	x23, x1
/home/ursus/devel/optee/optee_os/lib/libutee/tee_api_arith.c:579
    688c:	aa1303e1 	mov	x1, x19
    6890:	910163b4 	add	x20, x29, #0x58
/home/ursus/devel/optee/optee_os/lib/libutee/tee_api_arith.c:567
    6894:	f90023f9 	str	x25, [sp,#64]
    6898:	aa0303f9 	mov	x25, x3
    689c:	a9025bf5 	stp	x21, x22, [sp,#32]
    68a0:	aa0203f8 	mov	x24, x2
    68a4:	aa0003f5 	mov	x21, x0
/home/ursus/devel/optee/optee_os/lib/libutee/tee_api_arith.c:579
    68a8:	aa1403e0 	mov	x0, x20
    68ac:	9400100f 	bl	a8e8 <mpa_alloc_static_temp_var>
/home/ursus/devel/optee/optee_os/lib/libutee/tee_api_arith.c:582
    68b0:	f9402fb6 	ldr	x22, [x29,#88]
    68b4:	94000948 	bl	8dd4 <mpa_constant_one>
    68b8:	b9401324 	ldr	w4, [x25,#16]
    68bc:	aa1303e5 	mov	x5, x19
    68c0:	aa1803e3 	mov	x3, x24
    68c4:	aa1703e2 	mov	x2, x23
    68c8:	aa0003e1 	mov	x1, x0
    68cc:	aa1603e0 	mov	x0, x22
    68d0:	94000a1e 	bl	9148 <mpa_montgomery_mul>
/home/ursus/devel/optee/optee_os/lib/libutee/tee_api_arith.c:585
    68d4:	f9402fa1 	ldr	x1, [x29,#88]
    68d8:	aa1503e0 	mov	x0, x21
    68dc:	940008f1 	bl	8ca0 <mpa_copy>
/home/ursus/devel/optee/optee_os/lib/libutee/tee_api_arith.c:586
    68e0:	aa1303e1 	mov	x1, x19
    68e4:	aa1403e0 	mov	x0, x20
    68e8:	94001004 	bl	a8f8 <mpa_free_static_temp_var>
/home/ursus/devel/optee/optee_os/lib/libutee/tee_api_arith.c:587
    68ec:	f94023f9 	ldr	x25, [sp,#64]
    68f0:	a94153f3 	ldp	x19, x20, [sp,#16]
    68f4:	a9425bf5 	ldp	x21, x22, [sp,#32]
    68f8:	a94363f7 	ldp	x23, x24, [sp,#48]
    68fc:	a8c67bfd 	ldp	x29, x30, [sp],#96
    6900:	d65f03c0 	ret

0000000000006904 <TEE_BigIntComputeFMM>:
TEE_BigIntComputeFMM():
/home/ursus/devel/optee/optee_os/lib/libutee/tee_api_arith.c:604
    6904:	b9401084 	ldr	w4, [x4,#16]
    6908:	d0000085 	adrp	x5, 18000 <ta_heap+0x7e40>
    690c:	9108a0a5 	add	x5, x5, #0x228
    6910:	14000a0e 	b	9148 <mpa_montgomery_mul>

0000000000006914 <TEE_BigInt_Panic>:
TEE_BigInt_Panic():
/home/ursus/devel/optee/optee_os/lib/libutee/tee_api_arith.c:63
    6914:	a9bf7bfd 	stp	x29, x30, [sp,#-16]!
/home/ursus/devel/optee/optee_os/lib/libutee/tee_api_arith.c:64
    6918:	aa0003e1 	mov	x1, x0
    691c:	90000040 	adrp	x0, e000 <__func__.3633+0x30>
    6920:	91157800 	add	x0, x0, #0x55e
/home/ursus/devel/optee/optee_os/lib/libutee/tee_api_arith.c:63
    6924:	910003fd 	mov	x29, sp
/home/ursus/devel/optee/optee_os/lib/libutee/tee_api_arith.c:64
    6928:	94000032 	bl	69f0 <printf>
/home/ursus/devel/optee/optee_os/lib/libutee/tee_api_arith.c:65
    692c:	528c24e5 	mov	w5, #0x6127                	// #24871
    6930:	90000044 	adrp	x4, e000 <__func__.3633+0x30>
    6934:	91112884 	add	x4, x4, #0x44a
    6938:	72a01625 	movk	w5, #0xb1, lsl #16
    693c:	52800023 	mov	w3, #0x1                   	// #1
    6940:	52800022 	mov	w2, #0x1                   	// #1
    6944:	52800821 	mov	w1, #0x41                  	// #65
    6948:	f0000020 	adrp	x0, d000 <__func__.4585>
    694c:	91042000 	add	x0, x0, #0x108
    6950:	94000828 	bl	89f0 <trace_printf>
    6954:	528c24e0 	mov	w0, #0x6127                	// #24871
    6958:	72a01620 	movk	w0, #0xb1, lsl #16
    695c:	97fffb1a 	bl	55c4 <__TEE_Panic>
    6960:	14000000 	b	6960 <TEE_BigInt_Panic+0x4c>

0000000000006964 <utee_get_ta_exec_id>:
utee_get_ta_exec_id():
/home/ursus/devel/optee/optee_os/lib/libutee/arch/arm/utee_misc.c:39
    6964:	52800000 	mov	w0, #0x0                   	// #0
    6968:	d65f03c0 	ret

000000000000696c <utee_malloc>:
utee_malloc():
/home/ursus/devel/optee/optee_os/lib/libutee/arch/arm/utee_misc.c:44
    696c:	140002a2 	b	73f4 <malloc>

0000000000006970 <utee_realloc>:
utee_realloc():
/home/ursus/devel/optee/optee_os/lib/libutee/arch/arm/utee_misc.c:49
    6970:	140002c5 	b	7484 <realloc>

0000000000006974 <utee_calloc>:
utee_calloc():
/home/ursus/devel/optee/optee_os/lib/libutee/arch/arm/utee_misc.c:53
    6974:	aa0103e2 	mov	x2, x1
/home/ursus/devel/optee/optee_os/lib/libutee/arch/arm/utee_misc.c:54
    6978:	aa0003e1 	mov	x1, x0
    697c:	aa0203e0 	mov	x0, x2
    6980:	140002ae 	b	7438 <calloc>

0000000000006984 <utee_free>:
utee_free():
/home/ursus/devel/optee/optee_os/lib/libutee/arch/arm/utee_misc.c:59
    6984:	140002aa 	b	742c <free>

0000000000006988 <get_rng_array>:
get_rng_array():
/home/ursus/devel/optee/optee_os/lib/libutee/arch/arm/utee_misc.c:71
    6988:	17fffc33 	b	5a54 <utee_cryp_random_number_generate>

000000000000698c <trace_ext_puts>:
trace_ext_puts():
/home/ursus/devel/optee/optee_os/lib/libutee/trace_ext.c:39
    698c:	a9be7bfd 	stp	x29, x30, [sp,#-32]!
    6990:	910003fd 	mov	x29, sp
    6994:	f9000bf3 	str	x19, [sp,#16]
    6998:	aa0003f3 	mov	x19, x0
/home/ursus/devel/optee/optee_os/lib/libutee/trace_ext.c:40
    699c:	940004c7 	bl	7cb8 <strlen>
    69a0:	aa0003e1 	mov	x1, x0
    69a4:	aa1303e0 	mov	x0, x19
/home/ursus/devel/optee/optee_os/lib/libutee/trace_ext.c:41
    69a8:	f9400bf3 	ldr	x19, [sp,#16]
    69ac:	a8c27bfd 	ldp	x29, x30, [sp],#32
/home/ursus/devel/optee/optee_os/lib/libutee/trace_ext.c:40
    69b0:	17fffbc9 	b	58d4 <utee_log>

00000000000069b4 <trace_ext_get_thread_id>:
trace_ext_get_thread_id():
/home/ursus/devel/optee/optee_os/lib/libutee/trace_ext.c:46
    69b4:	12800000 	mov	w0, #0xffffffff            	// #-1
    69b8:	d65f03c0 	ret

00000000000069bc <puts>:
puts():
/home/ursus/devel/optee/optee_os/lib/libutee/trace_ext.c:93
    69bc:	a9be7bfd 	stp	x29, x30, [sp,#-32]!
    69c0:	910003fd 	mov	x29, sp
    69c4:	f9000bf3 	str	x19, [sp,#16]
    69c8:	aa0003f3 	mov	x19, x0
/home/ursus/devel/optee/optee_os/lib/libutee/trace_ext.c:94
    69cc:	94000805 	bl	89e0 <trace_get_level>
    69d0:	7100001f 	cmp	w0, #0x0
    69d4:	5400006d 	b.le	69e0 <puts+0x24>
/home/ursus/devel/optee/optee_os/lib/libutee/trace_ext.c:95
    69d8:	aa1303e0 	mov	x0, x19
    69dc:	97ffffec 	bl	698c <trace_ext_puts>
/home/ursus/devel/optee/optee_os/lib/libutee/trace_ext.c:97
    69e0:	52800020 	mov	w0, #0x1                   	// #1
    69e4:	f9400bf3 	ldr	x19, [sp,#16]
    69e8:	a8c27bfd 	ldp	x29, x30, [sp],#32
    69ec:	d65f03c0 	ret

00000000000069f0 <printf>:
printf():
/home/ursus/devel/optee/optee_os/lib/libutee/trace_ext.c:56
    69f0:	d108c3ff 	sub	sp, sp, #0x230
    69f4:	a9007bfd 	stp	x29, x30, [sp]
    69f8:	910003fd 	mov	x29, sp
    69fc:	a91f8ba1 	stp	x1, x2, [x29,#504]
    6a00:	910803a1 	add	x1, x29, #0x200
    6a04:	a90153f3 	stp	x19, x20, [sp,#16]
    6a08:	aa0003f3 	mov	x19, x0
    6a0c:	910403a0 	add	x0, x29, #0x100
    6a10:	a9009023 	stp	x3, x4, [x1,#8]
    6a14:	a9019825 	stp	x5, x6, [x1,#24]
    6a18:	f90117a7 	str	x7, [x29,#552]
    6a1c:	f90013f5 	str	x21, [sp,#32]
    6a20:	3d801c00 	str	q0, [x0,#112]
    6a24:	3d802001 	str	q1, [x0,#128]
    6a28:	3d802402 	str	q2, [x0,#144]
    6a2c:	3d802803 	str	q3, [x0,#160]
    6a30:	3d802c04 	str	q4, [x0,#176]
    6a34:	3d803005 	str	q5, [x0,#192]
    6a38:	3d803406 	str	q6, [x0,#208]
    6a3c:	3d803807 	str	q7, [x0,#224]
/home/ursus/devel/optee/optee_os/lib/libutee/trace_ext.c:64
    6a40:	940007e8 	bl	89e0 <trace_get_level>
    6a44:	7100001f 	cmp	w0, #0x0
    6a48:	5400018d 	b.le	6a78 <printf+0x88>
/home/ursus/devel/optee/optee_os/lib/libutee/trace_ext.c:67
    6a4c:	f0000034 	adrp	x20, d000 <__func__.4585>
    6a50:	9101c3b5 	add	x21, x29, #0x70
    6a54:	91048294 	add	x20, x20, #0x120
    6a58:	d2802002 	mov	x2, #0x100                 	// #256
    6a5c:	aa1403e1 	mov	x1, x20
    6a60:	aa1503e0 	mov	x0, x21
    6a64:	940007b8 	bl	8944 <strlcpy>
/home/ursus/devel/optee/optee_os/lib/libutee/trace_ext.c:68
    6a68:	7103fc1f 	cmp	w0, #0xff
    6a6c:	540000a9 	b.ls	6a80 <printf+0x90>
/home/ursus/devel/optee/optee_os/lib/libutee/trace_ext.c:69
    6a70:	91004280 	add	x0, x20, #0x10
    6a74:	97ffffd2 	bl	69bc <puts>
/home/ursus/devel/optee/optee_os/lib/libutee/trace_ext.c:65
    6a78:	52800013 	mov	w19, #0x0                   	// #0
    6a7c:	14000021 	b	6b00 <printf+0x110>
/home/ursus/devel/optee/optee_os/lib/libutee/trace_ext.c:73
    6a80:	9108c3a1 	add	x1, x29, #0x230
    6a84:	a90507a1 	stp	x1, x1, [x29,#80]
    6a88:	9107c3a1 	add	x1, x29, #0x1f0
    6a8c:	f90033a1 	str	x1, [x29,#96]
    6a90:	128006e1 	mov	w1, #0xffffffc8            	// #-56
    6a94:	b9006ba1 	str	w1, [x29,#104]
    6a98:	12800fe1 	mov	w1, #0xffffff80            	// #-128
    6a9c:	b9006fa1 	str	w1, [x29,#108]
/home/ursus/devel/optee/optee_os/lib/libutee/trace_ext.c:74
    6aa0:	a9450fa2 	ldp	x2, x3, [x29,#80]
    6aa4:	93407c00 	sxtw	x0, w0
    6aa8:	a9030fa2 	stp	x2, x3, [x29,#48]
    6aac:	d2802001 	mov	x1, #0x100                 	// #256
    6ab0:	a9460fa2 	ldp	x2, x3, [x29,#96]
    6ab4:	a9040fa2 	stp	x2, x3, [x29,#64]
    6ab8:	cb000021 	sub	x1, x1, x0
    6abc:	aa1303e2 	mov	x2, x19
    6ac0:	9100c3a3 	add	x3, x29, #0x30
    6ac4:	8b0002a0 	add	x0, x21, x0
    6ac8:	94000438 	bl	7ba8 <vsnprintf>
    6acc:	2a0003f3 	mov	w19, w0
/home/ursus/devel/optee/optee_os/lib/libutee/trace_ext.c:78
    6ad0:	91004280 	add	x0, x20, #0x10
/home/ursus/devel/optee/optee_os/lib/libutee/trace_ext.c:77
    6ad4:	37f80153 	tbnz	w19, #31, 6afc <printf+0x10c>
/home/ursus/devel/optee/optee_os/lib/libutee/trace_ext.c:81
    6ad8:	7103da7f 	cmp	w19, #0xf6
    6adc:	540000ed 	b.le	6af8 <printf+0x108>
/home/ursus/devel/optee/optee_os/lib/libutee/trace_ext.c:84
    6ae0:	52801e33 	mov	w19, #0xf1                  	// #241
/home/ursus/devel/optee/optee_os/lib/libutee/trace_ext.c:82
    6ae4:	d28000a2 	mov	x2, #0x5                   	// #5
    6ae8:	90000041 	adrp	x1, e000 <__func__.3633+0x30>
    6aec:	9105afa0 	add	x0, x29, #0x16b
    6af0:	9116e421 	add	x1, x1, #0x5b9
    6af4:	9400044f 	bl	7c30 <memcpy>
/home/ursus/devel/optee/optee_os/lib/libutee/trace_ext.c:87
    6af8:	aa1503e0 	mov	x0, x21
    6afc:	97ffffb0 	bl	69bc <puts>
/home/ursus/devel/optee/optee_os/lib/libutee/trace_ext.c:90
    6b00:	2a1303e0 	mov	w0, w19
    6b04:	f94013f5 	ldr	x21, [sp,#32]
    6b08:	a94153f3 	ldp	x19, x20, [sp,#16]
    6b0c:	a9407bfd 	ldp	x29, x30, [sp]
    6b10:	9108c3ff 	add	sp, sp, #0x230
    6b14:	d65f03c0 	ret

0000000000006b18 <raw_malloc_return_hook>:
raw_malloc_return_hook():
/home/ursus/devel/optee/optee_os/lib/libutils/isoc/bget_malloc.c:172
    6b18:	f0000082 	adrp	x2, 19000 <mempool_u32+0xdd8>
    6b1c:	9135a043 	add	x3, x2, #0xd68
    6b20:	91002063 	add	x3, x3, #0x8
    6b24:	f946b444 	ldr	x4, [x2,#3432]
    6b28:	b9402465 	ldr	w5, [x3,#36]
    6b2c:	eb0400bf 	cmp	x5, x4
    6b30:	5400004a 	b.ge	6b38 <raw_malloc_return_hook+0x20>
/home/ursus/devel/optee/optee_os/lib/libutils/isoc/bget_malloc.c:173
    6b34:	b9002464 	str	w4, [x3,#36]
/home/ursus/devel/optee/optee_os/lib/libutils/isoc/bget_malloc.c:175
    6b38:	b5000140 	cbnz	x0, 6b60 <raw_malloc_return_hook+0x48>
/home/ursus/devel/optee/optee_os/lib/libutils/isoc/bget_malloc.c:176
    6b3c:	9135a040 	add	x0, x2, #0xd68
    6b40:	91002000 	add	x0, x0, #0x8
    6b44:	b9402c02 	ldr	w2, [x0,#44]
    6b48:	11000442 	add	w2, w2, #0x1
    6b4c:	b9002c02 	str	w2, [x0,#44]
/home/ursus/devel/optee/optee_os/lib/libutils/isoc/bget_malloc.c:177
    6b50:	b9403002 	ldr	w2, [x0,#48]
    6b54:	eb01005f 	cmp	x2, x1
    6b58:	54000042 	b.cs	6b60 <raw_malloc_return_hook+0x48>
/home/ursus/devel/optee/optee_os/lib/libutils/isoc/bget_malloc.c:179
    6b5c:	29061001 	stp	w1, w4, [x0,#48]
    6b60:	d65f03c0 	ret

0000000000006b64 <create_free_block>:
create_free_block():
/home/ursus/devel/optee/optee_os/lib/libutils/isoc/bget_malloc.c:376
    6b64:	a9bf7bfd 	stp	x29, x30, [sp,#-16]!
/home/ursus/devel/optee/optee_os/lib/libutils/isoc/bget_malloc.c:377
    6b68:	8b010003 	add	x3, x0, x1
    6b6c:	eb02007f 	cmp	x3, x2
/home/ursus/devel/optee/optee_os/lib/libutils/isoc/bget_malloc.c:376
    6b70:	910003fd 	mov	x29, sp
/home/ursus/devel/optee/optee_os/lib/libutils/isoc/bget_malloc.c:377
    6b74:	54000140 	b.eq	6b9c <create_free_block+0x38>
/home/ursus/devel/optee/optee_os/lib/libutils/isoc/bget_malloc.c:377 (discriminator 1)
    6b78:	f0000023 	adrp	x3, d000 <__func__.4585>
    6b7c:	90000041 	adrp	x1, e000 <__func__.3633+0x30>
    6b80:	90000040 	adrp	x0, e000 <__func__.3633+0x30>
    6b84:	91052063 	add	x3, x3, #0x148
    6b88:	9116f821 	add	x1, x1, #0x5be
    6b8c:	91177800 	add	x0, x0, #0x5de
    6b90:	52802f22 	mov	w2, #0x179                 	// #377
/home/ursus/devel/optee/optee_os/lib/libutils/isoc/bget_malloc.c:378 (discriminator 1)
    6b94:	97fffda6 	bl	622c <_assert_log>
    6b98:	97fffdb6 	bl	6270 <_assert_break>
/home/ursus/devel/optee/optee_os/lib/libutils/isoc/bget_malloc.c:378
    6b9c:	f9400462 	ldr	x2, [x3,#8]
    6ba0:	b7f80122 	tbnz	x2, #63, 6bc4 <create_free_block+0x60>
/home/ursus/devel/optee/optee_os/lib/libutils/isoc/bget_malloc.c:378 (discriminator 1)
    6ba4:	f0000023 	adrp	x3, d000 <__func__.4585>
    6ba8:	90000041 	adrp	x1, e000 <__func__.3633+0x30>
    6bac:	90000040 	adrp	x0, e000 <__func__.3633+0x30>
    6bb0:	91052063 	add	x3, x3, #0x148
    6bb4:	52802f42 	mov	w2, #0x17a                 	// #378
    6bb8:	9116f821 	add	x1, x1, #0x5be
    6bbc:	9117e800 	add	x0, x0, #0x5fa
    6bc0:	17fffff5 	b	6b94 <create_free_block+0x30>
/home/ursus/devel/optee/optee_os/lib/libutils/isoc/bget_malloc.c:380
    6bc4:	f8616802 	ldr	x2, [x0,x1]
    6bc8:	b4000122 	cbz	x2, 6bec <create_free_block+0x88>
/home/ursus/devel/optee/optee_os/lib/libutils/isoc/bget_malloc.c:380 (discriminator 1)
    6bcc:	f0000023 	adrp	x3, d000 <__func__.4585>
    6bd0:	90000041 	adrp	x1, e000 <__func__.3633+0x30>
    6bd4:	90000040 	adrp	x0, e000 <__func__.3633+0x30>
    6bd8:	91052063 	add	x3, x3, #0x148
    6bdc:	52802f82 	mov	w2, #0x17c                 	// #380
    6be0:	9116f821 	add	x1, x1, #0x5be
    6be4:	91182000 	add	x0, x0, #0x608
    6be8:	17ffffeb 	b	6b94 <create_free_block+0x30>
/home/ursus/devel/optee/optee_os/lib/libutils/isoc/bget_malloc.c:383
    6bec:	a900041f 	stp	xzr, x1, [x0]
/home/ursus/devel/optee/optee_os/lib/libutils/isoc/bget_malloc.c:387
    6bf0:	f8216801 	str	x1, [x0,x1]
/home/ursus/devel/optee/optee_os/lib/libutils/isoc/bget_malloc.c:390
    6bf4:	d0000041 	adrp	x1, 10000 <modulus>
    6bf8:	91066021 	add	x1, x1, #0x198
    6bfc:	f9400c23 	ldr	x3, [x1,#24]
    6c00:	f9400862 	ldr	x2, [x3,#16]
    6c04:	eb01005f 	cmp	x2, x1
    6c08:	54000120 	b.eq	6c2c <create_free_block+0xc8>
/home/ursus/devel/optee/optee_os/lib/libutils/isoc/bget_malloc.c:390 (discriminator 1)
    6c0c:	f0000023 	adrp	x3, d000 <__func__.4585>
    6c10:	90000041 	adrp	x1, e000 <__func__.3633+0x30>
    6c14:	90000040 	adrp	x0, e000 <__func__.3633+0x30>
    6c18:	91052063 	add	x3, x3, #0x148
    6c1c:	528030c2 	mov	w2, #0x186                 	// #390
    6c20:	9116f821 	add	x1, x1, #0x5be
    6c24:	91186800 	add	x0, x0, #0x61a
    6c28:	17ffffdb 	b	6b94 <create_free_block+0x30>
/home/ursus/devel/optee/optee_os/lib/libutils/isoc/bget_malloc.c:391
    6c2c:	f9400841 	ldr	x1, [x2,#16]
    6c30:	f9400c21 	ldr	x1, [x1,#24]
    6c34:	eb02003f 	cmp	x1, x2
    6c38:	54000120 	b.eq	6c5c <create_free_block+0xf8>
/home/ursus/devel/optee/optee_os/lib/libutils/isoc/bget_malloc.c:391 (discriminator 1)
    6c3c:	f0000023 	adrp	x3, d000 <__func__.4585>
    6c40:	90000041 	adrp	x1, e000 <__func__.3633+0x30>
    6c44:	90000040 	adrp	x0, e000 <__func__.3633+0x30>
    6c48:	91052063 	add	x3, x3, #0x148
    6c4c:	528030e2 	mov	w2, #0x187                 	// #391
    6c50:	9116f821 	add	x1, x1, #0x5be
    6c54:	91190c00 	add	x0, x0, #0x643
    6c58:	17ffffcf 	b	6b94 <create_free_block+0x30>
/home/ursus/devel/optee/optee_os/lib/libutils/isoc/bget_malloc.c:393
    6c5c:	a9010c01 	stp	x1, x3, [x0,#16]
/home/ursus/devel/optee/optee_os/lib/libutils/isoc/bget_malloc.c:394
    6c60:	f9000c20 	str	x0, [x1,#24]
/home/ursus/devel/optee/optee_os/lib/libutils/isoc/bget_malloc.c:395
    6c64:	f9400c01 	ldr	x1, [x0,#24]
    6c68:	f9000820 	str	x0, [x1,#16]
/home/ursus/devel/optee/optee_os/lib/libutils/isoc/bget_malloc.c:396
    6c6c:	a8c17bfd 	ldp	x29, x30, [sp],#16
    6c70:	d65f03c0 	ret

0000000000006c74 <bget>:
bget():
/home/ursus/devel/optee/optee_os/lib/libutils/isoc/bget.c:575
    6c74:	a9bf7bfd 	stp	x29, x30, [sp,#-16]!
/home/ursus/devel/optee/optee_os/lib/libutils/isoc/bget.c:586
    6c78:	f100001f 	cmp	x0, #0x0
/home/ursus/devel/optee/optee_os/lib/libutils/isoc/bget.c:575
    6c7c:	910003fd 	mov	x29, sp
/home/ursus/devel/optee/optee_os/lib/libutils/isoc/bget.c:586
    6c80:	5400016c 	b.gt	6cac <bget+0x38>
/home/ursus/devel/optee/optee_os/lib/libutils/isoc/bget.c:586 (discriminator 1)
    6c84:	f0000023 	adrp	x3, d000 <__func__.4585>
    6c88:	91052063 	add	x3, x3, #0x148
    6c8c:	90000041 	adrp	x1, e000 <__func__.3633+0x30>
    6c90:	90000040 	adrp	x0, e000 <__func__.3633+0x30>
    6c94:	91006063 	add	x3, x3, #0x18
    6c98:	9119b021 	add	x1, x1, #0x66c
    6c9c:	91216800 	add	x0, x0, #0x85a
    6ca0:	52804942 	mov	w2, #0x24a                 	// #586
/home/ursus/devel/optee/optee_os/lib/libutils/isoc/bget.c:645 (discriminator 1)
    6ca4:	97fffd62 	bl	622c <_assert_log>
    6ca8:	97fffd72 	bl	6270 <_assert_break>
/home/ursus/devel/optee/optee_os/lib/libutils/isoc/bget.c:593
    6cac:	f100401f 	cmp	x0, #0x10
/home/ursus/devel/optee/optee_os/lib/libutils/isoc/bget.c:607
    6cb0:	d0000042 	adrp	x2, 10000 <modulus>
    6cb4:	91066042 	add	x2, x2, #0x198
/home/ursus/devel/optee/optee_os/lib/libutils/isoc/bget.c:593
    6cb8:	d2800201 	mov	x1, #0x10                  	// #16
    6cbc:	9a81a001 	csel	x1, x0, x1, ge
/home/ursus/devel/optee/optee_os/lib/libutils/isoc/bget.c:628
    6cc0:	aa0203e3 	mov	x3, x2
/home/ursus/devel/optee/optee_os/lib/libutils/isoc/bget.c:593
    6cc4:	91003c21 	add	x1, x1, #0xf
    6cc8:	927cec21 	and	x1, x1, #0xfffffffffffffff0
/home/ursus/devel/optee/optee_os/lib/libutils/isoc/bget.c:607
    6ccc:	f9400840 	ldr	x0, [x2,#16]
/home/ursus/devel/optee/optee_os/lib/libutils/isoc/bget.c:597
    6cd0:	91004021 	add	x1, x1, #0x10
/home/ursus/devel/optee/optee_os/lib/libutils/isoc/bget.c:628
    6cd4:	eb03001f 	cmp	x0, x3
    6cd8:	54000061 	b.ne	6ce4 <bget+0x70>
/home/ursus/devel/optee/optee_os/lib/libutils/isoc/bget.c:755
    6cdc:	d2800000 	mov	x0, #0x0                   	// #0
    6ce0:	14000022 	b	6d68 <bget+0xf4>
/home/ursus/devel/optee/optee_os/lib/libutils/isoc/bget.c:629
    6ce4:	f9400402 	ldr	x2, [x0,#8]
    6ce8:	eb02003f 	cmp	x1, x2
    6cec:	54000aec 	b.gt	6e48 <bget+0x1d4>
/home/ursus/devel/optee/optee_os/lib/libutils/isoc/bget.c:640
    6cf0:	cb010044 	sub	x4, x2, x1
    6cf4:	f0000083 	adrp	x3, 19000 <mempool_u32+0xdd8>
    6cf8:	f100809f 	cmp	x4, #0x20
    6cfc:	540003ad 	b.le	6d70 <bget+0xfc>
/home/ursus/devel/optee/optee_os/lib/libutils/isoc/bget.c:643
    6d00:	8b040005 	add	x5, x0, x4
/home/ursus/devel/optee/optee_os/lib/libutils/isoc/bget.c:645
    6d04:	f86168a6 	ldr	x6, [x5,x1]
    6d08:	eb06005f 	cmp	x2, x6
    6d0c:	54000140 	b.eq	6d34 <bget+0xc0>
/home/ursus/devel/optee/optee_os/lib/libutils/isoc/bget.c:645 (discriminator 1)
    6d10:	f0000023 	adrp	x3, d000 <__func__.4585>
    6d14:	91052063 	add	x3, x3, #0x148
    6d18:	90000041 	adrp	x1, e000 <__func__.3633+0x30>
    6d1c:	90000040 	adrp	x0, e000 <__func__.3633+0x30>
    6d20:	91006063 	add	x3, x3, #0x18
    6d24:	528050a2 	mov	w2, #0x285                 	// #645
    6d28:	9119b021 	add	x1, x1, #0x66c
    6d2c:	911a1400 	add	x0, x0, #0x685
    6d30:	17ffffdd 	b	6ca4 <bget+0x30>
/home/ursus/devel/optee/optee_os/lib/libutils/isoc/bget.c:647
    6d34:	f9000404 	str	x4, [x0,#8]
/home/ursus/devel/optee/optee_os/lib/libutils/isoc/bget.c:656
    6d38:	9135a062 	add	x2, x3, #0xd68
/home/ursus/devel/optee/optee_os/lib/libutils/isoc/bget.c:649
    6d3c:	f8246804 	str	x4, [x0,x4]
/home/ursus/devel/optee/optee_os/lib/libutils/isoc/bget.c:651
    6d40:	cb0103e0 	neg	x0, x1
    6d44:	f90004a0 	str	x0, [x5,#8]
/home/ursus/devel/optee/optee_os/lib/libutils/isoc/bget.c:656
    6d48:	f946b460 	ldr	x0, [x3,#3432]
/home/ursus/devel/optee/optee_os/lib/libutils/isoc/bget.c:653
    6d4c:	f82168bf 	str	xzr, [x5,x1]
/home/ursus/devel/optee/optee_os/lib/libutils/isoc/bget.c:656
    6d50:	8b010001 	add	x1, x0, x1
/home/ursus/devel/optee/optee_os/lib/libutils/isoc/bget.c:657
    6d54:	f9402040 	ldr	x0, [x2,#64]
/home/ursus/devel/optee/optee_os/lib/libutils/isoc/bget.c:656
    6d58:	f906b461 	str	x1, [x3,#3432]
/home/ursus/devel/optee/optee_os/lib/libutils/isoc/bget.c:657
    6d5c:	91000400 	add	x0, x0, #0x1
    6d60:	f9002040 	str	x0, [x2,#64]
/home/ursus/devel/optee/optee_os/lib/libutils/isoc/bget.c:659
    6d64:	910040a0 	add	x0, x5, #0x10
/home/ursus/devel/optee/optee_os/lib/libutils/isoc/bget.c:756
    6d68:	a8c17bfd 	ldp	x29, x30, [sp],#16
    6d6c:	d65f03c0 	ret
/home/ursus/devel/optee/optee_os/lib/libutils/isoc/bget.c:666
    6d70:	f8626801 	ldr	x1, [x0,x2]
/home/ursus/devel/optee/optee_os/lib/libutils/isoc/bget.c:665
    6d74:	8b020005 	add	x5, x0, x2
/home/ursus/devel/optee/optee_os/lib/libutils/isoc/bget.c:666
    6d78:	eb01005f 	cmp	x2, x1
    6d7c:	54000140 	b.eq	6da4 <bget+0x130>
/home/ursus/devel/optee/optee_os/lib/libutils/isoc/bget.c:666 (discriminator 1)
    6d80:	f0000023 	adrp	x3, d000 <__func__.4585>
    6d84:	91052063 	add	x3, x3, #0x148
    6d88:	90000041 	adrp	x1, e000 <__func__.3633+0x30>
    6d8c:	90000040 	adrp	x0, e000 <__func__.3633+0x30>
    6d90:	91006063 	add	x3, x3, #0x18
    6d94:	52805342 	mov	w2, #0x29a                 	// #666
    6d98:	9119b021 	add	x1, x1, #0x66c
    6d9c:	911a8400 	add	x0, x0, #0x6a1
    6da0:	17ffffc1 	b	6ca4 <bget+0x30>
/home/ursus/devel/optee/optee_os/lib/libutils/isoc/bget.c:671
    6da4:	f9400c01 	ldr	x1, [x0,#24]
    6da8:	f9400824 	ldr	x4, [x1,#16]
    6dac:	eb04001f 	cmp	x0, x4
    6db0:	54000140 	b.eq	6dd8 <bget+0x164>
/home/ursus/devel/optee/optee_os/lib/libutils/isoc/bget.c:671 (discriminator 1)
    6db4:	f0000023 	adrp	x3, d000 <__func__.4585>
    6db8:	91052063 	add	x3, x3, #0x148
    6dbc:	90000041 	adrp	x1, e000 <__func__.3633+0x30>
    6dc0:	90000040 	adrp	x0, e000 <__func__.3633+0x30>
    6dc4:	91006063 	add	x3, x3, #0x18
    6dc8:	528053e2 	mov	w2, #0x29f                 	// #671
    6dcc:	9119b021 	add	x1, x1, #0x66c
    6dd0:	911af400 	add	x0, x0, #0x6bd
    6dd4:	17ffffb4 	b	6ca4 <bget+0x30>
/home/ursus/devel/optee/optee_os/lib/libutils/isoc/bget.c:672
    6dd8:	f9400804 	ldr	x4, [x0,#16]
    6ddc:	f9400c86 	ldr	x6, [x4,#24]
    6de0:	eb06001f 	cmp	x0, x6
    6de4:	54000140 	b.eq	6e0c <bget+0x198>
/home/ursus/devel/optee/optee_os/lib/libutils/isoc/bget.c:672 (discriminator 1)
    6de8:	f0000023 	adrp	x3, d000 <__func__.4585>
    6dec:	91052063 	add	x3, x3, #0x148
    6df0:	90000041 	adrp	x1, e000 <__func__.3633+0x30>
    6df4:	90000040 	adrp	x0, e000 <__func__.3633+0x30>
    6df8:	91006063 	add	x3, x3, #0x18
    6dfc:	52805402 	mov	w2, #0x2a0                 	// #672
    6e00:	9119b021 	add	x1, x1, #0x66c
    6e04:	911b6000 	add	x0, x0, #0x6d8
    6e08:	17ffffa7 	b	6ca4 <bget+0x30>
/home/ursus/devel/optee/optee_os/lib/libutils/isoc/bget.c:673
    6e0c:	f9000824 	str	x4, [x1,#16]
/home/ursus/devel/optee/optee_os/lib/libutils/isoc/bget.c:688
    6e10:	91004000 	add	x0, x0, #0x10
/home/ursus/devel/optee/optee_os/lib/libutils/isoc/bget.c:674
    6e14:	f9400004 	ldr	x4, [x0]
    6e18:	f9000c81 	str	x1, [x4,#24]
/home/ursus/devel/optee/optee_os/lib/libutils/isoc/bget.c:677
    6e1c:	9135a064 	add	x4, x3, #0xd68
    6e20:	f946b461 	ldr	x1, [x3,#3432]
    6e24:	8b020021 	add	x1, x1, x2
    6e28:	f906b461 	str	x1, [x3,#3432]
/home/ursus/devel/optee/optee_os/lib/libutils/isoc/bget.c:678
    6e2c:	f9402081 	ldr	x1, [x4,#64]
/home/ursus/devel/optee/optee_os/lib/libutils/isoc/bget.c:681
    6e30:	cb0203e2 	neg	x2, x2
    6e34:	f81f8002 	stur	x2, [x0,#-8]
/home/ursus/devel/optee/optee_os/lib/libutils/isoc/bget.c:678
    6e38:	91000421 	add	x1, x1, #0x1
/home/ursus/devel/optee/optee_os/lib/libutils/isoc/bget.c:685
    6e3c:	f90000bf 	str	xzr, [x5]
/home/ursus/devel/optee/optee_os/lib/libutils/isoc/bget.c:678
    6e40:	f9002081 	str	x1, [x4,#64]
/home/ursus/devel/optee/optee_os/lib/libutils/isoc/bget.c:690
    6e44:	17ffffc9 	b	6d68 <bget+0xf4>
/home/ursus/devel/optee/optee_os/lib/libutils/isoc/bget.c:693
    6e48:	f9400800 	ldr	x0, [x0,#16]
    6e4c:	17ffffa2 	b	6cd4 <bget+0x60>

0000000000006e50 <bgetz>:
bgetz():
/home/ursus/devel/optee/optee_os/lib/libutils/isoc/bget.c:764
    6e50:	a9be7bfd 	stp	x29, x30, [sp,#-32]!
    6e54:	910003fd 	mov	x29, sp
    6e58:	a90153f3 	stp	x19, x20, [sp,#16]
    6e5c:	aa0003f4 	mov	x20, x0
/home/ursus/devel/optee/optee_os/lib/libutils/isoc/bget.c:765
    6e60:	97ffff85 	bl	6c74 <bget>
    6e64:	aa0003f3 	mov	x19, x0
/home/ursus/devel/optee/optee_os/lib/libutils/isoc/bget.c:767
    6e68:	b4000300 	cbz	x0, 6ec8 <bgetz+0x78>
/home/ursus/devel/optee/optee_os/lib/libutils/isoc/bget.c:772
    6e6c:	f85f8000 	ldur	x0, [x0,#-8]
/home/ursus/devel/optee/optee_os/lib/libutils/isoc/bget.c:773
    6e70:	b50001e0 	cbnz	x0, 6eac <bgetz+0x5c>
/home/ursus/devel/optee/optee_os/lib/libutils/isoc/bget.c:777
    6e74:	f85e8262 	ldur	x2, [x19,#-24]
    6e78:	d1006042 	sub	x2, x2, #0x18
/home/ursus/devel/optee/optee_os/lib/libutils/isoc/bget.c:781
    6e7c:	eb14005f 	cmp	x2, x20
    6e80:	540001ca 	b.ge	6eb8 <bgetz+0x68>
    6e84:	f0000023 	adrp	x3, d000 <__func__.4585>
    6e88:	91052063 	add	x3, x3, #0x148
    6e8c:	91008063 	add	x3, x3, #0x20
    6e90:	90000041 	adrp	x1, e000 <__func__.3633+0x30>
    6e94:	90000040 	adrp	x0, e000 <__func__.3633+0x30>
    6e98:	9119b021 	add	x1, x1, #0x66c
    6e9c:	911bcc00 	add	x0, x0, #0x6f3
    6ea0:	528061a2 	mov	w2, #0x30d                 	// #781
    6ea4:	97fffce2 	bl	622c <_assert_log>
    6ea8:	97fffcf2 	bl	6270 <_assert_break>
/home/ursus/devel/optee/optee_os/lib/libutils/isoc/bget.c:779
    6eac:	928001e2 	mov	x2, #0xfffffffffffffff0    	// #-16
    6eb0:	cb000042 	sub	x2, x2, x0
    6eb4:	17fffff2 	b	6e7c <bgetz+0x2c>
/home/ursus/devel/optee/optee_os/lib/libutils/isoc/bget.c:782
    6eb8:	93407c42 	sxtw	x2, w2
    6ebc:	52800001 	mov	w1, #0x0                   	// #0
    6ec0:	aa1303e0 	mov	x0, x19
    6ec4:	94000376 	bl	7c9c <memset>
/home/ursus/devel/optee/optee_os/lib/libutils/isoc/bget.c:785
    6ec8:	aa1303e0 	mov	x0, x19
    6ecc:	a94153f3 	ldp	x19, x20, [sp,#16]
    6ed0:	a8c27bfd 	ldp	x29, x30, [sp],#32
    6ed4:	d65f03c0 	ret

0000000000006ed8 <brel>:
brel():
/home/ursus/devel/optee/optee_os/lib/libutils/isoc/bget.c:835
    6ed8:	f0000084 	adrp	x4, 19000 <mempool_u32+0xdd8>
    6edc:	9135a083 	add	x3, x4, #0xd68
/home/ursus/devel/optee/optee_os/lib/libutils/isoc/bget.c:829
    6ee0:	a9bf7bfd 	stp	x29, x30, [sp,#-16]!
    6ee4:	910003fd 	mov	x29, sp
/home/ursus/devel/optee/optee_os/lib/libutils/isoc/bget.c:835
    6ee8:	f9402462 	ldr	x2, [x3,#72]
    6eec:	91000442 	add	x2, x2, #0x1
    6ef0:	f9002462 	str	x2, [x3,#72]
/home/ursus/devel/optee/optee_os/lib/libutils/isoc/bget.c:837
    6ef4:	b5000160 	cbnz	x0, 6f20 <brel+0x48>
/home/ursus/devel/optee/optee_os/lib/libutils/isoc/bget.c:837 (discriminator 1)
    6ef8:	f0000023 	adrp	x3, d000 <__func__.4585>
    6efc:	91052063 	add	x3, x3, #0x148
    6f00:	90000041 	adrp	x1, e000 <__func__.3633+0x30>
    6f04:	90000040 	adrp	x0, e000 <__func__.3633+0x30>
    6f08:	9100a063 	add	x3, x3, #0x28
    6f0c:	9119b021 	add	x1, x1, #0x66c
    6f10:	911c0400 	add	x0, x0, #0x701
    6f14:	528068a2 	mov	w2, #0x345                 	// #837
/home/ursus/devel/optee/optee_os/lib/libutils/isoc/bget.c:868 (discriminator 1)
    6f18:	97fffcc5 	bl	622c <_assert_log>
    6f1c:	97fffcd5 	bl	6270 <_assert_break>
/home/ursus/devel/optee/optee_os/lib/libutils/isoc/bget.c:865
    6f20:	f85f8002 	ldur	x2, [x0,#-8]
/home/ursus/devel/optee/optee_os/lib/libutils/isoc/bget.c:868
    6f24:	b7f80142 	tbnz	x2, #63, 6f4c <brel+0x74>
/home/ursus/devel/optee/optee_os/lib/libutils/isoc/bget.c:868 (discriminator 1)
    6f28:	f0000023 	adrp	x3, d000 <__func__.4585>
    6f2c:	91052063 	add	x3, x3, #0x148
    6f30:	90000041 	adrp	x1, e000 <__func__.3633+0x30>
    6f34:	90000040 	adrp	x0, e000 <__func__.3633+0x30>
    6f38:	9100a063 	add	x3, x3, #0x28
    6f3c:	52806c82 	mov	w2, #0x364                 	// #868
    6f40:	9119b021 	add	x1, x1, #0x66c
    6f44:	911c3400 	add	x0, x0, #0x70d
    6f48:	17fffff4 	b	6f18 <brel+0x40>
    6f4c:	d1004001 	sub	x1, x0, #0x10
/home/ursus/devel/optee/optee_os/lib/libutils/isoc/bget.c:874
    6f50:	cb020023 	sub	x3, x1, x2
    6f54:	f9400063 	ldr	x3, [x3]
    6f58:	b4000143 	cbz	x3, 6f80 <brel+0xa8>
/home/ursus/devel/optee/optee_os/lib/libutils/isoc/bget.c:874 (discriminator 1)
    6f5c:	f0000023 	adrp	x3, d000 <__func__.4585>
    6f60:	91052063 	add	x3, x3, #0x148
    6f64:	90000041 	adrp	x1, e000 <__func__.3633+0x30>
    6f68:	90000040 	adrp	x0, e000 <__func__.3633+0x30>
    6f6c:	9100a063 	add	x3, x3, #0x28
    6f70:	52806d42 	mov	w2, #0x36a                 	// #874
    6f74:	9119b021 	add	x1, x1, #0x66c
    6f78:	911c7400 	add	x0, x0, #0x71d
    6f7c:	17ffffe7 	b	6f18 <brel+0x40>
/home/ursus/devel/optee/optee_os/lib/libutils/isoc/bget.c:877
    6f80:	f946b483 	ldr	x3, [x4,#3432]
    6f84:	8b030043 	add	x3, x2, x3
    6f88:	f906b483 	str	x3, [x4,#3432]
/home/ursus/devel/optee/optee_os/lib/libutils/isoc/bget.c:878
    6f8c:	b6f80143 	tbz	x3, #63, 6fb4 <brel+0xdc>
/home/ursus/devel/optee/optee_os/lib/libutils/isoc/bget.c:878 (discriminator 1)
    6f90:	f0000023 	adrp	x3, d000 <__func__.4585>
    6f94:	91052063 	add	x3, x3, #0x148
    6f98:	90000041 	adrp	x1, e000 <__func__.3633+0x30>
    6f9c:	90000040 	adrp	x0, e000 <__func__.3633+0x30>
    6fa0:	9100a063 	add	x3, x3, #0x28
    6fa4:	52806dc2 	mov	w2, #0x36e                 	// #878
    6fa8:	9119b021 	add	x1, x1, #0x66c
    6fac:	911d2400 	add	x0, x0, #0x749
    6fb0:	17ffffda 	b	6f18 <brel+0x40>
/home/ursus/devel/optee/optee_os/lib/libutils/isoc/bget.c:883
    6fb4:	f85f0003 	ldur	x3, [x0,#-16]
    6fb8:	b4000423 	cbz	x3, 703c <brel+0x164>
/home/ursus/devel/optee/optee_os/lib/libutils/isoc/bget.c:894
    6fbc:	cb030021 	sub	x1, x1, x3
    6fc0:	f9400420 	ldr	x0, [x1,#8]
    6fc4:	eb00007f 	cmp	x3, x0
    6fc8:	54000140 	b.eq	6ff0 <brel+0x118>
/home/ursus/devel/optee/optee_os/lib/libutils/isoc/bget.c:894 (discriminator 1)
    6fcc:	f0000023 	adrp	x3, d000 <__func__.4585>
    6fd0:	91052063 	add	x3, x3, #0x148
    6fd4:	90000041 	adrp	x1, e000 <__func__.3633+0x30>
    6fd8:	90000040 	adrp	x0, e000 <__func__.3633+0x30>
    6fdc:	9100a063 	add	x3, x3, #0x28
    6fe0:	52806fc2 	mov	w2, #0x37e                 	// #894
    6fe4:	9119b021 	add	x1, x1, #0x66c
    6fe8:	911d5c00 	add	x0, x0, #0x757
    6fec:	17ffffcb 	b	6f18 <brel+0x40>
/home/ursus/devel/optee/optee_os/lib/libutils/isoc/bget.c:896
    6ff0:	cb020062 	sub	x2, x3, x2
    6ff4:	f9000422 	str	x2, [x1,#8]
/home/ursus/devel/optee/optee_os/lib/libutils/isoc/bget.c:916
    6ff8:	f9400422 	ldr	x2, [x1,#8]
    6ffc:	8b020020 	add	x0, x1, x2
/home/ursus/devel/optee/optee_os/lib/libutils/isoc/bget.c:917
    7000:	f9400403 	ldr	x3, [x0,#8]
    7004:	f100007f 	cmp	x3, #0x0
    7008:	54000a0d 	b.le	7148 <brel+0x270>
/home/ursus/devel/optee/optee_os/lib/libutils/isoc/bget.c:922
    700c:	f8636804 	ldr	x4, [x0,x3]
    7010:	eb04007f 	cmp	x3, x4
    7014:	540005a0 	b.eq	70c8 <brel+0x1f0>
/home/ursus/devel/optee/optee_os/lib/libutils/isoc/bget.c:922 (discriminator 1)
    7018:	d0000023 	adrp	x3, d000 <__func__.4585>
    701c:	91052063 	add	x3, x3, #0x148
    7020:	f0000021 	adrp	x1, e000 <__func__.3633+0x30>
    7024:	f0000020 	adrp	x0, e000 <__func__.3633+0x30>
    7028:	9100a063 	add	x3, x3, #0x28
    702c:	52807342 	mov	w2, #0x39a                 	// #922
    7030:	9119b021 	add	x1, x1, #0x66c
    7034:	911e4000 	add	x0, x0, #0x790
    7038:	17ffffb8 	b	6f18 <brel+0x40>
/home/ursus/devel/optee/optee_os/lib/libutils/isoc/bget.c:902
    703c:	b0000043 	adrp	x3, 10000 <modulus>
    7040:	91066063 	add	x3, x3, #0x198
    7044:	f9400c65 	ldr	x5, [x3,#24]
    7048:	f94008a4 	ldr	x4, [x5,#16]
    704c:	eb03009f 	cmp	x4, x3
    7050:	54000140 	b.eq	7078 <brel+0x1a0>
/home/ursus/devel/optee/optee_os/lib/libutils/isoc/bget.c:902 (discriminator 1)
    7054:	d0000023 	adrp	x3, d000 <__func__.4585>
    7058:	91052063 	add	x3, x3, #0x148
    705c:	f0000021 	adrp	x1, e000 <__func__.3633+0x30>
    7060:	f0000020 	adrp	x0, e000 <__func__.3633+0x30>
    7064:	9100a063 	add	x3, x3, #0x28
    7068:	528070c2 	mov	w2, #0x386                 	// #902
    706c:	9119b021 	add	x1, x1, #0x66c
    7070:	91186800 	add	x0, x0, #0x61a
    7074:	17ffffa9 	b	6f18 <brel+0x40>
/home/ursus/devel/optee/optee_os/lib/libutils/isoc/bget.c:903
    7078:	f9400883 	ldr	x3, [x4,#16]
    707c:	f9400c63 	ldr	x3, [x3,#24]
    7080:	eb04007f 	cmp	x3, x4
    7084:	54000140 	b.eq	70ac <brel+0x1d4>
/home/ursus/devel/optee/optee_os/lib/libutils/isoc/bget.c:903 (discriminator 1)
    7088:	d0000023 	adrp	x3, d000 <__func__.4585>
    708c:	91052063 	add	x3, x3, #0x148
    7090:	f0000021 	adrp	x1, e000 <__func__.3633+0x30>
    7094:	f0000020 	adrp	x0, e000 <__func__.3633+0x30>
    7098:	9100a063 	add	x3, x3, #0x28
    709c:	528070e2 	mov	w2, #0x387                 	// #903
    70a0:	9119b021 	add	x1, x1, #0x66c
    70a4:	91190c00 	add	x0, x0, #0x643
    70a8:	17ffff9c 	b	6f18 <brel+0x40>
/home/ursus/devel/optee/optee_os/lib/libutils/isoc/bget.c:905
    70ac:	a9011423 	stp	x3, x5, [x1,#16]
/home/ursus/devel/optee/optee_os/lib/libutils/isoc/bget.c:869
    70b0:	cb0203e2 	neg	x2, x2
/home/ursus/devel/optee/optee_os/lib/libutils/isoc/bget.c:906
    70b4:	f9000c61 	str	x1, [x3,#24]
/home/ursus/devel/optee/optee_os/lib/libutils/isoc/bget.c:907
    70b8:	f9400c23 	ldr	x3, [x1,#24]
    70bc:	f9000861 	str	x1, [x3,#16]
/home/ursus/devel/optee/optee_os/lib/libutils/isoc/bget.c:908
    70c0:	f81f8002 	stur	x2, [x0,#-8]
    70c4:	17ffffcd 	b	6ff8 <brel+0x120>
/home/ursus/devel/optee/optee_os/lib/libutils/isoc/bget.c:923
    70c8:	f9400c04 	ldr	x4, [x0,#24]
    70cc:	f9400885 	ldr	x5, [x4,#16]
    70d0:	eb05001f 	cmp	x0, x5
    70d4:	54000140 	b.eq	70fc <brel+0x224>
/home/ursus/devel/optee/optee_os/lib/libutils/isoc/bget.c:923 (discriminator 1)
    70d8:	d0000023 	adrp	x3, d000 <__func__.4585>
    70dc:	91052063 	add	x3, x3, #0x148
    70e0:	f0000021 	adrp	x1, e000 <__func__.3633+0x30>
    70e4:	f0000020 	adrp	x0, e000 <__func__.3633+0x30>
    70e8:	9100a063 	add	x3, x3, #0x28
    70ec:	52807362 	mov	w2, #0x39b                 	// #923
    70f0:	9119b021 	add	x1, x1, #0x66c
    70f4:	911f2400 	add	x0, x0, #0x7c9
    70f8:	17ffff88 	b	6f18 <brel+0x40>
/home/ursus/devel/optee/optee_os/lib/libutils/isoc/bget.c:924
    70fc:	f9400805 	ldr	x5, [x0,#16]
    7100:	f9400ca6 	ldr	x6, [x5,#24]
    7104:	eb06001f 	cmp	x0, x6
    7108:	54000140 	b.eq	7130 <brel+0x258>
/home/ursus/devel/optee/optee_os/lib/libutils/isoc/bget.c:924 (discriminator 1)
    710c:	d0000023 	adrp	x3, d000 <__func__.4585>
    7110:	91052063 	add	x3, x3, #0x148
    7114:	f0000021 	adrp	x1, e000 <__func__.3633+0x30>
    7118:	f0000020 	adrp	x0, e000 <__func__.3633+0x30>
    711c:	9100a063 	add	x3, x3, #0x28
    7120:	52807382 	mov	w2, #0x39c                 	// #924
    7124:	9119b021 	add	x1, x1, #0x66c
    7128:	911f9800 	add	x0, x0, #0x7e6
    712c:	17ffff7b 	b	6f18 <brel+0x40>
/home/ursus/devel/optee/optee_os/lib/libutils/isoc/bget.c:925
    7130:	f9000885 	str	x5, [x4,#16]
/home/ursus/devel/optee/optee_os/lib/libutils/isoc/bget.c:926
    7134:	f9400800 	ldr	x0, [x0,#16]
    7138:	f9000c04 	str	x4, [x0,#24]
/home/ursus/devel/optee/optee_os/lib/libutils/isoc/bget.c:927
    713c:	8b030040 	add	x0, x2, x3
    7140:	f9000420 	str	x0, [x1,#8]
/home/ursus/devel/optee/optee_os/lib/libutils/isoc/bget.c:936
    7144:	8b000020 	add	x0, x1, x0
/home/ursus/devel/optee/optee_os/lib/libutils/isoc/bget.c:942
    7148:	f9400402 	ldr	x2, [x0,#8]
    714c:	b7f80142 	tbnz	x2, #63, 7174 <brel+0x29c>
/home/ursus/devel/optee/optee_os/lib/libutils/isoc/bget.c:942 (discriminator 1)
    7150:	d0000023 	adrp	x3, d000 <__func__.4585>
    7154:	91052063 	add	x3, x3, #0x148
    7158:	f0000021 	adrp	x1, e000 <__func__.3633+0x30>
    715c:	f0000020 	adrp	x0, e000 <__func__.3633+0x30>
    7160:	9100a063 	add	x3, x3, #0x28
    7164:	528075c2 	mov	w2, #0x3ae                 	// #942
    7168:	9119b021 	add	x1, x1, #0x66c
    716c:	91200c00 	add	x0, x0, #0x803
    7170:	17ffff6a 	b	6f18 <brel+0x40>
/home/ursus/devel/optee/optee_os/lib/libutils/isoc/bget.c:947
    7174:	f9400421 	ldr	x1, [x1,#8]
    7178:	f9000001 	str	x1, [x0]
/home/ursus/devel/optee/optee_os/lib/libutils/isoc/bget.c:975
    717c:	a8c17bfd 	ldp	x29, x30, [sp],#16
    7180:	d65f03c0 	ret

0000000000007184 <bgetr>:
bgetr():
/home/ursus/devel/optee/optee_os/lib/libutils/isoc/bget.c:795
    7184:	a9bd7bfd 	stp	x29, x30, [sp,#-48]!
    7188:	910003fd 	mov	x29, sp
    718c:	a90153f3 	stp	x19, x20, [sp,#16]
    7190:	aa0003f3 	mov	x19, x0
    7194:	f90013f5 	str	x21, [sp,#32]
    7198:	aa0103f4 	mov	x20, x1
/home/ursus/devel/optee/optee_os/lib/libutils/isoc/bget.c:800
    719c:	aa0103e0 	mov	x0, x1
    71a0:	97fffeb5 	bl	6c74 <bget>
    71a4:	aa0003f5 	mov	x21, x0
    71a8:	b4000320 	cbz	x0, 720c <bgetr+0x88>
/home/ursus/devel/optee/optee_os/lib/libutils/isoc/bget.c:803
    71ac:	b4000313 	cbz	x19, 720c <bgetr+0x88>
/home/ursus/devel/optee/optee_os/lib/libutils/isoc/bget.c:817
    71b0:	f85f8261 	ldur	x1, [x19,#-8]
    71b4:	928001e3 	mov	x3, #0xfffffffffffffff0    	// #-16
    71b8:	cb010063 	sub	x3, x3, x1
/home/ursus/devel/optee/optee_os/lib/libutils/isoc/bget.c:818
    71bc:	f100007f 	cmp	x3, #0x0
    71c0:	5400016c 	b.gt	71ec <bgetr+0x68>
    71c4:	d0000023 	adrp	x3, d000 <__func__.4585>
    71c8:	91052063 	add	x3, x3, #0x148
    71cc:	9100c063 	add	x3, x3, #0x30
    71d0:	f0000021 	adrp	x1, e000 <__func__.3633+0x30>
    71d4:	f0000020 	adrp	x0, e000 <__func__.3633+0x30>
    71d8:	9119b021 	add	x1, x1, #0x66c
    71dc:	91205000 	add	x0, x0, #0x814
    71e0:	52806642 	mov	w2, #0x332                 	// #818
    71e4:	97fffc12 	bl	622c <_assert_log>
    71e8:	97fffc22 	bl	6270 <_assert_break>
/home/ursus/devel/optee/optee_os/lib/libutils/isoc/bget.c:819
    71ec:	93407e81 	sxtw	x1, w20
    71f0:	93407c62 	sxtw	x2, w3
    71f4:	eb03029f 	cmp	x20, x3
    71f8:	9a81a042 	csel	x2, x2, x1, ge
    71fc:	aa1303e1 	mov	x1, x19
    7200:	9400028c 	bl	7c30 <memcpy>
/home/ursus/devel/optee/optee_os/lib/libutils/isoc/bget.c:821
    7204:	aa1303e0 	mov	x0, x19
    7208:	97ffff34 	bl	6ed8 <brel>
/home/ursus/devel/optee/optee_os/lib/libutils/isoc/bget.c:823
    720c:	aa1503e0 	mov	x0, x21
    7210:	f94013f5 	ldr	x21, [sp,#32]
    7214:	a94153f3 	ldp	x19, x20, [sp,#16]
    7218:	a8c37bfd 	ldp	x29, x30, [sp],#48
    721c:	d65f03c0 	ret

0000000000007220 <bpool>:
bpool():
/home/ursus/devel/optee/optee_os/lib/libutils/isoc/bget.c:999
    7220:	a9bf7bfd 	stp	x29, x30, [sp,#-16]!
/home/ursus/devel/optee/optee_os/lib/libutils/isoc/bget.c:1004
    7224:	927cec21 	and	x1, x1, #0xfffffffffffffff0
/home/ursus/devel/optee/optee_os/lib/libutils/isoc/bget.c:1023
    7228:	f1004021 	subs	x1, x1, #0x10
/home/ursus/devel/optee/optee_os/lib/libutils/isoc/bget.c:999
    722c:	910003fd 	mov	x29, sp
/home/ursus/devel/optee/optee_os/lib/libutils/isoc/bget.c:1023
    7230:	54000165 	b.pl	725c <bpool+0x3c>
    7234:	d0000023 	adrp	x3, d000 <__func__.4585>
    7238:	91052063 	add	x3, x3, #0x148
    723c:	f0000021 	adrp	x1, e000 <__func__.3633+0x30>
    7240:	f0000020 	adrp	x0, e000 <__func__.3633+0x30>
    7244:	9100e063 	add	x3, x3, #0x38
    7248:	9119b021 	add	x1, x1, #0x66c
    724c:	91207800 	add	x0, x0, #0x81e
    7250:	52807fe2 	mov	w2, #0x3ff                 	// #1023
/home/ursus/devel/optee/optee_os/lib/libutils/isoc/bget.c:1033 (discriminator 1)
    7254:	97fffbf6 	bl	622c <_assert_log>
    7258:	97fffc06 	bl	6270 <_assert_break>
/home/ursus/devel/optee/optee_os/lib/libutils/isoc/bget.c:1033
    725c:	b0000042 	adrp	x2, 10000 <modulus>
    7260:	91066042 	add	x2, x2, #0x198
    7264:	f9400c44 	ldr	x4, [x2,#24]
    7268:	f9400883 	ldr	x3, [x4,#16]
/home/ursus/devel/optee/optee_os/lib/libutils/isoc/bget.c:1029
    726c:	f900001f 	str	xzr, [x0]
/home/ursus/devel/optee/optee_os/lib/libutils/isoc/bget.c:1033
    7270:	eb02007f 	cmp	x3, x2
    7274:	54000140 	b.eq	729c <bpool+0x7c>
/home/ursus/devel/optee/optee_os/lib/libutils/isoc/bget.c:1033 (discriminator 1)
    7278:	d0000023 	adrp	x3, d000 <__func__.4585>
    727c:	91052063 	add	x3, x3, #0x148
    7280:	f0000021 	adrp	x1, e000 <__func__.3633+0x30>
    7284:	f0000020 	adrp	x0, e000 <__func__.3633+0x30>
    7288:	9100e063 	add	x3, x3, #0x38
    728c:	52808122 	mov	w2, #0x409                 	// #1033
    7290:	9119b021 	add	x1, x1, #0x66c
    7294:	91186800 	add	x0, x0, #0x61a
    7298:	17ffffef 	b	7254 <bpool+0x34>
/home/ursus/devel/optee/optee_os/lib/libutils/isoc/bget.c:1034
    729c:	f9400862 	ldr	x2, [x3,#16]
    72a0:	f9400c42 	ldr	x2, [x2,#24]
    72a4:	eb03005f 	cmp	x2, x3
    72a8:	54000140 	b.eq	72d0 <bpool+0xb0>
/home/ursus/devel/optee/optee_os/lib/libutils/isoc/bget.c:1034 (discriminator 1)
    72ac:	d0000023 	adrp	x3, d000 <__func__.4585>
    72b0:	91052063 	add	x3, x3, #0x148
    72b4:	f0000021 	adrp	x1, e000 <__func__.3633+0x30>
    72b8:	f0000020 	adrp	x0, e000 <__func__.3633+0x30>
    72bc:	9100e063 	add	x3, x3, #0x38
    72c0:	52808142 	mov	w2, #0x40a                 	// #1034
    72c4:	9119b021 	add	x1, x1, #0x66c
    72c8:	91190c00 	add	x0, x0, #0x643
    72cc:	17ffffe2 	b	7254 <bpool+0x34>
/home/ursus/devel/optee/optee_os/lib/libutils/isoc/bget.c:1036
    72d0:	a9011002 	stp	x2, x4, [x0,#16]
/home/ursus/devel/optee/optee_os/lib/libutils/isoc/bget.c:1037
    72d4:	f9000c40 	str	x0, [x2,#24]
/home/ursus/devel/optee/optee_os/lib/libutils/isoc/bget.c:1038
    72d8:	f9400c02 	ldr	x2, [x0,#24]
    72dc:	f9000840 	str	x0, [x2,#16]
/home/ursus/devel/optee/optee_os/lib/libutils/isoc/bget.c:1054
    72e0:	8b010002 	add	x2, x0, x1
/home/ursus/devel/optee/optee_os/lib/libutils/isoc/bget.c:1049
    72e4:	f9000401 	str	x1, [x0,#8]
/home/ursus/devel/optee/optee_os/lib/libutils/isoc/bget.c:1055
    72e8:	f8216801 	str	x1, [x0,x1]
/home/ursus/devel/optee/optee_os/lib/libutils/isoc/bget.c:1058
    72ec:	d2f00000 	mov	x0, #0x8000000000000000    	// #-9223372036854775808
    72f0:	f9000440 	str	x0, [x2,#8]
/home/ursus/devel/optee/optee_os/lib/libutils/isoc/bget.c:1059
    72f4:	a8c17bfd 	ldp	x29, x30, [sp],#16
    72f8:	d65f03c0 	ret

00000000000072fc <bstats>:
bstats():
/home/ursus/devel/optee/optee_os/lib/libutils/isoc/bget.c:1071
    72fc:	d0000087 	adrp	x7, 19000 <mempool_u32+0xdd8>
    7300:	9135a0e8 	add	x8, x7, #0xd68
/home/ursus/devel/optee/optee_os/lib/libutils/isoc/bget.c:1069
    7304:	b0000045 	adrp	x5, 10000 <modulus>
    7308:	910660a5 	add	x5, x5, #0x198
/home/ursus/devel/optee/optee_os/lib/libutils/isoc/bget.c:1071
    730c:	f9402109 	ldr	x9, [x8,#64]
/home/ursus/devel/optee/optee_os/lib/libutils/isoc/bget.c:1069
    7310:	f94008a6 	ldr	x6, [x5,#16]
/home/ursus/devel/optee/optee_os/lib/libutils/isoc/bget.c:1071
    7314:	f9000069 	str	x9, [x3]
/home/ursus/devel/optee/optee_os/lib/libutils/isoc/bget.c:1072
    7318:	f9402503 	ldr	x3, [x8,#72]
    731c:	f9000083 	str	x3, [x4]
/home/ursus/devel/optee/optee_os/lib/libutils/isoc/bget.c:1073
    7320:	f946b4e3 	ldr	x3, [x7,#3432]
    7324:	f9000003 	str	x3, [x0]
/home/ursus/devel/optee/optee_os/lib/libutils/isoc/bget.c:1075
    7328:	92800000 	mov	x0, #0xffffffffffffffff    	// #-1
/home/ursus/devel/optee/optee_os/lib/libutils/isoc/bget.c:1074
    732c:	f900003f 	str	xzr, [x1]
/home/ursus/devel/optee/optee_os/lib/libutils/isoc/bget.c:1075
    7330:	f9000040 	str	x0, [x2]
/home/ursus/devel/optee/optee_os/lib/libutils/isoc/bget.c:1076
    7334:	eb0500df 	cmp	x6, x5
    7338:	54000041 	b.ne	7340 <bstats+0x44>
    733c:	d65f03c0 	ret
/home/ursus/devel/optee/optee_os/lib/libutils/isoc/bget.c:1077
    7340:	f94004c3 	ldr	x3, [x6,#8]
    7344:	f100007f 	cmp	x3, #0x0
    7348:	540001ac 	b.gt	737c <bstats+0x80>
/home/ursus/devel/optee/optee_os/lib/libutils/isoc/bget.c:1077 (discriminator 1)
    734c:	d0000023 	adrp	x3, d000 <__func__.4585>
    7350:	91052063 	add	x3, x3, #0x148
    7354:	91010063 	add	x3, x3, #0x40
    7358:	f0000021 	adrp	x1, e000 <__func__.3633+0x30>
    735c:	f0000020 	adrp	x0, e000 <__func__.3633+0x30>
    7360:	9119b021 	add	x1, x1, #0x66c
    7364:	91214c00 	add	x0, x0, #0x853
/home/ursus/devel/optee/optee_os/lib/libutils/isoc/bget.c:1068 (discriminator 1)
    7368:	a9bf7bfd 	stp	x29, x30, [sp,#-16]!
/home/ursus/devel/optee/optee_os/lib/libutils/isoc/bget.c:1077 (discriminator 1)
    736c:	528086a2 	mov	w2, #0x435                 	// #1077
/home/ursus/devel/optee/optee_os/lib/libutils/isoc/bget.c:1068 (discriminator 1)
    7370:	910003fd 	mov	x29, sp
/home/ursus/devel/optee/optee_os/lib/libutils/isoc/bget.c:1077 (discriminator 1)
    7374:	97fffbae 	bl	622c <_assert_log>
    7378:	97fffbbe 	bl	6270 <_assert_break>
/home/ursus/devel/optee/optee_os/lib/libutils/isoc/bget.c:1078
    737c:	f9400020 	ldr	x0, [x1]
    7380:	8b030000 	add	x0, x0, x3
    7384:	f9000020 	str	x0, [x1]
/home/ursus/devel/optee/optee_os/lib/libutils/isoc/bget.c:1079
    7388:	f9400043 	ldr	x3, [x2]
    738c:	f94004c0 	ldr	x0, [x6,#8]
    7390:	eb03001f 	cmp	x0, x3
    7394:	5400004d 	b.le	739c <bstats+0xa0>
/home/ursus/devel/optee/optee_os/lib/libutils/isoc/bget.c:1080
    7398:	f9000040 	str	x0, [x2]
/home/ursus/devel/optee/optee_os/lib/libutils/isoc/bget.c:1082
    739c:	f94008c6 	ldr	x6, [x6,#16]
    73a0:	17ffffe5 	b	7334 <bstats+0x38>

00000000000073a4 <malloc_reset_stats>:
malloc_reset_stats():
/home/ursus/devel/optee/optee_os/lib/libutils/isoc/bget_malloc.c:188
    73a4:	d0000080 	adrp	x0, 19000 <mempool_u32+0xdd8>
    73a8:	9135a000 	add	x0, x0, #0xd68
    73ac:	b9002c1f 	str	wzr, [x0,#44]
/home/ursus/devel/optee/optee_os/lib/libutils/isoc/bget_malloc.c:190
    73b0:	2906fc1f 	stp	wzr, wzr, [x0,#52]
/home/ursus/devel/optee/optee_os/lib/libutils/isoc/bget_malloc.c:191
    73b4:	b9003c1f 	str	wzr, [x0,#60]
/home/ursus/devel/optee/optee_os/lib/libutils/isoc/bget_malloc.c:188
    73b8:	d65f03c0 	ret

00000000000073bc <malloc_get_stats>:
malloc_get_stats():
/home/ursus/devel/optee/optee_os/lib/libutils/isoc/bget_malloc.c:196
    73bc:	a9be7bfd 	stp	x29, x30, [sp,#-32]!
/home/ursus/devel/optee/optee_os/lib/libutils/isoc/bget_malloc.c:199
    73c0:	d2800702 	mov	x2, #0x38                  	// #56
/home/ursus/devel/optee/optee_os/lib/libutils/isoc/bget_malloc.c:196
    73c4:	910003fd 	mov	x29, sp
    73c8:	f9000bf3 	str	x19, [sp,#16]
/home/ursus/devel/optee/optee_os/lib/libutils/isoc/bget_malloc.c:199
    73cc:	d0000093 	adrp	x19, 19000 <mempool_u32+0xdd8>
    73d0:	9135a261 	add	x1, x19, #0xd68
    73d4:	91002021 	add	x1, x1, #0x8
    73d8:	94000216 	bl	7c30 <memcpy>
    73dc:	aa0003e3 	mov	x3, x0
/home/ursus/devel/optee/optee_os/lib/libutils/isoc/bget_malloc.c:200
    73e0:	f946b660 	ldr	x0, [x19,#3432]
/home/ursus/devel/optee/optee_os/lib/libutils/isoc/bget_malloc.c:202
    73e4:	f9400bf3 	ldr	x19, [sp,#16]
/home/ursus/devel/optee/optee_os/lib/libutils/isoc/bget_malloc.c:200
    73e8:	b9002060 	str	w0, [x3,#32]
/home/ursus/devel/optee/optee_os/lib/libutils/isoc/bget_malloc.c:202
    73ec:	a8c27bfd 	ldp	x29, x30, [sp],#32
    73f0:	d65f03c0 	ret

00000000000073f4 <malloc>:
malloc():
/home/ursus/devel/optee/optee_os/lib/libutils/isoc/bget_malloc.c:810
    73f4:	a9be7bfd 	stp	x29, x30, [sp,#-32]!
raw_malloc():
/home/ursus/devel/optee/optee_os/lib/libutils/isoc/bget_malloc.c:311
    73f8:	f100001f 	cmp	x0, #0x0
malloc():
/home/ursus/devel/optee/optee_os/lib/libutils/isoc/bget_malloc.c:810
    73fc:	910003fd 	mov	x29, sp
    7400:	a90153f3 	stp	x19, x20, [sp,#16]
    7404:	aa0003f3 	mov	x19, x0
raw_malloc():
/home/ursus/devel/optee/optee_os/lib/libutils/isoc/bget_malloc.c:314
    7408:	9a9f1400 	csinc	x0, x0, xzr, ne
    740c:	97fffe1a 	bl	6c74 <bget>
/home/ursus/devel/optee/optee_os/lib/libutils/isoc/bget_malloc.c:316
    7410:	aa1303e1 	mov	x1, x19
/home/ursus/devel/optee/optee_os/lib/libutils/isoc/bget_malloc.c:314
    7414:	aa0003f4 	mov	x20, x0
/home/ursus/devel/optee/optee_os/lib/libutils/isoc/bget_malloc.c:316
    7418:	97fffdc0 	bl	6b18 <raw_malloc_return_hook>
malloc():
/home/ursus/devel/optee/optee_os/lib/libutils/isoc/bget_malloc.c:817
    741c:	aa1403e0 	mov	x0, x20
    7420:	a94153f3 	ldp	x19, x20, [sp,#16]
    7424:	a8c27bfd 	ldp	x29, x30, [sp],#32
    7428:	d65f03c0 	ret

000000000000742c <free>:
raw_free():
/home/ursus/devel/optee/optee_os/lib/libutils/isoc/bget_malloc.c:325
    742c:	b4000040 	cbz	x0, 7434 <free+0x8>
/home/ursus/devel/optee/optee_os/lib/libutils/isoc/bget_malloc.c:326
    7430:	17fffeaa 	b	6ed8 <brel>
    7434:	d65f03c0 	ret

0000000000007438 <calloc>:
calloc():
/home/ursus/devel/optee/optee_os/lib/libutils/isoc/bget_malloc.c:828
    7438:	a9be7bfd 	stp	x29, x30, [sp,#-32]!
    743c:	910003fd 	mov	x29, sp
    7440:	a90153f3 	stp	x19, x20, [sp,#16]
raw_calloc():
/home/ursus/devel/optee/optee_os/lib/libutils/isoc/bget_malloc.c:332
    7444:	9b017c13 	mul	x19, x0, x1
/home/ursus/devel/optee/optee_os/lib/libutils/isoc/bget_malloc.c:333
    7448:	d2800014 	mov	x20, #0x0                   	// #0
/home/ursus/devel/optee/optee_os/lib/libutils/isoc/bget_malloc.c:338
    744c:	eb13001f 	cmp	x0, x19
    7450:	fa539022 	ccmp	x1, x19, #0x2, ls
    7454:	540000a8 	b.hi	7468 <calloc+0x30>
/home/ursus/devel/optee/optee_os/lib/libutils/isoc/bget_malloc.c:342
    7458:	f100027f 	cmp	x19, #0x0
/home/ursus/devel/optee/optee_os/lib/libutils/isoc/bget_malloc.c:345
    745c:	9a9f1660 	csinc	x0, x19, xzr, ne
    7460:	97fffe7c 	bl	6e50 <bgetz>
    7464:	aa0003f4 	mov	x20, x0
/home/ursus/devel/optee/optee_os/lib/libutils/isoc/bget_malloc.c:347
    7468:	aa1303e1 	mov	x1, x19
    746c:	aa1403e0 	mov	x0, x20
    7470:	97fffdaa 	bl	6b18 <raw_malloc_return_hook>
calloc():
/home/ursus/devel/optee/optee_os/lib/libutils/isoc/bget_malloc.c:835
    7474:	aa1403e0 	mov	x0, x20
    7478:	a94153f3 	ldp	x19, x20, [sp,#16]
    747c:	a8c27bfd 	ldp	x29, x30, [sp],#32
    7480:	d65f03c0 	ret

0000000000007484 <realloc>:
realloc():
/home/ursus/devel/optee/optee_os/lib/libutils/isoc/bget_malloc.c:843
    7484:	a9be7bfd 	stp	x29, x30, [sp,#-32]!
raw_realloc():
/home/ursus/devel/optee/optee_os/lib/libutils/isoc/bget_malloc.c:365
    7488:	f100003f 	cmp	x1, #0x0
realloc():
/home/ursus/devel/optee/optee_os/lib/libutils/isoc/bget_malloc.c:843
    748c:	910003fd 	mov	x29, sp
    7490:	a90153f3 	stp	x19, x20, [sp,#16]
    7494:	aa0103f3 	mov	x19, x1
raw_realloc():
/home/ursus/devel/optee/optee_os/lib/libutils/isoc/bget_malloc.c:368
    7498:	9a9f1421 	csinc	x1, x1, xzr, ne
    749c:	97ffff3a 	bl	7184 <bgetr>
/home/ursus/devel/optee/optee_os/lib/libutils/isoc/bget_malloc.c:370
    74a0:	aa1303e1 	mov	x1, x19
/home/ursus/devel/optee/optee_os/lib/libutils/isoc/bget_malloc.c:368
    74a4:	aa0003f4 	mov	x20, x0
/home/ursus/devel/optee/optee_os/lib/libutils/isoc/bget_malloc.c:370
    74a8:	97fffd9c 	bl	6b18 <raw_malloc_return_hook>
realloc():
/home/ursus/devel/optee/optee_os/lib/libutils/isoc/bget_malloc.c:850
    74ac:	aa1403e0 	mov	x0, x20
    74b0:	a94153f3 	ldp	x19, x20, [sp,#16]
    74b4:	a8c27bfd 	ldp	x29, x30, [sp],#32
    74b8:	d65f03c0 	ret

00000000000074bc <memalign>:
memalign():
/home/ursus/devel/optee/optee_os/lib/libutils/isoc/bget_malloc.c:853
    74bc:	a9bd7bfd 	stp	x29, x30, [sp,#-48]!
    74c0:	910003fd 	mov	x29, sp
    74c4:	a90153f3 	stp	x19, x20, [sp,#16]
    74c8:	a9025bf5 	stp	x21, x22, [sp,#32]
raw_memalign():
/home/ursus/devel/optee/optee_os/lib/libutils/isoc/bget_malloc.c:529
    74cc:	b4001bc0 	cbz	x0, 7844 <memalign+0x388>
    74d0:	cb0003f3 	neg	x19, x0
    74d4:	ea33001f 	bics	xzr, x0, x19
    74d8:	54001b61 	b.ne	7844 <memalign+0x388>
    74dc:	aa0103f5 	mov	x21, x1
    74e0:	aa0003f4 	mov	x20, x0
/home/ursus/devel/optee/optee_os/lib/libutils/isoc/bget_malloc.c:536
    74e4:	f100401f 	cmp	x0, #0x10
    74e8:	54000188 	b.hi	7518 <memalign+0x5c>
raw_malloc():
/home/ursus/devel/optee/optee_os/lib/libutils/isoc/bget_malloc.c:311
    74ec:	f100003f 	cmp	x1, #0x0
/home/ursus/devel/optee/optee_os/lib/libutils/isoc/bget_malloc.c:314
    74f0:	9a9f1420 	csinc	x0, x1, xzr, ne
    74f4:	97fffde0 	bl	6c74 <bget>
    74f8:	aa0003f3 	mov	x19, x0
/home/ursus/devel/optee/optee_os/lib/libutils/isoc/bget_malloc.c:316
    74fc:	aa1503e1 	mov	x1, x21
raw_memalign():
/home/ursus/devel/optee/optee_os/lib/libutils/isoc/bget_malloc.c:583
    7500:	97fffd86 	bl	6b18 <raw_malloc_return_hook>
memalign():
/home/ursus/devel/optee/optee_os/lib/libutils/isoc/bget_malloc.c:860
    7504:	aa1303e0 	mov	x0, x19
    7508:	a94153f3 	ldp	x19, x20, [sp,#16]
    750c:	a9425bf5 	ldp	x21, x22, [sp,#32]
    7510:	a8c37bfd 	ldp	x29, x30, [sp],#48
    7514:	d65f03c0 	ret
raw_memalign():
/home/ursus/devel/optee/optee_os/lib/libutils/isoc/bget_malloc.c:539
    7518:	91008036 	add	x22, x1, #0x20
    751c:	8b0002d6 	add	x22, x22, x0
/home/ursus/devel/optee/optee_os/lib/libutils/isoc/bget_malloc.c:543
    7520:	eb16001f 	cmp	x0, x22
    7524:	fa569022 	ccmp	x1, x22, #0x2, ls
    7528:	540018e8 	b.hi	7844 <memalign+0x388>
/home/ursus/devel/optee/optee_os/lib/libutils/isoc/bget_malloc.c:546
    752c:	aa1603e0 	mov	x0, x22
    7530:	97fffdd1 	bl	6c74 <bget>
    7534:	aa0003e1 	mov	x1, x0
/home/ursus/devel/optee/optee_os/lib/libutils/isoc/bget_malloc.c:547
    7538:	b40017e0 	cbz	x0, 7834 <memalign+0x378>
/home/ursus/devel/optee/optee_os/lib/libutils/isoc/bget_malloc.c:550
    753c:	d1000680 	sub	x0, x20, #0x1
    7540:	ea00003f 	tst	x1, x0
    7544:	54000a80 	b.eq	7694 <memalign+0x1d8>
/home/ursus/devel/optee/optee_os/lib/libutils/isoc/bget_malloc.c:563
    7548:	8b010280 	add	x0, x20, x1
/home/ursus/devel/optee/optee_os/lib/libutils/isoc/bget_malloc.c:568
    754c:	8b160036 	add	x22, x1, x22
/home/ursus/devel/optee/optee_os/lib/libutils/isoc/bget_malloc.c:564
    7550:	8a000273 	and	x19, x19, x0
/home/ursus/devel/optee/optee_os/lib/libutils/isoc/bget_malloc.c:566
    7554:	cb010260 	sub	x0, x19, x1
/home/ursus/devel/optee/optee_os/lib/libutils/isoc/bget_malloc.c:567
    7558:	8b140274 	add	x20, x19, x20
    755c:	f1007c1f 	cmp	x0, #0x1f
    7560:	9a939293 	csel	x19, x20, x19, ls
/home/ursus/devel/optee/optee_os/lib/libutils/isoc/bget_malloc.c:568
    7564:	8b1302a0 	add	x0, x21, x19
    7568:	eb16001f 	cmp	x0, x22
    756c:	54000169 	b.ls	7598 <memalign+0xdc>
    7570:	d0000023 	adrp	x3, d000 <__func__.4585>
    7574:	91052063 	add	x3, x3, #0x148
    7578:	f0000021 	adrp	x1, e000 <__func__.3633+0x30>
    757c:	f0000020 	adrp	x0, e000 <__func__.3633+0x30>
    7580:	91012063 	add	x3, x3, #0x48
    7584:	9116f821 	add	x1, x1, #0x5be
    7588:	91218c00 	add	x0, x0, #0x863
    758c:	52804702 	mov	w2, #0x238                 	// #568
brel_before():
/home/ursus/devel/optee/optee_os/lib/libutils/isoc/bget_malloc.c:405
    7590:	97fffb27 	bl	622c <_assert_log>
    7594:	97fffb37 	bl	6270 <_assert_break>
    7598:	eb13003f 	cmp	x1, x19
    759c:	54000143 	b.cc	75c4 <memalign+0x108>
    75a0:	d0000023 	adrp	x3, d000 <__func__.4585>
    75a4:	91052063 	add	x3, x3, #0x148
    75a8:	f0000021 	adrp	x1, e000 <__func__.3633+0x30>
    75ac:	f0000020 	adrp	x0, e000 <__func__.3633+0x30>
    75b0:	91016063 	add	x3, x3, #0x58
    75b4:	528032a2 	mov	w2, #0x195                 	// #405
    75b8:	9116f821 	add	x1, x1, #0x5be
    75bc:	91223c00 	add	x0, x0, #0x88f
    75c0:	17fffff4 	b	7590 <memalign+0xd4>
/home/ursus/devel/optee/optee_os/lib/libutils/isoc/bget_malloc.c:407
    75c4:	cb010274 	sub	x20, x19, x1
/home/ursus/devel/optee/optee_os/lib/libutils/isoc/bget_malloc.c:408
    75c8:	f1007e9f 	cmp	x20, #0x1f
    75cc:	54000148 	b.hi	75f4 <memalign+0x138>
    75d0:	d0000023 	adrp	x3, d000 <__func__.4585>
    75d4:	91052063 	add	x3, x3, #0x148
    75d8:	f0000021 	adrp	x1, e000 <__func__.3633+0x30>
    75dc:	f0000020 	adrp	x0, e000 <__func__.3633+0x30>
    75e0:	91016063 	add	x3, x3, #0x58
    75e4:	52803302 	mov	w2, #0x198                 	// #408
    75e8:	9116f821 	add	x1, x1, #0x5be
    75ec:	91228800 	add	x0, x0, #0x8a2
    75f0:	17ffffe8 	b	7590 <memalign+0xd4>
/home/ursus/devel/optee/optee_os/lib/libutils/isoc/bget_malloc.c:412
    75f4:	f85f8022 	ldur	x2, [x1,#-8]
/home/ursus/devel/optee/optee_os/lib/libutils/isoc/bget_malloc.c:411
    75f8:	d1004020 	sub	x0, x1, #0x10
/home/ursus/devel/optee/optee_os/lib/libutils/isoc/bget_malloc.c:417
    75fc:	f85f0021 	ldur	x1, [x1,#-16]
    7600:	8b020282 	add	x2, x20, x2
    7604:	b40003e1 	cbz	x1, 7680 <memalign+0x1c4>
/home/ursus/devel/optee/optee_os/lib/libutils/isoc/bget_malloc.c:422
    7608:	cb010000 	sub	x0, x0, x1
/home/ursus/devel/optee/optee_os/lib/libutils/isoc/bget_malloc.c:423
    760c:	f9400403 	ldr	x3, [x0,#8]
    7610:	eb03003f 	cmp	x1, x3
    7614:	54000140 	b.eq	763c <memalign+0x180>
    7618:	d0000023 	adrp	x3, d000 <__func__.4585>
    761c:	91052063 	add	x3, x3, #0x148
    7620:	f0000021 	adrp	x1, e000 <__func__.3633+0x30>
    7624:	f0000020 	adrp	x0, e000 <__func__.3633+0x30>
    7628:	91016063 	add	x3, x3, #0x58
    762c:	528034e2 	mov	w2, #0x1a7                 	// #423
    7630:	9116f821 	add	x1, x1, #0x5be
    7634:	91232400 	add	x0, x0, #0x8c9
    7638:	17ffffd6 	b	7590 <memalign+0xd4>
/home/ursus/devel/optee/optee_os/lib/libutils/isoc/bget_malloc.c:424
    763c:	8b010281 	add	x1, x20, x1
    7640:	f9000401 	str	x1, [x0,#8]
/home/ursus/devel/optee/optee_os/lib/libutils/isoc/bget_malloc.c:429
    7644:	a93f0a61 	stp	x1, x2, [x19,#-16]
/home/ursus/devel/optee/optee_os/lib/libutils/isoc/bget_malloc.c:443
    7648:	d0000081 	adrp	x1, 19000 <mempool_u32+0xdd8>
    764c:	f946b420 	ldr	x0, [x1,#3432]
    7650:	cb140014 	sub	x20, x0, x20
    7654:	f906b434 	str	x20, [x1,#3432]
/home/ursus/devel/optee/optee_os/lib/libutils/isoc/bget_malloc.c:444
    7658:	b6f80214 	tbz	x20, #63, 7698 <memalign+0x1dc>
    765c:	d0000023 	adrp	x3, d000 <__func__.4585>
    7660:	91052063 	add	x3, x3, #0x148
    7664:	91016063 	add	x3, x3, #0x58
    7668:	52803782 	mov	w2, #0x1bc                 	// #444
brel_after():
/home/ursus/devel/optee/optee_os/lib/libutils/isoc/bget_malloc.c:516
    766c:	f0000021 	adrp	x1, e000 <__func__.3633+0x30>
    7670:	f0000020 	adrp	x0, e000 <__func__.3633+0x30>
    7674:	9116f821 	add	x1, x1, #0x5be
    7678:	911d2400 	add	x0, x0, #0x749
    767c:	17ffffc5 	b	7590 <memalign+0xd4>
brel_before():
/home/ursus/devel/optee/optee_os/lib/libutils/isoc/bget_malloc.c:437
    7680:	f81f8262 	stur	x2, [x19,#-8]
/home/ursus/devel/optee/optee_os/lib/libutils/isoc/bget_malloc.c:439
    7684:	aa1403e1 	mov	x1, x20
    7688:	d1004262 	sub	x2, x19, #0x10
    768c:	97fffd36 	bl	6b64 <create_free_block>
    7690:	17ffffee 	b	7648 <memalign+0x18c>
raw_memalign():
/home/ursus/devel/optee/optee_os/lib/libutils/isoc/bget_malloc.c:550
    7694:	aa0103f3 	mov	x19, x1
brel_after():
/home/ursus/devel/optee/optee_os/lib/libutils/isoc/bget_malloc.c:460
    7698:	f10042bf 	cmp	x21, #0x10
    769c:	d2800200 	mov	x0, #0x10                  	// #16
    76a0:	9a8022a0 	csel	x0, x21, x0, cs
/home/ursus/devel/optee/optee_os/lib/libutils/isoc/bget_malloc.c:464
    76a4:	f85f8262 	ldur	x2, [x19,#-8]
/home/ursus/devel/optee/optee_os/lib/libutils/isoc/bget_malloc.c:460
    76a8:	91003c00 	add	x0, x0, #0xf
/home/ursus/devel/optee/optee_os/lib/libutils/isoc/bget_malloc.c:464
    76ac:	d1004264 	sub	x4, x19, #0x10
/home/ursus/devel/optee/optee_os/lib/libutils/isoc/bget_malloc.c:460
    76b0:	927cec00 	and	x0, x0, #0xfffffffffffffff0
/home/ursus/devel/optee/optee_os/lib/libutils/isoc/bget_malloc.c:464
    76b4:	cb0203f4 	neg	x20, x2
/home/ursus/devel/optee/optee_os/lib/libutils/isoc/bget_malloc.c:463
    76b8:	91004001 	add	x1, x0, #0x10
/home/ursus/devel/optee/optee_os/lib/libutils/isoc/bget_malloc.c:464
    76bc:	eb14003f 	cmp	x1, x20
    76c0:	5400014d 	b.le	76e8 <memalign+0x22c>
    76c4:	d0000023 	adrp	x3, d000 <__func__.4585>
    76c8:	91052063 	add	x3, x3, #0x148
    76cc:	f0000021 	adrp	x1, e000 <__func__.3633+0x30>
    76d0:	f0000020 	adrp	x0, e000 <__func__.3633+0x30>
    76d4:	9101a063 	add	x3, x3, #0x68
    76d8:	52803a02 	mov	w2, #0x1d0                 	// #464
    76dc:	9116f821 	add	x1, x1, #0x5be
    76e0:	9123a800 	add	x0, x0, #0x8ea
    76e4:	17ffffab 	b	7590 <memalign+0xd4>
/home/ursus/devel/optee/optee_os/lib/libutils/isoc/bget_malloc.c:470
    76e8:	cb010294 	sub	x20, x20, x1
/home/ursus/devel/optee/optee_os/lib/libutils/isoc/bget_malloc.c:471
    76ec:	f1007e9f 	cmp	x20, #0x1f
    76f0:	54000a4d 	b.le	7838 <memalign+0x37c>
/home/ursus/devel/optee/optee_os/lib/libutils/isoc/bget_malloc.c:474
    76f4:	928001e3 	mov	x3, #0xfffffffffffffff0    	// #-16
    76f8:	cb020063 	sub	x3, x3, x2
    76fc:	8b030262 	add	x2, x19, x3
/home/ursus/devel/optee/optee_os/lib/libutils/isoc/bget_malloc.c:478
    7700:	cb0103e1 	neg	x1, x1
    7704:	f9000481 	str	x1, [x4,#8]
    7708:	8b000260 	add	x0, x19, x0
/home/ursus/devel/optee/optee_os/lib/libutils/isoc/bget_malloc.c:479
    770c:	f9400441 	ldr	x1, [x2,#8]
    7710:	f100003f 	cmp	x1, #0x0
    7714:	540008ad 	b.le	7828 <memalign+0x36c>
/home/ursus/devel/optee/optee_os/lib/libutils/isoc/bget_malloc.c:485
    7718:	f8636a63 	ldr	x3, [x19,x3]
    771c:	b4000143 	cbz	x3, 7744 <memalign+0x288>
    7720:	d0000023 	adrp	x3, d000 <__func__.4585>
    7724:	91052063 	add	x3, x3, #0x148
    7728:	f0000021 	adrp	x1, e000 <__func__.3633+0x30>
    772c:	f0000020 	adrp	x0, e000 <__func__.3633+0x30>
    7730:	9101a063 	add	x3, x3, #0x68
    7734:	52803ca2 	mov	w2, #0x1e5                 	// #485
    7738:	9116f821 	add	x1, x1, #0x5be
    773c:	91240000 	add	x0, x0, #0x900
    7740:	17ffff94 	b	7590 <memalign+0xd4>
/home/ursus/devel/optee/optee_os/lib/libutils/isoc/bget_malloc.c:486
    7744:	f8616843 	ldr	x3, [x2,x1]
    7748:	eb03003f 	cmp	x1, x3
    774c:	54000140 	b.eq	7774 <memalign+0x2b8>
    7750:	d0000023 	adrp	x3, d000 <__func__.4585>
    7754:	91052063 	add	x3, x3, #0x148
    7758:	f0000021 	adrp	x1, e000 <__func__.3633+0x30>
    775c:	f0000020 	adrp	x0, e000 <__func__.3633+0x30>
    7760:	9101a063 	add	x3, x3, #0x68
    7764:	52803cc2 	mov	w2, #0x1e6                 	// #486
    7768:	9116f821 	add	x1, x1, #0x5be
    776c:	91245800 	add	x0, x0, #0x916
    7770:	17ffff88 	b	7590 <memalign+0xd4>
/home/ursus/devel/optee/optee_os/lib/libutils/isoc/bget_malloc.c:490
    7774:	8b010283 	add	x3, x20, x1
    7778:	a9000c1f 	stp	xzr, x3, [x0]
/home/ursus/devel/optee/optee_os/lib/libutils/isoc/bget_malloc.c:493
    777c:	f8616843 	ldr	x3, [x2,x1]
    7780:	8b140063 	add	x3, x3, x20
    7784:	f8216843 	str	x3, [x2,x1]
/home/ursus/devel/optee/optee_os/lib/libutils/isoc/bget_malloc.c:499
    7788:	f9400c41 	ldr	x1, [x2,#24]
    778c:	f9400823 	ldr	x3, [x1,#16]
    7790:	eb03005f 	cmp	x2, x3
    7794:	54000140 	b.eq	77bc <memalign+0x300>
    7798:	d0000023 	adrp	x3, d000 <__func__.4585>
    779c:	91052063 	add	x3, x3, #0x148
    77a0:	f0000021 	adrp	x1, e000 <__func__.3633+0x30>
    77a4:	f0000020 	adrp	x0, e000 <__func__.3633+0x30>
    77a8:	9101a063 	add	x3, x3, #0x68
    77ac:	52803e62 	mov	w2, #0x1f3                 	// #499
    77b0:	9116f821 	add	x1, x1, #0x5be
    77b4:	9124d400 	add	x0, x0, #0x935
    77b8:	17ffff76 	b	7590 <memalign+0xd4>
/home/ursus/devel/optee/optee_os/lib/libutils/isoc/bget_malloc.c:500
    77bc:	f9400843 	ldr	x3, [x2,#16]
    77c0:	f9400c64 	ldr	x4, [x3,#24]
    77c4:	eb04005f 	cmp	x2, x4
    77c8:	54000140 	b.eq	77f0 <memalign+0x334>
    77cc:	d0000023 	adrp	x3, d000 <__func__.4585>
    77d0:	91052063 	add	x3, x3, #0x148
    77d4:	f0000021 	adrp	x1, e000 <__func__.3633+0x30>
    77d8:	f0000020 	adrp	x0, e000 <__func__.3633+0x30>
    77dc:	9101a063 	add	x3, x3, #0x68
    77e0:	52803e82 	mov	w2, #0x1f4                 	// #500
    77e4:	9116f821 	add	x1, x1, #0x5be
    77e8:	91255000 	add	x0, x0, #0x954
    77ec:	17ffff69 	b	7590 <memalign+0xd4>
/home/ursus/devel/optee/optee_os/lib/libutils/isoc/bget_malloc.c:503
    77f0:	a9010403 	stp	x3, x1, [x0,#16]
/home/ursus/devel/optee/optee_os/lib/libutils/isoc/bget_malloc.c:507
    77f4:	f9000820 	str	x0, [x1,#16]
/home/ursus/devel/optee/optee_os/lib/libutils/isoc/bget_malloc.c:508
    77f8:	f9400801 	ldr	x1, [x0,#16]
    77fc:	f9000c20 	str	x0, [x1,#24]
/home/ursus/devel/optee/optee_os/lib/libutils/isoc/bget_malloc.c:515
    7800:	d0000081 	adrp	x1, 19000 <mempool_u32+0xdd8>
    7804:	f946b420 	ldr	x0, [x1,#3432]
    7808:	cb140014 	sub	x20, x0, x20
    780c:	f906b434 	str	x20, [x1,#3432]
/home/ursus/devel/optee/optee_os/lib/libutils/isoc/bget_malloc.c:516
    7810:	b6f80154 	tbz	x20, #63, 7838 <memalign+0x37c>
    7814:	d0000023 	adrp	x3, d000 <__func__.4585>
    7818:	91052063 	add	x3, x3, #0x148
    781c:	9101a063 	add	x3, x3, #0x68
    7820:	52804082 	mov	w2, #0x204                 	// #516
    7824:	17ffff92 	b	766c <memalign+0x1b0>
/home/ursus/devel/optee/optee_os/lib/libutils/isoc/bget_malloc.c:511
    7828:	aa1403e1 	mov	x1, x20
    782c:	97fffcce 	bl	6b64 <create_free_block>
    7830:	17fffff4 	b	7800 <memalign+0x344>
raw_memalign():
/home/ursus/devel/optee/optee_os/lib/libutils/isoc/bget_malloc.c:547
    7834:	d2800013 	mov	x19, #0x0                   	// #0
/home/ursus/devel/optee/optee_os/lib/libutils/isoc/bget_malloc.c:583
    7838:	aa1503e1 	mov	x1, x21
    783c:	aa1303e0 	mov	x0, x19
    7840:	17ffff30 	b	7500 <memalign+0x44>
/home/ursus/devel/optee/optee_os/lib/libutils/isoc/bget_malloc.c:530
    7844:	d2800013 	mov	x19, #0x0                   	// #0
memalign():
/home/ursus/devel/optee/optee_os/lib/libutils/isoc/bget_malloc.c:859
    7848:	17ffff2f 	b	7504 <memalign+0x48>

000000000000784c <malloc_add_pool>:
malloc_add_pool():
/home/ursus/devel/optee/optee_os/lib/libutils/isoc/bget_malloc.c:871
    784c:	a9bc7bfd 	stp	x29, x30, [sp,#-64]!
    7850:	910003fd 	mov	x29, sp
    7854:	a90153f3 	stp	x19, x20, [sp,#16]
/home/ursus/devel/optee/optee_os/lib/libutils/isoc/bget_malloc.c:876
    7858:	8b010013 	add	x19, x0, x1
/home/ursus/devel/optee/optee_os/lib/libutils/isoc/bget_malloc.c:871
    785c:	a9025bf5 	stp	x21, x22, [sp,#32]
/home/ursus/devel/optee/optee_os/lib/libutils/isoc/bget_malloc.c:882
    7860:	91003c00 	add	x0, x0, #0xf
/home/ursus/devel/optee/optee_os/lib/libutils/isoc/bget_malloc.c:871
    7864:	a90363f7 	stp	x23, x24, [sp,#48]
/home/ursus/devel/optee/optee_os/lib/libutils/isoc/bget_malloc.c:882
    7868:	927cec14 	and	x20, x0, #0xfffffffffffffff0
/home/ursus/devel/optee/optee_os/lib/libutils/isoc/bget_malloc.c:883
    786c:	927cee73 	and	x19, x19, #0xfffffffffffffff0
/home/ursus/devel/optee/optee_os/lib/libutils/isoc/bget_malloc.c:884
    7870:	eb13029f 	cmp	x20, x19
    7874:	54000163 	b.cc	78a0 <malloc_add_pool+0x54>
/home/ursus/devel/optee/optee_os/lib/libutils/isoc/bget_malloc.c:884 (discriminator 1)
    7878:	d0000023 	adrp	x3, d000 <__func__.4585>
    787c:	91052063 	add	x3, x3, #0x148
    7880:	f0000021 	adrp	x1, e000 <__func__.3633+0x30>
    7884:	f0000020 	adrp	x0, e000 <__func__.3633+0x30>
    7888:	9101e063 	add	x3, x3, #0x78
    788c:	9116f821 	add	x1, x1, #0x5be
    7890:	9125cc00 	add	x0, x0, #0x973
    7894:	52806e82 	mov	w2, #0x374                 	// #884
/home/ursus/devel/optee/optee_os/lib/libutils/isoc/bget_malloc.c:896 (discriminator 1)
    7898:	97fffa65 	bl	622c <_assert_log>
    789c:	97fffa75 	bl	6270 <_assert_break>
/home/ursus/devel/optee/optee_os/lib/libutils/isoc/bget_malloc.c:886
    78a0:	cb140273 	sub	x19, x19, x20
    78a4:	f100be7f 	cmp	x19, #0x2f
    78a8:	54000449 	b.ls	7930 <malloc_add_pool+0xe4>
/home/ursus/devel/optee/optee_os/lib/libutils/isoc/bget_malloc.c:894
    78ac:	d0000095 	adrp	x21, 19000 <mempool_u32+0xdd8>
    78b0:	9135a2b5 	add	x21, x21, #0xd68
/home/ursus/devel/optee/optee_os/lib/libutils/isoc/bget_malloc.c:893
    78b4:	aa1303e1 	mov	x1, x19
    78b8:	aa1403e0 	mov	x0, x20
    78bc:	97fffe59 	bl	7220 <bpool>
raw_realloc():
/home/ursus/devel/optee/optee_os/lib/libutils/isoc/bget_malloc.c:368
    78c0:	a94502b6 	ldp	x22, x0, [x21,#80]
malloc_add_pool():
/home/ursus/devel/optee/optee_os/lib/libutils/isoc/bget_malloc.c:894
    78c4:	910006d6 	add	x22, x22, #0x1
/home/ursus/devel/optee/optee_os/lib/libutils/isoc/bget_malloc.c:895
    78c8:	d37ceed7 	lsl	x23, x22, #4
raw_realloc():
/home/ursus/devel/optee/optee_os/lib/libutils/isoc/bget_malloc.c:365
    78cc:	f10002ff 	cmp	x23, #0x0
/home/ursus/devel/optee/optee_os/lib/libutils/isoc/bget_malloc.c:368
    78d0:	9a9f16e1 	csinc	x1, x23, xzr, ne
    78d4:	97fffe2c 	bl	7184 <bgetr>
    78d8:	aa0003f8 	mov	x24, x0
/home/ursus/devel/optee/optee_os/lib/libutils/isoc/bget_malloc.c:370
    78dc:	aa1703e1 	mov	x1, x23
    78e0:	97fffc8e 	bl	6b18 <raw_malloc_return_hook>
malloc_add_pool():
/home/ursus/devel/optee/optee_os/lib/libutils/isoc/bget_malloc.c:896
    78e4:	b5000158 	cbnz	x24, 790c <malloc_add_pool+0xc0>
/home/ursus/devel/optee/optee_os/lib/libutils/isoc/bget_malloc.c:896 (discriminator 1)
    78e8:	d0000023 	adrp	x3, d000 <__func__.4585>
    78ec:	91052063 	add	x3, x3, #0x148
    78f0:	f0000021 	adrp	x1, e000 <__func__.3633+0x30>
    78f4:	f0000020 	adrp	x0, e000 <__func__.3633+0x30>
    78f8:	9101e063 	add	x3, x3, #0x78
    78fc:	52807002 	mov	w2, #0x380                 	// #896
    7900:	9116f821 	add	x1, x1, #0x5be
    7904:	9125fc00 	add	x0, x0, #0x97f
    7908:	17ffffe4 	b	7898 <malloc_add_pool+0x4c>
/home/ursus/devel/optee/optee_os/lib/libutils/isoc/bget_malloc.c:898
    790c:	f9402aa0 	ldr	x0, [x21,#80]
/home/ursus/devel/optee/optee_os/lib/libutils/isoc/bget_malloc.c:897
    7910:	a90562b6 	stp	x22, x24, [x21,#80]
/home/ursus/devel/optee/optee_os/lib/libutils/isoc/bget_malloc.c:898
    7914:	d37cec00 	lsl	x0, x0, #4
    7918:	8b000301 	add	x1, x24, x0
    791c:	f8206b14 	str	x20, [x24,x0]
/home/ursus/devel/optee/optee_os/lib/libutils/isoc/bget_malloc.c:899
    7920:	f9000433 	str	x19, [x1,#8]
/home/ursus/devel/optee/optee_os/lib/libutils/isoc/bget_malloc.c:901
    7924:	b94032a1 	ldr	w1, [x21,#48]
    7928:	0b130033 	add	w19, w1, w19
    792c:	b90032b3 	str	w19, [x21,#48]
/home/ursus/devel/optee/optee_os/lib/libutils/isoc/bget_malloc.c:905
    7930:	a94153f3 	ldp	x19, x20, [sp,#16]
    7934:	a9425bf5 	ldp	x21, x22, [sp,#32]
    7938:	a94363f7 	ldp	x23, x24, [sp,#48]
    793c:	a8c47bfd 	ldp	x29, x30, [sp],#64
    7940:	d65f03c0 	ret

0000000000007944 <malloc_buffer_is_within_alloced>:
malloc_buffer_is_within_alloced():
/home/ursus/devel/optee/optee_os/lib/libutils/isoc/bget_malloc.c:912
    7944:	8b010001 	add	x1, x0, x1
/home/ursus/devel/optee/optee_os/lib/libutils/isoc/bget_malloc.c:919
    7948:	eb01001f 	cmp	x0, x1
    794c:	54000b88 	b.hi	7abc <malloc_buffer_is_within_alloced+0x178>
    7950:	aa0003e5 	mov	x5, x0
bpool_foreach_iterator_init():
/home/ursus/devel/optee/optee_os/lib/libutils/isoc/bget_malloc.c:234
    7954:	d0000080 	adrp	x0, 19000 <mempool_u32+0xdd8>
    7958:	9135a000 	add	x0, x0, #0xd68
/home/ursus/devel/optee/optee_os/lib/libutils/isoc/bget_malloc.c:233
    795c:	d2800006 	mov	x6, #0x0                   	// #0
bpool_foreach_pool():
/home/ursus/devel/optee/optee_os/lib/libutils/isoc/bget_malloc.c:243
    7960:	d2f0000b 	mov	x11, #0x8000000000000000    	// #-9223372036854775808
bget_buf_size():
/home/ursus/devel/optee/optee_os/lib/libutils/isoc/bget_malloc.c:605
    7964:	928001e9 	mov	x9, #0xfffffffffffffff0    	// #-16
bpool_foreach_iterator_init():
/home/ursus/devel/optee/optee_os/lib/libutils/isoc/bget_malloc.c:234
    7968:	a9451c0a 	ldp	x10, x7, [x0,#80]
    796c:	f94000e3 	ldr	x3, [x7]
bpool_foreach_pool():
/home/ursus/devel/optee/optee_os/lib/libutils/isoc/bget_malloc.c:241
    7970:	f9400462 	ldr	x2, [x3,#8]
bpool_foreach():
/home/ursus/devel/optee/optee_os/lib/libutils/isoc/bget_malloc.c:283
    7974:	aa0303e4 	mov	x4, x3
bpool_foreach_pool():
/home/ursus/devel/optee/optee_os/lib/libutils/isoc/bget_malloc.c:243
    7978:	eb0b005f 	cmp	x2, x11
    797c:	540009a0 	b.eq	7ab0 <malloc_buffer_is_within_alloced+0x16c>
malloc_buffer_is_within_alloced():
/home/ursus/devel/optee/optee_os/lib/libutils/isoc/bget_malloc.c:908
    7980:	a9bf7bfd 	stp	x29, x30, [sp,#-16]!
    7984:	910003fd 	mov	x29, sp
    7988:	1400000d 	b	79bc <malloc_buffer_is_within_alloced+0x78>
bpool_foreach_pool():
/home/ursus/devel/optee/optee_os/lib/libutils/isoc/bget_malloc.c:260
    798c:	91004084 	add	x4, x4, #0x10
malloc_buffer_is_within_alloced():
/home/ursus/devel/optee/optee_os/lib/libutils/isoc/bget_malloc.c:928
    7990:	8b020082 	add	x2, x4, x2
/home/ursus/devel/optee/optee_os/lib/libutils/isoc/bget_malloc.c:930
    7994:	eb02003f 	cmp	x1, x2
    7998:	1a9f87e2 	cset	w2, ls
    799c:	eb0400bf 	cmp	x5, x4
    79a0:	1a9f37e0 	cset	w0, cs
    79a4:	6a000040 	ands	w0, w2, w0
    79a8:	540007a1 	b.ne	7a9c <malloc_buffer_is_within_alloced+0x158>
bpool_foreach_pool():
/home/ursus/devel/optee/optee_os/lib/libutils/isoc/bget_malloc.c:241
    79ac:	f9400462 	ldr	x2, [x3,#8]
bpool_foreach():
/home/ursus/devel/optee/optee_os/lib/libutils/isoc/bget_malloc.c:283
    79b0:	aa0303e4 	mov	x4, x3
bpool_foreach_pool():
/home/ursus/devel/optee/optee_os/lib/libutils/isoc/bget_malloc.c:243
    79b4:	eb0b005f 	cmp	x2, x11
    79b8:	540006a0 	b.eq	7a8c <malloc_buffer_is_within_alloced+0x148>
/home/ursus/devel/optee/optee_os/lib/libutils/isoc/bget_malloc.c:246
    79bc:	b6f80242 	tbz	x2, #63, 7a04 <malloc_buffer_is_within_alloced+0xc0>
/home/ursus/devel/optee/optee_os/lib/libutils/isoc/bget_malloc.c:248
    79c0:	cb0203e8 	neg	x8, x2
/home/ursus/devel/optee/optee_os/lib/libutils/isoc/bget_malloc.c:250
    79c4:	52800000 	mov	w0, #0x0                   	// #0
/home/ursus/devel/optee/optee_os/lib/libutils/isoc/bget_malloc.c:263
    79c8:	8b080063 	add	x3, x3, x8
bpool_foreach():
/home/ursus/devel/optee/optee_os/lib/libutils/isoc/bget_malloc.c:274
    79cc:	35ffff00 	cbnz	w0, 79ac <malloc_buffer_is_within_alloced+0x68>
bget_buf_size():
/home/ursus/devel/optee/optee_os/lib/libutils/isoc/bget_malloc.c:605
    79d0:	cb020122 	sub	x2, x9, x2
/home/ursus/devel/optee/optee_os/lib/libutils/isoc/bget_malloc.c:606
    79d4:	f100005f 	cmp	x2, #0x0
    79d8:	54fffdac 	b.gt	798c <malloc_buffer_is_within_alloced+0x48>
    79dc:	d0000023 	adrp	x3, d000 <__func__.4585>
    79e0:	91052063 	add	x3, x3, #0x148
    79e4:	91022063 	add	x3, x3, #0x88
    79e8:	f0000021 	adrp	x1, e000 <__func__.3633+0x30>
    79ec:	f0000020 	adrp	x0, e000 <__func__.3633+0x30>
    79f0:	9116f821 	add	x1, x1, #0x5be
    79f4:	91205000 	add	x0, x0, #0x814
    79f8:	52804bc2 	mov	w2, #0x25e                 	// #606
    79fc:	97fffa0c 	bl	622c <_assert_log>
    7a00:	97fffa1c 	bl	6270 <_assert_break>
bpool_foreach_pool():
/home/ursus/devel/optee/optee_os/lib/libutils/isoc/bget_malloc.c:256
    7a04:	f9400c60 	ldr	x0, [x3,#24]
    7a08:	f9400800 	ldr	x0, [x0,#16]
    7a0c:	eb00007f 	cmp	x3, x0
    7a10:	54000160 	b.eq	7a3c <malloc_buffer_is_within_alloced+0xf8>
    7a14:	d0000023 	adrp	x3, d000 <__func__.4585>
    7a18:	91052063 	add	x3, x3, #0x148
    7a1c:	91026063 	add	x3, x3, #0x98
    7a20:	f0000021 	adrp	x1, e000 <__func__.3633+0x30>
    7a24:	f0000020 	adrp	x0, e000 <__func__.3633+0x30>
    7a28:	9116f821 	add	x1, x1, #0x5be
    7a2c:	911af400 	add	x0, x0, #0x6bd
    7a30:	52802002 	mov	w2, #0x100                 	// #256
    7a34:	97fff9fe 	bl	622c <_assert_log>
    7a38:	97fffa0e 	bl	6270 <_assert_break>
/home/ursus/devel/optee/optee_os/lib/libutils/isoc/bget_malloc.c:257
    7a3c:	f9400860 	ldr	x0, [x3,#16]
    7a40:	f9400c00 	ldr	x0, [x0,#24]
    7a44:	eb00007f 	cmp	x3, x0
    7a48:	54000160 	b.eq	7a74 <malloc_buffer_is_within_alloced+0x130>
    7a4c:	d0000023 	adrp	x3, d000 <__func__.4585>
    7a50:	91052063 	add	x3, x3, #0x148
    7a54:	91026063 	add	x3, x3, #0x98
    7a58:	f0000021 	adrp	x1, e000 <__func__.3633+0x30>
    7a5c:	f0000020 	adrp	x0, e000 <__func__.3633+0x30>
    7a60:	9116f821 	add	x1, x1, #0x5be
    7a64:	911b6000 	add	x0, x0, #0x6d8
    7a68:	52802022 	mov	w2, #0x101                 	// #257
    7a6c:	97fff9f0 	bl	622c <_assert_log>
    7a70:	97fffa00 	bl	6270 <_assert_break>
    7a74:	aa0203e8 	mov	x8, x2
/home/ursus/devel/optee/optee_os/lib/libutils/isoc/bget_malloc.c:253
    7a78:	52800020 	mov	w0, #0x1                   	// #1
    7a7c:	17ffffd3 	b	79c8 <malloc_buffer_is_within_alloced+0x84>
bpool_foreach():
/home/ursus/devel/optee/optee_os/lib/libutils/isoc/bget_malloc.c:283
    7a80:	d37cecc0 	lsl	x0, x6, #4
    7a84:	f86068e3 	ldr	x3, [x7,x0]
    7a88:	17ffffc9 	b	79ac <malloc_buffer_is_within_alloced+0x68>
/home/ursus/devel/optee/optee_os/lib/libutils/isoc/bget_malloc.c:279
    7a8c:	910004c6 	add	x6, x6, #0x1
    7a90:	eb0a00df 	cmp	x6, x10
    7a94:	54ffff63 	b.cc	7a80 <malloc_buffer_is_within_alloced+0x13c>
malloc_buffer_is_within_alloced():
/home/ursus/devel/optee/optee_os/lib/libutils/isoc/bget_malloc.c:913
    7a98:	52800000 	mov	w0, #0x0                   	// #0
/home/ursus/devel/optee/optee_os/lib/libutils/isoc/bget_malloc.c:940
    7a9c:	a8c17bfd 	ldp	x29, x30, [sp],#16
    7aa0:	d65f03c0 	ret
bpool_foreach():
/home/ursus/devel/optee/optee_os/lib/libutils/isoc/bget_malloc.c:283
    7aa4:	d37cecc0 	lsl	x0, x6, #4
    7aa8:	f86068e3 	ldr	x3, [x7,x0]
    7aac:	17ffffb1 	b	7970 <malloc_buffer_is_within_alloced+0x2c>
/home/ursus/devel/optee/optee_os/lib/libutils/isoc/bget_malloc.c:279
    7ab0:	910004c6 	add	x6, x6, #0x1
    7ab4:	eb0a00df 	cmp	x6, x10
    7ab8:	54ffff63 	b.cc	7aa4 <malloc_buffer_is_within_alloced+0x160>
malloc_buffer_is_within_alloced():
/home/ursus/devel/optee/optee_os/lib/libutils/isoc/bget_malloc.c:913
    7abc:	52800000 	mov	w0, #0x0                   	// #0
/home/ursus/devel/optee/optee_os/lib/libutils/isoc/bget_malloc.c:939
    7ac0:	d65f03c0 	ret

0000000000007ac4 <malloc_buffer_overlaps_heap>:
malloc_buffer_overlaps_heap():
/home/ursus/devel/optee/optee_os/lib/libutils/isoc/bget_malloc.c:952
    7ac4:	d0000082 	adrp	x2, 19000 <mempool_u32+0xdd8>
    7ac8:	9135a042 	add	x2, x2, #0xd68
/home/ursus/devel/optee/optee_os/lib/libutils/isoc/bget_malloc.c:945
    7acc:	8b010001 	add	x1, x0, x1
/home/ursus/devel/optee/optee_os/lib/libutils/isoc/bget_malloc.c:952
    7ad0:	d2800005 	mov	x5, #0x0                   	// #0
    7ad4:	a9450c47 	ldp	x7, x3, [x2,#80]
/home/ursus/devel/optee/optee_os/lib/libutils/isoc/bget_malloc.c:952 (discriminator 1)
    7ad8:	eb0700bf 	cmp	x5, x7
    7adc:	54000081 	b.ne	7aec <malloc_buffer_overlaps_heap+0x28>
/home/ursus/devel/optee/optee_os/lib/libutils/isoc/bget_malloc.c:947
    7ae0:	52800002 	mov	w2, #0x0                   	// #0
/home/ursus/devel/optee/optee_os/lib/libutils/isoc/bget_malloc.c:970
    7ae4:	2a0203e0 	mov	w0, w2
    7ae8:	d65f03c0 	ret
/home/ursus/devel/optee/optee_os/lib/libutils/isoc/bget_malloc.c:954
    7aec:	a9401066 	ldp	x6, x4, [x3]
/home/ursus/devel/optee/optee_os/lib/libutils/isoc/bget_malloc.c:956
    7af0:	eb01001f 	cmp	x0, x1
    7af4:	1a9f97e2 	cset	w2, hi
/home/ursus/devel/optee/optee_os/lib/libutils/isoc/bget_malloc.c:954
    7af8:	8b0400c4 	add	x4, x6, x4
/home/ursus/devel/optee/optee_os/lib/libutils/isoc/bget_malloc.c:956
    7afc:	eb0400df 	cmp	x6, x4
    7b00:	1a9f97e8 	cset	w8, hi
    7b04:	2a080042 	orr	w2, w2, w8
    7b08:	35fffee2 	cbnz	w2, 7ae4 <malloc_buffer_overlaps_heap+0x20>
/home/ursus/devel/optee/optee_os/lib/libutils/isoc/bget_malloc.c:961
    7b0c:	eb06003f 	cmp	x1, x6
    7b10:	91004063 	add	x3, x3, #0x10
    7b14:	1a9f97e2 	cset	w2, hi
    7b18:	eb04001f 	cmp	x0, x4
    7b1c:	1a9f27e4 	cset	w4, cc
    7b20:	2a040042 	orr	w2, w2, w4
    7b24:	35fffe02 	cbnz	w2, 7ae4 <malloc_buffer_overlaps_heap+0x20>
/home/ursus/devel/optee/optee_os/lib/libutils/isoc/bget_malloc.c:952 (discriminator 2)
    7b28:	910004a5 	add	x5, x5, #0x1
    7b2c:	17ffffeb 	b	7ad8 <malloc_buffer_overlaps_heap+0x14>

0000000000007b30 <snprintf>:
snprintf():
/home/ursus/devel/optee/optee_os/lib/libutils/isoc/snprintf.c:32
    7b30:	a9b07bfd 	stp	x29, x30, [sp,#-256]!
    7b34:	910003fd 	mov	x29, sp
    7b38:	a90d93a3 	stp	x3, x4, [x29,#216]
/home/ursus/devel/optee/optee_os/lib/libutils/isoc/snprintf.c:36
    7b3c:	910403a3 	add	x3, x29, #0x100
    7b40:	a9030fa3 	stp	x3, x3, [x29,#48]
    7b44:	910343a3 	add	x3, x29, #0xd0
    7b48:	f90023a3 	str	x3, [x29,#64]
    7b4c:	128004e3 	mov	w3, #0xffffffd8            	// #-40
    7b50:	b9004ba3 	str	w3, [x29,#72]
    7b54:	12800fe3 	mov	w3, #0xffffff80            	// #-128
    7b58:	b9004fa3 	str	w3, [x29,#76]
/home/ursus/devel/optee/optee_os/lib/libutils/isoc/snprintf.c:37
    7b5c:	910043a3 	add	x3, x29, #0x10
/home/ursus/devel/optee/optee_os/lib/libutils/isoc/snprintf.c:32
    7b60:	a90e9ba5 	stp	x5, x6, [x29,#232]
/home/ursus/devel/optee/optee_os/lib/libutils/isoc/snprintf.c:37
    7b64:	a94317a4 	ldp	x4, x5, [x29,#48]
    7b68:	a90117a4 	stp	x4, x5, [x29,#16]
    7b6c:	a94417a4 	ldp	x4, x5, [x29,#64]
    7b70:	a90217a4 	stp	x4, x5, [x29,#32]
/home/ursus/devel/optee/optee_os/lib/libutils/isoc/snprintf.c:32
    7b74:	3d8017a0 	str	q0, [x29,#80]
/home/ursus/devel/optee/optee_os/lib/libutils/isoc/snprintf.c:37
    7b78:	52800004 	mov	w4, #0x0                   	// #0
/home/ursus/devel/optee/optee_os/lib/libutils/isoc/snprintf.c:32
    7b7c:	3d801ba1 	str	q1, [x29,#96]
    7b80:	3d801fa2 	str	q2, [x29,#112]
    7b84:	3d8023a3 	str	q3, [x29,#128]
    7b88:	3d8027a4 	str	q4, [x29,#144]
    7b8c:	3d802ba5 	str	q5, [x29,#160]
    7b90:	3d802fa6 	str	q6, [x29,#176]
    7b94:	3d8033a7 	str	q7, [x29,#192]
    7b98:	f9007fa7 	str	x7, [x29,#248]
/home/ursus/devel/optee/optee_os/lib/libutils/isoc/snprintf.c:37
    7b9c:	9400004e 	bl	7cd4 <__vsnprintf>
/home/ursus/devel/optee/optee_os/lib/libutils/isoc/snprintf.c:41
    7ba0:	a8d07bfd 	ldp	x29, x30, [sp],#256
    7ba4:	d65f03c0 	ret

0000000000007ba8 <vsnprintf>:
vsnprintf():
/home/ursus/devel/optee/optee_os/lib/libutils/isoc/snprintf.c:44
    7ba8:	a9bb7bfd 	stp	x29, x30, [sp,#-80]!
    7bac:	910003fd 	mov	x29, sp
    7bb0:	a90153f3 	stp	x19, x20, [sp,#16]
    7bb4:	aa0003f3 	mov	x19, x0
    7bb8:	f90013f5 	str	x21, [sp,#32]
    7bbc:	aa0103f4 	mov	x20, x1
    7bc0:	aa0203f5 	mov	x21, x2
/home/ursus/devel/optee/optee_os/lib/libutils/isoc/snprintf.c:45
    7bc4:	aa0303e1 	mov	x1, x3
    7bc8:	9100c3a0 	add	x0, x29, #0x30
    7bcc:	d2800402 	mov	x2, #0x20                  	// #32
    7bd0:	94000018 	bl	7c30 <memcpy>
    7bd4:	aa0003e3 	mov	x3, x0
    7bd8:	aa1503e2 	mov	x2, x21
    7bdc:	aa1403e1 	mov	x1, x20
    7be0:	52800004 	mov	w4, #0x0                   	// #0
    7be4:	aa1303e0 	mov	x0, x19
    7be8:	9400003b 	bl	7cd4 <__vsnprintf>
/home/ursus/devel/optee/optee_os/lib/libutils/isoc/snprintf.c:46
    7bec:	f94013f5 	ldr	x21, [sp,#32]
    7bf0:	a94153f3 	ldp	x19, x20, [sp,#16]
    7bf4:	a8c57bfd 	ldp	x29, x30, [sp],#80
    7bf8:	d65f03c0 	ret

0000000000007bfc <memcmp>:
memcmp():
/home/ursus/devel/optee/optee_os/lib/libutils/isoc/newlib/memcmp.c:89
    7bfc:	d2800004 	mov	x4, #0x0                   	// #0
    7c00:	eb04005f 	cmp	x2, x4
    7c04:	54000061 	b.ne	7c10 <memcmp+0x14>
/home/ursus/devel/optee/optee_os/lib/libutils/isoc/newlib/memcmp.c:95
    7c08:	52800000 	mov	w0, #0x0                   	// #0
/home/ursus/devel/optee/optee_os/lib/libutils/isoc/newlib/memcmp.c:135
    7c0c:	d65f03c0 	ret
/home/ursus/devel/optee/optee_os/lib/libutils/isoc/newlib/memcmp.c:90
    7c10:	38646803 	ldrb	w3, [x0,x4]
    7c14:	91000484 	add	x4, x4, #0x1
    7c18:	8b040025 	add	x5, x1, x4
    7c1c:	385ff0a5 	ldurb	w5, [x5,#-1]
    7c20:	6b05007f 	cmp	w3, w5
    7c24:	54fffee0 	b.eq	7c00 <memcmp+0x4>
/home/ursus/devel/optee/optee_os/lib/libutils/isoc/newlib/memcmp.c:91
    7c28:	4b050060 	sub	w0, w3, w5
    7c2c:	d65f03c0 	ret

0000000000007c30 <memcpy>:
memcpy():
/home/ursus/devel/optee/optee_os/lib/libutils/isoc/newlib/memcpy.c:93
    7c30:	d2800003 	mov	x3, #0x0                   	// #0
    7c34:	eb03005f 	cmp	x2, x3
    7c38:	54000041 	b.ne	7c40 <memcpy+0x10>
/home/ursus/devel/optee/optee_os/lib/libutils/isoc/newlib/memcpy.c:134
    7c3c:	d65f03c0 	ret
/home/ursus/devel/optee/optee_os/lib/libutils/isoc/newlib/memcpy.c:94
    7c40:	38636824 	ldrb	w4, [x1,x3]
    7c44:	38236804 	strb	w4, [x0,x3]
    7c48:	91000463 	add	x3, x3, #0x1
    7c4c:	17fffffa 	b	7c34 <memcpy+0x4>

0000000000007c50 <memmove>:
memmove():
/home/ursus/devel/optee/optee_os/lib/libutils/isoc/newlib/memmove.c:95
    7c50:	eb01001f 	cmp	x0, x1
    7c54:	54000089 	b.ls	7c64 <memmove+0x14>
/home/ursus/devel/optee/optee_os/lib/libutils/isoc/newlib/memmove.c:95 (discriminator 1)
    7c58:	8b020023 	add	x3, x1, x2
    7c5c:	eb03001f 	cmp	x0, x3
    7c60:	540000e3 	b.cc	7c7c <memmove+0x2c>
    7c64:	d2800003 	mov	x3, #0x0                   	// #0
/home/ursus/devel/optee/optee_os/lib/libutils/isoc/newlib/memmove.c:102
    7c68:	eb03005f 	cmp	x2, x3
    7c6c:	54000101 	b.ne	7c8c <memmove+0x3c>
/home/ursus/devel/optee/optee_os/lib/libutils/isoc/newlib/memmove.c:156
    7c70:	d65f03c0 	ret
/home/ursus/devel/optee/optee_os/lib/libutils/isoc/newlib/memmove.c:100
    7c74:	38626823 	ldrb	w3, [x1,x2]
    7c78:	38226803 	strb	w3, [x0,x2]
/home/ursus/devel/optee/optee_os/lib/libutils/isoc/newlib/memmove.c:99
    7c7c:	d1000442 	sub	x2, x2, #0x1
    7c80:	b100045f 	cmn	x2, #0x1
    7c84:	54ffff81 	b.ne	7c74 <memmove+0x24>
    7c88:	d65f03c0 	ret
/home/ursus/devel/optee/optee_os/lib/libutils/isoc/newlib/memmove.c:103
    7c8c:	38636824 	ldrb	w4, [x1,x3]
    7c90:	38236804 	strb	w4, [x0,x3]
    7c94:	91000463 	add	x3, x3, #0x1
    7c98:	17fffff4 	b	7c68 <memmove+0x18>

0000000000007c9c <memset>:
memset():
/home/ursus/devel/optee/optee_os/lib/libutils/isoc/newlib/memset.c:124
    7c9c:	d2800003 	mov	x3, #0x0                   	// #0
    7ca0:	eb03005f 	cmp	x2, x3
    7ca4:	54000041 	b.ne	7cac <memset+0x10>
/home/ursus/devel/optee/optee_os/lib/libutils/isoc/newlib/memset.c:128
    7ca8:	d65f03c0 	ret
/home/ursus/devel/optee/optee_os/lib/libutils/isoc/newlib/memset.c:125
    7cac:	38236801 	strb	w1, [x0,x3]
    7cb0:	91000463 	add	x3, x3, #0x1
    7cb4:	17fffffb 	b	7ca0 <memset+0x4>

0000000000007cb8 <strlen>:
strlen():
/home/ursus/devel/optee/optee_os/lib/libutils/isoc/newlib/strlen.c:116
    7cb8:	aa0003e1 	mov	x1, x0
    7cbc:	39400022 	ldrb	w2, [x1]
    7cc0:	35000062 	cbnz	w2, 7ccc <strlen+0x14>
/home/ursus/devel/optee/optee_os/lib/libutils/isoc/newlib/strlen.c:119
    7cc4:	cb000020 	sub	x0, x1, x0
    7cc8:	d65f03c0 	ret
/home/ursus/devel/optee/optee_os/lib/libutils/isoc/newlib/strlen.c:117
    7ccc:	91000421 	add	x1, x1, #0x1
    7cd0:	17fffffb 	b	7cbc <strlen+0x4>

0000000000007cd4 <__vsnprintf>:
__vsnprintf():
/home/ursus/devel/optee/optee_os/lib/libutils/ext/snprintk.c:136
    7cd4:	d103c3ff 	sub	sp, sp, #0xf0
    7cd8:	a9037bfd 	stp	x29, x30, [sp,#48]
    7cdc:	9100c3fd 	add	x29, sp, #0x30
    7ce0:	a90803a1 	stp	x1, x0, [x29,#128]
    7ce4:	12001c80 	and	w0, w4, #0xff
    7ce8:	b9007fa0 	str	w0, [x29,#124]
/home/ursus/devel/optee/optee_os/lib/libutils/ext/snprintk.c:140
    7cec:	f94047a0 	ldr	x0, [x29,#136]
/home/ursus/devel/optee/optee_os/lib/libutils/ext/snprintk.c:136
    7cf0:	a90453f3 	stp	x19, x20, [sp,#64]
    7cf4:	a90873fb 	stp	x27, x28, [sp,#128]
kprintf():
/home/ursus/devel/optee/optee_os/lib/libutils/ext/snprintk.c:266
    7cf8:	5280001b 	mov	w27, #0x0                   	// #0
    7cfc:	b9401874 	ldr	w20, [x3,#24]
    7d00:	a9407073 	ldp	x19, x28, [x3]
__vsnprintf():
/home/ursus/devel/optee/optee_os/lib/libutils/ext/snprintk.c:136
    7d04:	a90663f7 	stp	x23, x24, [sp,#96]
    7d08:	a9076bf9 	stp	x25, x26, [sp,#112]
    7d0c:	910263b8 	add	x24, x29, #0x98
    7d10:	a9055bf5 	stp	x21, x22, [sp,#80]
    7d14:	aa0203f9 	mov	x25, x2
/home/ursus/devel/optee/optee_os/lib/libutils/ext/snprintk.c:140
    7d18:	8b01001a 	add	x26, x0, x1
    7d1c:	aa0003f6 	mov	x22, x0
kprintf():
/home/ursus/devel/optee/optee_os/lib/libutils/ext/snprintk.c:268
    7d20:	d2800017 	mov	x23, #0x0                   	// #0
/home/ursus/devel/optee/optee_os/lib/libutils/ext/snprintk.c:274
    7d24:	39400320 	ldrb	w0, [x25]
    7d28:	7100941f 	cmp	w0, #0x25
    7d2c:	7a401804 	ccmp	w0, #0x0, #0x4, ne
    7d30:	540003c1 	b.ne	7da8 <__vsnprintf+0xd4>
/home/ursus/devel/optee/optee_os/lib/libutils/ext/snprintk.c:278
    7d34:	34005780 	cbz	w0, 8824 <__vsnprintf+0xb50>
/home/ursus/devel/optee/optee_os/lib/libutils/ext/snprintk.c:286
    7d38:	12800004 	mov	w4, #0xffffffff            	// #-1
/home/ursus/devel/optee/optee_os/lib/libutils/ext/snprintk.c:281
    7d3c:	91000722 	add	x2, x25, #0x1
    7d40:	2a1403e0 	mov	w0, w20
/home/ursus/devel/optee/optee_os/lib/libutils/ext/snprintk.c:323
    7d44:	2a0403e5 	mov	w5, w4
/home/ursus/devel/optee/optee_os/lib/libutils/ext/snprintk.c:287
    7d48:	52800001 	mov	w1, #0x0                   	// #0
/home/ursus/devel/optee/optee_os/lib/libutils/ext/snprintk.c:285
    7d4c:	5280000a 	mov	w10, #0x0                   	// #0
/home/ursus/devel/optee/optee_os/lib/libutils/ext/snprintk.c:283
    7d50:	52800015 	mov	w21, #0x0                   	// #0
/home/ursus/devel/optee/optee_os/lib/libutils/ext/snprintk.c:298
    7d54:	52800406 	mov	w6, #0x20                  	// #32
/home/ursus/devel/optee/optee_os/lib/libutils/ext/snprintk.c:289
    7d58:	39400048 	ldrb	w8, [x2]
    7d5c:	91000459 	add	x25, x2, #0x1
/home/ursus/devel/optee/optee_os/lib/libutils/ext/snprintk.c:290
    7d60:	71018d1f 	cmp	w8, #0x63
    7d64:	54001b80 	b.eq	80d4 <__vsnprintf+0x400>
    7d68:	5400080c 	b.gt	7e68 <__vsnprintf+0x194>
    7d6c:	7100c11f 	cmp	w8, #0x30
    7d70:	54001960 	b.eq	809c <__vsnprintf+0x3c8>
    7d74:	540003cc 	b.gt	7dec <__vsnprintf+0x118>
    7d78:	7100a91f 	cmp	w8, #0x2a
    7d7c:	540012c0 	b.eq	7fd4 <__vsnprintf+0x300>
    7d80:	5400024c 	b.gt	7dc8 <__vsnprintf+0xf4>
    7d84:	7100811f 	cmp	w8, #0x20
    7d88:	540011c0 	b.eq	7fc0 <__vsnprintf+0x2ec>
    7d8c:	71008d1f 	cmp	w8, #0x23
    7d90:	540011e0 	b.eq	7fcc <__vsnprintf+0x2f8>
/home/ursus/devel/optee/optee_os/lib/libutils/ext/snprintk.c:540
    7d94:	34005488 	cbz	w8, 8824 <__vsnprintf+0xb50>
/home/ursus/devel/optee/optee_os/lib/libutils/ext/snprintk.c:544
    7d98:	910303a3 	add	x3, x29, #0xc0
    7d9c:	2a0003f4 	mov	w20, w0
    7da0:	381d8c68 	strb	w8, [x3,#-40]!
    7da4:	140000d4 	b	80f4 <__vsnprintf+0x420>
/home/ursus/devel/optee/optee_os/lib/libutils/ext/snprintk.c:275
    7da8:	1100077b 	add	w27, w27, #0x1
/home/ursus/devel/optee/optee_os/lib/libutils/ext/snprintk.c:276
    7dac:	b40000b6 	cbz	x22, 7dc0 <__vsnprintf+0xec>
    7db0:	eb16035f 	cmp	x26, x22
    7db4:	54000069 	b.ls	7dc0 <__vsnprintf+0xec>
    7db8:	390002c0 	strb	w0, [x22]
    7dbc:	910006d6 	add	x22, x22, #0x1
/home/ursus/devel/optee/optee_os/lib/libutils/ext/snprintk.c:274
    7dc0:	91000739 	add	x25, x25, #0x1
    7dc4:	17ffffd8 	b	7d24 <__vsnprintf+0x50>
/home/ursus/devel/optee/optee_os/lib/libutils/ext/snprintk.c:290
    7dc8:	7100b51f 	cmp	w8, #0x2d
    7dcc:	54001120 	b.eq	7ff0 <__vsnprintf+0x31c>
    7dd0:	7100b91f 	cmp	w8, #0x2e
    7dd4:	54001280 	b.eq	8024 <__vsnprintf+0x350>
    7dd8:	7100ad1f 	cmp	w8, #0x2b
    7ddc:	54fffdc1 	b.ne	7d94 <__vsnprintf+0xc0>
/home/ursus/devel/optee/optee_os/lib/libutils/ext/snprintk.c:318
    7de0:	2a0803e1 	mov	w1, w8
/home/ursus/devel/optee/optee_os/lib/libutils/ext/snprintk.c:321
    7de4:	aa1903e2 	mov	x2, x25
    7de8:	17ffffdc 	b	7d58 <__vsnprintf+0x84>
/home/ursus/devel/optee/optee_os/lib/libutils/ext/snprintk.c:290
    7dec:	7101111f 	cmp	w8, #0x44
    7df0:	54001920 	b.eq	8114 <__vsnprintf+0x440>
    7df4:	5400018c 	b.gt	7e24 <__vsnprintf+0x150>
    7df8:	7100e51f 	cmp	w8, #0x39
    7dfc:	54fffccc 	b.gt	7d94 <__vsnprintf+0xc0>
    7e00:	5280000a 	mov	w10, #0x0                   	// #0
/home/ursus/devel/optee/optee_os/lib/libutils/ext/snprintk.c:345
    7e04:	5100c108 	sub	w8, w8, #0x30
    7e08:	52800142 	mov	w2, #0xa                   	// #10
    7e0c:	1b02214a 	madd	w10, w10, w2, w8
/home/ursus/devel/optee/optee_os/lib/libutils/ext/snprintk.c:346
    7e10:	38401728 	ldrb	w8, [x25],#1
/home/ursus/devel/optee/optee_os/lib/libutils/ext/snprintk.c:347
    7e14:	5100c102 	sub	w2, w8, #0x30
    7e18:	7100245f 	cmp	w2, #0x9
    7e1c:	54ffff49 	b.ls	7e04 <__vsnprintf+0x130>
    7e20:	17ffffd0 	b	7d60 <__vsnprintf+0x8c>
/home/ursus/devel/optee/optee_os/lib/libutils/ext/snprintk.c:290
    7e24:	7101551f 	cmp	w8, #0x55
    7e28:	54003c40 	b.eq	85b0 <__vsnprintf+0x8dc>
    7e2c:	7101611f 	cmp	w8, #0x58
    7e30:	54000ac0 	b.eq	7f88 <__vsnprintf+0x2b4>
    7e34:	71013d1f 	cmp	w8, #0x4f
    7e38:	54fffae1 	b.ne	7d94 <__vsnprintf+0xc0>
/home/ursus/devel/optee/optee_os/lib/libutils/ext/snprintk.c:407
    7e3c:	321c02b5 	orr	w21, w21, #0x10
/home/ursus/devel/optee/optee_os/lib/libutils/ext/snprintk.c:410
    7e40:	36382695 	tbz	w21, #7, 8310 <__vsnprintf+0x63c>
    7e44:	37f827e0 	tbnz	w0, #31, 8340 <__vsnprintf+0x66c>
    7e48:	91003e61 	add	x1, x19, #0xf
    7e4c:	2a0003f4 	mov	w20, w0
    7e50:	aa1303e0 	mov	x0, x19
    7e54:	927df033 	and	x19, x1, #0xfffffffffffffff8
    7e58:	f9400005 	ldr	x5, [x0]
/home/ursus/devel/optee/optee_os/lib/libutils/ext/snprintk.c:411
    7e5c:	52800000 	mov	w0, #0x0                   	// #0
/home/ursus/devel/optee/optee_os/lib/libutils/ext/snprintk.c:481
    7e60:	52800001 	mov	w1, #0x0                   	// #0
    7e64:	140000b8 	b	8144 <__vsnprintf+0x470>
/home/ursus/devel/optee/optee_os/lib/libutils/ext/snprintk.c:290
    7e68:	7101bd1f 	cmp	w8, #0x6f
    7e6c:	54fffea0 	b.eq	7e40 <__vsnprintf+0x16c>
    7e70:	5400024c 	b.gt	7eb8 <__vsnprintf+0x1e4>
    7e74:	7101a51f 	cmp	w8, #0x69
    7e78:	54001500 	b.eq	8118 <__vsnprintf+0x444>
    7e7c:	540000ec 	b.gt	7e98 <__vsnprintf+0x1c4>
    7e80:	7101911f 	cmp	w8, #0x64
    7e84:	540014a0 	b.eq	8118 <__vsnprintf+0x444>
    7e88:	7101a11f 	cmp	w8, #0x68
    7e8c:	54fff841 	b.ne	7d94 <__vsnprintf+0xc0>
/home/ursus/devel/optee/optee_os/lib/libutils/ext/snprintk.c:351
    7e90:	321a02b5 	orr	w21, w21, #0x40
    7e94:	17ffffd4 	b	7de4 <__vsnprintf+0x110>
/home/ursus/devel/optee/optee_os/lib/libutils/ext/snprintk.c:290
    7e98:	7101b11f 	cmp	w8, #0x6c
    7e9c:	54001040 	b.eq	80a4 <__vsnprintf+0x3d0>
    7ea0:	7101b91f 	cmp	w8, #0x6e
    7ea4:	54001d40 	b.eq	824c <__vsnprintf+0x578>
    7ea8:	7101a91f 	cmp	w8, #0x6a
    7eac:	54fff741 	b.ne	7d94 <__vsnprintf+0xc0>
/home/ursus/devel/optee/optee_os/lib/libutils/ext/snprintk.c:354
    7eb0:	321902b5 	orr	w21, w21, #0x80
    7eb4:	17ffffcc 	b	7de4 <__vsnprintf+0x110>
/home/ursus/devel/optee/optee_os/lib/libutils/ext/snprintk.c:290
    7eb8:	7101d11f 	cmp	w8, #0x74
    7ebc:	54001040 	b.eq	80c4 <__vsnprintf+0x3f0>
    7ec0:	5400046c 	b.gt	7f4c <__vsnprintf+0x278>
    7ec4:	7101c51f 	cmp	w8, #0x71
    7ec8:	54000f60 	b.eq	80b4 <__vsnprintf+0x3e0>
    7ecc:	540026cb 	b.lt	83a4 <__vsnprintf+0x6d0>
    7ed0:	7101cd1f 	cmp	w8, #0x73
    7ed4:	54fff601 	b.ne	7d94 <__vsnprintf+0xc0>
/home/ursus/devel/optee/optee_os/lib/libutils/ext/snprintk.c:441
    7ed8:	37f83480 	tbnz	w0, #31, 8568 <__vsnprintf+0x894>
    7edc:	91003e61 	add	x1, x19, #0xf
    7ee0:	2a0003f4 	mov	w20, w0
    7ee4:	aa1303e0 	mov	x0, x19
    7ee8:	927df033 	and	x19, x1, #0xfffffffffffffff8
    7eec:	f9400003 	ldr	x3, [x0]
/home/ursus/devel/optee/optee_os/lib/libutils/ext/snprintk.c:443
    7ef0:	f0000020 	adrp	x0, e000 <__func__.3633+0x30>
    7ef4:	91260400 	add	x0, x0, #0x981
    7ef8:	f100007f 	cmp	x3, #0x0
    7efc:	9a830003 	csel	x3, x0, x3, eq
/home/ursus/devel/optee/optee_os/lib/libutils/ext/snprintk.c:444
    7f00:	3100049f 	cmn	w4, #0x1
    7f04:	540033e0 	b.eq	8580 <__vsnprintf+0x8ac>
/home/ursus/devel/optee/optee_os/lib/libutils/ext/snprintk.c:450
    7f08:	93407c82 	sxtw	x2, w4
    7f0c:	aa0303e0 	mov	x0, x3
    7f10:	290d2ba8 	stp	w8, w10, [x29,#104]
    7f14:	52800001 	mov	w1, #0x0                   	// #0
    7f18:	f9003ba3 	str	x3, [x29,#112]
    7f1c:	b9007ba4 	str	w4, [x29,#120]
    7f20:	94000340 	bl	8c20 <memchr>
/home/ursus/devel/optee/optee_os/lib/libutils/ext/snprintk.c:452
    7f24:	294d2ba8 	ldp	w8, w10, [x29,#104]
    7f28:	b9407ba4 	ldr	w4, [x29,#120]
    7f2c:	f9403ba3 	ldr	x3, [x29,#112]
    7f30:	b4000080 	cbz	x0, 7f40 <__vsnprintf+0x26c>
/home/ursus/devel/optee/optee_os/lib/libutils/ext/snprintk.c:453
    7f34:	cb030000 	sub	x0, x0, x3
    7f38:	6b00009f 	cmp	w4, w0
    7f3c:	1a80d084 	csel	w4, w4, w0, le
/home/ursus/devel/optee/optee_os/lib/libutils/ext/snprintk.c:284
    7f40:	52800000 	mov	w0, #0x0                   	// #0
/home/ursus/devel/optee/optee_os/lib/libutils/ext/snprintk.c:460
    7f44:	52800001 	mov	w1, #0x0                   	// #0
    7f48:	14000144 	b	8458 <__vsnprintf+0x784>
/home/ursus/devel/optee/optee_os/lib/libutils/ext/snprintk.c:290
    7f4c:	7101e11f 	cmp	w8, #0x78
    7f50:	540037e0 	b.eq	864c <__vsnprintf+0x978>
    7f54:	7101e91f 	cmp	w8, #0x7a
    7f58:	54000ba0 	b.eq	80cc <__vsnprintf+0x3f8>
    7f5c:	7101d51f 	cmp	w8, #0x75
    7f60:	54fff1a1 	b.ne	7d94 <__vsnprintf+0xc0>
/home/ursus/devel/optee/optee_os/lib/libutils/ext/snprintk.c:466
    7f64:	363832b5 	tbz	w21, #7, 85b8 <__vsnprintf+0x8e4>
    7f68:	37f83400 	tbnz	w0, #31, 85e8 <__vsnprintf+0x914>
    7f6c:	91003e61 	add	x1, x19, #0xf
    7f70:	2a0003f4 	mov	w20, w0
    7f74:	aa1303e0 	mov	x0, x19
    7f78:	927df033 	and	x19, x1, #0xfffffffffffffff8
    7f7c:	f9400005 	ldr	x5, [x0]
/home/ursus/devel/optee/optee_os/lib/libutils/ext/snprintk.c:467
    7f80:	52800020 	mov	w0, #0x1                   	// #1
    7f84:	17ffffb7 	b	7e60 <__vsnprintf+0x18c>
/home/ursus/devel/optee/optee_os/lib/libutils/ext/snprintk.c:470
    7f88:	d0000037 	adrp	x23, d000 <__func__.4585>
    7f8c:	9107e2f7 	add	x23, x23, #0x1f8
/home/ursus/devel/optee/optee_os/lib/libutils/ext/snprintk.c:474
    7f90:	36383675 	tbz	w21, #7, 865c <__vsnprintf+0x988>
    7f94:	37f837c0 	tbnz	w0, #31, 868c <__vsnprintf+0x9b8>
    7f98:	91003e61 	add	x1, x19, #0xf
    7f9c:	2a0003f4 	mov	w20, w0
    7fa0:	aa1303e0 	mov	x0, x19
    7fa4:	927df033 	and	x19, x1, #0xfffffffffffffff8
    7fa8:	f9400005 	ldr	x5, [x0]
/home/ursus/devel/optee/optee_os/lib/libutils/ext/snprintk.c:477
    7fac:	36000075 	tbz	w21, #0, 7fb8 <__vsnprintf+0x2e4>
    7fb0:	b4000045 	cbz	x5, 7fb8 <__vsnprintf+0x2e4>
/home/ursus/devel/optee/optee_os/lib/libutils/ext/snprintk.c:478
    7fb4:	321f02b5 	orr	w21, w21, #0x2
/home/ursus/devel/optee/optee_os/lib/libutils/ext/snprintk.c:475
    7fb8:	52800040 	mov	w0, #0x2                   	// #2
    7fbc:	17ffffa9 	b	7e60 <__vsnprintf+0x18c>
/home/ursus/devel/optee/optee_os/lib/libutils/ext/snprintk.c:298
    7fc0:	7100003f 	cmp	w1, #0x0
    7fc4:	1a861021 	csel	w1, w1, w6, ne
    7fc8:	17ffff87 	b	7de4 <__vsnprintf+0x110>
/home/ursus/devel/optee/optee_os/lib/libutils/ext/snprintk.c:301
    7fcc:	320002b5 	orr	w21, w21, #0x1
    7fd0:	17ffff85 	b	7de4 <__vsnprintf+0x110>
/home/ursus/devel/optee/optee_os/lib/libutils/ext/snprintk.c:310
    7fd4:	37f80120 	tbnz	w0, #31, 7ff8 <__vsnprintf+0x324>
    7fd8:	91002e63 	add	x3, x19, #0xb
    7fdc:	aa1303e2 	mov	x2, x19
    7fe0:	927df073 	and	x19, x3, #0xfffffffffffffff8
    7fe4:	b940004a 	ldr	w10, [x2]
    7fe8:	36ffefea 	tbz	w10, #31, 7de4 <__vsnprintf+0x110>
/home/ursus/devel/optee/optee_os/lib/libutils/ext/snprintk.c:312
    7fec:	4b0a03ea 	neg	w10, w10
/home/ursus/devel/optee/optee_os/lib/libutils/ext/snprintk.c:315
    7ff0:	321e02b5 	orr	w21, w21, #0x4
    7ff4:	17ffff7c 	b	7de4 <__vsnprintf+0x110>
/home/ursus/devel/optee/optee_os/lib/libutils/ext/snprintk.c:310
    7ff8:	11002003 	add	w3, w0, #0x8
    7ffc:	7100007f 	cmp	w3, #0x0
    8000:	540000cd 	b.le	8018 <__vsnprintf+0x344>
    8004:	91002e67 	add	x7, x19, #0xb
    8008:	aa1303e2 	mov	x2, x19
    800c:	2a0303e0 	mov	w0, w3
    8010:	927df0f3 	and	x19, x7, #0xfffffffffffffff8
    8014:	17fffff4 	b	7fe4 <__vsnprintf+0x310>
    8018:	8b20c382 	add	x2, x28, w0, sxtw
    801c:	2a0303e0 	mov	w0, w3
    8020:	17fffff1 	b	7fe4 <__vsnprintf+0x310>
/home/ursus/devel/optee/optee_os/lib/libutils/ext/snprintk.c:321
    8024:	39400328 	ldrb	w8, [x25]
    8028:	91000723 	add	x3, x25, #0x1
    802c:	7100a91f 	cmp	w8, #0x2a
    8030:	54000140 	b.eq	8058 <__vsnprintf+0x384>
    8034:	aa0303f9 	mov	x25, x3
    8038:	52800004 	mov	w4, #0x0                   	// #0
/home/ursus/devel/optee/optee_os/lib/libutils/ext/snprintk.c:327
    803c:	5100c102 	sub	w2, w8, #0x30
    8040:	7100245f 	cmp	w2, #0x9
    8044:	54ffe8e8 	b.hi	7d60 <__vsnprintf+0x8c>
/home/ursus/devel/optee/optee_os/lib/libutils/ext/snprintk.c:328
    8048:	52800143 	mov	w3, #0xa                   	// #10
/home/ursus/devel/optee/optee_os/lib/libutils/ext/snprintk.c:329
    804c:	38401728 	ldrb	w8, [x25],#1
/home/ursus/devel/optee/optee_os/lib/libutils/ext/snprintk.c:328
    8050:	1b030884 	madd	w4, w4, w3, w2
    8054:	17fffffa 	b	803c <__vsnprintf+0x368>
/home/ursus/devel/optee/optee_os/lib/libutils/ext/snprintk.c:322
    8058:	37f80160 	tbnz	w0, #31, 8084 <__vsnprintf+0x3b0>
    805c:	91002e64 	add	x4, x19, #0xb
    8060:	2a0003e2 	mov	w2, w0
    8064:	aa1303e0 	mov	x0, x19
    8068:	927df093 	and	x19, x4, #0xfffffffffffffff8
/home/ursus/devel/optee/optee_os/lib/libutils/ext/snprintk.c:323
    806c:	b9400004 	ldr	w4, [x0]
/home/ursus/devel/optee/optee_os/lib/libutils/ext/snprintk.c:321
    8070:	aa0303f9 	mov	x25, x3
/home/ursus/devel/optee/optee_os/lib/libutils/ext/snprintk.c:323
    8074:	2a0203e0 	mov	w0, w2
    8078:	7100009f 	cmp	w4, #0x0
    807c:	1a85a084 	csel	w4, w4, w5, ge
    8080:	17ffff59 	b	7de4 <__vsnprintf+0x110>
/home/ursus/devel/optee/optee_os/lib/libutils/ext/snprintk.c:322
    8084:	11002002 	add	w2, w0, #0x8
    8088:	8b20c380 	add	x0, x28, w0, sxtw
    808c:	7100005f 	cmp	w2, #0x0
    8090:	54fffeed 	b.le	806c <__vsnprintf+0x398>
    8094:	91002e64 	add	x4, x19, #0xb
    8098:	17fffff3 	b	8064 <__vsnprintf+0x390>
/home/ursus/devel/optee/optee_os/lib/libutils/ext/snprintk.c:339
    809c:	321602b5 	orr	w21, w21, #0x400
    80a0:	17ffff51 	b	7de4 <__vsnprintf+0x110>
/home/ursus/devel/optee/optee_os/lib/libutils/ext/snprintk.c:357
    80a4:	39400322 	ldrb	w2, [x25]
    80a8:	7101b05f 	cmp	w2, #0x6c
    80ac:	54000081 	b.ne	80bc <__vsnprintf+0x3e8>
/home/ursus/devel/optee/optee_os/lib/libutils/ext/snprintk.c:358
    80b0:	91000739 	add	x25, x25, #0x1
/home/ursus/devel/optee/optee_os/lib/libutils/ext/snprintk.c:365
    80b4:	321b02b5 	orr	w21, w21, #0x20
    80b8:	17ffff4b 	b	7de4 <__vsnprintf+0x110>
/home/ursus/devel/optee/optee_os/lib/libutils/ext/snprintk.c:361
    80bc:	321c02b5 	orr	w21, w21, #0x10
    80c0:	17ffff49 	b	7de4 <__vsnprintf+0x110>
/home/ursus/devel/optee/optee_os/lib/libutils/ext/snprintk.c:368
    80c4:	321802b5 	orr	w21, w21, #0x100
    80c8:	17ffff47 	b	7de4 <__vsnprintf+0x110>
/home/ursus/devel/optee/optee_os/lib/libutils/ext/snprintk.c:371
    80cc:	321702b5 	orr	w21, w21, #0x200
    80d0:	17ffff45 	b	7de4 <__vsnprintf+0x110>
/home/ursus/devel/optee/optee_os/lib/libutils/ext/snprintk.c:374
    80d4:	37f80140 	tbnz	w0, #31, 80fc <__vsnprintf+0x428>
    80d8:	91002e61 	add	x1, x19, #0xb
    80dc:	2a0003f4 	mov	w20, w0
    80e0:	aa1303e0 	mov	x0, x19
    80e4:	927df033 	and	x19, x1, #0xfffffffffffffff8
    80e8:	910303a3 	add	x3, x29, #0xc0
    80ec:	b9400000 	ldr	w0, [x0]
    80f0:	381d8c60 	strb	w0, [x3,#-40]!
/home/ursus/devel/optee/optee_os/lib/libutils/ext/snprintk.c:545
    80f4:	52800024 	mov	w4, #0x1                   	// #1
    80f8:	17ffff92 	b	7f40 <__vsnprintf+0x26c>
/home/ursus/devel/optee/optee_os/lib/libutils/ext/snprintk.c:374
    80fc:	11002014 	add	w20, w0, #0x8
    8100:	8b20c380 	add	x0, x28, w0, sxtw
    8104:	7100029f 	cmp	w20, #0x0
    8108:	54ffff0d 	b.le	80e8 <__vsnprintf+0x414>
    810c:	91002e61 	add	x1, x19, #0xb
    8110:	17fffff4 	b	80e0 <__vsnprintf+0x40c>
/home/ursus/devel/optee/optee_os/lib/libutils/ext/snprintk.c:379
    8114:	321c02b5 	orr	w21, w21, #0x10
/home/ursus/devel/optee/optee_os/lib/libutils/ext/snprintk.c:383
    8118:	36380515 	tbz	w21, #7, 81b8 <__vsnprintf+0x4e4>
    811c:	37f80660 	tbnz	w0, #31, 81e8 <__vsnprintf+0x514>
    8120:	91003e62 	add	x2, x19, #0xf
    8124:	2a0003f4 	mov	w20, w0
    8128:	aa1303e0 	mov	x0, x19
    812c:	927df053 	and	x19, x2, #0xfffffffffffffff8
    8130:	f9400005 	ldr	x5, [x0]
/home/ursus/devel/optee/optee_os/lib/libutils/ext/snprintk.c:388
    8134:	52800020 	mov	w0, #0x1                   	// #1
/home/ursus/devel/optee/optee_os/lib/libutils/ext/snprintk.c:384
    8138:	b6f80065 	tbz	x5, #63, 8144 <__vsnprintf+0x470>
/home/ursus/devel/optee/optee_os/lib/libutils/ext/snprintk.c:385
    813c:	cb0503e5 	neg	x5, x5
/home/ursus/devel/optee/optee_os/lib/libutils/ext/snprintk.c:386
    8140:	528005a1 	mov	w1, #0x2d                  	// #45
/home/ursus/devel/optee/optee_os/lib/libutils/ext/snprintk.c:488
    8144:	3100049f 	cmn	w4, #0x1
    8148:	12157aa2 	and	w2, w21, #0xfffffbff
    814c:	1a951055 	csel	w21, w2, w21, ne
/home/ursus/devel/optee/optee_os/lib/libutils/ext/snprintk.c:496
    8150:	f10000bf 	cmp	x5, #0x0
    8154:	7a400880 	ccmp	w4, #0x0, #0x0, eq
/home/ursus/devel/optee/optee_os/lib/libutils/ext/snprintk.c:495
    8158:	91009703 	add	x3, x24, #0x25
/home/ursus/devel/optee/optee_os/lib/libutils/ext/snprintk.c:496
    815c:	54000260 	b.eq	81a8 <__vsnprintf+0x4d4>
/home/ursus/devel/optee/optee_os/lib/libutils/ext/snprintk.c:502
    8160:	7100041f 	cmp	w0, #0x1
    8164:	54002c60 	b.eq	86f0 <__vsnprintf+0xa1c>
    8168:	7100081f 	cmp	w0, #0x2
    816c:	54002e40 	b.eq	8734 <__vsnprintf+0xa60>
    8170:	91009700 	add	x0, x24, #0x25
/home/ursus/devel/optee/optee_os/lib/libutils/ext/snprintk.c:505
    8174:	120008a2 	and	w2, w5, #0x7
    8178:	d1000403 	sub	x3, x0, #0x1
    817c:	1100c042 	add	w2, w2, #0x30
    8180:	381ff002 	sturb	w2, [x0,#-1]
/home/ursus/devel/optee/optee_os/lib/libutils/ext/snprintk.c:506
    8184:	d343fca5 	lsr	x5, x5, #3
/home/ursus/devel/optee/optee_os/lib/libutils/ext/snprintk.c:507
    8188:	b5002c45 	cbnz	x5, 8710 <__vsnprintf+0xa3c>
/home/ursus/devel/optee/optee_os/lib/libutils/ext/snprintk.c:509
    818c:	7100c05f 	cmp	w2, #0x30
    8190:	1a9f07e2 	cset	w2, ne
    8194:	6a0202bf 	tst	w21, w2
    8198:	54000080 	b.eq	81a8 <__vsnprintf+0x4d4>
/home/ursus/devel/optee/optee_os/lib/libutils/ext/snprintk.c:510
    819c:	52800602 	mov	w2, #0x30                  	// #48
    81a0:	381ff062 	sturb	w2, [x3,#-1]
    81a4:	d1000803 	sub	x3, x0, #0x2
/home/ursus/devel/optee/optee_os/lib/libutils/ext/snprintk.c:536
    81a8:	91009702 	add	x2, x24, #0x25
    81ac:	2a0403e0 	mov	w0, w4
    81b0:	4b030044 	sub	w4, w2, w3
    81b4:	140000a9 	b	8458 <__vsnprintf+0x784>
/home/ursus/devel/optee/optee_os/lib/libutils/ext/snprintk.c:383
    81b8:	3747fb35 	tbnz	w21, #8, 811c <__vsnprintf+0x448>
    81bc:	374ffb15 	tbnz	w21, #9, 811c <__vsnprintf+0x448>
    81c0:	372ffaf5 	tbnz	w21, #5, 811c <__vsnprintf+0x448>
    81c4:	3727fad5 	tbnz	w21, #4, 811c <__vsnprintf+0x448>
    81c8:	36300295 	tbz	w21, #6, 8218 <__vsnprintf+0x544>
    81cc:	37f801a0 	tbnz	w0, #31, 8200 <__vsnprintf+0x52c>
    81d0:	91002e62 	add	x2, x19, #0xb
    81d4:	2a0003f4 	mov	w20, w0
    81d8:	aa1303e0 	mov	x0, x19
    81dc:	927df053 	and	x19, x2, #0xfffffffffffffff8
    81e0:	79800005 	ldrsh	x5, [x0]
    81e4:	17ffffd4 	b	8134 <__vsnprintf+0x460>
    81e8:	11002014 	add	w20, w0, #0x8
    81ec:	8b20c380 	add	x0, x28, w0, sxtw
    81f0:	7100029f 	cmp	w20, #0x0
    81f4:	54fff9ed 	b.le	8130 <__vsnprintf+0x45c>
    81f8:	91003e62 	add	x2, x19, #0xf
    81fc:	17ffffcb 	b	8128 <__vsnprintf+0x454>
    8200:	11002014 	add	w20, w0, #0x8
    8204:	8b20c380 	add	x0, x28, w0, sxtw
    8208:	7100029f 	cmp	w20, #0x0
    820c:	54fffead 	b.le	81e0 <__vsnprintf+0x50c>
    8210:	91002e62 	add	x2, x19, #0xb
    8214:	17fffff1 	b	81d8 <__vsnprintf+0x504>
    8218:	37f800e0 	tbnz	w0, #31, 8234 <__vsnprintf+0x560>
    821c:	91002e62 	add	x2, x19, #0xb
    8220:	2a0003f4 	mov	w20, w0
    8224:	aa1303e0 	mov	x0, x19
    8228:	927df053 	and	x19, x2, #0xfffffffffffffff8
    822c:	b9800005 	ldrsw	x5, [x0]
    8230:	17ffffc1 	b	8134 <__vsnprintf+0x460>
    8234:	11002014 	add	w20, w0, #0x8
    8238:	8b20c380 	add	x0, x28, w0, sxtw
    823c:	7100029f 	cmp	w20, #0x0
    8240:	54ffff6d 	b.le	822c <__vsnprintf+0x558>
    8244:	91002e62 	add	x2, x19, #0xb
    8248:	17fffff7 	b	8224 <__vsnprintf+0x550>
/home/ursus/devel/optee/optee_os/lib/libutils/ext/snprintk.c:391
    824c:	36380155 	tbz	w21, #7, 8274 <__vsnprintf+0x5a0>
/home/ursus/devel/optee/optee_os/lib/libutils/ext/snprintk.c:400
    8250:	37f802c0 	tbnz	w0, #31, 82a8 <__vsnprintf+0x5d4>
    8254:	91003e61 	add	x1, x19, #0xf
    8258:	2a0003f4 	mov	w20, w0
    825c:	aa1303e0 	mov	x0, x19
    8260:	927df033 	and	x19, x1, #0xfffffffffffffff8
    8264:	f9400000 	ldr	x0, [x0]
    8268:	93407f61 	sxtw	x1, w27
    826c:	f9000001 	str	x1, [x0]
    8270:	17fffead 	b	7d24 <__vsnprintf+0x50>
/home/ursus/devel/optee/optee_os/lib/libutils/ext/snprintk.c:393
    8274:	3747fef5 	tbnz	w21, #8, 8250 <__vsnprintf+0x57c>
/home/ursus/devel/optee/optee_os/lib/libutils/ext/snprintk.c:395
    8278:	374ffed5 	tbnz	w21, #9, 8250 <__vsnprintf+0x57c>
/home/ursus/devel/optee/optee_os/lib/libutils/ext/snprintk.c:397
    827c:	372ffeb5 	tbnz	w21, #5, 8250 <__vsnprintf+0x57c>
/home/ursus/devel/optee/optee_os/lib/libutils/ext/snprintk.c:399
    8280:	3727fe95 	tbnz	w21, #4, 8250 <__vsnprintf+0x57c>
/home/ursus/devel/optee/optee_os/lib/libutils/ext/snprintk.c:401
    8284:	363002b5 	tbz	w21, #6, 82d8 <__vsnprintf+0x604>
/home/ursus/devel/optee/optee_os/lib/libutils/ext/snprintk.c:402
    8288:	37f801c0 	tbnz	w0, #31, 82c0 <__vsnprintf+0x5ec>
    828c:	91003e61 	add	x1, x19, #0xf
    8290:	2a0003f4 	mov	w20, w0
    8294:	aa1303e0 	mov	x0, x19
    8298:	927df033 	and	x19, x1, #0xfffffffffffffff8
    829c:	f9400000 	ldr	x0, [x0]
    82a0:	7900001b 	strh	w27, [x0]
    82a4:	17fffea0 	b	7d24 <__vsnprintf+0x50>
/home/ursus/devel/optee/optee_os/lib/libutils/ext/snprintk.c:400
    82a8:	11002014 	add	w20, w0, #0x8
    82ac:	8b20c380 	add	x0, x28, w0, sxtw
    82b0:	7100029f 	cmp	w20, #0x0
    82b4:	54fffd8d 	b.le	8264 <__vsnprintf+0x590>
    82b8:	91003e61 	add	x1, x19, #0xf
    82bc:	17ffffe8 	b	825c <__vsnprintf+0x588>
/home/ursus/devel/optee/optee_os/lib/libutils/ext/snprintk.c:402
    82c0:	11002014 	add	w20, w0, #0x8
    82c4:	8b20c380 	add	x0, x28, w0, sxtw
    82c8:	7100029f 	cmp	w20, #0x0
    82cc:	54fffe8d 	b.le	829c <__vsnprintf+0x5c8>
    82d0:	91003e61 	add	x1, x19, #0xf
    82d4:	17fffff0 	b	8294 <__vsnprintf+0x5c0>
/home/ursus/devel/optee/optee_os/lib/libutils/ext/snprintk.c:404
    82d8:	37f80100 	tbnz	w0, #31, 82f8 <__vsnprintf+0x624>
    82dc:	91003e61 	add	x1, x19, #0xf
    82e0:	2a0003f4 	mov	w20, w0
    82e4:	aa1303e0 	mov	x0, x19
    82e8:	927df033 	and	x19, x1, #0xfffffffffffffff8
    82ec:	f9400000 	ldr	x0, [x0]
    82f0:	b900001b 	str	w27, [x0]
    82f4:	17fffe8c 	b	7d24 <__vsnprintf+0x50>
    82f8:	11002014 	add	w20, w0, #0x8
    82fc:	8b20c380 	add	x0, x28, w0, sxtw
    8300:	7100029f 	cmp	w20, #0x0
    8304:	54ffff4d 	b.le	82ec <__vsnprintf+0x618>
    8308:	91003e61 	add	x1, x19, #0xf
    830c:	17fffff6 	b	82e4 <__vsnprintf+0x610>
/home/ursus/devel/optee/optee_os/lib/libutils/ext/snprintk.c:410
    8310:	3747d9b5 	tbnz	w21, #8, 7e44 <__vsnprintf+0x170>
    8314:	374fd995 	tbnz	w21, #9, 7e44 <__vsnprintf+0x170>
    8318:	372fd975 	tbnz	w21, #5, 7e44 <__vsnprintf+0x170>
    831c:	3727d955 	tbnz	w21, #4, 7e44 <__vsnprintf+0x170>
    8320:	36300295 	tbz	w21, #6, 8370 <__vsnprintf+0x69c>
    8324:	37f801a0 	tbnz	w0, #31, 8358 <__vsnprintf+0x684>
    8328:	91002e61 	add	x1, x19, #0xb
    832c:	2a0003f4 	mov	w20, w0
    8330:	aa1303e0 	mov	x0, x19
    8334:	927df033 	and	x19, x1, #0xfffffffffffffff8
    8338:	79400005 	ldrh	w5, [x0]
    833c:	17fffec8 	b	7e5c <__vsnprintf+0x188>
    8340:	11002014 	add	w20, w0, #0x8
    8344:	8b20c380 	add	x0, x28, w0, sxtw
    8348:	7100029f 	cmp	w20, #0x0
    834c:	54ffd86d 	b.le	7e58 <__vsnprintf+0x184>
    8350:	91003e61 	add	x1, x19, #0xf
    8354:	17fffebf 	b	7e50 <__vsnprintf+0x17c>
    8358:	11002014 	add	w20, w0, #0x8
    835c:	8b20c380 	add	x0, x28, w0, sxtw
    8360:	7100029f 	cmp	w20, #0x0
    8364:	54fffead 	b.le	8338 <__vsnprintf+0x664>
    8368:	91002e61 	add	x1, x19, #0xb
    836c:	17fffff1 	b	8330 <__vsnprintf+0x65c>
    8370:	37f800e0 	tbnz	w0, #31, 838c <__vsnprintf+0x6b8>
    8374:	91002e61 	add	x1, x19, #0xb
    8378:	2a0003f4 	mov	w20, w0
    837c:	aa1303e0 	mov	x0, x19
    8380:	927df033 	and	x19, x1, #0xfffffffffffffff8
    8384:	b9400005 	ldr	w5, [x0]
    8388:	17fffeb5 	b	7e5c <__vsnprintf+0x188>
    838c:	11002014 	add	w20, w0, #0x8
    8390:	8b20c380 	add	x0, x28, w0, sxtw
    8394:	7100029f 	cmp	w20, #0x0
    8398:	54ffff6d 	b.le	8384 <__vsnprintf+0x6b0>
    839c:	91002e61 	add	x1, x19, #0xb
    83a0:	17fffff7 	b	837c <__vsnprintf+0x6a8>
/home/ursus/devel/optee/optee_os/lib/libutils/ext/snprintk.c:414
    83a4:	b9407fa1 	ldr	w1, [x29,#124]
    83a8:	34000b81 	cbz	w1, 8518 <__vsnprintf+0x844>
    83ac:	39400321 	ldrb	w1, [x25]
    83b0:	7101543f 	cmp	w1, #0x55
    83b4:	54000b21 	b.ne	8518 <__vsnprintf+0x844>
    83b8:	39400721 	ldrb	w1, [x25,#1]
    83bc:	7101b03f 	cmp	w1, #0x6c
    83c0:	54000ac1 	b.ne	8518 <__vsnprintf+0x844>
/home/ursus/devel/optee/optee_os/lib/libutils/ext/snprintk.c:419
    83c4:	91000b39 	add	x25, x25, #0x2
/home/ursus/devel/optee/optee_os/lib/libutils/ext/snprintk.c:420
    83c8:	37f809c0 	tbnz	w0, #31, 8500 <__vsnprintf+0x82c>
    83cc:	91003e61 	add	x1, x19, #0xf
    83d0:	2a0003f4 	mov	w20, w0
    83d4:	aa1303e0 	mov	x0, x19
    83d8:	927df033 	and	x19, x1, #0xfffffffffffffff8
    83dc:	f9400000 	ldr	x0, [x0]
uuid2str():
/home/ursus/devel/optee/optee_os/lib/libutils/ext/snprintk.c:222
    83e0:	d0000022 	adrp	x2, e000 <__func__.3633+0x30>
    83e4:	b90073aa 	str	w10, [x29,#112]
    83e8:	91262042 	add	x2, x2, #0x988
    83ec:	b9007ba8 	str	w8, [x29,#120]
    83f0:	39403c01 	ldrb	w1, [x0,#15]
    83f4:	79400804 	ldrh	w4, [x0,#4]
    83f8:	39402407 	ldrb	w7, [x0,#9]
    83fc:	39402006 	ldrb	w6, [x0,#8]
    8400:	79400c05 	ldrh	w5, [x0,#6]
    8404:	b9002be1 	str	w1, [sp,#40]
    8408:	39403801 	ldrb	w1, [x0,#14]
    840c:	b90023e1 	str	w1, [sp,#32]
    8410:	39403401 	ldrb	w1, [x0,#13]
    8414:	b9001be1 	str	w1, [sp,#24]
    8418:	39403001 	ldrb	w1, [x0,#12]
    841c:	b90013e1 	str	w1, [sp,#16]
    8420:	39402c01 	ldrb	w1, [x0,#11]
    8424:	b9000be1 	str	w1, [sp,#8]
    8428:	39402801 	ldrb	w1, [x0,#10]
    842c:	b90003e1 	str	w1, [sp]
    8430:	d28004a1 	mov	x1, #0x25                  	// #37
    8434:	b9400003 	ldr	w3, [x0]
    8438:	aa1803e0 	mov	x0, x24
    843c:	94000125 	bl	88d0 <snprintk>
    8440:	2a0003e4 	mov	w4, w0
    8444:	b94073aa 	ldr	w10, [x29,#112]
kprintf():
/home/ursus/devel/optee/optee_os/lib/libutils/ext/snprintk.c:422
    8448:	aa1803e3 	mov	x3, x24
    844c:	b9407ba8 	ldr	w8, [x29,#120]
/home/ursus/devel/optee/optee_os/lib/libutils/ext/snprintk.c:284
    8450:	52800000 	mov	w0, #0x0                   	// #0
/home/ursus/devel/optee/optee_os/lib/libutils/ext/snprintk.c:423
    8454:	52800001 	mov	w1, #0x0                   	// #0
/home/ursus/devel/optee/optee_os/lib/libutils/ext/snprintk.c:564
    8458:	6b04001f 	cmp	w0, w4
    845c:	1a84a006 	csel	w6, w0, w4, ge
/home/ursus/devel/optee/optee_os/lib/libutils/ext/snprintk.c:565
    8460:	34001781 	cbz	w1, 8750 <__vsnprintf+0xa7c>
/home/ursus/devel/optee/optee_os/lib/libutils/ext/snprintk.c:566
    8464:	110004c6 	add	w6, w6, #0x1
/home/ursus/devel/optee/optee_os/lib/libutils/ext/snprintk.c:571
    8468:	6b06015f 	cmp	w10, w6
    846c:	1a86a142 	csel	w2, w10, w6, ge
    8470:	0b02037b 	add	w27, w27, w2
/home/ursus/devel/optee/optee_os/lib/libutils/ext/snprintk.c:574
    8474:	52808082 	mov	w2, #0x404                 	// #1028
    8478:	6a0202a2 	ands	w2, w21, w2
    847c:	540000a1 	b.ne	8490 <__vsnprintf+0x7bc>
/home/ursus/devel/optee/optee_os/lib/libutils/ext/snprintk.c:575
    8480:	4b060145 	sub	w5, w10, w6
/home/ursus/devel/optee/optee_os/lib/libutils/ext/snprintk.c:577
    8484:	52800407 	mov	w7, #0x20                  	// #32
/home/ursus/devel/optee/optee_os/lib/libutils/ext/snprintk.c:576
    8488:	710000bf 	cmp	w5, #0x0
    848c:	540016ac 	b.gt	8760 <__vsnprintf+0xa8c>
/home/ursus/devel/optee/optee_os/lib/libutils/ext/snprintk.c:581
    8490:	34001801 	cbz	w1, 8790 <__vsnprintf+0xabc>
/home/ursus/devel/optee/optee_os/lib/libutils/ext/snprintk.c:582
    8494:	b5001756 	cbnz	x22, 877c <__vsnprintf+0xaa8>
/home/ursus/devel/optee/optee_os/lib/libutils/ext/snprintk.c:585
    8498:	d2800016 	mov	x22, #0x0                   	// #0
/home/ursus/devel/optee/optee_os/lib/libutils/ext/snprintk.c:589
    849c:	7110005f 	cmp	w2, #0x400
    84a0:	540000a1 	b.ne	84b4 <__vsnprintf+0x7e0>
/home/ursus/devel/optee/optee_os/lib/libutils/ext/snprintk.c:590
    84a4:	4b060141 	sub	w1, w10, w6
/home/ursus/devel/optee/optee_os/lib/libutils/ext/snprintk.c:592
    84a8:	52800602 	mov	w2, #0x30                  	// #48
/home/ursus/devel/optee/optee_os/lib/libutils/ext/snprintk.c:591
    84ac:	7100003f 	cmp	w1, #0x0
    84b0:	540018ec 	b.gt	87cc <__vsnprintf+0xaf8>
/home/ursus/devel/optee/optee_os/lib/libutils/ext/snprintk.c:596
    84b4:	4b040000 	sub	w0, w0, w4
/home/ursus/devel/optee/optee_os/lib/libutils/ext/snprintk.c:598
    84b8:	52800601 	mov	w1, #0x30                  	// #48
/home/ursus/devel/optee/optee_os/lib/libutils/ext/snprintk.c:597
    84bc:	7100001f 	cmp	w0, #0x0
    84c0:	5400194c 	b.gt	87e8 <__vsnprintf+0xb14>
    84c4:	8b244064 	add	x4, x3, w4, uxtw
/home/ursus/devel/optee/optee_os/lib/libutils/ext/snprintk.c:601
    84c8:	eb04007f 	cmp	x3, x4
    84cc:	540019c1 	b.ne	8804 <__vsnprintf+0xb30>
/home/ursus/devel/optee/optee_os/lib/libutils/ext/snprintk.c:604
    84d0:	3617c2b5 	tbz	w21, #2, 7d24 <__vsnprintf+0x50>
/home/ursus/devel/optee/optee_os/lib/libutils/ext/snprintk.c:605
    84d4:	4b06014a 	sub	w10, w10, w6
/home/ursus/devel/optee/optee_os/lib/libutils/ext/snprintk.c:607
    84d8:	52800400 	mov	w0, #0x20                  	// #32
/home/ursus/devel/optee/optee_os/lib/libutils/ext/snprintk.c:606
    84dc:	7100015f 	cmp	w10, #0x0
    84e0:	54ffc22d 	b.le	7d24 <__vsnprintf+0x50>
/home/ursus/devel/optee/optee_os/lib/libutils/ext/snprintk.c:607
    84e4:	b40000b6 	cbz	x22, 84f8 <__vsnprintf+0x824>
    84e8:	eb16035f 	cmp	x26, x22
    84ec:	54000069 	b.ls	84f8 <__vsnprintf+0x824>
    84f0:	390002c0 	strb	w0, [x22]
    84f4:	910006d6 	add	x22, x22, #0x1
    84f8:	5100054a 	sub	w10, w10, #0x1
    84fc:	17fffff8 	b	84dc <__vsnprintf+0x808>
/home/ursus/devel/optee/optee_os/lib/libutils/ext/snprintk.c:420
    8500:	11002014 	add	w20, w0, #0x8
    8504:	8b20c380 	add	x0, x28, w0, sxtw
    8508:	7100029f 	cmp	w20, #0x0
    850c:	54fff68d 	b.le	83dc <__vsnprintf+0x708>
    8510:	91003e61 	add	x1, x19, #0xf
    8514:	17ffffb0 	b	83d4 <__vsnprintf+0x700>
/home/ursus/devel/optee/optee_os/lib/libutils/ext/snprintk.c:434
    8518:	37f801c0 	tbnz	w0, #31, 8550 <__vsnprintf+0x87c>
    851c:	91003e61 	add	x1, x19, #0xf
    8520:	2a0003f4 	mov	w20, w0
    8524:	aa1303e0 	mov	x0, x19
    8528:	927df033 	and	x19, x1, #0xfffffffffffffff8
/home/ursus/devel/optee/optee_os/lib/libutils/ext/snprintk.c:436
    852c:	b0000037 	adrp	x23, d000 <__func__.4585>
    8530:	9107e2f7 	add	x23, x23, #0x1f8
/home/ursus/devel/optee/optee_os/lib/libutils/ext/snprintk.c:434
    8534:	f9400005 	ldr	x5, [x0]
/home/ursus/devel/optee/optee_os/lib/libutils/ext/snprintk.c:437
    8538:	321f02b5 	orr	w21, w21, #0x2
/home/ursus/devel/optee/optee_os/lib/libutils/ext/snprintk.c:436
    853c:	910062f7 	add	x23, x23, #0x18
/home/ursus/devel/optee/optee_os/lib/libutils/ext/snprintk.c:481
    8540:	52800001 	mov	w1, #0x0                   	// #0
/home/ursus/devel/optee/optee_os/lib/libutils/ext/snprintk.c:438
    8544:	52800f08 	mov	w8, #0x78                  	// #120
/home/ursus/devel/optee/optee_os/lib/libutils/ext/snprintk.c:435
    8548:	52800040 	mov	w0, #0x2                   	// #2
    854c:	17fffefe 	b	8144 <__vsnprintf+0x470>
/home/ursus/devel/optee/optee_os/lib/libutils/ext/snprintk.c:434
    8550:	11002014 	add	w20, w0, #0x8
    8554:	8b20c380 	add	x0, x28, w0, sxtw
    8558:	7100029f 	cmp	w20, #0x0
    855c:	54fffe8d 	b.le	852c <__vsnprintf+0x858>
    8560:	91003e61 	add	x1, x19, #0xf
    8564:	17fffff0 	b	8524 <__vsnprintf+0x850>
/home/ursus/devel/optee/optee_os/lib/libutils/ext/snprintk.c:441
    8568:	11002014 	add	w20, w0, #0x8
    856c:	8b20c380 	add	x0, x28, w0, sxtw
    8570:	7100029f 	cmp	w20, #0x0
    8574:	54ffcbcd 	b.le	7eec <__vsnprintf+0x218>
    8578:	91003e61 	add	x1, x19, #0xf
    857c:	17fffe5a 	b	7ee4 <__vsnprintf+0x210>
/home/ursus/devel/optee/optee_os/lib/libutils/ext/snprintk.c:459
    8580:	aa0303e0 	mov	x0, x3
    8584:	b9006fa8 	str	w8, [x29,#108]
    8588:	f9003ba3 	str	x3, [x29,#112]
    858c:	b9007baa 	str	w10, [x29,#120]
    8590:	97fffdca 	bl	7cb8 <strlen>
/home/ursus/devel/optee/optee_os/lib/libutils/ext/snprintk.c:460
    8594:	52800001 	mov	w1, #0x0                   	// #0
/home/ursus/devel/optee/optee_os/lib/libutils/ext/snprintk.c:459
    8598:	2a0003e4 	mov	w4, w0
    859c:	b9406fa8 	ldr	w8, [x29,#108]
/home/ursus/devel/optee/optee_os/lib/libutils/ext/snprintk.c:284
    85a0:	52800000 	mov	w0, #0x0                   	// #0
    85a4:	b9407baa 	ldr	w10, [x29,#120]
    85a8:	f9403ba3 	ldr	x3, [x29,#112]
    85ac:	17ffffab 	b	8458 <__vsnprintf+0x784>
/home/ursus/devel/optee/optee_os/lib/libutils/ext/snprintk.c:463
    85b0:	321c02b5 	orr	w21, w21, #0x10
    85b4:	17fffe6c 	b	7f64 <__vsnprintf+0x290>
/home/ursus/devel/optee/optee_os/lib/libutils/ext/snprintk.c:466
    85b8:	3747cd95 	tbnz	w21, #8, 7f68 <__vsnprintf+0x294>
    85bc:	374fcd75 	tbnz	w21, #9, 7f68 <__vsnprintf+0x294>
    85c0:	372fcd55 	tbnz	w21, #5, 7f68 <__vsnprintf+0x294>
    85c4:	3727cd35 	tbnz	w21, #4, 7f68 <__vsnprintf+0x294>
    85c8:	36300295 	tbz	w21, #6, 8618 <__vsnprintf+0x944>
    85cc:	37f801a0 	tbnz	w0, #31, 8600 <__vsnprintf+0x92c>
    85d0:	91002e61 	add	x1, x19, #0xb
    85d4:	2a0003f4 	mov	w20, w0
    85d8:	aa1303e0 	mov	x0, x19
    85dc:	927df033 	and	x19, x1, #0xfffffffffffffff8
    85e0:	79400005 	ldrh	w5, [x0]
    85e4:	17fffe67 	b	7f80 <__vsnprintf+0x2ac>
    85e8:	11002014 	add	w20, w0, #0x8
    85ec:	8b20c380 	add	x0, x28, w0, sxtw
    85f0:	7100029f 	cmp	w20, #0x0
    85f4:	54ffcc4d 	b.le	7f7c <__vsnprintf+0x2a8>
    85f8:	91003e61 	add	x1, x19, #0xf
    85fc:	17fffe5e 	b	7f74 <__vsnprintf+0x2a0>
    8600:	11002014 	add	w20, w0, #0x8
    8604:	8b20c380 	add	x0, x28, w0, sxtw
    8608:	7100029f 	cmp	w20, #0x0
    860c:	54fffead 	b.le	85e0 <__vsnprintf+0x90c>
    8610:	91002e61 	add	x1, x19, #0xb
    8614:	17fffff1 	b	85d8 <__vsnprintf+0x904>
    8618:	37f800e0 	tbnz	w0, #31, 8634 <__vsnprintf+0x960>
    861c:	91002e61 	add	x1, x19, #0xb
    8620:	2a0003f4 	mov	w20, w0
    8624:	aa1303e0 	mov	x0, x19
    8628:	927df033 	and	x19, x1, #0xfffffffffffffff8
    862c:	b9400005 	ldr	w5, [x0]
    8630:	17fffe54 	b	7f80 <__vsnprintf+0x2ac>
    8634:	11002014 	add	w20, w0, #0x8
    8638:	8b20c380 	add	x0, x28, w0, sxtw
    863c:	7100029f 	cmp	w20, #0x0
    8640:	54ffff6d 	b.le	862c <__vsnprintf+0x958>
    8644:	91002e61 	add	x1, x19, #0xb
    8648:	17fffff7 	b	8624 <__vsnprintf+0x950>
/home/ursus/devel/optee/optee_os/lib/libutils/ext/snprintk.c:473
    864c:	b0000037 	adrp	x23, d000 <__func__.4585>
    8650:	9107e2f7 	add	x23, x23, #0x1f8
    8654:	910062f7 	add	x23, x23, #0x18
    8658:	17fffe4e 	b	7f90 <__vsnprintf+0x2bc>
/home/ursus/devel/optee/optee_os/lib/libutils/ext/snprintk.c:474
    865c:	3747c9d5 	tbnz	w21, #8, 7f94 <__vsnprintf+0x2c0>
    8660:	374fc9b5 	tbnz	w21, #9, 7f94 <__vsnprintf+0x2c0>
    8664:	372fc995 	tbnz	w21, #5, 7f94 <__vsnprintf+0x2c0>
    8668:	3727c975 	tbnz	w21, #4, 7f94 <__vsnprintf+0x2c0>
    866c:	36300295 	tbz	w21, #6, 86bc <__vsnprintf+0x9e8>
    8670:	37f801a0 	tbnz	w0, #31, 86a4 <__vsnprintf+0x9d0>
    8674:	91002e61 	add	x1, x19, #0xb
    8678:	2a0003f4 	mov	w20, w0
    867c:	aa1303e0 	mov	x0, x19
    8680:	927df033 	and	x19, x1, #0xfffffffffffffff8
    8684:	79400005 	ldrh	w5, [x0]
    8688:	17fffe49 	b	7fac <__vsnprintf+0x2d8>
    868c:	11002014 	add	w20, w0, #0x8
    8690:	8b20c380 	add	x0, x28, w0, sxtw
    8694:	7100029f 	cmp	w20, #0x0
    8698:	54ffc88d 	b.le	7fa8 <__vsnprintf+0x2d4>
    869c:	91003e61 	add	x1, x19, #0xf
    86a0:	17fffe40 	b	7fa0 <__vsnprintf+0x2cc>
    86a4:	11002014 	add	w20, w0, #0x8
    86a8:	8b20c380 	add	x0, x28, w0, sxtw
    86ac:	7100029f 	cmp	w20, #0x0
    86b0:	54fffead 	b.le	8684 <__vsnprintf+0x9b0>
    86b4:	91002e61 	add	x1, x19, #0xb
    86b8:	17fffff1 	b	867c <__vsnprintf+0x9a8>
    86bc:	37f800e0 	tbnz	w0, #31, 86d8 <__vsnprintf+0xa04>
    86c0:	91002e61 	add	x1, x19, #0xb
    86c4:	2a0003f4 	mov	w20, w0
    86c8:	aa1303e0 	mov	x0, x19
    86cc:	927df033 	and	x19, x1, #0xfffffffffffffff8
    86d0:	b9400005 	ldr	w5, [x0]
    86d4:	17fffe36 	b	7fac <__vsnprintf+0x2d8>
    86d8:	11002014 	add	w20, w0, #0x8
    86dc:	8b20c380 	add	x0, x28, w0, sxtw
    86e0:	7100029f 	cmp	w20, #0x0
    86e4:	54ffff6d 	b.le	86d0 <__vsnprintf+0x9fc>
    86e8:	91002e61 	add	x1, x19, #0xb
    86ec:	17fffff7 	b	86c8 <__vsnprintf+0x9f4>
/home/ursus/devel/optee/optee_os/lib/libutils/ext/snprintk.c:502
    86f0:	91009700 	add	x0, x24, #0x25
/home/ursus/devel/optee/optee_os/lib/libutils/ext/snprintk.c:516
    86f4:	d2800146 	mov	x6, #0xa                   	// #10
/home/ursus/devel/optee/optee_os/lib/libutils/ext/snprintk.c:515
    86f8:	f10024bf 	cmp	x5, #0x9
    86fc:	d1000403 	sub	x3, x0, #0x1
    8700:	540000c8 	b.hi	8718 <__vsnprintf+0xa44>
/home/ursus/devel/optee/optee_os/lib/libutils/ext/snprintk.c:519
    8704:	1100c0a2 	add	w2, w5, #0x30
    8708:	381ff002 	sturb	w2, [x0,#-1]
    870c:	17fffea7 	b	81a8 <__vsnprintf+0x4d4>
/home/ursus/devel/optee/optee_os/lib/libutils/ext/snprintk.c:507
    8710:	aa0303e0 	mov	x0, x3
    8714:	17fffe98 	b	8174 <__vsnprintf+0x4a0>
/home/ursus/devel/optee/optee_os/lib/libutils/ext/snprintk.c:516
    8718:	aa0303e0 	mov	x0, x3
    871c:	9ac608a3 	udiv	x3, x5, x6
    8720:	9b069462 	msub	x2, x3, x6, x5
/home/ursus/devel/optee/optee_os/lib/libutils/ext/snprintk.c:517
    8724:	aa0303e5 	mov	x5, x3
/home/ursus/devel/optee/optee_os/lib/libutils/ext/snprintk.c:516
    8728:	1100c042 	add	w2, w2, #0x30
    872c:	39000002 	strb	w2, [x0]
    8730:	17fffff2 	b	86f8 <__vsnprintf+0xa24>
/home/ursus/devel/optee/optee_os/lib/libutils/ext/snprintk.c:502
    8734:	91009703 	add	x3, x24, #0x25
/home/ursus/devel/optee/optee_os/lib/libutils/ext/snprintk.c:524
    8738:	92400ca0 	and	x0, x5, #0xf
/home/ursus/devel/optee/optee_os/lib/libutils/ext/snprintk.c:525
    873c:	d344fca5 	lsr	x5, x5, #4
/home/ursus/devel/optee/optee_os/lib/libutils/ext/snprintk.c:524
    8740:	38606ae0 	ldrb	w0, [x23,x0]
    8744:	381ffc60 	strb	w0, [x3,#-1]!
/home/ursus/devel/optee/optee_os/lib/libutils/ext/snprintk.c:526
    8748:	b5ffff85 	cbnz	x5, 8738 <__vsnprintf+0xa64>
    874c:	17fffe97 	b	81a8 <__vsnprintf+0x4d4>
/home/ursus/devel/optee/optee_os/lib/libutils/ext/snprintk.c:568
    8750:	110008c2 	add	w2, w6, #0x2
    8754:	f27f02bf 	tst	x21, #0x2
    8758:	1a861046 	csel	w6, w2, w6, ne
    875c:	17ffff43 	b	8468 <__vsnprintf+0x794>
/home/ursus/devel/optee/optee_os/lib/libutils/ext/snprintk.c:577
    8760:	b40000b6 	cbz	x22, 8774 <__vsnprintf+0xaa0>
    8764:	eb16035f 	cmp	x26, x22
    8768:	54000069 	b.ls	8774 <__vsnprintf+0xaa0>
    876c:	390002c7 	strb	w7, [x22]
    8770:	910006d6 	add	x22, x22, #0x1
    8774:	510004a5 	sub	w5, w5, #0x1
    8778:	17ffff44 	b	8488 <__vsnprintf+0x7b4>
/home/ursus/devel/optee/optee_os/lib/libutils/ext/snprintk.c:582
    877c:	eb16035f 	cmp	x26, x22
    8780:	54ffe8e9 	b.ls	849c <__vsnprintf+0x7c8>
    8784:	390002c1 	strb	w1, [x22]
    8788:	910006d6 	add	x22, x22, #0x1
    878c:	17ffff44 	b	849c <__vsnprintf+0x7c8>
/home/ursus/devel/optee/optee_os/lib/libutils/ext/snprintk.c:583
    8790:	360fe875 	tbz	w21, #1, 849c <__vsnprintf+0x7c8>
/home/ursus/devel/optee/optee_os/lib/libutils/ext/snprintk.c:584
    8794:	b4ffe836 	cbz	x22, 8498 <__vsnprintf+0x7c4>
    8798:	eb16035f 	cmp	x26, x22
    879c:	54ffe809 	b.ls	849c <__vsnprintf+0x7c8>
    87a0:	52800601 	mov	w1, #0x30                  	// #48
    87a4:	390002c1 	strb	w1, [x22]
/home/ursus/devel/optee/optee_os/lib/libutils/ext/snprintk.c:585
    87a8:	b10006c1 	adds	x1, x22, #0x1
    87ac:	54ffe760 	b.eq	8498 <__vsnprintf+0x7c4>
    87b0:	eb01035f 	cmp	x26, x1
    87b4:	54000089 	b.ls	87c4 <__vsnprintf+0xaf0>
    87b8:	390006c8 	strb	w8, [x22,#1]
    87bc:	91000ad6 	add	x22, x22, #0x2
    87c0:	17ffff37 	b	849c <__vsnprintf+0x7c8>
    87c4:	aa0103f6 	mov	x22, x1
    87c8:	17ffff35 	b	849c <__vsnprintf+0x7c8>
/home/ursus/devel/optee/optee_os/lib/libutils/ext/snprintk.c:592
    87cc:	b40000b6 	cbz	x22, 87e0 <__vsnprintf+0xb0c>
    87d0:	eb16035f 	cmp	x26, x22
    87d4:	54000069 	b.ls	87e0 <__vsnprintf+0xb0c>
    87d8:	390002c2 	strb	w2, [x22]
    87dc:	910006d6 	add	x22, x22, #0x1
    87e0:	51000421 	sub	w1, w1, #0x1
    87e4:	17ffff32 	b	84ac <__vsnprintf+0x7d8>
/home/ursus/devel/optee/optee_os/lib/libutils/ext/snprintk.c:598
    87e8:	b40000b6 	cbz	x22, 87fc <__vsnprintf+0xb28>
    87ec:	eb16035f 	cmp	x26, x22
    87f0:	54000069 	b.ls	87fc <__vsnprintf+0xb28>
    87f4:	390002c1 	strb	w1, [x22]
    87f8:	910006d6 	add	x22, x22, #0x1
    87fc:	51000400 	sub	w0, w0, #0x1
    8800:	17ffff2f 	b	84bc <__vsnprintf+0x7e8>
/home/ursus/devel/optee/optee_os/lib/libutils/ext/snprintk.c:602
    8804:	b40000d6 	cbz	x22, 881c <__vsnprintf+0xb48>
    8808:	eb16035f 	cmp	x26, x22
    880c:	54000089 	b.ls	881c <__vsnprintf+0xb48>
    8810:	39400060 	ldrb	w0, [x3]
    8814:	910006d6 	add	x22, x22, #0x1
    8818:	381ff2c0 	sturb	w0, [x22,#-1]
/home/ursus/devel/optee/optee_os/lib/libutils/ext/snprintk.c:601
    881c:	91000463 	add	x3, x3, #0x1
    8820:	17ffff2a 	b	84c8 <__vsnprintf+0x7f4>
__vsnprintf():
/home/ursus/devel/optee/optee_os/lib/libutils/ext/snprintk.c:142
    8824:	f94047a0 	ldr	x0, [x29,#136]
    8828:	f100001f 	cmp	x0, #0x0
    882c:	f94043a0 	ldr	x0, [x29,#128]
    8830:	fa401804 	ccmp	x0, #0x0, #0x4, ne
    8834:	540000c0 	b.eq	884c <__vsnprintf+0xb78>
/home/ursus/devel/optee/optee_os/lib/libutils/ext/snprintk.c:144
    8838:	f94043a1 	ldr	x1, [x29,#128]
    883c:	93407f60 	sxtw	x0, w27
    8840:	eb00003f 	cmp	x1, x0
    8844:	54000168 	b.hi	8870 <__vsnprintf+0xb9c>
/home/ursus/devel/optee/optee_os/lib/libutils/ext/snprintk.c:145
    8848:	381ff35f 	sturb	wzr, [x26,#-1]
/home/ursus/devel/optee/optee_os/lib/libutils/ext/snprintk.c:150
    884c:	2a1b03e0 	mov	w0, w27
    8850:	a94453f3 	ldp	x19, x20, [sp,#64]
    8854:	a9455bf5 	ldp	x21, x22, [sp,#80]
    8858:	a94663f7 	ldp	x23, x24, [sp,#96]
    885c:	a9476bf9 	ldp	x25, x26, [sp,#112]
    8860:	a94873fb 	ldp	x27, x28, [sp,#128]
    8864:	a9437bfd 	ldp	x29, x30, [sp,#48]
    8868:	9103c3ff 	add	sp, sp, #0xf0
    886c:	d65f03c0 	ret
/home/ursus/devel/optee/optee_os/lib/libutils/ext/snprintk.c:147
    8870:	f94047a1 	ldr	x1, [x29,#136]
    8874:	3820683f 	strb	wzr, [x1,x0]
/home/ursus/devel/optee/optee_os/lib/libutils/ext/snprintk.c:149
    8878:	17fffff5 	b	884c <__vsnprintf+0xb78>

000000000000887c <vsnprintk>:
vsnprintk():
/home/ursus/devel/optee/optee_os/lib/libutils/ext/snprintk.c:128
    887c:	a9bb7bfd 	stp	x29, x30, [sp,#-80]!
    8880:	910003fd 	mov	x29, sp
    8884:	a90153f3 	stp	x19, x20, [sp,#16]
    8888:	aa0003f3 	mov	x19, x0
    888c:	f90013f5 	str	x21, [sp,#32]
    8890:	aa0103f4 	mov	x20, x1
    8894:	aa0203f5 	mov	x21, x2
/home/ursus/devel/optee/optee_os/lib/libutils/ext/snprintk.c:129
    8898:	aa0303e1 	mov	x1, x3
    889c:	9100c3a0 	add	x0, x29, #0x30
    88a0:	d2800402 	mov	x2, #0x20                  	// #32
    88a4:	97fffce3 	bl	7c30 <memcpy>
    88a8:	aa0003e3 	mov	x3, x0
    88ac:	aa1503e2 	mov	x2, x21
    88b0:	aa1403e1 	mov	x1, x20
    88b4:	52800024 	mov	w4, #0x1                   	// #1
    88b8:	aa1303e0 	mov	x0, x19
    88bc:	97fffd06 	bl	7cd4 <__vsnprintf>
/home/ursus/devel/optee/optee_os/lib/libutils/ext/snprintk.c:130
    88c0:	f94013f5 	ldr	x21, [sp,#32]
    88c4:	a94153f3 	ldp	x19, x20, [sp,#16]
    88c8:	a8c57bfd 	ldp	x29, x30, [sp],#80
    88cc:	d65f03c0 	ret

00000000000088d0 <snprintk>:
snprintk():
/home/ursus/devel/optee/optee_os/lib/libutils/ext/snprintk.c:111
    88d0:	a9b07bfd 	stp	x29, x30, [sp,#-256]!
    88d4:	910003fd 	mov	x29, sp
    88d8:	a90d93a3 	stp	x3, x4, [x29,#216]
/home/ursus/devel/optee/optee_os/lib/libutils/ext/snprintk.c:115
    88dc:	910403a3 	add	x3, x29, #0x100
    88e0:	a9030fa3 	stp	x3, x3, [x29,#48]
    88e4:	910343a3 	add	x3, x29, #0xd0
    88e8:	f90023a3 	str	x3, [x29,#64]
    88ec:	128004e3 	mov	w3, #0xffffffd8            	// #-40
    88f0:	b9004ba3 	str	w3, [x29,#72]
    88f4:	12800fe3 	mov	w3, #0xffffff80            	// #-128
    88f8:	b9004fa3 	str	w3, [x29,#76]
/home/ursus/devel/optee/optee_os/lib/libutils/ext/snprintk.c:116
    88fc:	910043a3 	add	x3, x29, #0x10
/home/ursus/devel/optee/optee_os/lib/libutils/ext/snprintk.c:111
    8900:	a90e9ba5 	stp	x5, x6, [x29,#232]
/home/ursus/devel/optee/optee_os/lib/libutils/ext/snprintk.c:116
    8904:	a94317a4 	ldp	x4, x5, [x29,#48]
    8908:	a90117a4 	stp	x4, x5, [x29,#16]
    890c:	a94417a4 	ldp	x4, x5, [x29,#64]
/home/ursus/devel/optee/optee_os/lib/libutils/ext/snprintk.c:111
    8910:	3d8017a0 	str	q0, [x29,#80]
    8914:	3d801ba1 	str	q1, [x29,#96]
    8918:	3d801fa2 	str	q2, [x29,#112]
    891c:	3d8023a3 	str	q3, [x29,#128]
    8920:	3d8027a4 	str	q4, [x29,#144]
    8924:	3d802ba5 	str	q5, [x29,#160]
    8928:	3d802fa6 	str	q6, [x29,#176]
    892c:	3d8033a7 	str	q7, [x29,#192]
    8930:	f9007fa7 	str	x7, [x29,#248]
/home/ursus/devel/optee/optee_os/lib/libutils/ext/snprintk.c:116
    8934:	a90217a4 	stp	x4, x5, [x29,#32]
    8938:	97ffffd1 	bl	887c <vsnprintk>
/home/ursus/devel/optee/optee_os/lib/libutils/ext/snprintk.c:120
    893c:	a8d07bfd 	ldp	x29, x30, [sp],#256
    8940:	d65f03c0 	ret

0000000000008944 <strlcpy>:
strlcpy():
/home/ursus/devel/optee/optee_os/lib/libutils/ext/strlcpy.c:46
    8944:	aa0103e3 	mov	x3, x1
/home/ursus/devel/optee/optee_os/lib/libutils/ext/strlcpy.c:52
    8948:	b4000142 	cbz	x2, 8970 <strlcpy+0x2c>
/home/ursus/devel/optee/optee_os/lib/libutils/ext/strlcpy.c:52 (discriminator 1)
    894c:	f1000442 	subs	x2, x2, #0x1
    8950:	540000e0 	b.eq	896c <strlcpy+0x28>
/home/ursus/devel/optee/optee_os/lib/libutils/ext/strlcpy.c:54
    8954:	38401464 	ldrb	w4, [x3],#1
    8958:	38001404 	strb	w4, [x0],#1
    895c:	35ffff84 	cbnz	w4, 894c <strlcpy+0x8>
/home/ursus/devel/optee/optee_os/lib/libutils/ext/strlcpy.c:67
    8960:	cb010060 	sub	x0, x3, x1
    8964:	d1000400 	sub	x0, x0, #0x1
/home/ursus/devel/optee/optee_os/lib/libutils/ext/strlcpy.c:68
    8968:	d65f03c0 	ret
/home/ursus/devel/optee/optee_os/lib/libutils/ext/strlcpy.c:62
    896c:	3900001f 	strb	wzr, [x0]
/home/ursus/devel/optee/optee_os/lib/libutils/ext/strlcpy.c:63 (discriminator 1)
    8970:	38401460 	ldrb	w0, [x3],#1
    8974:	35ffffe0 	cbnz	w0, 8970 <strlcpy+0x2c>
    8978:	17fffffa 	b	8960 <strlcpy+0x1c>

000000000000897c <buf_compare_ct>:
buf_compare_ct():
/home/ursus/devel/optee/optee_os/lib/libutils/ext/buf_compare_ct.c:35
    897c:	d2800004 	mov	x4, #0x0                   	// #0
/home/ursus/devel/optee/optee_os/lib/libutils/ext/buf_compare_ct.c:31
    8980:	52800003 	mov	w3, #0x0                   	// #0
/home/ursus/devel/optee/optee_os/lib/libutils/ext/buf_compare_ct.c:35
    8984:	eb04005f 	cmp	x2, x4
    8988:	540000c1 	b.ne	89a0 <buf_compare_ct+0x24>
/home/ursus/devel/optee/optee_os/lib/libutils/ext/buf_compare_ct.c:41
    898c:	2a831063 	orr	w3, w3, w3, asr #4
/home/ursus/devel/optee/optee_os/lib/libutils/ext/buf_compare_ct.c:42
    8990:	2a830863 	orr	w3, w3, w3, asr #2
/home/ursus/devel/optee/optee_os/lib/libutils/ext/buf_compare_ct.c:43
    8994:	2a830463 	orr	w3, w3, w3, asr #1
/home/ursus/devel/optee/optee_os/lib/libutils/ext/buf_compare_ct.c:47
    8998:	12000060 	and	w0, w3, #0x1
    899c:	d65f03c0 	ret
/home/ursus/devel/optee/optee_os/lib/libutils/ext/buf_compare_ct.c:36
    89a0:	38646805 	ldrb	w5, [x0,x4]
    89a4:	38646826 	ldrb	w6, [x1,x4]
    89a8:	91000484 	add	x4, x4, #0x1
    89ac:	4a0600a5 	eor	w5, w5, w6
    89b0:	12001ca5 	and	w5, w5, #0xff
    89b4:	2a050063 	orr	w3, w3, w5
    89b8:	17fffff3 	b	8984 <buf_compare_ct+0x8>

00000000000089bc <trace_set_level>:
trace_set_level():
/home/ursus/devel/optee/optee_os/lib/libutils/ext/trace.c:43
    89bc:	51000401 	sub	w1, w0, #0x1
    89c0:	71000c3f 	cmp	w1, #0x3
    89c4:	d0000021 	adrp	x1, e000 <__func__.3633+0x30>
    89c8:	54000088 	b.hi	89d8 <trace_set_level+0x1c>
/home/ursus/devel/optee/optee_os/lib/libutils/ext/trace.c:46
    89cc:	f9465821 	ldr	x1, [x1,#3248]
    89d0:	b9000020 	str	w0, [x1]
    89d4:	d65f03c0 	ret
    89d8:	52800080 	mov	w0, #0x4                   	// #4
    89dc:	17fffffc 	b	89cc <trace_set_level+0x10>

00000000000089e0 <trace_get_level>:
trace_get_level():
/home/ursus/devel/optee/optee_os/lib/libutils/ext/trace.c:52
    89e0:	d0000020 	adrp	x0, e000 <__func__.3633+0x30>
    89e4:	f9465800 	ldr	x0, [x0,#3248]
    89e8:	b9400000 	ldr	w0, [x0]
    89ec:	d65f03c0 	ret

00000000000089f0 <trace_printf>:
trace_printf():
/home/ursus/devel/optee/optee_os/lib/libutils/ext/trace.c:73
    89f0:	d108c3ff 	sub	sp, sp, #0x230
    89f4:	a9007bfd 	stp	x29, x30, [sp]
    89f8:	910003fd 	mov	x29, sp
    89fc:	f9010fa5 	str	x5, [x29,#536]
    8a00:	910403a5 	add	x5, x29, #0x100
    8a04:	a9046bf9 	stp	x25, x26, [sp,#64]
/home/ursus/devel/optee/optee_os/lib/libutils/ext/trace.c:80
    8a08:	72001c79 	ands	w25, w3, #0xff
/home/ursus/devel/optee/optee_os/lib/libutils/ext/trace.c:73
    8a0c:	a90153f3 	stp	x19, x20, [sp,#16]
    8a10:	a9025bf5 	stp	x21, x22, [sp,#32]
    8a14:	a90363f7 	stp	x23, x24, [sp,#48]
    8a18:	f90113a6 	str	x6, [x29,#544]
    8a1c:	f90117a7 	str	x7, [x29,#552]
    8a20:	3d8024a0 	str	q0, [x5,#144]
    8a24:	3d8028a1 	str	q1, [x5,#160]
    8a28:	3d802ca2 	str	q2, [x5,#176]
    8a2c:	3d8030a3 	str	q3, [x5,#192]
    8a30:	3d8034a4 	str	q4, [x5,#208]
    8a34:	3d8038a5 	str	q5, [x5,#224]
    8a38:	3d803ca6 	str	q6, [x5,#240]
    8a3c:	910803a5 	add	x5, x29, #0x200
    8a40:	3d8000a7 	str	q7, [x5]
/home/ursus/devel/optee/optee_os/lib/libutils/ext/trace.c:80
    8a44:	54000e20 	b.eq	8c08 <trace_printf+0x218>
/home/ursus/devel/optee/optee_os/lib/libutils/ext/trace.c:80 (discriminator 1)
    8a48:	d0000023 	adrp	x3, e000 <__func__.3633+0x30>
    8a4c:	f9465863 	ldr	x3, [x3,#3248]
    8a50:	b9400063 	ldr	w3, [x3]
    8a54:	6b02007f 	cmp	w3, w2
    8a58:	54000cab 	b.lt	8bec <trace_printf+0x1fc>
trace_level_to_string():
/home/ursus/devel/optee/optee_os/lib/libutils/ext/trace.c:64
    8a5c:	51000443 	sub	w3, w2, #0x1
/home/ursus/devel/optee/optee_os/lib/libutils/ext/trace.c:67
    8a60:	b0000025 	adrp	x5, d000 <__func__.4585>
/home/ursus/devel/optee/optee_os/lib/libutils/ext/trace.c:64
    8a64:	71000c7f 	cmp	w3, #0x3
/home/ursus/devel/optee/optee_os/lib/libutils/ext/trace.c:67
    8a68:	9108a0a5 	add	x5, x5, #0x228
/home/ursus/devel/optee/optee_os/lib/libutils/ext/trace.c:64
    8a6c:	1a9f9043 	csel	w3, w2, wzr, ls
/home/ursus/devel/optee/optee_os/lib/libutils/ext/trace.c:67
    8a70:	52800126 	mov	w6, #0x9                   	// #9
    8a74:	9b261463 	smaddl	x3, w3, w6, x5
trace_printf():
/home/ursus/devel/optee/optee_os/lib/libutils/ext/trace.c:83
    8a78:	910243b4 	add	x20, x29, #0x90
    8a7c:	2a0203fa 	mov	w26, w2
    8a80:	2a0103f8 	mov	w24, w1
    8a84:	aa0003f6 	mov	x22, x0
    8a88:	d0000022 	adrp	x2, e000 <__func__.3633+0x30>
    8a8c:	aa0403f7 	mov	x23, x4
    8a90:	91270842 	add	x2, x2, #0x9c2
    8a94:	d2802001 	mov	x1, #0x100                 	// #256
    8a98:	aa1403e0 	mov	x0, x20
    8a9c:	97ffff8d 	bl	88d0 <snprintk>
/home/ursus/devel/optee/optee_os/lib/libutils/ext/trace.c:85
    8aa0:	37f80a60 	tbnz	w0, #31, 8bec <trace_printf+0x1fc>
/home/ursus/devel/optee/optee_os/lib/libutils/ext/trace.c:87
    8aa4:	93407c13 	sxtw	x19, w0
/home/ursus/devel/optee/optee_os/lib/libutils/ext/trace.c:89
    8aa8:	34000099 	cbz	w25, 8ab8 <trace_printf+0xc8>
/home/ursus/devel/optee/optee_os/lib/libutils/ext/trace.c:89 (discriminator 1)
    8aac:	52800340 	mov	w0, #0x1a                  	// #26
    8ab0:	1ada2401 	lsr	w1, w0, w26
    8ab4:	36000181 	tbz	w1, #0, 8ae4 <trace_printf+0xf4>
/home/ursus/devel/optee/optee_os/lib/libutils/ext/trace.c:92
    8ab8:	97fff7bf 	bl	69b4 <trace_ext_get_thread_id>
/home/ursus/devel/optee/optee_os/lib/libutils/ext/trace.c:94
    8abc:	37f80140 	tbnz	w0, #31, 8ae4 <trace_printf+0xf4>
/home/ursus/devel/optee/optee_os/lib/libutils/ext/trace.c:95
    8ac0:	2a0003e3 	mov	w3, w0
    8ac4:	d0000022 	adrp	x2, e000 <__func__.3633+0x30>
    8ac8:	d2802001 	mov	x1, #0x100                 	// #256
    8acc:	91271842 	add	x2, x2, #0x9c6
    8ad0:	cb130021 	sub	x1, x1, x19
    8ad4:	8b130280 	add	x0, x20, x19
    8ad8:	97ffff7e 	bl	88d0 <snprintk>
/home/ursus/devel/optee/optee_os/lib/libutils/ext/trace.c:97
    8adc:	37f80880 	tbnz	w0, #31, 8bec <trace_printf+0x1fc>
/home/ursus/devel/optee/optee_os/lib/libutils/ext/trace.c:99
    8ae0:	8b20c273 	add	x19, x19, w0, sxtw
/home/ursus/devel/optee/optee_os/lib/libutils/ext/trace.c:102
    8ae4:	d0000023 	adrp	x3, e000 <__func__.3633+0x30>
    8ae8:	d0000022 	adrp	x2, e000 <__func__.3633+0x30>
    8aec:	d2802001 	mov	x1, #0x100                 	// #256
    8af0:	91273842 	add	x2, x2, #0x9ce
    8af4:	f9466063 	ldr	x3, [x3,#3264]
    8af8:	cb130021 	sub	x1, x1, x19
    8afc:	8b130280 	add	x0, x20, x19
    8b00:	97ffff74 	bl	88d0 <snprintk>
/home/ursus/devel/optee/optee_os/lib/libutils/ext/trace.c:104
    8b04:	37f80740 	tbnz	w0, #31, 8bec <trace_printf+0x1fc>
/home/ursus/devel/optee/optee_os/lib/libutils/ext/trace.c:106
    8b08:	8b20c273 	add	x19, x19, w0, sxtw
/home/ursus/devel/optee/optee_os/lib/libutils/ext/trace.c:108
    8b0c:	34000099 	cbz	w25, 8b1c <trace_printf+0x12c>
/home/ursus/devel/optee/optee_os/lib/libutils/ext/trace.c:108 (discriminator 1)
    8b10:	52800342 	mov	w2, #0x1a                  	// #26
    8b14:	1ada2455 	lsr	w21, w2, w26
    8b18:	36000195 	tbz	w21, #0, 8b48 <trace_printf+0x158>
/home/ursus/devel/optee/optee_os/lib/libutils/ext/trace.c:111
    8b1c:	b4000176 	cbz	x22, 8b48 <trace_printf+0x158>
/home/ursus/devel/optee/optee_os/lib/libutils/ext/trace.c:112
    8b20:	d0000022 	adrp	x2, e000 <__func__.3633+0x30>
    8b24:	d2802001 	mov	x1, #0x100                 	// #256
    8b28:	2a1803e4 	mov	w4, w24
    8b2c:	aa1603e3 	mov	x3, x22
    8b30:	91274842 	add	x2, x2, #0x9d2
    8b34:	cb130021 	sub	x1, x1, x19
    8b38:	8b130280 	add	x0, x20, x19
    8b3c:	97ffff65 	bl	88d0 <snprintk>
/home/ursus/devel/optee/optee_os/lib/libutils/ext/trace.c:114
    8b40:	37f80560 	tbnz	w0, #31, 8bec <trace_printf+0x1fc>
/home/ursus/devel/optee/optee_os/lib/libutils/ext/trace.c:116
    8b44:	8b20c273 	add	x19, x19, w0, sxtw
/home/ursus/devel/optee/optee_os/lib/libutils/ext/trace.c:119
    8b48:	d2802015 	mov	x21, #0x100                 	// #256
    8b4c:	d0000022 	adrp	x2, e000 <__func__.3633+0x30>
    8b50:	cb1302a1 	sub	x1, x21, x19
    8b54:	91125842 	add	x2, x2, #0x496
    8b58:	8b130280 	add	x0, x20, x19
    8b5c:	97ffff5d 	bl	88d0 <snprintk>
/home/ursus/devel/optee/optee_os/lib/libutils/ext/trace.c:120
    8b60:	37f80460 	tbnz	w0, #31, 8bec <trace_printf+0x1fc>
/home/ursus/devel/optee/optee_os/lib/libutils/ext/trace.c:122
    8b64:	8b20c273 	add	x19, x19, w0, sxtw
/home/ursus/devel/optee/optee_os/lib/libutils/ext/trace.c:124
    8b68:	9108c3a0 	add	x0, x29, #0x230
    8b6c:	a90703a0 	stp	x0, x0, [x29,#112]
    8b70:	910843a0 	add	x0, x29, #0x210
    8b74:	f90043a0 	str	x0, [x29,#128]
    8b78:	128002e0 	mov	w0, #0xffffffe8            	// #-24
    8b7c:	b9008ba0 	str	w0, [x29,#136]
    8b80:	12800fe0 	mov	w0, #0xffffff80            	// #-128
    8b84:	b9008fa0 	str	w0, [x29,#140]
/home/ursus/devel/optee/optee_os/lib/libutils/ext/trace.c:125
    8b88:	910143a3 	add	x3, x29, #0x50
    8b8c:	a94707a0 	ldp	x0, x1, [x29,#112]
    8b90:	a90507a0 	stp	x0, x1, [x29,#80]
    8b94:	a94807a0 	ldp	x0, x1, [x29,#128]
    8b98:	a90607a0 	stp	x0, x1, [x29,#96]
    8b9c:	cb1302a1 	sub	x1, x21, x19
    8ba0:	8b130280 	add	x0, x20, x19
    8ba4:	aa1703e2 	mov	x2, x23
    8ba8:	97ffff35 	bl	887c <vsnprintk>
/home/ursus/devel/optee/optee_os/lib/libutils/ext/trace.c:128
    8bac:	7100001f 	cmp	w0, #0x0
    8bb0:	8b20c261 	add	x1, x19, w0, sxtw
    8bb4:	9a93c033 	csel	x19, x1, x19, gt
    8bb8:	d2801fc0 	mov	x0, #0xfe                  	// #254
    8bbc:	f103fa7f 	cmp	x19, #0xfe
    8bc0:	9a809273 	csel	x19, x19, x0, ls
/home/ursus/devel/optee/optee_os/lib/libutils/ext/trace.c:133
    8bc4:	52800140 	mov	w0, #0xa                   	// #10
    8bc8:	38336a80 	strb	w0, [x20,x19]
/home/ursus/devel/optee/optee_os/lib/libutils/ext/trace.c:134
    8bcc:	b4000093 	cbz	x19, 8bdc <trace_printf+0x1ec>
/home/ursus/devel/optee/optee_os/lib/libutils/ext/trace.c:134 (discriminator 1)
    8bd0:	38736a80 	ldrb	w0, [x20,x19]
    8bd4:	7100281f 	cmp	w0, #0xa
    8bd8:	540001e0 	b.eq	8c14 <trace_printf+0x224>
/home/ursus/devel/optee/optee_os/lib/libutils/ext/trace.c:137
    8bdc:	91024ba0 	add	x0, x29, #0x92
    8be0:	3833681f 	strb	wzr, [x0,x19]
/home/ursus/devel/optee/optee_os/lib/libutils/ext/trace.c:139
    8be4:	aa1403e0 	mov	x0, x20
    8be8:	97fff769 	bl	698c <trace_ext_puts>
/home/ursus/devel/optee/optee_os/lib/libutils/ext/trace.c:140
    8bec:	a94153f3 	ldp	x19, x20, [sp,#16]
    8bf0:	a9425bf5 	ldp	x21, x22, [sp,#32]
    8bf4:	a94363f7 	ldp	x23, x24, [sp,#48]
    8bf8:	a9446bf9 	ldp	x25, x26, [sp,#64]
    8bfc:	a9407bfd 	ldp	x29, x30, [sp]
    8c00:	9108c3ff 	add	sp, sp, #0x230
    8c04:	d65f03c0 	ret
trace_level_to_string():
/home/ursus/devel/optee/optee_os/lib/libutils/ext/trace.c:62
    8c08:	d0000023 	adrp	x3, e000 <__func__.3633+0x30>
    8c0c:	9126e463 	add	x3, x3, #0x9b9
    8c10:	17ffff9a 	b	8a78 <trace_printf+0x88>
trace_printf():
/home/ursus/devel/optee/optee_os/lib/libutils/ext/trace.c:135
    8c14:	d1000673 	sub	x19, x19, #0x1
    8c18:	17ffffed 	b	8bcc <trace_printf+0x1dc>

0000000000008c1c <dhex_dump>:
dhex_dump():
/home/ursus/devel/optee/optee_os/lib/libutils/ext/trace.c:251
    8c1c:	d65f03c0 	ret

0000000000008c20 <memchr>:
memchr():
/home/ursus/devel/optee/optee_os/lib/libutils/isoc/newlib/memchr.c:108
    8c20:	12001c21 	and	w1, w1, #0xff
    8c24:	8b020002 	add	x2, x0, x2
/home/ursus/devel/optee/optee_os/lib/libutils/isoc/newlib/memchr.c:152
    8c28:	eb02001f 	cmp	x0, x2
    8c2c:	54000061 	b.ne	8c38 <memchr+0x18>
/home/ursus/devel/optee/optee_os/lib/libutils/isoc/newlib/memchr.c:158
    8c30:	d2800000 	mov	x0, #0x0                   	// #0
/home/ursus/devel/optee/optee_os/lib/libutils/isoc/newlib/memchr.c:159
    8c34:	d65f03c0 	ret
/home/ursus/devel/optee/optee_os/lib/libutils/isoc/newlib/memchr.c:153
    8c38:	39400003 	ldrb	w3, [x0]
    8c3c:	6b01007f 	cmp	w3, w1
    8c40:	54ffffa0 	b.eq	8c34 <memchr+0x14>
/home/ursus/devel/optee/optee_os/lib/libutils/isoc/newlib/memchr.c:155
    8c44:	91000400 	add	x0, x0, #0x1
    8c48:	17fffff8 	b	8c28 <memchr+0x8>

0000000000008c4c <__mpa_set_unused_digits_to_zero>:
__mpa_set_unused_digits_to_zero():
/home/ursus/devel/optee/optee_os/lib/libmpa/mpa_misc.c:59
    8c4c:	b9400401 	ldr	w1, [x0,#4]
/home/ursus/devel/optee/optee_os/lib/libmpa/mpa_misc.c:60
    8c50:	b8408402 	ldr	w2, [x0],#8
/home/ursus/devel/optee/optee_os/lib/libmpa/mpa_misc.c:59
    8c54:	7100003f 	cmp	w1, #0x0
    8c58:	5a81a423 	cneg	w3, w1, lt
/home/ursus/devel/optee/optee_os/lib/libmpa/mpa_misc.c:60
    8c5c:	52800001 	mov	w1, #0x0                   	// #0
    8c60:	4b030042 	sub	w2, w2, w3
    8c64:	8b23c800 	add	x0, x0, w3, sxtw #2
    8c68:	d37e7442 	ubfiz	x2, x2, #2, #30
    8c6c:	17fffc0c 	b	7c9c <memset>

0000000000008c70 <mpa_wipe>:
mpa_wipe():
/home/ursus/devel/optee/optee_os/lib/libmpa/mpa_misc.c:77
    8c70:	a9be7bfd 	stp	x29, x30, [sp,#-32]!
/home/ursus/devel/optee/optee_os/lib/libmpa/mpa_misc.c:78
    8c74:	52800001 	mov	w1, #0x0                   	// #0
/home/ursus/devel/optee/optee_os/lib/libmpa/mpa_misc.c:77
    8c78:	910003fd 	mov	x29, sp
    8c7c:	f9000bf3 	str	x19, [sp,#16]
    8c80:	aa0003f3 	mov	x19, x0
/home/ursus/devel/optee/optee_os/lib/libmpa/mpa_misc.c:78
    8c84:	b8408402 	ldr	w2, [x0],#8
    8c88:	d37e7442 	ubfiz	x2, x2, #2, #30
    8c8c:	97fffc04 	bl	7c9c <memset>
/home/ursus/devel/optee/optee_os/lib/libmpa/mpa_misc.c:79
    8c90:	b900067f 	str	wzr, [x19,#4]
/home/ursus/devel/optee/optee_os/lib/libmpa/mpa_misc.c:80
    8c94:	f9400bf3 	ldr	x19, [sp,#16]
    8c98:	a8c27bfd 	ldp	x29, x30, [sp],#32
    8c9c:	d65f03c0 	ret

0000000000008ca0 <mpa_copy>:
mpa_copy():
/home/ursus/devel/optee/optee_os/lib/libmpa/mpa_misc.c:93
    8ca0:	eb01001f 	cmp	x0, x1
    8ca4:	54000260 	b.eq	8cf0 <mpa_copy+0x50>
/home/ursus/devel/optee/optee_os/lib/libmpa/mpa_misc.c:92
    8ca8:	a9be7bfd 	stp	x29, x30, [sp,#-32]!
    8cac:	910003fd 	mov	x29, sp
    8cb0:	a90153f3 	stp	x19, x20, [sp,#16]
    8cb4:	aa0103f3 	mov	x19, x1
    8cb8:	aa0003f4 	mov	x20, x0
/home/ursus/devel/optee/optee_os/lib/libmpa/mpa_misc.c:96
    8cbc:	91002021 	add	x1, x1, #0x8
    8cc0:	91002000 	add	x0, x0, #0x8
    8cc4:	b9400662 	ldr	w2, [x19,#4]
    8cc8:	7100005f 	cmp	w2, #0x0
    8ccc:	5a82a442 	cneg	w2, w2, lt
    8cd0:	531e7442 	lsl	w2, w2, #2
    8cd4:	93407c42 	sxtw	x2, w2
    8cd8:	97fffbd6 	bl	7c30 <memcpy>
/home/ursus/devel/optee/optee_os/lib/libmpa/mpa_misc.c:97
    8cdc:	b9400660 	ldr	w0, [x19,#4]
    8ce0:	b9000680 	str	w0, [x20,#4]
/home/ursus/devel/optee/optee_os/lib/libmpa/mpa_misc.c:98
    8ce4:	a94153f3 	ldp	x19, x20, [sp,#16]
    8ce8:	a8c27bfd 	ldp	x29, x30, [sp],#32
    8cec:	d65f03c0 	ret
    8cf0:	d65f03c0 	ret

0000000000008cf4 <mpa_abs>:
mpa_abs():
/home/ursus/devel/optee/optee_os/lib/libmpa/mpa_misc.c:106
    8cf4:	a9be7bfd 	stp	x29, x30, [sp,#-32]!
    8cf8:	910003fd 	mov	x29, sp
    8cfc:	f9000bf3 	str	x19, [sp,#16]
    8d00:	aa0003f3 	mov	x19, x0
/home/ursus/devel/optee/optee_os/lib/libmpa/mpa_misc.c:107
    8d04:	97ffffe7 	bl	8ca0 <mpa_copy>
/home/ursus/devel/optee/optee_os/lib/libmpa/mpa_misc.c:108
    8d08:	b9400660 	ldr	w0, [x19,#4]
    8d0c:	36f80060 	tbz	w0, #31, 8d18 <mpa_abs+0x24>
/home/ursus/devel/optee/optee_os/lib/libmpa/mpa_misc.c:108 (discriminator 1)
    8d10:	4b0003e0 	neg	w0, w0
    8d14:	b9000660 	str	w0, [x19,#4]
/home/ursus/devel/optee/optee_os/lib/libmpa/mpa_misc.c:109
    8d18:	f9400bf3 	ldr	x19, [sp,#16]
    8d1c:	a8c27bfd 	ldp	x29, x30, [sp],#32
    8d20:	d65f03c0 	ret

0000000000008d24 <mpa_highest_bit_index>:
mpa_highest_bit_index():
/home/ursus/devel/optee/optee_os/lib/libmpa/mpa_misc.c:123
    8d24:	b9400401 	ldr	w1, [x0,#4]
    8d28:	7100003f 	cmp	w1, #0x0
    8d2c:	540001a0 	b.eq	8d60 <mpa_highest_bit_index+0x3c>
/home/ursus/devel/optee/optee_os/lib/libmpa/mpa_misc.c:126
    8d30:	5a81a421 	cneg	w1, w1, lt
    8d34:	51000421 	sub	w1, w1, #0x1
    8d38:	8b21c800 	add	x0, x0, w1, sxtw #2
    8d3c:	b9400802 	ldr	w2, [x0,#8]
/home/ursus/devel/optee/optee_os/lib/libmpa/mpa_misc.c:128
    8d40:	52800000 	mov	w0, #0x0                   	// #0
/home/ursus/devel/optee/optee_os/lib/libmpa/mpa_misc.c:129
    8d44:	53017c42 	lsr	w2, w2, #1
/home/ursus/devel/optee/optee_os/lib/libmpa/mpa_misc.c:130
    8d48:	34000082 	cbz	w2, 8d58 <mpa_highest_bit_index+0x34>
/home/ursus/devel/optee/optee_os/lib/libmpa/mpa_misc.c:128 (discriminator 2)
    8d4c:	11000400 	add	w0, w0, #0x1
    8d50:	7100801f 	cmp	w0, #0x20
    8d54:	54ffff81 	b.ne	8d44 <mpa_highest_bit_index+0x20>
/home/ursus/devel/optee/optee_os/lib/libmpa/mpa_misc.c:133
    8d58:	0b011400 	add	w0, w0, w1, lsl #5
    8d5c:	d65f03c0 	ret
/home/ursus/devel/optee/optee_os/lib/libmpa/mpa_misc.c:124
    8d60:	12800000 	mov	w0, #0xffffffff            	// #-1
/home/ursus/devel/optee/optee_os/lib/libmpa/mpa_misc.c:134
    8d64:	d65f03c0 	ret

0000000000008d68 <mpa_get_bit>:
mpa_get_bit():
/home/ursus/devel/optee/optee_os/lib/libmpa/mpa_misc.c:153
    8d68:	b9400402 	ldr	w2, [x0,#4]
/home/ursus/devel/optee/optee_os/lib/libmpa/mpa_misc.c:150
    8d6c:	53057c23 	lsr	w3, w1, #5
/home/ursus/devel/optee/optee_os/lib/libmpa/mpa_misc.c:153
    8d70:	7100005f 	cmp	w2, #0x0
    8d74:	5a82a442 	cneg	w2, w2, lt
    8d78:	6b02007f 	cmp	w3, w2
    8d7c:	54000148 	b.hi	8da4 <mpa_get_bit+0x3c>
/home/ursus/devel/optee/optee_os/lib/libmpa/mpa_misc.c:156
    8d80:	d37e6863 	ubfiz	x3, x3, #2, #27
/home/ursus/devel/optee/optee_os/lib/libmpa/mpa_misc.c:155
    8d84:	12001021 	and	w1, w1, #0x1f
/home/ursus/devel/optee/optee_os/lib/libmpa/mpa_misc.c:156
    8d88:	8b030000 	add	x0, x0, x3
/home/ursus/devel/optee/optee_os/lib/libmpa/mpa_misc.c:155
    8d8c:	d2800022 	mov	x2, #0x1                   	// #1
    8d90:	9ac12041 	lsl	x1, x2, x1
/home/ursus/devel/optee/optee_os/lib/libmpa/mpa_misc.c:156
    8d94:	b9400800 	ldr	w0, [x0,#8]
    8d98:	ea00003f 	tst	x1, x0
    8d9c:	1a9f07e0 	cset	w0, ne
    8da0:	d65f03c0 	ret
    8da4:	52800000 	mov	w0, #0x0                   	// #0
/home/ursus/devel/optee/optee_os/lib/libmpa/mpa_misc.c:157
    8da8:	d65f03c0 	ret

0000000000008dac <mpa_can_hold>:
mpa_can_hold():
/home/ursus/devel/optee/optee_os/lib/libmpa/mpa_misc.c:167
    8dac:	b9400421 	ldr	w1, [x1,#4]
    8db0:	b9400000 	ldr	w0, [x0]
    8db4:	7100003f 	cmp	w1, #0x0
    8db8:	5a81a421 	cneg	w1, w1, lt
    8dbc:	6b01001f 	cmp	w0, w1
/home/ursus/devel/optee/optee_os/lib/libmpa/mpa_misc.c:168
    8dc0:	1a9f37e0 	cset	w0, cs
    8dc4:	d65f03c0 	ret

0000000000008dc8 <mpa_parity>:
mpa_parity():
/home/ursus/devel/optee/optee_os/lib/libmpa/mpa_misc.c:178
    8dc8:	b9400800 	ldr	w0, [x0,#8]
/home/ursus/devel/optee/optee_os/lib/libmpa/mpa_misc.c:179
    8dcc:	12000000 	and	w0, w0, #0x1
    8dd0:	d65f03c0 	ret

0000000000008dd4 <mpa_constant_one>:
mpa_constant_one():
/home/ursus/devel/optee/optee_os/lib/libmpa/mpa_misc.c:189
    8dd4:	b0000020 	adrp	x0, d000 <__func__.4585>
    8dd8:	91096000 	add	x0, x0, #0x258
    8ddc:	d65f03c0 	ret

0000000000008de0 <__mpa_montgomery_mul_add>:
__mpa_montgomery_mul_add():
/home/ursus/devel/optee/optee_os/lib/libmpa/mpa_montgomery.c:56
    8de0:	34000222 	cbz	w2, 8e24 <__mpa_montgomery_mul_add+0x44>
/home/ursus/devel/optee/optee_os/lib/libmpa/mpa_montgomery.c:58
    8de4:	91002007 	add	x7, x0, #0x8
    8de8:	d2800025 	mov	x5, #0x1                   	// #1
/home/ursus/devel/optee/optee_os/lib/libmpa/mpa_montgomery.c:59
    8dec:	aa0703e3 	mov	x3, x7
/home/ursus/devel/optee/optee_os/lib/libmpa/mpa_montgomery.c:60
    8df0:	52800004 	mov	w4, #0x0                   	// #0
/home/ursus/devel/optee/optee_os/lib/libmpa/mpa_montgomery.c:61
    8df4:	b9400428 	ldr	w8, [x1,#4]
    8df8:	510004a6 	sub	w6, w5, #0x1
    8dfc:	910004a5 	add	x5, x5, #0x1
    8e00:	6b0800df 	cmp	w6, w8
    8e04:	5400012b 	b.lt	8e28 <__mpa_montgomery_mul_add+0x48>
/home/ursus/devel/optee/optee_os/lib/libmpa/mpa_montgomery.c:68
    8e08:	350001e4 	cbnz	w4, 8e44 <__mpa_montgomery_mul_add+0x64>
/home/ursus/devel/optee/optee_os/lib/libmpa/mpa_montgomery.c:73
    8e0c:	cb070063 	sub	x3, x3, x7
/home/ursus/devel/optee/optee_os/lib/libmpa/mpa_montgomery.c:74
    8e10:	b9400401 	ldr	w1, [x0,#4]
/home/ursus/devel/optee/optee_os/lib/libmpa/mpa_montgomery.c:73
    8e14:	9342fc63 	asr	x3, x3, #2
/home/ursus/devel/optee/optee_os/lib/libmpa/mpa_montgomery.c:74
    8e18:	6b01007f 	cmp	w3, w1
    8e1c:	5400004d 	b.le	8e24 <__mpa_montgomery_mul_add+0x44>
/home/ursus/devel/optee/optee_os/lib/libmpa/mpa_montgomery.c:75
    8e20:	b9000403 	str	w3, [x0,#4]
    8e24:	d65f03c0 	ret
/home/ursus/devel/optee/optee_os/lib/libmpa/mpa_montgomery.c:62
    8e28:	b9400066 	ldr	w6, [x3]
    8e2c:	8b2440c4 	add	x4, x6, w4, uxtw
    8e30:	b8657826 	ldr	w6, [x1,x5,lsl #2]
    8e34:	9ba210c4 	umaddl	x4, w6, w2, x4
/home/ursus/devel/optee/optee_os/lib/libmpa/mpa_montgomery.c:65
    8e38:	b8004464 	str	w4, [x3],#4
/home/ursus/devel/optee/optee_os/lib/libmpa/mpa_montgomery.c:66
    8e3c:	d360fc84 	lsr	x4, x4, #32
    8e40:	17ffffed 	b	8df4 <__mpa_montgomery_mul_add+0x14>
/home/ursus/devel/optee/optee_os/lib/libmpa/mpa_montgomery.c:69
    8e44:	b9400061 	ldr	w1, [x3]
    8e48:	8b244024 	add	x4, x1, w4, uxtw
/home/ursus/devel/optee/optee_os/lib/libmpa/mpa_montgomery.c:70
    8e4c:	b8004464 	str	w4, [x3],#4
/home/ursus/devel/optee/optee_os/lib/libmpa/mpa_montgomery.c:71
    8e50:	d360fc84 	lsr	x4, x4, #32
    8e54:	17ffffed 	b	8e08 <__mpa_montgomery_mul_add+0x28>

0000000000008e58 <__mpa_montgomery_sub_ack>:
__mpa_montgomery_sub_ack():
/home/ursus/devel/optee/optee_os/lib/libmpa/mpa_montgomery.c:97
    8e58:	91002002 	add	x2, x0, #0x8
/home/ursus/devel/optee/optee_os/lib/libmpa/mpa_montgomery.c:100
    8e5c:	d2800026 	mov	x6, #0x1                   	// #1
/home/ursus/devel/optee/optee_os/lib/libmpa/mpa_montgomery.c:98
    8e60:	52800004 	mov	w4, #0x0                   	// #0
/home/ursus/devel/optee/optee_os/lib/libmpa/mpa_montgomery.c:100
    8e64:	b9400423 	ldr	w3, [x1,#4]
    8e68:	510004c5 	sub	w5, w6, #0x1
    8e6c:	910004c6 	add	x6, x6, #0x1
    8e70:	6b05007f 	cmp	w3, w5
    8e74:	540000cc 	b.gt	8e8c <__mpa_montgomery_sub_ack+0x34>
/home/ursus/devel/optee/optee_os/lib/libmpa/mpa_montgomery.c:109
    8e78:	350001a4 	cbnz	w4, 8eac <__mpa_montgomery_sub_ack+0x54>
/home/ursus/devel/optee/optee_os/lib/libmpa/mpa_montgomery.c:115
    8e7c:	b9400401 	ldr	w1, [x0,#4]
    8e80:	6b0100bf 	cmp	w5, w1
    8e84:	5400026a 	b.ge	8ed0 <__mpa_montgomery_sub_ack+0x78>
    8e88:	d65f03c0 	ret
/home/ursus/devel/optee/optee_os/lib/libmpa/mpa_montgomery.c:101
    8e8c:	b8667825 	ldr	w5, [x1,x6,lsl #2]
    8e90:	b9400043 	ldr	w3, [x2]
    8e94:	cb050063 	sub	x3, x3, x5
    8e98:	cb244063 	sub	x3, x3, w4, uxtw
/home/ursus/devel/optee/optee_os/lib/libmpa/mpa_montgomery.c:103
    8e9c:	b8004443 	str	w3, [x2],#4
/home/ursus/devel/optee/optee_os/lib/libmpa/mpa_montgomery.c:104
    8ea0:	d360fc63 	lsr	x3, x3, #32
    8ea4:	4b0303e4 	neg	w4, w3
    8ea8:	17ffffef 	b	8e64 <__mpa_montgomery_sub_ack+0xc>
/home/ursus/devel/optee/optee_os/lib/libmpa/mpa_montgomery.c:110
    8eac:	b9400041 	ldr	w1, [x2]
/home/ursus/devel/optee/optee_os/lib/libmpa/mpa_montgomery.c:113
    8eb0:	110004a5 	add	w5, w5, #0x1
/home/ursus/devel/optee/optee_os/lib/libmpa/mpa_montgomery.c:110
    8eb4:	cb244023 	sub	x3, x1, w4, uxtw
/home/ursus/devel/optee/optee_os/lib/libmpa/mpa_montgomery.c:111
    8eb8:	b8004443 	str	w3, [x2],#4
/home/ursus/devel/optee/optee_os/lib/libmpa/mpa_montgomery.c:112
    8ebc:	d360fc63 	lsr	x3, x3, #32
    8ec0:	4b0303e4 	neg	w4, w3
    8ec4:	17ffffed 	b	8e78 <__mpa_montgomery_sub_ack+0x20>
/home/ursus/devel/optee/optee_os/lib/libmpa/mpa_montgomery.c:118
    8ec8:	51000421 	sub	w1, w1, #0x1
    8ecc:	b9000401 	str	w1, [x0,#4]
/home/ursus/devel/optee/optee_os/lib/libmpa/mpa_montgomery.c:117
    8ed0:	b9400401 	ldr	w1, [x0,#4]
    8ed4:	7100003f 	cmp	w1, #0x0
    8ed8:	5400006d 	b.le	8ee4 <__mpa_montgomery_sub_ack+0x8c>
/home/ursus/devel/optee/optee_os/lib/libmpa/mpa_montgomery.c:117 (discriminator 1)
    8edc:	b85fcc43 	ldr	w3, [x2,#-4]!
    8ee0:	34ffff43 	cbz	w3, 8ec8 <__mpa_montgomery_sub_ack+0x70>
    8ee4:	d65f03c0 	ret

0000000000008ee8 <__mpa_montgomery_mul>:
__mpa_montgomery_mul():
/home/ursus/devel/optee/optee_os/lib/libmpa/mpa_montgomery.c:137
    8ee8:	a9bb7bfd 	stp	x29, x30, [sp,#-80]!
    8eec:	910003fd 	mov	x29, sp
    8ef0:	a90363f7 	stp	x23, x24, [sp,#48]
    8ef4:	aa0103f7 	mov	x23, x1
    8ef8:	a9046bf9 	stp	x25, x26, [sp,#64]
    8efc:	910022f9 	add	x25, x23, #0x8
/home/ursus/devel/optee/optee_os/lib/libmpa/mpa_montgomery.c:144
    8f00:	52800018 	mov	w24, #0x0                   	// #0
/home/ursus/devel/optee/optee_os/lib/libmpa/mpa_montgomery.c:137
    8f04:	a90153f3 	stp	x19, x20, [sp,#16]
    8f08:	a9025bf5 	stp	x21, x22, [sp,#32]
    8f0c:	aa0003f3 	mov	x19, x0
    8f10:	aa0203f6 	mov	x22, x2
    8f14:	aa0303f4 	mov	x20, x3
    8f18:	2a0403f5 	mov	w21, w4
/home/ursus/devel/optee/optee_os/lib/libmpa/mpa_montgomery.c:142
    8f1c:	97ffff55 	bl	8c70 <mpa_wipe>
/home/ursus/devel/optee/optee_os/lib/libmpa/mpa_montgomery.c:144 (discriminator 1)
    8f20:	b9400680 	ldr	w0, [x20,#4]
    8f24:	6b00031f 	cmp	w24, w0
    8f28:	540001ab 	b.lt	8f5c <__mpa_montgomery_mul+0x74>
/home/ursus/devel/optee/optee_os/lib/libmpa/mpa_montgomery.c:161
    8f2c:	aa1403e1 	mov	x1, x20
    8f30:	aa1303e0 	mov	x0, x19
    8f34:	94000ad8 	bl	ba94 <__mpa_abs_cmp>
    8f38:	37f805e0 	tbnz	w0, #31, 8ff4 <__mpa_montgomery_mul+0x10c>
/home/ursus/devel/optee/optee_os/lib/libmpa/mpa_montgomery.c:162
    8f3c:	aa1403e1 	mov	x1, x20
    8f40:	aa1303e0 	mov	x0, x19
/home/ursus/devel/optee/optee_os/lib/libmpa/mpa_montgomery.c:163
    8f44:	a9425bf5 	ldp	x21, x22, [sp,#32]
    8f48:	a94153f3 	ldp	x19, x20, [sp,#16]
    8f4c:	a94363f7 	ldp	x23, x24, [sp,#48]
    8f50:	a9446bf9 	ldp	x25, x26, [sp,#64]
    8f54:	a8c57bfd 	ldp	x29, x30, [sp],#80
/home/ursus/devel/optee/optee_os/lib/libmpa/mpa_montgomery.c:162
    8f58:	17ffffc0 	b	8e58 <__mpa_montgomery_sub_ack>
/home/ursus/devel/optee/optee_os/lib/libmpa/mpa_montgomery.c:146
    8f5c:	b94006e1 	ldr	w1, [x23,#4]
    8f60:	52800002 	mov	w2, #0x0                   	// #0
/home/ursus/devel/optee/optee_os/lib/libmpa/mpa_montgomery.c:145
    8f64:	b9400a69 	ldr	w9, [x19,#8]
/home/ursus/devel/optee/optee_os/lib/libmpa/mpa_montgomery.c:146
    8f68:	7100003f 	cmp	w1, #0x0
    8f6c:	5a81a421 	cneg	w1, w1, lt
    8f70:	6b01031f 	cmp	w24, w1
    8f74:	5400004a 	b.ge	8f7c <__mpa_montgomery_mul+0x94>
/home/ursus/devel/optee/optee_os/lib/libmpa/mpa_montgomery.c:146 (discriminator 1)
    8f78:	b9400322 	ldr	w2, [x25]
/home/ursus/devel/optee/optee_os/lib/libmpa/mpa_montgomery.c:147
    8f7c:	b94006c1 	ldr	w1, [x22,#4]
    8f80:	52800000 	mov	w0, #0x0                   	// #0
    8f84:	34000041 	cbz	w1, 8f8c <__mpa_montgomery_mul+0xa4>
/home/ursus/devel/optee/optee_os/lib/libmpa/mpa_montgomery.c:147 (discriminator 1)
    8f88:	b9400ac0 	ldr	w0, [x22,#8]
/home/ursus/devel/optee/optee_os/lib/libmpa/mpa_montgomery.c:145
    8f8c:	1b002440 	madd	w0, w2, w0, w9
/home/ursus/devel/optee/optee_os/lib/libmpa/mpa_montgomery.c:149
    8f90:	aa1603e1 	mov	x1, x22
/home/ursus/devel/optee/optee_os/lib/libmpa/mpa_montgomery.c:145
    8f94:	1b157c1a 	mul	w26, w0, w21
/home/ursus/devel/optee/optee_os/lib/libmpa/mpa_montgomery.c:149
    8f98:	aa1303e0 	mov	x0, x19
    8f9c:	97ffff91 	bl	8de0 <__mpa_montgomery_mul_add>
/home/ursus/devel/optee/optee_os/lib/libmpa/mpa_montgomery.c:151
    8fa0:	2a1a03e2 	mov	w2, w26
    8fa4:	aa1403e1 	mov	x1, x20
    8fa8:	aa1303e0 	mov	x0, x19
    8fac:	97ffff8d 	bl	8de0 <__mpa_montgomery_mul_add>
/home/ursus/devel/optee/optee_os/lib/libmpa/mpa_montgomery.c:154
    8fb0:	b9400660 	ldr	w0, [x19,#4]
    8fb4:	91002261 	add	x1, x19, #0x8
/home/ursus/devel/optee/optee_os/lib/libmpa/mpa_montgomery.c:155
    8fb8:	52800002 	mov	w2, #0x0                   	// #0
/home/ursus/devel/optee/optee_os/lib/libmpa/mpa_montgomery.c:154
    8fbc:	51000400 	sub	w0, w0, #0x1
    8fc0:	b9000660 	str	w0, [x19,#4]
    8fc4:	91001021 	add	x1, x1, #0x4
/home/ursus/devel/optee/optee_os/lib/libmpa/mpa_montgomery.c:155 (discriminator 1)
    8fc8:	6b00005f 	cmp	w2, w0
    8fcc:	540000cb 	b.lt	8fe4 <__mpa_montgomery_mul+0xfc>
/home/ursus/devel/optee/optee_os/lib/libmpa/mpa_montgomery.c:157 (discriminator 2)
    8fd0:	8b20ca60 	add	x0, x19, w0, sxtw #2
/home/ursus/devel/optee/optee_os/lib/libmpa/mpa_montgomery.c:144 (discriminator 2)
    8fd4:	11000718 	add	w24, w24, #0x1
    8fd8:	91001339 	add	x25, x25, #0x4
/home/ursus/devel/optee/optee_os/lib/libmpa/mpa_montgomery.c:157 (discriminator 2)
    8fdc:	b900081f 	str	wzr, [x0,#8]
    8fe0:	17ffffd0 	b	8f20 <__mpa_montgomery_mul+0x38>
/home/ursus/devel/optee/optee_os/lib/libmpa/mpa_montgomery.c:156 (discriminator 3)
    8fe4:	b9400023 	ldr	w3, [x1]
    8fe8:	11000442 	add	w2, w2, #0x1
    8fec:	b81fc023 	stur	w3, [x1,#-4]
    8ff0:	17fffff5 	b	8fc4 <__mpa_montgomery_mul+0xdc>
/home/ursus/devel/optee/optee_os/lib/libmpa/mpa_montgomery.c:163
    8ff4:	a94153f3 	ldp	x19, x20, [sp,#16]
    8ff8:	a9425bf5 	ldp	x21, x22, [sp,#32]
    8ffc:	a94363f7 	ldp	x23, x24, [sp,#48]
    9000:	a9446bf9 	ldp	x25, x26, [sp,#64]
    9004:	a8c57bfd 	ldp	x29, x30, [sp],#80
    9008:	d65f03c0 	ret

000000000000900c <mpa_compute_fmm_context>:
mpa_compute_fmm_context():
/home/ursus/devel/optee/optee_os/lib/libmpa/mpa_montgomery.c:179
    900c:	a9ba7bfd 	stp	x29, x30, [sp,#-96]!
    9010:	910003fd 	mov	x29, sp
    9014:	a90363f7 	stp	x23, x24, [sp,#48]
    9018:	aa0203f8 	mov	x24, x2
/home/ursus/devel/optee/optee_os/lib/libmpa/mpa_montgomery.c:193
    901c:	b9400402 	ldr	w2, [x0,#4]
/home/ursus/devel/optee/optee_os/lib/libmpa/mpa_montgomery.c:179
    9020:	aa0303f7 	mov	x23, x3
    9024:	a90153f3 	stp	x19, x20, [sp,#16]
    9028:	aa0103f4 	mov	x20, x1
/home/ursus/devel/optee/optee_os/lib/libmpa/mpa_montgomery.c:193
    902c:	7100005f 	cmp	w2, #0x0
/home/ursus/devel/optee/optee_os/lib/libmpa/mpa_montgomery.c:179
    9030:	aa0403f3 	mov	x19, x4
    9034:	a9025bf5 	stp	x21, x22, [sp,#32]
/home/ursus/devel/optee/optee_os/lib/libmpa/mpa_montgomery.c:194
    9038:	52800021 	mov	w1, #0x1                   	// #1
/home/ursus/devel/optee/optee_os/lib/libmpa/mpa_montgomery.c:193
    903c:	5a82a455 	cneg	w21, w2, lt
/home/ursus/devel/optee/optee_os/lib/libmpa/mpa_montgomery.c:179
    9040:	aa0003f6 	mov	x22, x0
/home/ursus/devel/optee/optee_os/lib/libmpa/mpa_montgomery.c:194
    9044:	aa1403e0 	mov	x0, x20
    9048:	94000175 	bl	961c <mpa_set_word>
/home/ursus/devel/optee/optee_os/lib/libmpa/mpa_montgomery.c:195
    904c:	531b6aa2 	lsl	w2, w21, #5
    9050:	aa1403e1 	mov	x1, x20
    9054:	aa1403e0 	mov	x0, x20
    9058:	9400079d 	bl	aecc <mpa_shift_left>
/home/ursus/devel/optee/optee_os/lib/libmpa/mpa_montgomery.c:196
    905c:	aa1603e2 	mov	x2, x22
    9060:	aa1403e1 	mov	x1, x20
    9064:	aa1403e0 	mov	x0, x20
    9068:	aa1303e3 	mov	x3, x19
    906c:	94000d4c 	bl	c59c <mpa_mod>
/home/ursus/devel/optee/optee_os/lib/libmpa/mpa_montgomery.c:202
    9070:	52800035 	mov	w21, #0x1                   	// #1
/home/ursus/devel/optee/optee_os/lib/libmpa/mpa_montgomery.c:199
    9074:	aa1603e3 	mov	x3, x22
    9078:	aa1403e2 	mov	x2, x20
    907c:	aa1303e4 	mov	x4, x19
    9080:	aa1403e1 	mov	x1, x20
    9084:	aa1803e0 	mov	x0, x24
    9088:	94000d8d 	bl	c6bc <mpa_mul_mod>
/home/ursus/devel/optee/optee_os/lib/libmpa/mpa_montgomery.c:204
    908c:	b9400ac0 	ldr	w0, [x22,#8]
/home/ursus/devel/optee/optee_os/lib/libmpa/mpa_montgomery.c:206
    9090:	910103b6 	add	x22, x29, #0x40
    9094:	aa1303e1 	mov	x1, x19
/home/ursus/devel/optee/optee_os/lib/libmpa/mpa_montgomery.c:203
    9098:	290a57b5 	stp	w21, w21, [x29,#80]
/home/ursus/devel/optee/optee_os/lib/libmpa/mpa_montgomery.c:204
    909c:	b9005ba0 	str	w0, [x29,#88]
/home/ursus/devel/optee/optee_os/lib/libmpa/mpa_montgomery.c:207
    90a0:	910123b8 	add	x24, x29, #0x48
/home/ursus/devel/optee/optee_os/lib/libmpa/mpa_montgomery.c:206
    90a4:	aa1603e0 	mov	x0, x22
    90a8:	94000610 	bl	a8e8 <mpa_alloc_static_temp_var>
/home/ursus/devel/optee/optee_os/lib/libmpa/mpa_montgomery.c:207
    90ac:	aa1303e1 	mov	x1, x19
    90b0:	aa1803e0 	mov	x0, x24
    90b4:	9400060d 	bl	a8e8 <mpa_alloc_static_temp_var>
/home/ursus/devel/optee/optee_os/lib/libmpa/mpa_montgomery.c:209
    90b8:	b0000034 	adrp	x20, e000 <__func__.3633+0x30>
    90bc:	a94403a1 	ldp	x1, x0, [x29,#64]
    90c0:	aa1303e5 	mov	x5, x19
    90c4:	f9467294 	ldr	x20, [x20,#3296]
    90c8:	910143a3 	add	x3, x29, #0x50
    90cc:	d2800002 	mov	x2, #0x0                   	// #0
    90d0:	aa1403e4 	mov	x4, x20
    90d4:	94000544 	bl	a5e4 <mpa_extended_gcd>
/home/ursus/devel/optee/optee_os/lib/libmpa/mpa_montgomery.c:211
    90d8:	f94027a0 	ldr	x0, [x29,#72]
    90dc:	2a1503e1 	mov	w1, w21
    90e0:	94000ac0 	bl	bbe0 <mpa_cmp_short>
    90e4:	2a0003f5 	mov	w21, w0
/home/ursus/devel/optee/optee_os/lib/libmpa/mpa_montgomery.c:213
    90e8:	35000160 	cbnz	w0, 9114 <mpa_compute_fmm_context+0x108>
/home/ursus/devel/optee/optee_os/lib/libmpa/mpa_montgomery.c:229
    90ec:	f94023a1 	ldr	x1, [x29,#64]
    90f0:	b9400420 	ldr	w0, [x1,#4]
    90f4:	37f800a0 	tbnz	w0, #31, 9108 <mpa_compute_fmm_context+0xfc>
/home/ursus/devel/optee/optee_os/lib/libmpa/mpa_montgomery.c:230
    90f8:	aa1303e3 	mov	x3, x19
    90fc:	aa1403e2 	mov	x2, x20
    9100:	aa0103e0 	mov	x0, x1
    9104:	94000955 	bl	b658 <mpa_sub>
/home/ursus/devel/optee/optee_os/lib/libmpa/mpa_montgomery.c:234
    9108:	f94023a0 	ldr	x0, [x29,#64]
    910c:	b9400800 	ldr	w0, [x0,#8]
    9110:	b90002e0 	str	w0, [x23]
/home/ursus/devel/optee/optee_os/lib/libmpa/mpa_montgomery.c:238
    9114:	aa1303e1 	mov	x1, x19
    9118:	aa1803e0 	mov	x0, x24
    911c:	940005f7 	bl	a8f8 <mpa_free_static_temp_var>
/home/ursus/devel/optee/optee_os/lib/libmpa/mpa_montgomery.c:239
    9120:	aa1303e1 	mov	x1, x19
    9124:	aa1603e0 	mov	x0, x22
    9128:	940005f4 	bl	a8f8 <mpa_free_static_temp_var>
/home/ursus/devel/optee/optee_os/lib/libmpa/mpa_montgomery.c:241
    912c:	710002bf 	cmp	w21, #0x0
/home/ursus/devel/optee/optee_os/lib/libmpa/mpa_montgomery.c:244
    9130:	a94153f3 	ldp	x19, x20, [sp,#16]
    9134:	5a9f03e0 	csetm	w0, ne
    9138:	a9425bf5 	ldp	x21, x22, [sp,#32]
    913c:	a94363f7 	ldp	x23, x24, [sp,#48]
    9140:	a8c67bfd 	ldp	x29, x30, [sp],#96
    9144:	d65f03c0 	ret

0000000000009148 <mpa_montgomery_mul>:
mpa_montgomery_mul():
/home/ursus/devel/optee/optee_os/lib/libmpa/mpa_montgomery.c:257
    9148:	a9ba7bfd 	stp	x29, x30, [sp,#-96]!
    914c:	910003fd 	mov	x29, sp
    9150:	a90153f3 	stp	x19, x20, [sp,#16]
/home/ursus/devel/optee/optee_os/lib/libmpa/mpa_montgomery.c:260
    9154:	910163b3 	add	x19, x29, #0x58
/home/ursus/devel/optee/optee_os/lib/libmpa/mpa_montgomery.c:257
    9158:	aa0503f4 	mov	x20, x5
    915c:	a9025bf5 	stp	x21, x22, [sp,#32]
    9160:	a90363f7 	stp	x23, x24, [sp,#48]
    9164:	aa0003f5 	mov	x21, x0
    9168:	f90023f9 	str	x25, [sp,#64]
    916c:	aa0103f6 	mov	x22, x1
    9170:	aa0203f7 	mov	x23, x2
/home/ursus/devel/optee/optee_os/lib/libmpa/mpa_montgomery.c:260
    9174:	aa0503e1 	mov	x1, x5
/home/ursus/devel/optee/optee_os/lib/libmpa/mpa_montgomery.c:257
    9178:	aa0303f8 	mov	x24, x3
    917c:	2a0403f9 	mov	w25, w4
/home/ursus/devel/optee/optee_os/lib/libmpa/mpa_montgomery.c:260
    9180:	aa1303e0 	mov	x0, x19
    9184:	940005d9 	bl	a8e8 <mpa_alloc_static_temp_var>
/home/ursus/devel/optee/optee_os/lib/libmpa/mpa_montgomery.c:262
    9188:	f9402fa0 	ldr	x0, [x29,#88]
    918c:	2a1903e4 	mov	w4, w25
    9190:	aa1803e3 	mov	x3, x24
    9194:	aa1703e2 	mov	x2, x23
    9198:	aa1603e1 	mov	x1, x22
    919c:	97ffff53 	bl	8ee8 <__mpa_montgomery_mul>
/home/ursus/devel/optee/optee_os/lib/libmpa/mpa_montgomery.c:264
    91a0:	f9402fa1 	ldr	x1, [x29,#88]
    91a4:	aa1503e0 	mov	x0, x21
    91a8:	97fffebe 	bl	8ca0 <mpa_copy>
/home/ursus/devel/optee/optee_os/lib/libmpa/mpa_montgomery.c:265
    91ac:	aa1403e1 	mov	x1, x20
    91b0:	aa1303e0 	mov	x0, x19
    91b4:	940005d1 	bl	a8f8 <mpa_free_static_temp_var>
/home/ursus/devel/optee/optee_os/lib/libmpa/mpa_montgomery.c:266
    91b8:	f94023f9 	ldr	x25, [sp,#64]
    91bc:	a94153f3 	ldp	x19, x20, [sp,#16]
    91c0:	a9425bf5 	ldp	x21, x22, [sp,#32]
    91c4:	a94363f7 	ldp	x23, x24, [sp,#48]
    91c8:	a8c67bfd 	ldp	x29, x30, [sp],#96
    91cc:	d65f03c0 	ret

00000000000091d0 <mpa_is_prob_prime>:
mpa_is_prob_prime():
/home/ursus/devel/optee/optee_os/lib/libmpa/mpa_primetest.c:89
    91d0:	a9b37bfd 	stp	x29, x30, [sp,#-208]!
    91d4:	910003fd 	mov	x29, sp
    91d8:	a9025bf5 	stp	x21, x22, [sp,#32]
    91dc:	2a0103f6 	mov	w22, w1
is_small_prime():
/home/ursus/devel/optee/optee_os/lib/libmpa/mpa_primetest.c:136
    91e0:	b9400401 	ldr	w1, [x0,#4]
mpa_is_prob_prime():
/home/ursus/devel/optee/optee_os/lib/libmpa/mpa_primetest.c:89
    91e4:	a90153f3 	stp	x19, x20, [sp,#16]
    91e8:	aa0003f4 	mov	x20, x0
is_small_prime():
/home/ursus/devel/optee/optee_os/lib/libmpa/mpa_primetest.c:136
    91ec:	7100003f 	cmp	w1, #0x0
mpa_is_prob_prime():
/home/ursus/devel/optee/optee_os/lib/libmpa/mpa_primetest.c:89
    91f0:	a90363f7 	stp	x23, x24, [sp,#48]
    91f4:	a9046bf9 	stp	x25, x26, [sp,#64]
is_small_prime():
/home/ursus/devel/optee/optee_os/lib/libmpa/mpa_primetest.c:136
    91f8:	5a81a421 	cneg	w1, w1, lt
mpa_is_prob_prime():
/home/ursus/devel/optee/optee_os/lib/libmpa/mpa_primetest.c:89
    91fc:	a90573fb 	stp	x27, x28, [sp,#80]
    9200:	aa0203f3 	mov	x19, x2
is_small_prime():
/home/ursus/devel/optee/optee_os/lib/libmpa/mpa_primetest.c:136
    9204:	7100043f 	cmp	w1, #0x1
    9208:	5400018d 	b.le	9238 <mpa_is_prob_prime+0x68>
/home/ursus/devel/optee/optee_os/lib/libmpa/mpa_primetest.c:137
    920c:	97fffeef 	bl	8dc8 <mpa_parity>
    9210:	35000d80 	cbnz	w0, 93c0 <mpa_is_prob_prime+0x1f0>
    9214:	52800019 	mov	w25, #0x0                   	// #0
mpa_is_prob_prime():
/home/ursus/devel/optee/optee_os/lib/libmpa/mpa_primetest.c:107
    9218:	2a1903e0 	mov	w0, w25
    921c:	a94153f3 	ldp	x19, x20, [sp,#16]
    9220:	a9425bf5 	ldp	x21, x22, [sp,#32]
    9224:	a94363f7 	ldp	x23, x24, [sp,#48]
    9228:	a9446bf9 	ldp	x25, x26, [sp,#64]
    922c:	a94573fb 	ldp	x27, x28, [sp,#80]
    9230:	a8cd7bfd 	ldp	x29, x30, [sp],#208
    9234:	d65f03c0 	ret
is_small_prime():
/home/ursus/devel/optee/optee_os/lib/libmpa/mpa_primetest.c:139
    9238:	940000fe 	bl	9630 <mpa_get_word>
    923c:	2a0003f5 	mov	w21, w0
/home/ursus/devel/optee/optee_os/lib/libmpa/mpa_primetest.c:140
    9240:	32000000 	orr	w0, w0, #0x1
    9244:	7100041f 	cmp	w0, #0x1
    9248:	54fffe60 	b.eq	9214 <mpa_is_prob_prime+0x44>
/home/ursus/devel/optee/optee_os/lib/libmpa/mpa_primetest.c:143
    924c:	52800039 	mov	w25, #0x1                   	// #1
/home/ursus/devel/optee/optee_os/lib/libmpa/mpa_primetest.c:142
    9250:	71000abf 	cmp	w21, #0x2
    9254:	54fffe20 	b.eq	9218 <mpa_is_prob_prime+0x48>
/home/ursus/devel/optee/optee_os/lib/libmpa/mpa_primetest.c:144
    9258:	3607fdf5 	tbz	w21, #0, 9214 <mpa_is_prob_prime+0x44>
/home/ursus/devel/optee/optee_os/lib/libmpa/mpa_primetest.c:148
    925c:	529869e1 	mov	w1, #0xc34f                	// #49999
    9260:	aa1403e0 	mov	x0, x20
    9264:	94000a5f 	bl	bbe0 <mpa_cmp_short>
    9268:	7100001f 	cmp	w0, #0x0
    926c:	54000aac 	b.gt	93c0 <mpa_is_prob_prime+0x1f0>
/home/ursus/devel/optee/optee_os/lib/libmpa/mpa_primetest.c:150
    9270:	51000eb5 	sub	w21, w21, #0x3
check_table():
/home/ursus/devel/optee/optee_os/lib/libmpa/mpa_primetest.c:117
    9274:	90000020 	adrp	x0, d000 <__func__.4585>
    9278:	910a2000 	add	x0, x0, #0x288
    927c:	d3467ea1 	ubfx	x1, x21, #6, #26
    9280:	d34116b5 	ubfx	x21, x21, #1, #5
    9284:	b8617802 	ldr	w2, [x0,x1,lsl #2]
    9288:	1ad52440 	lsr	w0, w2, w21
    928c:	0a190019 	and	w25, w0, w25
    9290:	17ffffe2 	b	9218 <mpa_is_prob_prime+0x48>
primality_test_miller_rabin():
/home/ursus/devel/optee/optee_os/lib/libmpa/mpa_primetest.c:228
    9294:	f94057a1 	ldr	x1, [x29,#168]
    9298:	52800022 	mov	w2, #0x1                   	// #1
/home/ursus/devel/optee/optee_os/lib/libmpa/mpa_primetest.c:229
    929c:	11000718 	add	w24, w24, #0x1
/home/ursus/devel/optee/optee_os/lib/libmpa/mpa_primetest.c:228
    92a0:	aa0103e0 	mov	x0, x1
    92a4:	9400076e 	bl	b05c <mpa_shift_right>
    92a8:	1400008e 	b	94e0 <mpa_is_prob_prime+0x310>
/home/ursus/devel/optee/optee_os/lib/libmpa/mpa_primetest.c:234
    92ac:	36f803b7 	tbz	w23, #31, 9320 <mpa_is_prob_prime+0x150>
/home/ursus/devel/optee/optee_os/lib/libmpa/mpa_primetest.c:235
    92b0:	f9403ba0 	ldr	x0, [x29,#112]
/home/ursus/devel/optee/optee_os/lib/libmpa/mpa_primetest.c:237
    92b4:	52800039 	mov	w25, #0x1                   	// #1
/home/ursus/devel/optee/optee_os/lib/libmpa/mpa_primetest.c:235
    92b8:	91312000 	add	x0, x0, #0xc48
    92bc:	b8767801 	ldr	w1, [x0,x22,lsl #2]
    92c0:	f94053a0 	ldr	x0, [x29,#160]
    92c4:	940000ae 	bl	957c <mpa_set_S32>
/home/ursus/devel/optee/optee_os/lib/libmpa/mpa_primetest.c:236
    92c8:	f94053a1 	ldr	x1, [x29,#160]
    92cc:	aa1403e0 	mov	x0, x20
    92d0:	94000a2a 	bl	bb78 <mpa_cmp>
    92d4:	34000220 	cbz	w0, 9318 <mpa_is_prob_prime+0x148>
/home/ursus/devel/optee/optee_os/lib/libmpa/mpa_primetest.c:254
    92d8:	b9409fa6 	ldr	w6, [x29,#156]
    92dc:	aa1303e7 	mov	x7, x19
    92e0:	a94a0ba1 	ldp	x1, x2, [x29,#160]
    92e4:	aa1403e3 	mov	x3, x20
    92e8:	a94b93a0 	ldp	x0, x4, [x29,#184]
/home/ursus/devel/optee/optee_os/lib/libmpa/mpa_primetest.c:255
    92ec:	52800019 	mov	w25, #0x0                   	// #0
/home/ursus/devel/optee/optee_os/lib/libmpa/mpa_primetest.c:254
    92f0:	f94067a5 	ldr	x5, [x29,#200]
    92f4:	94000a5c 	bl	bc64 <mpa_exp_mod>
/home/ursus/devel/optee/optee_os/lib/libmpa/mpa_primetest.c:258
    92f8:	f9405fa0 	ldr	x0, [x29,#184]
    92fc:	52800021 	mov	w1, #0x1                   	// #1
    9300:	94000a38 	bl	bbe0 <mpa_cmp_short>
/home/ursus/devel/optee/optee_os/lib/libmpa/mpa_primetest.c:259
    9304:	7100001f 	cmp	w0, #0x0
/home/ursus/devel/optee/optee_os/lib/libmpa/mpa_primetest.c:258
    9308:	2a0003e2 	mov	w2, w0
/home/ursus/devel/optee/optee_os/lib/libmpa/mpa_primetest.c:259
    930c:	7a400b24 	ccmp	w25, #0x0, #0x4, eq
    9310:	540002ed 	b.le	936c <mpa_is_prob_prime+0x19c>
/home/ursus/devel/optee/optee_os/lib/libmpa/mpa_primetest.c:260
    9314:	52800019 	mov	w25, #0x0                   	// #0
    9318:	910006d6 	add	x22, x22, #0x1
    931c:	1400007b 	b	9508 <mpa_is_prob_prime+0x338>
/home/ursus/devel/optee/optee_os/lib/libmpa/mpa_primetest.c:246
    9320:	f9405ba1 	ldr	x1, [x29,#176]
    9324:	aa1303e3 	mov	x3, x19
    9328:	52800022 	mov	w2, #0x1                   	// #1
    932c:	aa0103e0 	mov	x0, x1
    9330:	9400098b 	bl	b95c <mpa_sub_word>
/home/ursus/devel/optee/optee_os/lib/libmpa/mpa_primetest.c:248
    9334:	f94053a0 	ldr	x0, [x29,#160]
    9338:	f9405ba1 	ldr	x1, [x29,#176]
    933c:	94000660 	bl	acbc <mpa_get_random>
/home/ursus/devel/optee/optee_os/lib/libmpa/mpa_primetest.c:249
    9340:	f9405ba1 	ldr	x1, [x29,#176]
    9344:	aa1303e3 	mov	x3, x19
    9348:	52800022 	mov	w2, #0x1                   	// #1
    934c:	aa0103e0 	mov	x0, x1
    9350:	94000934 	bl	b820 <mpa_add_word>
/home/ursus/devel/optee/optee_os/lib/libmpa/mpa_primetest.c:251
    9354:	f94053a1 	ldr	x1, [x29,#160]
    9358:	aa1303e3 	mov	x3, x19
    935c:	52800042 	mov	w2, #0x2                   	// #2
    9360:	aa0103e0 	mov	x0, x1
    9364:	9400092f 	bl	b820 <mpa_add_word>
    9368:	17ffffdc 	b	92d8 <mpa_is_prob_prime+0x108>
/home/ursus/devel/optee/optee_os/lib/libmpa/mpa_primetest.c:264
    936c:	a94b03a1 	ldp	x1, x0, [x29,#176]
    9370:	b90067a2 	str	w2, [x29,#100]
    9374:	94000a01 	bl	bb78 <mpa_cmp>
    9378:	34000200 	cbz	w0, 93b8 <mpa_is_prob_prime+0x1e8>
/home/ursus/devel/optee/optee_os/lib/libmpa/mpa_primetest.c:265
    937c:	b94067a2 	ldr	w2, [x29,#100]
    9380:	2a190042 	orr	w2, w2, w25
/home/ursus/devel/optee/optee_os/lib/libmpa/mpa_primetest.c:264
    9384:	340001a2 	cbz	w2, 93b8 <mpa_is_prob_prime+0x1e8>
/home/ursus/devel/optee/optee_os/lib/libmpa/mpa_primetest.c:270
    9388:	11000739 	add	w25, w25, #0x1
/home/ursus/devel/optee/optee_os/lib/libmpa/mpa_primetest.c:271
    938c:	6b19031f 	cmp	w24, w25
    9390:	54fffc2d 	b.le	9314 <mpa_is_prob_prime+0x144>
/home/ursus/devel/optee/optee_os/lib/libmpa/mpa_primetest.c:272
    9394:	a94b93a1 	ldp	x1, x4, [x29,#184]
    9398:	aa1303e7 	mov	x7, x19
    939c:	b9409fa6 	ldr	w6, [x29,#156]
    93a0:	aa1403e3 	mov	x3, x20
    93a4:	f94037a2 	ldr	x2, [x29,#104]
    93a8:	aa0103e0 	mov	x0, x1
    93ac:	f94067a5 	ldr	x5, [x29,#200]
    93b0:	94000a2d 	bl	bc64 <mpa_exp_mod>
    93b4:	17ffffd1 	b	92f8 <mpa_is_prob_prime+0x128>
/home/ursus/devel/optee/optee_os/lib/libmpa/mpa_primetest.c:264
    93b8:	12800019 	mov	w25, #0xffffffff            	// #-1
    93bc:	17ffffd7 	b	9318 <mpa_is_prob_prime+0x148>
has_small_factors():
/home/ursus/devel/optee/optee_os/lib/libmpa/mpa_primetest.c:170
    93c0:	910323b5 	add	x21, x29, #0xc8
    93c4:	aa1303e1 	mov	x1, x19
    93c8:	aa1503e0 	mov	x0, x21
    93cc:	94000547 	bl	a8e8 <mpa_alloc_static_temp_var>
/home/ursus/devel/optee/optee_os/lib/libmpa/mpa_primetest.c:171
    93d0:	f94067a0 	ldr	x0, [x29,#200]
    93d4:	90000038 	adrp	x24, d000 <__func__.4585>
    93d8:	910a2317 	add	x23, x24, #0x288
    93dc:	aa1303e3 	mov	x3, x19
    93e0:	9131e2e2 	add	x2, x23, #0xc78
    93e4:	aa1403e1 	mov	x1, x20
    93e8:	94000437 	bl	a4c4 <mpa_gcd>
/home/ursus/devel/optee/optee_os/lib/libmpa/mpa_primetest.c:172
    93ec:	f94067a0 	ldr	x0, [x29,#200]
    93f0:	52800021 	mov	w1, #0x1                   	// #1
    93f4:	940009fb 	bl	bbe0 <mpa_cmp_short>
    93f8:	2a0003f9 	mov	w25, w0
/home/ursus/devel/optee/optee_os/lib/libmpa/mpa_primetest.c:173
    93fc:	aa1303e1 	mov	x1, x19
    9400:	aa1503e0 	mov	x0, x21
    9404:	9400053d 	bl	a8f8 <mpa_free_static_temp_var>
    9408:	f9003bb8 	str	x24, [x29,#112]
mpa_is_prob_prime():
/home/ursus/devel/optee/optee_os/lib/libmpa/mpa_primetest.c:98
    940c:	35fff059 	cbnz	w25, 9214 <mpa_is_prob_prime+0x44>
primality_test_miller_rabin():
/home/ursus/devel/optee/optee_os/lib/libmpa/mpa_primetest.c:202
    9410:	910303a0 	add	x0, x29, #0xc0
    9414:	aa1303e1 	mov	x1, x19
    9418:	f90043a0 	str	x0, [x29,#128]
    941c:	94000533 	bl	a8e8 <mpa_alloc_static_temp_var>
/home/ursus/devel/optee/optee_os/lib/libmpa/mpa_primetest.c:203
    9420:	aa1303e1 	mov	x1, x19
    9424:	aa1503e0 	mov	x0, x21
    9428:	94000530 	bl	a8e8 <mpa_alloc_static_temp_var>
/home/ursus/devel/optee/optee_os/lib/libmpa/mpa_primetest.c:206
    942c:	52800019 	mov	w25, #0x0                   	// #0
/home/ursus/devel/optee/optee_os/lib/libmpa/mpa_primetest.c:205
    9430:	a94c0ba1 	ldp	x1, x2, [x29,#192]
    9434:	aa1303e4 	mov	x4, x19
    9438:	910273a3 	add	x3, x29, #0x9c
    943c:	aa1403e0 	mov	x0, x20
    9440:	97fffef3 	bl	900c <mpa_compute_fmm_context>
    9444:	3100041f 	cmn	w0, #0x1
    9448:	540008c0 	b.eq	9560 <mpa_is_prob_prime+0x390>
/home/ursus/devel/optee/optee_os/lib/libmpa/mpa_primetest.c:210
    944c:	910283bc 	add	x28, x29, #0xa0
    9450:	aa1303e1 	mov	x1, x19
    9454:	aa1c03e0 	mov	x0, x28
/home/ursus/devel/optee/optee_os/lib/libmpa/mpa_primetest.c:211
    9458:	9102a3bb 	add	x27, x29, #0xa8
/home/ursus/devel/optee/optee_os/lib/libmpa/mpa_primetest.c:210
    945c:	94000523 	bl	a8e8 <mpa_alloc_static_temp_var>
/home/ursus/devel/optee/optee_os/lib/libmpa/mpa_primetest.c:212
    9460:	9102c3ba 	add	x26, x29, #0xb0
/home/ursus/devel/optee/optee_os/lib/libmpa/mpa_primetest.c:211
    9464:	aa1303e1 	mov	x1, x19
    9468:	aa1b03e0 	mov	x0, x27
    946c:	9400051f 	bl	a8e8 <mpa_alloc_static_temp_var>
/home/ursus/devel/optee/optee_os/lib/libmpa/mpa_primetest.c:212
    9470:	aa1303e1 	mov	x1, x19
    9474:	aa1a03e0 	mov	x0, x26
    9478:	9400051c 	bl	a8e8 <mpa_alloc_static_temp_var>
/home/ursus/devel/optee/optee_os/lib/libmpa/mpa_primetest.c:213
    947c:	9102e3a0 	add	x0, x29, #0xb8
    9480:	aa1303e1 	mov	x1, x19
    9484:	f9003fa0 	str	x0, [x29,#120]
    9488:	94000518 	bl	a8e8 <mpa_alloc_static_temp_var>
/home/ursus/devel/optee/optee_os/lib/libmpa/mpa_primetest.c:216
    948c:	9130e2e1 	add	x1, x23, #0xc38
    9490:	aa1403e0 	mov	x0, x20
    9494:	940009b9 	bl	bb78 <mpa_cmp>
    9498:	2a0003f7 	mov	w23, w0
/home/ursus/devel/optee/optee_os/lib/libmpa/mpa_primetest.c:215
    949c:	531f7c00 	lsr	w0, w0, #31
    94a0:	b9008ba0 	str	w0, [x29,#136]
/home/ursus/devel/optee/optee_os/lib/libmpa/mpa_primetest.c:219
    94a4:	528000e0 	mov	w0, #0x7                   	// #7
    94a8:	b9008fa0 	str	w0, [x29,#140]
/home/ursus/devel/optee/optee_os/lib/libmpa/mpa_primetest.c:218
    94ac:	37f800b7 	tbnz	w23, #31, 94c0 <mpa_is_prob_prime+0x2f0>
/home/ursus/devel/optee/optee_os/lib/libmpa/mpa_primetest.c:221
    94b0:	110006d6 	add	w22, w22, #0x1
    94b4:	52800040 	mov	w0, #0x2                   	// #2
    94b8:	1ac00ec0 	sdiv	w0, w22, w0
    94bc:	b9008fa0 	str	w0, [x29,#140]
/home/ursus/devel/optee/optee_os/lib/libmpa/mpa_primetest.c:223
    94c0:	f9405ba0 	ldr	x0, [x29,#176]
    94c4:	aa1403e1 	mov	x1, x20
    94c8:	aa1303e3 	mov	x3, x19
    94cc:	52800022 	mov	w2, #0x1                   	// #1
/home/ursus/devel/optee/optee_os/lib/libmpa/mpa_primetest.c:225
    94d0:	52800018 	mov	w24, #0x0                   	// #0
/home/ursus/devel/optee/optee_os/lib/libmpa/mpa_primetest.c:223
    94d4:	94000922 	bl	b95c <mpa_sub_word>
/home/ursus/devel/optee/optee_os/lib/libmpa/mpa_primetest.c:224
    94d8:	a94a87a0 	ldp	x0, x1, [x29,#168]
    94dc:	97fffdf1 	bl	8ca0 <mpa_copy>
/home/ursus/devel/optee/optee_os/lib/libmpa/mpa_primetest.c:227
    94e0:	f94057a0 	ldr	x0, [x29,#168]
    94e4:	97fffe39 	bl	8dc8 <mpa_parity>
    94e8:	34ffed60 	cbz	w0, 9294 <mpa_is_prob_prime+0xc4>
/home/ursus/devel/optee/optee_os/lib/libmpa/mpa_primetest.c:272
    94ec:	f9403ba0 	ldr	x0, [x29,#112]
/home/ursus/devel/optee/optee_os/lib/libmpa/mpa_primetest.c:227
    94f0:	d2800016 	mov	x22, #0x0                   	// #0
    94f4:	12800019 	mov	w25, #0xffffffff            	// #-1
/home/ursus/devel/optee/optee_os/lib/libmpa/mpa_primetest.c:272
    94f8:	910a2000 	add	x0, x0, #0x288
    94fc:	f9003ba0 	str	x0, [x29,#112]
    9500:	9131a000 	add	x0, x0, #0xc68
    9504:	f90037a0 	str	x0, [x29,#104]
/home/ursus/devel/optee/optee_os/lib/libmpa/mpa_primetest.c:233
    9508:	b9408fa1 	ldr	w1, [x29,#140]
    950c:	3100073f 	cmn	w25, #0x1
    9510:	1a9f17e0 	cset	w0, eq
    9514:	6b16003f 	cmp	w1, w22
    9518:	1a9fd7e1 	cset	w1, gt
    951c:	6a01001f 	tst	w0, w1
    9520:	54ffec61 	b.ne	92ac <mpa_is_prob_prime+0xdc>
/home/ursus/devel/optee/optee_os/lib/libmpa/mpa_primetest.c:280
    9524:	b9408ba1 	ldr	w1, [x29,#136]
    9528:	6a00003f 	tst	w1, w0
/home/ursus/devel/optee/optee_os/lib/libmpa/mpa_primetest.c:282
    952c:	aa1303e1 	mov	x1, x19
/home/ursus/devel/optee/optee_os/lib/libmpa/mpa_primetest.c:280
    9530:	1a9f0739 	csinc	w25, w25, wzr, eq
/home/ursus/devel/optee/optee_os/lib/libmpa/mpa_primetest.c:282
    9534:	aa1c03e0 	mov	x0, x28
    9538:	940004f0 	bl	a8f8 <mpa_free_static_temp_var>
/home/ursus/devel/optee/optee_os/lib/libmpa/mpa_primetest.c:283
    953c:	aa1303e1 	mov	x1, x19
    9540:	aa1b03e0 	mov	x0, x27
    9544:	940004ed 	bl	a8f8 <mpa_free_static_temp_var>
/home/ursus/devel/optee/optee_os/lib/libmpa/mpa_primetest.c:284
    9548:	aa1303e1 	mov	x1, x19
    954c:	aa1a03e0 	mov	x0, x26
    9550:	940004ea 	bl	a8f8 <mpa_free_static_temp_var>
/home/ursus/devel/optee/optee_os/lib/libmpa/mpa_primetest.c:285
    9554:	f9403fa0 	ldr	x0, [x29,#120]
    9558:	aa1303e1 	mov	x1, x19
    955c:	940004e7 	bl	a8f8 <mpa_free_static_temp_var>
/home/ursus/devel/optee/optee_os/lib/libmpa/mpa_primetest.c:287
    9560:	f94043a0 	ldr	x0, [x29,#128]
    9564:	aa1303e1 	mov	x1, x19
    9568:	940004e4 	bl	a8f8 <mpa_free_static_temp_var>
/home/ursus/devel/optee/optee_os/lib/libmpa/mpa_primetest.c:288
    956c:	aa1303e1 	mov	x1, x19
    9570:	aa1503e0 	mov	x0, x21
    9574:	940004e1 	bl	a8f8 <mpa_free_static_temp_var>
    9578:	17ffff28 	b	9218 <mpa_is_prob_prime+0x48>

000000000000957c <mpa_set_S32>:
mpa_set_S32():
/home/ursus/devel/optee/optee_os/lib/libmpa/mpa_conv.c:37
    957c:	7100003f 	cmp	w1, #0x0
    9580:	54000100 	b.eq	95a0 <mpa_set_S32+0x24>
/home/ursus/devel/optee/optee_os/lib/libmpa/mpa_conv.c:38
    9584:	52800022 	mov	w2, #0x1                   	// #1
    9588:	5a82a442 	cneg	w2, w2, lt
    958c:	b9000402 	str	w2, [x0,#4]
/home/ursus/devel/optee/optee_os/lib/libmpa/mpa_conv.c:41
    9590:	7100003f 	cmp	w1, #0x0
    9594:	5a81a421 	cneg	w1, w1, lt
    9598:	b9000801 	str	w1, [x0,#8]
    959c:	d65f03c0 	ret
/home/ursus/devel/optee/optee_os/lib/libmpa/mpa_conv.c:40
    95a0:	b900041f 	str	wzr, [x0,#4]
    95a4:	17fffffb 	b	9590 <mpa_set_S32+0x14>

00000000000095a8 <mpa_get_S32>:
mpa_get_S32():
/home/ursus/devel/optee/optee_os/lib/libmpa/mpa_conv.c:57
    95a8:	b9400422 	ldr	w2, [x1,#4]
/home/ursus/devel/optee/optee_os/lib/libmpa/mpa_conv.c:55
    95ac:	aa0003e4 	mov	x4, x0
/home/ursus/devel/optee/optee_os/lib/libmpa/mpa_conv.c:57
    95b0:	7100005f 	cmp	w2, #0x0
    95b4:	5a82a440 	cneg	w0, w2, lt
    95b8:	7100041f 	cmp	w0, #0x1
    95bc:	540002cc 	b.gt	9614 <mpa_get_S32+0x6c>
/home/ursus/devel/optee/optee_os/lib/libmpa/mpa_conv.c:59
    95c0:	b9400823 	ldr	w3, [x1,#8]
    95c4:	52b00000 	mov	w0, #0x80000000            	// #-2147483648
    95c8:	7100005f 	cmp	w2, #0x0
    95cc:	7a40b060 	ccmp	w3, w0, #0x0, lt
/home/ursus/devel/optee/optee_os/lib/libmpa/mpa_conv.c:58
    95d0:	12800000 	mov	w0, #0xffffffff            	// #-1
/home/ursus/devel/optee/optee_os/lib/libmpa/mpa_conv.c:59
    95d4:	54000088 	b.hi	95e4 <mpa_get_S32+0x3c>
/home/ursus/devel/optee/optee_os/lib/libmpa/mpa_conv.c:61
    95d8:	36f80083 	tbz	w3, #31, 95e8 <mpa_get_S32+0x40>
/home/ursus/devel/optee/optee_os/lib/libmpa/mpa_conv.c:64 (discriminator 1)
    95dc:	2a0003e1 	mov	w1, w0
/home/ursus/devel/optee/optee_os/lib/libmpa/mpa_conv.c:61 (discriminator 1)
    95e0:	37f800c2 	tbnz	w2, #31, 95f8 <mpa_get_S32+0x50>
/home/ursus/devel/optee/optee_os/lib/libmpa/mpa_conv.c:70
    95e4:	d65f03c0 	ret
/home/ursus/devel/optee/optee_os/lib/libmpa/mpa_conv.c:64
    95e8:	34000102 	cbz	w2, 9608 <mpa_get_S32+0x60>
/home/ursus/devel/optee/optee_os/lib/libmpa/mpa_conv.c:64 (discriminator 4)
    95ec:	12800001 	mov	w1, #0xffffffff            	// #-1
    95f0:	6b01005f 	cmp	w2, w1
    95f4:	5a81d421 	cneg	w1, w1, gt
/home/ursus/devel/optee/optee_os/lib/libmpa/mpa_conv.c:64 (discriminator 8)
    95f8:	1b037c21 	mul	w1, w1, w3
/home/ursus/devel/optee/optee_os/lib/libmpa/mpa_conv.c:65 (discriminator 8)
    95fc:	52800000 	mov	w0, #0x0                   	// #0
/home/ursus/devel/optee/optee_os/lib/libmpa/mpa_conv.c:64 (discriminator 8)
    9600:	b9000081 	str	w1, [x4]
/home/ursus/devel/optee/optee_os/lib/libmpa/mpa_conv.c:65 (discriminator 8)
    9604:	d65f03c0 	ret
/home/ursus/devel/optee/optee_os/lib/libmpa/mpa_conv.c:64
    9608:	52800003 	mov	w3, #0x0                   	// #0
    960c:	52800021 	mov	w1, #0x1                   	// #1
    9610:	17fffffa 	b	95f8 <mpa_get_S32+0x50>
/home/ursus/devel/optee/optee_os/lib/libmpa/mpa_conv.c:58
    9614:	12800000 	mov	w0, #0xffffffff            	// #-1
    9618:	17fffff3 	b	95e4 <mpa_get_S32+0x3c>

000000000000961c <mpa_set_word>:
mpa_set_word():
/home/ursus/devel/optee/optee_os/lib/libmpa/mpa_conv.c:80
    961c:	7100003f 	cmp	w1, #0x0
/home/ursus/devel/optee/optee_os/lib/libmpa/mpa_conv.c:79
    9620:	b9000801 	str	w1, [x0,#8]
/home/ursus/devel/optee/optee_os/lib/libmpa/mpa_conv.c:80
    9624:	1a9f07e1 	cset	w1, ne
    9628:	b9000401 	str	w1, [x0,#4]
    962c:	d65f03c0 	ret

0000000000009630 <mpa_get_word>:
mpa_get_word():
/home/ursus/devel/optee/optee_os/lib/libmpa/mpa_conv.c:91
    9630:	b9400401 	ldr	w1, [x0,#4]
    9634:	34000061 	cbz	w1, 9640 <mpa_get_word+0x10>
/home/ursus/devel/optee/optee_os/lib/libmpa/mpa_conv.c:91 (discriminator 1)
    9638:	b9400800 	ldr	w0, [x0,#8]
    963c:	d65f03c0 	ret
/home/ursus/devel/optee/optee_os/lib/libmpa/mpa_conv.c:91
    9640:	52800000 	mov	w0, #0x0                   	// #0
/home/ursus/devel/optee/optee_os/lib/libmpa/mpa_conv.c:92
    9644:	d65f03c0 	ret

0000000000009648 <__mpa_div_dword>:
__mpa_div_dword():
/home/ursus/devel/optee/optee_os/lib/libmpa/mpa_div.c:81
    9648:	2a0003e0 	mov	w0, w0
__mpa_soft_div():
/home/ursus/devel/optee/optee_os/lib/libmpa/mpa_div.c:46
    964c:	2a0203e2 	mov	w2, w2
__mpa_div_dword():
/home/ursus/devel/optee/optee_os/lib/libmpa/mpa_div.c:81
    9650:	8b018001 	add	x1, x0, x1, lsl #32
__mpa_soft_div():
/home/ursus/devel/optee/optee_os/lib/libmpa/mpa_div.c:45
    9654:	d2800024 	mov	x4, #0x1                   	// #1
/home/ursus/devel/optee/optee_os/lib/libmpa/mpa_div.c:48
    9658:	b6f800c2 	tbz	x2, #63, 9670 <__mpa_div_dword+0x28>
    965c:	d2800000 	mov	x0, #0x0                   	// #0
/home/ursus/devel/optee/optee_os/lib/libmpa/mpa_div.c:53
    9660:	b50000e4 	cbnz	x4, 967c <__mpa_div_dword+0x34>
/home/ursus/devel/optee/optee_os/lib/libmpa/mpa_div.c:62
    9664:	b4000043 	cbz	x3, 966c <__mpa_div_dword+0x24>
/home/ursus/devel/optee/optee_os/lib/libmpa/mpa_div.c:63
    9668:	b9000061 	str	w1, [x3]
__mpa_div_dword():
/home/ursus/devel/optee/optee_os/lib/libmpa/mpa_div.c:89
    966c:	d65f03c0 	ret
__mpa_soft_div():
/home/ursus/devel/optee/optee_os/lib/libmpa/mpa_div.c:49
    9670:	d37ff842 	lsl	x2, x2, #1
/home/ursus/devel/optee/optee_os/lib/libmpa/mpa_div.c:50
    9674:	d37ff884 	lsl	x4, x4, #1
    9678:	17fffff8 	b	9658 <__mpa_div_dword+0x10>
/home/ursus/devel/optee/optee_os/lib/libmpa/mpa_div.c:54
    967c:	eb02003f 	cmp	x1, x2
    9680:	54000063 	b.cc	968c <__mpa_div_dword+0x44>
/home/ursus/devel/optee/optee_os/lib/libmpa/mpa_div.c:55
    9684:	cb020021 	sub	x1, x1, x2
/home/ursus/devel/optee/optee_os/lib/libmpa/mpa_div.c:56
    9688:	8b040000 	add	x0, x0, x4
/home/ursus/devel/optee/optee_os/lib/libmpa/mpa_div.c:58
    968c:	d341fc42 	lsr	x2, x2, #1
/home/ursus/devel/optee/optee_os/lib/libmpa/mpa_div.c:59
    9690:	d341fc84 	lsr	x4, x4, #1
    9694:	17fffff3 	b	9660 <__mpa_div_dword+0x18>

0000000000009698 <__mpa_div_q_r_internal_word>:
__mpa_div_q_r_internal_word():
/home/ursus/devel/optee/optee_os/lib/libmpa/mpa_div.c:269
    9698:	a9ba7bfd 	stp	x29, x30, [sp,#-96]!
    969c:	910003fd 	mov	x29, sp
    96a0:	a9025bf5 	stp	x21, x22, [sp,#32]
    96a4:	aa0103f5 	mov	x21, x1
/home/ursus/devel/optee/optee_os/lib/libmpa/mpa_div.c:277
    96a8:	b9400441 	ldr	w1, [x2,#4]
/home/ursus/devel/optee/optee_os/lib/libmpa/mpa_div.c:269
    96ac:	aa0203f6 	mov	x22, x2
    96b0:	a90153f3 	stp	x19, x20, [sp,#16]
    96b4:	2a0303f4 	mov	w20, w3
/home/ursus/devel/optee/optee_os/lib/libmpa/mpa_div.c:277
    96b8:	7100003f 	cmp	w1, #0x0
/home/ursus/devel/optee/optee_os/lib/libmpa/mpa_div.c:269
    96bc:	a90363f7 	stp	x23, x24, [sp,#48]
    96c0:	a9046bf9 	stp	x25, x26, [sp,#64]
/home/ursus/devel/optee/optee_os/lib/libmpa/mpa_div.c:277
    96c4:	5a81a421 	cneg	w1, w1, lt
    96c8:	7100043f 	cmp	w1, #0x1
    96cc:	540001e1 	b.ne	9708 <__mpa_div_q_r_internal_word+0x70>
/home/ursus/devel/optee/optee_os/lib/libmpa/mpa_div.c:278
    96d0:	b9400841 	ldr	w1, [x2,#8]
    96d4:	1ac30821 	udiv	w1, w1, w3
    96d8:	97ffffd1 	bl	961c <mpa_set_word>
/home/ursus/devel/optee/optee_os/lib/libmpa/mpa_div.c:279
    96dc:	b9400ac0 	ldr	w0, [x22,#8]
    96e0:	1ad40801 	udiv	w1, w0, w20
    96e4:	1b148021 	msub	w1, w1, w20, w0
    96e8:	aa1503e0 	mov	x0, x21
    96ec:	97ffffcc 	bl	961c <mpa_set_word>
/home/ursus/devel/optee/optee_os/lib/libmpa/mpa_div.c:301
    96f0:	a94153f3 	ldp	x19, x20, [sp,#16]
    96f4:	a9425bf5 	ldp	x21, x22, [sp,#32]
    96f8:	a94363f7 	ldp	x23, x24, [sp,#48]
    96fc:	a9446bf9 	ldp	x25, x26, [sp,#64]
    9700:	a8c67bfd 	ldp	x29, x30, [sp],#96
    9704:	d65f03c0 	ret
/home/ursus/devel/optee/optee_os/lib/libmpa/mpa_div.c:282
    9708:	aa0203e1 	mov	x1, x2
    970c:	aa0003f3 	mov	x19, x0
    9710:	aa1503e0 	mov	x0, x21
    9714:	97fffd63 	bl	8ca0 <mpa_copy>
/home/ursus/devel/optee/optee_os/lib/libmpa/mpa_div.c:283
    9718:	52800001 	mov	w1, #0x0                   	// #0
    971c:	aa1303e0 	mov	x0, x19
    9720:	97ffffbf 	bl	961c <mpa_set_word>
/home/ursus/devel/optee/optee_os/lib/libmpa/mpa_div.c:289
    9724:	910173ba 	add	x26, x29, #0x5c
/home/ursus/devel/optee/optee_os/lib/libmpa/mpa_div.c:285
    9728:	b94006a1 	ldr	w1, [x21,#4]
    972c:	7100003f 	cmp	w1, #0x0
    9730:	5a81a421 	cneg	w1, w1, lt
    9734:	51000422 	sub	w2, w1, #0x1
/home/ursus/devel/optee/optee_os/lib/libmpa/mpa_div.c:287
    9738:	93407c42 	sxtw	x2, w2
    973c:	8b020aa0 	add	x0, x21, x2, lsl #2
    9740:	91000843 	add	x3, x2, #0x2
    9744:	d37ef477 	lsl	x23, x3, #2
    9748:	cb21c063 	sub	x3, x3, w1, sxtw
    974c:	51000821 	sub	w1, w1, #0x2
    9750:	d37ef478 	lsl	x24, x3, #2
    9754:	937e7c21 	sbfiz	x1, x1, #2, #32
    9758:	b9400800 	ldr	w0, [x0,#8]
    975c:	cb020821 	sub	x1, x1, x2, lsl #2
    9760:	8b0102b9 	add	x25, x21, x1
/home/ursus/devel/optee/optee_os/lib/libmpa/mpa_div.c:286
    9764:	52800001 	mov	w1, #0x0                   	// #0
/home/ursus/devel/optee/optee_os/lib/libmpa/mpa_div.c:288
    9768:	eb1802ff 	cmp	x23, x24
    976c:	54000281 	b.ne	97bc <__mpa_div_q_r_internal_word+0x124>
/home/ursus/devel/optee/optee_os/lib/libmpa/mpa_div.c:296
    9770:	b9400aa0 	ldr	w0, [x21,#8]
    9774:	7100001f 	cmp	w0, #0x0
    9778:	1a9f07e0 	cset	w0, ne
    977c:	b90006a0 	str	w0, [x21,#4]
/home/ursus/devel/optee/optee_os/lib/libmpa/mpa_div.c:297
    9780:	b94006c0 	ldr	w0, [x22,#4]
    9784:	7100001f 	cmp	w0, #0x0
    9788:	5a80a400 	cneg	w0, w0, lt
    978c:	51000400 	sub	w0, w0, #0x1
    9790:	93407c00 	sxtw	x0, w0
    9794:	2a0003e1 	mov	w1, w0
/home/ursus/devel/optee/optee_os/lib/libmpa/mpa_div.c:298
    9798:	3100041f 	cmn	w0, #0x1
    979c:	540000a0 	b.eq	97b0 <__mpa_div_q_r_internal_word+0x118>
    97a0:	d1000400 	sub	x0, x0, #0x1
/home/ursus/devel/optee/optee_os/lib/libmpa/mpa_div.c:298 (discriminator 1)
    97a4:	8b000a62 	add	x2, x19, x0, lsl #2
    97a8:	b9400c42 	ldr	w2, [x2,#12]
    97ac:	34ffff42 	cbz	w2, 9794 <__mpa_div_q_r_internal_word+0xfc>
/home/ursus/devel/optee/optee_os/lib/libmpa/mpa_div.c:300
    97b0:	11000420 	add	w0, w1, #0x1
    97b4:	b9000660 	str	w0, [x19,#4]
    97b8:	17ffffce 	b	96f0 <__mpa_div_q_r_internal_word+0x58>
/home/ursus/devel/optee/optee_os/lib/libmpa/mpa_div.c:289
    97bc:	aa1a03e3 	mov	x3, x26
    97c0:	2a1403e2 	mov	w2, w20
    97c4:	97ffffa1 	bl	9648 <__mpa_div_dword>
/home/ursus/devel/optee/optee_os/lib/libmpa/mpa_div.c:290
    97c8:	b8376a60 	str	w0, [x19,x23]
/home/ursus/devel/optee/optee_os/lib/libmpa/mpa_div.c:291
    97cc:	b9405fa1 	ldr	w1, [x29,#92]
    97d0:	b8376aa1 	str	w1, [x21,x23]
/home/ursus/devel/optee/optee_os/lib/libmpa/mpa_div.c:293
    97d4:	b8776b20 	ldr	w0, [x25,x23]
    97d8:	d10012f7 	sub	x23, x23, #0x4
    97dc:	17ffffe3 	b	9768 <__mpa_div_q_r_internal_word+0xd0>

00000000000097e0 <__mpa_div_q_r>:
__mpa_div_q_r():
/home/ursus/devel/optee/optee_os/lib/libmpa/mpa_div.c:324
    97e0:	a9b07bfd 	stp	x29, x30, [sp,#-256]!
    97e4:	910003fd 	mov	x29, sp
    97e8:	a90363f7 	stp	x23, x24, [sp,#48]
    97ec:	aa0103f8 	mov	x24, x1
/home/ursus/devel/optee/optee_os/lib/libmpa/mpa_div.c:328
    97f0:	b9400441 	ldr	w1, [x2,#4]
/home/ursus/devel/optee/optee_os/lib/libmpa/mpa_div.c:324
    97f4:	a90153f3 	stp	x19, x20, [sp,#16]
    97f8:	a9025bf5 	stp	x21, x22, [sp,#32]
    97fc:	a9046bf9 	stp	x25, x26, [sp,#64]
    9800:	a90573fb 	stp	x27, x28, [sp,#80]
/home/ursus/devel/optee/optee_os/lib/libmpa/mpa_div.c:328
    9804:	35000181 	cbnz	w1, 9834 <__mpa_div_q_r+0x54>
/home/ursus/devel/optee/optee_os/lib/libmpa/mpa_div.c:344
    9808:	97ffff85 	bl	961c <mpa_set_word>
/home/ursus/devel/optee/optee_os/lib/libmpa/mpa_div.c:345
    980c:	52800001 	mov	w1, #0x0                   	// #0
    9810:	aa1803e0 	mov	x0, x24
    9814:	97ffff82 	bl	961c <mpa_set_word>
/home/ursus/devel/optee/optee_os/lib/libmpa/mpa_div.c:360
    9818:	a94153f3 	ldp	x19, x20, [sp,#16]
    981c:	a9425bf5 	ldp	x21, x22, [sp,#32]
    9820:	a94363f7 	ldp	x23, x24, [sp,#48]
    9824:	a9446bf9 	ldp	x25, x26, [sp,#64]
    9828:	a94573fb 	ldp	x27, x28, [sp,#80]
    982c:	a8d07bfd 	ldp	x29, x30, [sp],#256
    9830:	d65f03c0 	ret
    9834:	aa0003f3 	mov	x19, x0
/home/ursus/devel/optee/optee_os/lib/libmpa/mpa_div.c:333
    9838:	b9400460 	ldr	w0, [x3,#4]
    983c:	aa0303f4 	mov	x20, x3
    9840:	34fffec0 	cbz	w0, 9818 <__mpa_div_q_r+0x38>
    9844:	aa0203fa 	mov	x26, x2
    9848:	aa0403f7 	mov	x23, x4
/home/ursus/devel/optee/optee_os/lib/libmpa/mpa_div.c:340
    984c:	36f82ee1 	tbz	w1, #31, 9e28 <__mpa_div_q_r+0x648>
/home/ursus/devel/optee/optee_os/lib/libmpa/mpa_div.c:341
    9850:	7100001f 	cmp	w0, #0x0
    9854:	12800001 	mov	w1, #0xffffffff            	// #-1
    9858:	5a81a420 	cneg	w0, w1, lt
    985c:	14000176 	b	9e34 <__mpa_div_q_r+0x654>
/home/ursus/devel/optee/optee_os/lib/libmpa/mpa_div.c:348
    9860:	54002d6d 	b.le	9e0c <__mpa_div_q_r+0x62c>
/home/ursus/devel/optee/optee_os/lib/libmpa/mpa_div.c:349
    9864:	b9400680 	ldr	w0, [x20,#4]
    9868:	7100001f 	cmp	w0, #0x0
    986c:	5a80a400 	cneg	w0, w0, lt
    9870:	7100041f 	cmp	w0, #0x1
    9874:	54002c0d 	b.le	9df4 <__mpa_div_q_r+0x614>
__mpa_div_q_r_internal():
/home/ursus/devel/optee/optee_os/lib/libmpa/mpa_div.c:125
    9878:	9103a3a0 	add	x0, x29, #0xe8
    987c:	aa1703e1 	mov	x1, x23
    9880:	f9005fa0 	str	x0, [x29,#184]
    9884:	94000419 	bl	a8e8 <mpa_alloc_static_temp_var>
/home/ursus/devel/optee/optee_os/lib/libmpa/mpa_div.c:126
    9888:	9103c3a0 	add	x0, x29, #0xf0
    988c:	aa1703e1 	mov	x1, x23
    9890:	f9005ba0 	str	x0, [x29,#176]
    9894:	94000415 	bl	a8e8 <mpa_alloc_static_temp_var>
/home/ursus/devel/optee/optee_os/lib/libmpa/mpa_div.c:127
    9898:	f9407ba0 	ldr	x0, [x29,#240]
    989c:	aa1403e1 	mov	x1, x20
    98a0:	97fffd00 	bl	8ca0 <mpa_copy>
/home/ursus/devel/optee/optee_os/lib/libmpa/mpa_div.c:134
    98a4:	9103e3a0 	add	x0, x29, #0xf8
    98a8:	aa1703e1 	mov	x1, x23
    98ac:	f90057a0 	str	x0, [x29,#168]
    98b0:	9400040e 	bl	a8e8 <mpa_alloc_static_temp_var>
/home/ursus/devel/optee/optee_os/lib/libmpa/mpa_div.c:135
    98b4:	f9407fa0 	ldr	x0, [x29,#248]
    98b8:	aa1a03e1 	mov	x1, x26
    98bc:	97fffcf9 	bl	8ca0 <mpa_copy>
/home/ursus/devel/optee/optee_os/lib/libmpa/mpa_div.c:136
    98c0:	f9407fa1 	ldr	x1, [x29,#248]
    98c4:	b9400420 	ldr	w0, [x1,#4]
    98c8:	36f80060 	tbz	w0, #31, 98d4 <__mpa_div_q_r+0xf4>
    98cc:	4b0003e0 	neg	w0, w0
    98d0:	b9000420 	str	w0, [x1,#4]
/home/ursus/devel/optee/optee_os/lib/libmpa/mpa_div.c:137
    98d4:	f9407ba2 	ldr	x2, [x29,#240]
    98d8:	b9400440 	ldr	w0, [x2,#4]
    98dc:	36f80060 	tbz	w0, #31, 98e8 <__mpa_div_q_r+0x108>
    98e0:	4b0003e0 	neg	w0, w0
    98e4:	b9000440 	str	w0, [x2,#4]
/home/ursus/devel/optee/optee_os/lib/libmpa/mpa_div.c:143
    98e8:	b9400440 	ldr	w0, [x2,#4]
/home/ursus/devel/optee/optee_os/lib/libmpa/mpa_div.c:142
    98ec:	52800019 	mov	w25, #0x0                   	// #0
/home/ursus/devel/optee/optee_os/lib/libmpa/mpa_div.c:143
    98f0:	7100001f 	cmp	w0, #0x0
    98f4:	5a80a400 	cneg	w0, w0, lt
    98f8:	51000400 	sub	w0, w0, #0x1
    98fc:	8b20c840 	add	x0, x2, w0, sxtw #2
    9900:	52800002 	mov	w2, #0x0                   	// #0
    9904:	b9400800 	ldr	w0, [x0,#8]
    9908:	b900d7a0 	str	w0, [x29,#212]
/home/ursus/devel/optee/optee_os/lib/libmpa/mpa_div.c:144
    990c:	36f80fc0 	tbz	w0, #31, 9b04 <__mpa_div_q_r+0x324>
    9910:	34000042 	cbz	w2, 9918 <__mpa_div_q_r+0x138>
    9914:	b900d7a0 	str	w0, [x29,#212]
/home/ursus/devel/optee/optee_os/lib/libmpa/mpa_div.c:148
    9918:	34000119 	cbz	w25, 9938 <__mpa_div_q_r+0x158>
/home/ursus/devel/optee/optee_os/lib/libmpa/mpa_div.c:149
    991c:	aa0103e0 	mov	x0, x1
    9920:	2a1903e2 	mov	w2, w25
    9924:	9400056a 	bl	aecc <mpa_shift_left>
/home/ursus/devel/optee/optee_os/lib/libmpa/mpa_div.c:150
    9928:	f9407ba1 	ldr	x1, [x29,#240]
    992c:	2a1903e2 	mov	w2, w25
    9930:	aa0103e0 	mov	x0, x1
    9934:	94000566 	bl	aecc <mpa_shift_left>
/home/ursus/devel/optee/optee_os/lib/libmpa/mpa_div.c:153
    9938:	f9407fa0 	ldr	x0, [x29,#248]
    993c:	b9400416 	ldr	w22, [x0,#4]
/home/ursus/devel/optee/optee_os/lib/libmpa/mpa_div.c:154
    9940:	f9407ba0 	ldr	x0, [x29,#240]
    9944:	b9400400 	ldr	w0, [x0,#4]
    9948:	b900cfa0 	str	w0, [x29,#204]
/home/ursus/devel/optee/optee_os/lib/libmpa/mpa_div.c:155
    994c:	2a0003e0 	mov	w0, w0
    9950:	4b0002c0 	sub	w0, w22, w0
    9954:	b900cba0 	str	w0, [x29,#200]
/home/ursus/devel/optee/optee_os/lib/libmpa/mpa_div.c:157
    9958:	aa1303e0 	mov	x0, x19
    995c:	97fffcc5 	bl	8c70 <mpa_wipe>
/home/ursus/devel/optee/optee_os/lib/libmpa/mpa_div.c:163
    9960:	b940cba1 	ldr	w1, [x29,#200]
    9964:	f9407ba0 	ldr	x0, [x29,#240]
    9968:	9400051a 	bl	add0 <__mpa_shift_words_left>
/home/ursus/devel/optee/optee_os/lib/libmpa/mpa_div.c:169
    996c:	a94f07a2 	ldp	x2, x1, [x29,#240]
/home/ursus/devel/optee/optee_os/lib/libmpa/mpa_div.c:166
    9970:	52800025 	mov	w5, #0x1                   	// #1
/home/ursus/devel/optee/optee_os/lib/libmpa/mpa_div.c:165
    9974:	b9400444 	ldr	w4, [x2,#4]
    9978:	7100009f 	cmp	w4, #0x0
    997c:	5a84a484 	cneg	w4, w4, lt
    9980:	51000483 	sub	w3, w4, #0x1
    9984:	2a0403e0 	mov	w0, w4
    9988:	93407c63 	sxtw	x3, w3
    998c:	91000863 	add	x3, x3, #0x2
    9990:	d37ef463 	lsl	x3, x3, #2
/home/ursus/devel/optee/optee_os/lib/libmpa/mpa_div.c:167
    9994:	7100001f 	cmp	w0, #0x0
    9998:	1a9fd7e6 	cset	w6, gt
    999c:	6a0500df 	tst	w6, w5
    99a0:	54000ba1 	b.ne	9b14 <__mpa_div_q_r+0x334>
/home/ursus/devel/optee/optee_os/lib/libmpa/mpa_div.c:171
    99a4:	350002a5 	cbnz	w5, 99f8 <__mpa_div_q_r+0x218>
    99a8:	b9400423 	ldr	w3, [x1,#4]
    99ac:	7100007f 	cmp	w3, #0x0
    99b0:	5a83a463 	cneg	w3, w3, lt
    99b4:	6b03001f 	cmp	w0, w3
    99b8:	5400250a 	b.ge	9e58 <__mpa_div_q_r+0x678>
    99bc:	8b20c823 	add	x3, x1, w0, sxtw #2
    99c0:	6b00009f 	cmp	w4, w0
    99c4:	b9400863 	ldr	w3, [x3,#8]
    99c8:	5400006d 	b.le	99d4 <__mpa_div_q_r+0x1f4>
    99cc:	8b20c840 	add	x0, x2, w0, sxtw #2
    99d0:	b9400805 	ldr	w5, [x0,#8]
    99d4:	6b0300bf 	cmp	w5, w3
    99d8:	54000102 	b.cs	99f8 <__mpa_div_q_r+0x218>
/home/ursus/devel/optee/optee_os/lib/libmpa/mpa_div.c:172
    99dc:	b940cba0 	ldr	w0, [x29,#200]
    99e0:	52800023 	mov	w3, #0x1                   	// #1
    99e4:	8b20ca60 	add	x0, x19, w0, sxtw #2
    99e8:	b9000803 	str	w3, [x0,#8]
/home/ursus/devel/optee/optee_os/lib/libmpa/mpa_div.c:173
    99ec:	aa1703e3 	mov	x3, x23
    99f0:	aa0103e0 	mov	x0, x1
    99f4:	94000719 	bl	b658 <mpa_sub>
/home/ursus/devel/optee/optee_os/lib/libmpa/mpa_div.c:177
    99f8:	f9407fa0 	ldr	x0, [x29,#248]
    99fc:	510006d6 	sub	w22, w22, #0x1
    9a00:	b9400415 	ldr	w21, [x0,#4]
    9a04:	b940cfa0 	ldr	w0, [x29,#204]
    9a08:	510006b4 	sub	w20, w21, #0x1
    9a0c:	51000ab5 	sub	w21, w21, #0x2
    9a10:	93407e9b 	sxtw	x27, w20
    9a14:	4b000294 	sub	w20, w20, w0
/home/ursus/devel/optee/optee_os/lib/libmpa/mpa_div.c:195
    9a18:	910353a0 	add	x0, x29, #0xd4
    9a1c:	f9003ba0 	str	x0, [x29,#112]
    9a20:	910363a0 	add	x0, x29, #0xd8
    9a24:	8b34ca74 	add	x20, x19, w20, sxtw #2
    9a28:	f90053a0 	str	x0, [x29,#160]
/home/ursus/devel/optee/optee_os/lib/libmpa/mpa_div.c:202
    9a2c:	910373a0 	add	x0, x29, #0xdc
    9a30:	93407eb5 	sxtw	x21, w21
    9a34:	f9004fa0 	str	x0, [x29,#152]
    9a38:	91002294 	add	x20, x20, #0x8
    9a3c:	910383a0 	add	x0, x29, #0xe0
    9a40:	f90037a0 	str	x0, [x29,#104]
/home/ursus/devel/optee/optee_os/lib/libmpa/mpa_div.c:206
    9a44:	910393a0 	add	x0, x29, #0xe4
    9a48:	f9004ba0 	str	x0, [x29,#144]
/home/ursus/devel/optee/optee_os/lib/libmpa/mpa_div.c:178
    9a4c:	b940cfa0 	ldr	w0, [x29,#204]
    9a50:	2a1b03fc 	mov	w28, w27
    9a54:	6b1b001f 	cmp	w0, w27
    9a58:	540007ed 	b.le	9b54 <__mpa_div_q_r+0x374>
    9a5c:	b980cba0 	ldrsw	x0, [x29,#200]
    9a60:	2a0003e1 	mov	w1, w0
/home/ursus/devel/optee/optee_os/lib/libmpa/mpa_div.c:239
    9a64:	36f81be0 	tbz	w0, #31, 9de0 <__mpa_div_q_r+0x600>
/home/ursus/devel/optee/optee_os/lib/libmpa/mpa_div.c:241
    9a68:	11000421 	add	w1, w1, #0x1
    9a6c:	b9000661 	str	w1, [x19,#4]
/home/ursus/devel/optee/optee_os/lib/libmpa/mpa_div.c:245
    9a70:	f9407fa1 	ldr	x1, [x29,#248]
    9a74:	2a1903e2 	mov	w2, w25
    9a78:	aa0103e0 	mov	x0, x1
    9a7c:	94000578 	bl	b05c <mpa_shift_right>
/home/ursus/devel/optee/optee_os/lib/libmpa/mpa_div.c:246
    9a80:	f9407fa1 	ldr	x1, [x29,#248]
    9a84:	aa1803e0 	mov	x0, x24
    9a88:	97fffc86 	bl	8ca0 <mpa_copy>
/home/ursus/devel/optee/optee_os/lib/libmpa/mpa_div.c:251
    9a8c:	f9405fa0 	ldr	x0, [x29,#184]
    9a90:	aa1703e1 	mov	x1, x23
    9a94:	94000399 	bl	a8f8 <mpa_free_static_temp_var>
/home/ursus/devel/optee/optee_os/lib/libmpa/mpa_div.c:252
    9a98:	f9405ba0 	ldr	x0, [x29,#176]
    9a9c:	aa1703e1 	mov	x1, x23
    9aa0:	94000396 	bl	a8f8 <mpa_free_static_temp_var>
/home/ursus/devel/optee/optee_os/lib/libmpa/mpa_div.c:253
    9aa4:	f94057a0 	ldr	x0, [x29,#168]
    9aa8:	aa1703e1 	mov	x1, x23
    9aac:	94000393 	bl	a8f8 <mpa_free_static_temp_var>
__mpa_div_q_r():
/home/ursus/devel/optee/optee_os/lib/libmpa/mpa_div.c:358
    9ab0:	b9400660 	ldr	w0, [x19,#4]
    9ab4:	12800001 	mov	w1, #0xffffffff            	// #-1
    9ab8:	b940c3a2 	ldr	w2, [x29,#192]
    9abc:	6b01001f 	cmp	w0, w1
    9ac0:	5a81d421 	cneg	w1, w1, gt
    9ac4:	6b01005f 	cmp	w2, w1
    9ac8:	54000060 	b.eq	9ad4 <__mpa_div_q_r+0x2f4>
/home/ursus/devel/optee/optee_os/lib/libmpa/mpa_div.c:358 (discriminator 5)
    9acc:	4b0003e0 	neg	w0, w0
    9ad0:	b9000660 	str	w0, [x19,#4]
/home/ursus/devel/optee/optee_os/lib/libmpa/mpa_div.c:359
    9ad4:	b9400701 	ldr	w1, [x24,#4]
    9ad8:	12800000 	mov	w0, #0xffffffff            	// #-1
    9adc:	b9400743 	ldr	w3, [x26,#4]
    9ae0:	6b00003f 	cmp	w1, w0
    9ae4:	5a80d402 	cneg	w2, w0, gt
    9ae8:	6b00007f 	cmp	w3, w0
    9aec:	5a80d400 	cneg	w0, w0, gt
    9af0:	6b00005f 	cmp	w2, w0
    9af4:	54ffe920 	b.eq	9818 <__mpa_div_q_r+0x38>
/home/ursus/devel/optee/optee_os/lib/libmpa/mpa_div.c:359 (discriminator 9)
    9af8:	4b0103e1 	neg	w1, w1
    9afc:	b9000701 	str	w1, [x24,#4]
    9b00:	17ffff46 	b	9818 <__mpa_div_q_r+0x38>
__mpa_div_q_r_internal():
/home/ursus/devel/optee/optee_os/lib/libmpa/mpa_div.c:145
    9b04:	11000739 	add	w25, w25, #0x1
/home/ursus/devel/optee/optee_os/lib/libmpa/mpa_div.c:146
    9b08:	531f7800 	lsl	w0, w0, #1
    9b0c:	52800022 	mov	w2, #0x1                   	// #1
    9b10:	17ffff7f 	b	990c <__mpa_div_q_r+0x12c>
/home/ursus/devel/optee/optee_os/lib/libmpa/mpa_div.c:169
    9b14:	b9400425 	ldr	w5, [x1,#4]
/home/ursus/devel/optee/optee_os/lib/libmpa/mpa_div.c:168
    9b18:	51000400 	sub	w0, w0, #0x1
/home/ursus/devel/optee/optee_os/lib/libmpa/mpa_div.c:169
    9b1c:	52800006 	mov	w6, #0x0                   	// #0
    9b20:	710000bf 	cmp	w5, #0x0
    9b24:	5a85a4a5 	cneg	w5, w5, lt
    9b28:	6b05001f 	cmp	w0, w5
    9b2c:	5400004a 	b.ge	9b34 <__mpa_div_q_r+0x354>
    9b30:	b8636826 	ldr	w6, [x1,x3]
    9b34:	52800005 	mov	w5, #0x0                   	// #0
    9b38:	6b00009f 	cmp	w4, w0
    9b3c:	5400004d 	b.le	9b44 <__mpa_div_q_r+0x364>
    9b40:	b8636845 	ldr	w5, [x2,x3]
    9b44:	6b0500df 	cmp	w6, w5
    9b48:	d1001063 	sub	x3, x3, #0x4
    9b4c:	1a9f17e5 	cset	w5, eq
    9b50:	17ffff91 	b	9994 <__mpa_div_q_r+0x1b4>
/home/ursus/devel/optee/optee_os/lib/libmpa/mpa_div.c:179
    9b54:	f9407fa5 	ldr	x5, [x29,#248]
    9b58:	52800001 	mov	w1, #0x0                   	// #0
    9b5c:	b94004a0 	ldr	w0, [x5,#4]
    9b60:	7100001f 	cmp	w0, #0x0
    9b64:	5a80a403 	cneg	w3, w0, lt
    9b68:	6b1b007f 	cmp	w3, w27
    9b6c:	5400006d 	b.le	9b78 <__mpa_div_q_r+0x398>
    9b70:	8b3cc8a0 	add	x0, x5, w28, sxtw #2
    9b74:	b9400801 	ldr	w1, [x0,#8]
/home/ursus/devel/optee/optee_os/lib/libmpa/mpa_div.c:180
    9b78:	f9407ba6 	ldr	x6, [x29,#240]
    9b7c:	110006c0 	add	w0, w22, #0x1
    9b80:	b9008fa0 	str	w0, [x29,#140]
    9b84:	110006c4 	add	w4, w22, #0x1
    9b88:	52800002 	mov	w2, #0x0                   	// #0
    9b8c:	b94004c0 	ldr	w0, [x6,#4]
    9b90:	7100001f 	cmp	w0, #0x0
    9b94:	5a80a400 	cneg	w0, w0, lt
    9b98:	6b04001f 	cmp	w0, w4
    9b9c:	5400006b 	b.lt	9ba8 <__mpa_div_q_r+0x3c8>
    9ba0:	8b36c8c6 	add	x6, x6, w22, sxtw #2
    9ba4:	b94008c2 	ldr	w2, [x6,#8]
    9ba8:	b940cfa0 	ldr	w0, [x29,#204]
/home/ursus/devel/optee/optee_os/lib/libmpa/mpa_div.c:179
    9bac:	6b02003f 	cmp	w1, w2
    9bb0:	4b000360 	sub	w0, w27, w0
    9bb4:	b900c7a0 	str	w0, [x29,#196]
    9bb8:	54000561 	b.ne	9c64 <__mpa_div_q_r+0x484>
/home/ursus/devel/optee/optee_os/lib/libmpa/mpa_div.c:181
    9bbc:	8b20ca60 	add	x0, x19, w0, sxtw #2
    9bc0:	12800001 	mov	w1, #0xffffffff            	// #-1
    9bc4:	b9000801 	str	w1, [x0,#8]
/home/ursus/devel/optee/optee_os/lib/libmpa/mpa_div.c:217
    9bc8:	510006a0 	sub	w0, w21, #0x1
    9bcc:	937e7c00 	sbfiz	x0, x0, #2, #32
    9bd0:	f90043a0 	str	x0, [x29,#128]
/home/ursus/devel/optee/optee_os/lib/libmpa/mpa_div.c:202
    9bd4:	510006c0 	sub	w0, w22, #0x1
    9bd8:	93407c00 	sxtw	x0, w0
    9bdc:	f9003fa0 	str	x0, [x29,#120]
/home/ursus/devel/optee/optee_os/lib/libmpa/mpa_div.c:196
    9be0:	f9407ba3 	ldr	x3, [x29,#240]
/home/ursus/devel/optee/optee_os/lib/libmpa/mpa_div.c:195
    9be4:	b9408fa4 	ldr	w4, [x29,#140]
/home/ursus/devel/optee/optee_os/lib/libmpa/mpa_div.c:192
    9be8:	b900d7bf 	str	wzr, [x29,#212]
/home/ursus/devel/optee/optee_os/lib/libmpa/mpa_div.c:193
    9bec:	b900dfbf 	str	wzr, [x29,#220]
/home/ursus/devel/optee/optee_os/lib/libmpa/mpa_div.c:196
    9bf0:	b9400461 	ldr	w1, [x3,#4]
/home/ursus/devel/optee/optee_os/lib/libmpa/mpa_div.c:194
    9bf4:	b900e7bf 	str	wzr, [x29,#228]
/home/ursus/devel/optee/optee_os/lib/libmpa/mpa_div.c:196
    9bf8:	7100003f 	cmp	w1, #0x0
/home/ursus/devel/optee/optee_os/lib/libmpa/mpa_div.c:195
    9bfc:	b9400280 	ldr	w0, [x20]
/home/ursus/devel/optee/optee_os/lib/libmpa/mpa_div.c:196
    9c00:	5a81a422 	cneg	w2, w1, lt
/home/ursus/devel/optee/optee_os/lib/libmpa/mpa_div.c:195
    9c04:	52800001 	mov	w1, #0x0                   	// #0
    9c08:	6b04005f 	cmp	w2, w4
    9c0c:	5400006b 	b.lt	9c18 <__mpa_div_q_r+0x438>
    9c10:	8b36c863 	add	x3, x3, w22, sxtw #2
    9c14:	b9400861 	ldr	w1, [x3,#8]
    9c18:	f94053a2 	ldr	x2, [x29,#160]
    9c1c:	f9403ba3 	ldr	x3, [x29,#112]
    9c20:	94000349 	bl	a944 <__mpa_mul_add_word>
/home/ursus/devel/optee/optee_os/lib/libmpa/mpa_div.c:199
    9c24:	f9407fa1 	ldr	x1, [x29,#248]
    9c28:	52800002 	mov	w2, #0x0                   	// #0
    9c2c:	b9400420 	ldr	w0, [x1,#4]
    9c30:	7100001f 	cmp	w0, #0x0
    9c34:	5a80a400 	cneg	w0, w0, lt
    9c38:	6b00039f 	cmp	w28, w0
    9c3c:	5400006a 	b.ge	9c48 <__mpa_div_q_r+0x468>
    9c40:	8b3cc821 	add	x1, x1, w28, sxtw #2
    9c44:	b9400822 	ldr	w2, [x1,#8]
    9c48:	b940d7a0 	ldr	w0, [x29,#212]
    9c4c:	6b02001f 	cmp	w0, w2
    9c50:	54000209 	b.ls	9c90 <__mpa_div_q_r+0x4b0>
/home/ursus/devel/optee/optee_os/lib/libmpa/mpa_div.c:221
    9c54:	b9400280 	ldr	w0, [x20]
    9c58:	51000400 	sub	w0, w0, #0x1
    9c5c:	b9000280 	str	w0, [x20]
    9c60:	17ffffe0 	b	9be0 <__mpa_div_q_r+0x400>
/home/ursus/devel/optee/optee_os/lib/libmpa/mpa_div.c:184
    9c64:	52800000 	mov	w0, #0x0                   	// #0
    9c68:	6b1c007f 	cmp	w3, w28
    9c6c:	5400006b 	b.lt	9c78 <__mpa_div_q_r+0x498>
    9c70:	8b35c8a5 	add	x5, x5, w21, sxtw #2
    9c74:	b94008a0 	ldr	w0, [x5,#8]
    9c78:	d2800003 	mov	x3, #0x0                   	// #0
    9c7c:	97fffe73 	bl	9648 <__mpa_div_dword>
/home/ursus/devel/optee/optee_os/lib/libmpa/mpa_div.c:183
    9c80:	b940c7a1 	ldr	w1, [x29,#196]
    9c84:	8b21ca61 	add	x1, x19, w1, sxtw #2
    9c88:	b9000820 	str	w0, [x1,#8]
    9c8c:	17ffffcf 	b	9bc8 <__mpa_div_q_r+0x3e8>
/home/ursus/devel/optee/optee_os/lib/libmpa/mpa_div.c:203
    9c90:	f9407ba3 	ldr	x3, [x29,#240]
/home/ursus/devel/optee/optee_os/lib/libmpa/mpa_div.c:202
    9c94:	b9400280 	ldr	w0, [x20]
/home/ursus/devel/optee/optee_os/lib/libmpa/mpa_div.c:203
    9c98:	b9400461 	ldr	w1, [x3,#4]
    9c9c:	7100003f 	cmp	w1, #0x0
    9ca0:	5a81a422 	cneg	w2, w1, lt
/home/ursus/devel/optee/optee_os/lib/libmpa/mpa_div.c:202
    9ca4:	52800001 	mov	w1, #0x0                   	// #0
    9ca8:	6b0202df 	cmp	w22, w2
    9cac:	5400008c 	b.gt	9cbc <__mpa_div_q_r+0x4dc>
    9cb0:	f9403fa1 	ldr	x1, [x29,#120]
    9cb4:	8b010863 	add	x3, x3, x1, lsl #2
    9cb8:	b9400861 	ldr	w1, [x3,#8]
    9cbc:	f94037a2 	ldr	x2, [x29,#104]
    9cc0:	f9404fa3 	ldr	x3, [x29,#152]
    9cc4:	94000320 	bl	a944 <__mpa_mul_add_word>
/home/ursus/devel/optee/optee_os/lib/libmpa/mpa_div.c:206
    9cc8:	295b07a0 	ldp	w0, w1, [x29,#216]
    9ccc:	a9490ba3 	ldp	x3, x2, [x29,#144]
    9cd0:	94000534 	bl	b1a0 <__mpa_full_adder>
/home/ursus/devel/optee/optee_os/lib/libmpa/mpa_div.c:207
    9cd4:	b900dbbf 	str	wzr, [x29,#216]
/home/ursus/devel/optee/optee_os/lib/libmpa/mpa_div.c:208
    9cd8:	f9404ba2 	ldr	x2, [x29,#144]
    9cdc:	b940d7a0 	ldr	w0, [x29,#212]
    9ce0:	b940e7a1 	ldr	w1, [x29,#228]
    9ce4:	f94053a3 	ldr	x3, [x29,#160]
    9ce8:	9400052e 	bl	b1a0 <__mpa_full_adder>
/home/ursus/devel/optee/optee_os/lib/libmpa/mpa_div.c:209
    9cec:	b940dba2 	ldr	w2, [x29,#216]
    9cf0:	35fffb22 	cbnz	w2, 9c54 <__mpa_div_q_r+0x474>
    9cf4:	f9407fa1 	ldr	x1, [x29,#248]
    9cf8:	52800003 	mov	w3, #0x0                   	// #0
    9cfc:	b9400420 	ldr	w0, [x1,#4]
    9d00:	7100001f 	cmp	w0, #0x0
    9d04:	5a80a400 	cneg	w0, w0, lt
    9d08:	6b00039f 	cmp	w28, w0
    9d0c:	5400006a 	b.ge	9d18 <__mpa_div_q_r+0x538>
    9d10:	8b3cc823 	add	x3, x1, w28, sxtw #2
    9d14:	b9400863 	ldr	w3, [x3,#8]
    9d18:	b940e7a5 	ldr	w5, [x29,#228]
    9d1c:	6b0300bf 	cmp	w5, w3
    9d20:	54fff9a8 	b.hi	9c54 <__mpa_div_q_r+0x474>
/home/ursus/devel/optee/optee_os/lib/libmpa/mpa_div.c:211
    9d24:	54000243 	b.cc	9d6c <__mpa_div_q_r+0x58c>
/home/ursus/devel/optee/optee_os/lib/libmpa/mpa_div.c:213
    9d28:	52800003 	mov	w3, #0x0                   	// #0
    9d2c:	6b00039f 	cmp	w28, w0
    9d30:	5400006c 	b.gt	9d3c <__mpa_div_q_r+0x55c>
    9d34:	8b35c823 	add	x3, x1, w21, sxtw #2
    9d38:	b9400863 	ldr	w3, [x3,#8]
    9d3c:	b940dfa5 	ldr	w5, [x29,#220]
    9d40:	6b0300bf 	cmp	w5, w3
    9d44:	54fff888 	b.hi	9c54 <__mpa_div_q_r+0x474>
/home/ursus/devel/optee/optee_os/lib/libmpa/mpa_div.c:215
    9d48:	54000123 	b.cc	9d6c <__mpa_div_q_r+0x58c>
/home/ursus/devel/optee/optee_os/lib/libmpa/mpa_div.c:217
    9d4c:	6b15001f 	cmp	w0, w21
    9d50:	5400008b 	b.lt	9d60 <__mpa_div_q_r+0x580>
    9d54:	f94043a0 	ldr	x0, [x29,#128]
    9d58:	8b000021 	add	x1, x1, x0
    9d5c:	b9400822 	ldr	w2, [x1,#8]
    9d60:	b940e3a0 	ldr	w0, [x29,#224]
    9d64:	6b02001f 	cmp	w0, w2
    9d68:	54fff768 	b.hi	9c54 <__mpa_div_q_r+0x474>
/home/ursus/devel/optee/optee_os/lib/libmpa/mpa_div.c:225
    9d6c:	f9407ba0 	ldr	x0, [x29,#240]
    9d70:	52800021 	mov	w1, #0x1                   	// #1
    9d74:	9400043d 	bl	ae68 <__mpa_shift_words_right>
    9d78:	b940c7a0 	ldr	w0, [x29,#196]
/home/ursus/devel/optee/optee_os/lib/libmpa/mpa_div.c:227
    9d7c:	aa1703e3 	mov	x3, x23
    9d80:	8b20ca7c 	add	x28, x19, w0, sxtw #2
    9d84:	a94e87a0 	ldp	x0, x1, [x29,#232]
    9d88:	b9400b82 	ldr	w2, [x28,#8]
    9d8c:	94000398 	bl	abec <mpa_mul_word>
/home/ursus/devel/optee/optee_os/lib/libmpa/mpa_div.c:228
    9d90:	f9407fa1 	ldr	x1, [x29,#248]
    9d94:	aa1703e3 	mov	x3, x23
    9d98:	f94077a2 	ldr	x2, [x29,#232]
    9d9c:	aa0103e0 	mov	x0, x1
    9da0:	9400062e 	bl	b658 <mpa_sub>
/home/ursus/devel/optee/optee_os/lib/libmpa/mpa_div.c:229
    9da4:	f9407fa1 	ldr	x1, [x29,#248]
    9da8:	b9400420 	ldr	w0, [x1,#4]
    9dac:	36f80100 	tbz	w0, #31, 9dcc <__mpa_div_q_r+0x5ec>
/home/ursus/devel/optee/optee_os/lib/libmpa/mpa_div.c:230
    9db0:	f9407ba2 	ldr	x2, [x29,#240]
    9db4:	aa0103e0 	mov	x0, x1
    9db8:	aa1703e3 	mov	x3, x23
    9dbc:	940005c2 	bl	b4c4 <mpa_add>
/home/ursus/devel/optee/optee_os/lib/libmpa/mpa_div.c:231
    9dc0:	b9400b80 	ldr	w0, [x28,#8]
    9dc4:	51000400 	sub	w0, w0, #0x1
    9dc8:	b9000b80 	str	w0, [x28,#8]
    9dcc:	d100077b 	sub	x27, x27, #0x1
    9dd0:	d10006b5 	sub	x21, x21, #0x1
    9dd4:	d1001294 	sub	x20, x20, #0x4
    9dd8:	510006d6 	sub	w22, w22, #0x1
    9ddc:	17ffff1c 	b	9a4c <__mpa_div_q_r+0x26c>
    9de0:	d1000400 	sub	x0, x0, #0x1
/home/ursus/devel/optee/optee_os/lib/libmpa/mpa_div.c:239
    9de4:	8b000a62 	add	x2, x19, x0, lsl #2
    9de8:	b9400c42 	ldr	w2, [x2,#12]
    9dec:	34ffe3a2 	cbz	w2, 9a60 <__mpa_div_q_r+0x280>
    9df0:	17ffff1e 	b	9a68 <__mpa_div_q_r+0x288>
__mpa_div_q_r():
/home/ursus/devel/optee/optee_os/lib/libmpa/mpa_div.c:352
    9df4:	b9400a83 	ldr	w3, [x20,#8]
    9df8:	aa1a03e2 	mov	x2, x26
    9dfc:	aa1803e1 	mov	x1, x24
    9e00:	aa1303e0 	mov	x0, x19
    9e04:	97fffe25 	bl	9698 <__mpa_div_q_r_internal_word>
    9e08:	17ffff2a 	b	9ab0 <__mpa_div_q_r+0x2d0>
/home/ursus/devel/optee/optee_os/lib/libmpa/mpa_div.c:354
    9e0c:	aa1303e0 	mov	x0, x19
    9e10:	52800001 	mov	w1, #0x0                   	// #0
    9e14:	97fffe02 	bl	961c <mpa_set_word>
/home/ursus/devel/optee/optee_os/lib/libmpa/mpa_div.c:355
    9e18:	aa1a03e1 	mov	x1, x26
    9e1c:	aa1803e0 	mov	x0, x24
    9e20:	97fffba0 	bl	8ca0 <mpa_copy>
/home/ursus/devel/optee/optee_os/lib/libmpa/mpa_div.c:356
    9e24:	17fffe7d 	b	9818 <__mpa_div_q_r+0x38>
/home/ursus/devel/optee/optee_os/lib/libmpa/mpa_div.c:341
    9e28:	12800001 	mov	w1, #0xffffffff            	// #-1
    9e2c:	6b01001f 	cmp	w0, w1
    9e30:	5a81d420 	cneg	w0, w1, gt
    9e34:	b900c3a0 	str	w0, [x29,#192]
/home/ursus/devel/optee/optee_os/lib/libmpa/mpa_div.c:342
    9e38:	aa1403e1 	mov	x1, x20
    9e3c:	aa1a03e0 	mov	x0, x26
    9e40:	94000715 	bl	ba94 <__mpa_abs_cmp>
/home/ursus/devel/optee/optee_os/lib/libmpa/mpa_div.c:343
    9e44:	7100001f 	cmp	w0, #0x0
    9e48:	54ffd0c1 	b.ne	9860 <__mpa_div_q_r+0x80>
/home/ursus/devel/optee/optee_os/lib/libmpa/mpa_div.c:344
    9e4c:	52800021 	mov	w1, #0x1                   	// #1
    9e50:	aa1303e0 	mov	x0, x19
    9e54:	17fffe6d 	b	9808 <__mpa_div_q_r+0x28>
__mpa_div_q_r_internal():
/home/ursus/devel/optee/optee_os/lib/libmpa/mpa_div.c:171
    9e58:	6b00009f 	cmp	w4, w0
    9e5c:	54ffdced 	b.le	99f8 <__mpa_div_q_r+0x218>
    9e60:	52800003 	mov	w3, #0x0                   	// #0
    9e64:	17fffeda 	b	99cc <__mpa_div_q_r+0x1ec>

0000000000009e68 <mpa_div>:
mpa_div():
/home/ursus/devel/optee/optee_os/lib/libmpa/mpa_div.c:379
    9e68:	a9ba7bfd 	stp	x29, x30, [sp,#-96]!
/home/ursus/devel/optee/optee_os/lib/libmpa/mpa_div.c:386
    9e6c:	eb02001f 	cmp	x0, x2
    9e70:	fa431004 	ccmp	x0, x3, #0x4, ne
/home/ursus/devel/optee/optee_os/lib/libmpa/mpa_div.c:379
    9e74:	910003fd 	mov	x29, sp
    9e78:	a90153f3 	stp	x19, x20, [sp,#16]
/home/ursus/devel/optee/optee_os/lib/libmpa/mpa_div.c:386
    9e7c:	fa401804 	ccmp	x0, #0x0, #0x4, ne
/home/ursus/devel/optee/optee_os/lib/libmpa/mpa_div.c:379
    9e80:	a9025bf5 	stp	x21, x22, [sp,#32]
    9e84:	aa0003f4 	mov	x20, x0
    9e88:	a90363f7 	stp	x23, x24, [sp,#48]
    9e8c:	aa0103f3 	mov	x19, x1
    9e90:	f90023f9 	str	x25, [sp,#64]
    9e94:	aa0203f6 	mov	x22, x2
    9e98:	aa0303f7 	mov	x23, x3
    9e9c:	aa0403f5 	mov	x21, x4
/home/ursus/devel/optee/optee_os/lib/libmpa/mpa_div.c:386
    9ea0:	54000501 	b.ne	9f40 <mpa_div+0xd8>
/home/ursus/devel/optee/optee_os/lib/libmpa/mpa_div.c:388
    9ea4:	52800039 	mov	w25, #0x1                   	// #1
/home/ursus/devel/optee/optee_os/lib/libmpa/mpa_div.c:387
    9ea8:	aa0403e1 	mov	x1, x4
    9eac:	910143a0 	add	x0, x29, #0x50
    9eb0:	9400028e 	bl	a8e8 <mpa_alloc_static_temp_var>
/home/ursus/devel/optee/optee_os/lib/libmpa/mpa_div.c:395
    9eb4:	f100027f 	cmp	x19, #0x0
    9eb8:	fa5312e4 	ccmp	x23, x19, #0x4, ne
    9ebc:	fa5312c4 	ccmp	x22, x19, #0x4, ne
    9ec0:	54000461 	b.ne	9f4c <mpa_div+0xe4>
/home/ursus/devel/optee/optee_os/lib/libmpa/mpa_div.c:397
    9ec4:	52800038 	mov	w24, #0x1                   	// #1
/home/ursus/devel/optee/optee_os/lib/libmpa/mpa_div.c:396
    9ec8:	aa1503e1 	mov	x1, x21
    9ecc:	910163a0 	add	x0, x29, #0x58
    9ed0:	94000286 	bl	a8e8 <mpa_alloc_static_temp_var>
/home/ursus/devel/optee/optee_os/lib/libmpa/mpa_div.c:403
    9ed4:	a94507a0 	ldp	x0, x1, [x29,#80]
    9ed8:	aa1503e4 	mov	x4, x21
    9edc:	aa1703e3 	mov	x3, x23
    9ee0:	aa1603e2 	mov	x2, x22
    9ee4:	97fffe3f 	bl	97e0 <__mpa_div_q_r>
/home/ursus/devel/optee/optee_os/lib/libmpa/mpa_div.c:405
    9ee8:	b4000094 	cbz	x20, 9ef8 <mpa_div+0x90>
/home/ursus/devel/optee/optee_os/lib/libmpa/mpa_div.c:406
    9eec:	f9402ba1 	ldr	x1, [x29,#80]
    9ef0:	aa1403e0 	mov	x0, x20
    9ef4:	97fffb6b 	bl	8ca0 <mpa_copy>
/home/ursus/devel/optee/optee_os/lib/libmpa/mpa_div.c:407
    9ef8:	34000099 	cbz	w25, 9f08 <mpa_div+0xa0>
/home/ursus/devel/optee/optee_os/lib/libmpa/mpa_div.c:408
    9efc:	aa1503e1 	mov	x1, x21
    9f00:	910143a0 	add	x0, x29, #0x50
    9f04:	9400027d 	bl	a8f8 <mpa_free_static_temp_var>
/home/ursus/devel/optee/optee_os/lib/libmpa/mpa_div.c:409
    9f08:	b4000093 	cbz	x19, 9f18 <mpa_div+0xb0>
/home/ursus/devel/optee/optee_os/lib/libmpa/mpa_div.c:410
    9f0c:	f9402fa1 	ldr	x1, [x29,#88]
    9f10:	aa1303e0 	mov	x0, x19
    9f14:	97fffb63 	bl	8ca0 <mpa_copy>
/home/ursus/devel/optee/optee_os/lib/libmpa/mpa_div.c:411
    9f18:	34000098 	cbz	w24, 9f28 <mpa_div+0xc0>
/home/ursus/devel/optee/optee_os/lib/libmpa/mpa_div.c:412
    9f1c:	aa1503e1 	mov	x1, x21
    9f20:	910163a0 	add	x0, x29, #0x58
    9f24:	94000275 	bl	a8f8 <mpa_free_static_temp_var>
/home/ursus/devel/optee/optee_os/lib/libmpa/mpa_div.c:413
    9f28:	a94153f3 	ldp	x19, x20, [sp,#16]
    9f2c:	a9425bf5 	ldp	x21, x22, [sp,#32]
    9f30:	a94363f7 	ldp	x23, x24, [sp,#48]
    9f34:	f94023f9 	ldr	x25, [sp,#64]
    9f38:	a8c67bfd 	ldp	x29, x30, [sp],#96
    9f3c:	d65f03c0 	ret
/home/ursus/devel/optee/optee_os/lib/libmpa/mpa_div.c:391
    9f40:	52800019 	mov	w25, #0x0                   	// #0
/home/ursus/devel/optee/optee_os/lib/libmpa/mpa_div.c:390
    9f44:	f9002ba0 	str	x0, [x29,#80]
    9f48:	17ffffdb 	b	9eb4 <mpa_div+0x4c>
/home/ursus/devel/optee/optee_os/lib/libmpa/mpa_div.c:400
    9f4c:	52800018 	mov	w24, #0x0                   	// #0
/home/ursus/devel/optee/optee_os/lib/libmpa/mpa_div.c:399
    9f50:	f9002fb3 	str	x19, [x29,#88]
    9f54:	17ffffe0 	b	9ed4 <mpa_div+0x6c>

0000000000009f58 <__mpa_divby2>:
__mpa_divby2():
/home/ursus/devel/optee/optee_os/lib/libmpa/mpa_gcd.c:47
    9f58:	b9400403 	ldr	w3, [x0,#4]
    9f5c:	7100007f 	cmp	w3, #0x0
    9f60:	540002a0 	b.eq	9fb4 <__mpa_divby2+0x5c>
/home/ursus/devel/optee/optee_os/lib/libmpa/mpa_gcd.c:50
    9f64:	5a83a466 	cneg	w6, w3, lt
/home/ursus/devel/optee/optee_os/lib/libmpa/mpa_gcd.c:52
    9f68:	b9400804 	ldr	w4, [x0,#8]
/home/ursus/devel/optee/optee_os/lib/libmpa/mpa_gcd.c:50
    9f6c:	510004c1 	sub	w1, w6, #0x1
/home/ursus/devel/optee/optee_os/lib/libmpa/mpa_gcd.c:53
    9f70:	52800025 	mov	w5, #0x1                   	// #1
/home/ursus/devel/optee/optee_os/lib/libmpa/mpa_gcd.c:50
    9f74:	8b21c801 	add	x1, x0, w1, sxtw #2
/home/ursus/devel/optee/optee_os/lib/libmpa/mpa_gcd.c:52
    9f78:	53017c84 	lsr	w4, w4, #1
/home/ursus/devel/optee/optee_os/lib/libmpa/mpa_gcd.c:50
    9f7c:	b9400821 	ldr	w1, [x1,#8]
    9f80:	53017c21 	lsr	w1, w1, #1
    9f84:	7100003f 	cmp	w1, #0x0
/home/ursus/devel/optee/optee_os/lib/libmpa/mpa_gcd.c:52
    9f88:	aa0003e1 	mov	x1, x0
/home/ursus/devel/optee/optee_os/lib/libmpa/mpa_gcd.c:50
    9f8c:	1a9f17e2 	cset	w2, eq
/home/ursus/devel/optee/optee_os/lib/libmpa/mpa_gcd.c:52
    9f90:	b8008c24 	str	w4, [x1,#8]!
    9f94:	91001021 	add	x1, x1, #0x4
/home/ursus/devel/optee/optee_os/lib/libmpa/mpa_gcd.c:53 (discriminator 1)
    9f98:	6b0600bf 	cmp	w5, w6
    9f9c:	540000e3 	b.cc	9fb8 <__mpa_divby2+0x60>
/home/ursus/devel/optee/optee_os/lib/libmpa/mpa_gcd.c:60
    9fa0:	4b020061 	sub	w1, w3, w2
    9fa4:	7100007f 	cmp	w3, #0x0
    9fa8:	0b020062 	add	w2, w3, w2
    9fac:	1a81b042 	csel	w2, w2, w1, lt
    9fb0:	b9000402 	str	w2, [x0,#4]
    9fb4:	d65f03c0 	ret
/home/ursus/devel/optee/optee_os/lib/libmpa/mpa_gcd.c:54 (discriminator 3)
    9fb8:	b9400024 	ldr	w4, [x1]
/home/ursus/devel/optee/optee_os/lib/libmpa/mpa_gcd.c:53 (discriminator 3)
    9fbc:	110004a5 	add	w5, w5, #0x1
/home/ursus/devel/optee/optee_os/lib/libmpa/mpa_gcd.c:55 (discriminator 3)
    9fc0:	53017c87 	lsr	w7, w4, #1
    9fc4:	b9000027 	str	w7, [x1]
/home/ursus/devel/optee/optee_os/lib/libmpa/mpa_gcd.c:56 (discriminator 3)
    9fc8:	b85fc027 	ldur	w7, [x1,#-4]
    9fcc:	4a047ce4 	eor	w4, w7, w4, lsl #31
    9fd0:	b81fc024 	stur	w4, [x1,#-4]
    9fd4:	17fffff0 	b	9f94 <__mpa_divby2+0x3c>

0000000000009fd8 <__mpa_gcd.part.0>:
__mpa_gcd():
/home/ursus/devel/optee/optee_os/lib/libmpa/mpa_gcd.c:212
    9fd8:	a9ba7bfd 	stp	x29, x30, [sp,#-96]!
    9fdc:	910003fd 	mov	x29, sp
    9fe0:	a9025bf5 	stp	x21, x22, [sp,#32]
/home/ursus/devel/optee/optee_os/lib/libmpa/mpa_gcd.c:226
    9fe4:	910123b6 	add	x22, x29, #0x48
/home/ursus/devel/optee/optee_os/lib/libmpa/mpa_gcd.c:212
    9fe8:	a90153f3 	stp	x19, x20, [sp,#16]
    9fec:	aa0103f5 	mov	x21, x1
    9ff0:	aa0203f4 	mov	x20, x2
    9ff4:	aa0303f3 	mov	x19, x3
/home/ursus/devel/optee/optee_os/lib/libmpa/mpa_gcd.c:226
    9ff8:	aa0303e1 	mov	x1, x3
/home/ursus/devel/optee/optee_os/lib/libmpa/mpa_gcd.c:212
    9ffc:	a90363f7 	stp	x23, x24, [sp,#48]
    a000:	aa0003f8 	mov	x24, x0
/home/ursus/devel/optee/optee_os/lib/libmpa/mpa_gcd.c:226
    a004:	aa1603e0 	mov	x0, x22
    a008:	94000238 	bl	a8e8 <mpa_alloc_static_temp_var>
/home/ursus/devel/optee/optee_os/lib/libmpa/mpa_gcd.c:227
    a00c:	f94027a0 	ldr	x0, [x29,#72]
    a010:	aa1503e1 	mov	x1, x21
/home/ursus/devel/optee/optee_os/lib/libmpa/mpa_gcd.c:228
    a014:	910143b5 	add	x21, x29, #0x50
/home/ursus/devel/optee/optee_os/lib/libmpa/mpa_gcd.c:227
    a018:	97fffb22 	bl	8ca0 <mpa_copy>
/home/ursus/devel/optee/optee_os/lib/libmpa/mpa_gcd.c:228
    a01c:	aa1303e1 	mov	x1, x19
    a020:	aa1503e0 	mov	x0, x21
    a024:	94000231 	bl	a8e8 <mpa_alloc_static_temp_var>
/home/ursus/devel/optee/optee_os/lib/libmpa/mpa_gcd.c:229
    a028:	f9402ba0 	ldr	x0, [x29,#80]
    a02c:	aa1403e1 	mov	x1, x20
/home/ursus/devel/optee/optee_os/lib/libmpa/mpa_gcd.c:231
    a030:	52800014 	mov	w20, #0x0                   	// #0
/home/ursus/devel/optee/optee_os/lib/libmpa/mpa_gcd.c:229
    a034:	97fffb1b 	bl	8ca0 <mpa_copy>
/home/ursus/devel/optee/optee_os/lib/libmpa/mpa_gcd.c:232
    a038:	f94027a0 	ldr	x0, [x29,#72]
    a03c:	97fffb63 	bl	8dc8 <mpa_parity>
    a040:	34000340 	cbz	w0, a0a8 <__mpa_gcd.part.0+0xd0>
/home/ursus/devel/optee/optee_os/lib/libmpa/mpa_gcd.c:238
    a044:	910163b7 	add	x23, x29, #0x58
    a048:	aa1303e1 	mov	x1, x19
    a04c:	aa1703e0 	mov	x0, x23
    a050:	94000226 	bl	a8e8 <mpa_alloc_static_temp_var>
/home/ursus/devel/optee/optee_os/lib/libmpa/mpa_gcd.c:239
    a054:	f94027a0 	ldr	x0, [x29,#72]
    a058:	b9400400 	ldr	w0, [x0,#4]
    a05c:	350003c0 	cbnz	w0, a0d4 <__mpa_gcd.part.0+0xfc>
/home/ursus/devel/optee/optee_os/lib/libmpa/mpa_gcd.c:256
    a060:	f9402ba1 	ldr	x1, [x29,#80]
    a064:	2a1403e2 	mov	w2, w20
    a068:	aa1803e0 	mov	x0, x24
    a06c:	94000398 	bl	aecc <mpa_shift_left>
/home/ursus/devel/optee/optee_os/lib/libmpa/mpa_gcd.c:257
    a070:	aa1303e1 	mov	x1, x19
    a074:	aa1703e0 	mov	x0, x23
    a078:	94000220 	bl	a8f8 <mpa_free_static_temp_var>
/home/ursus/devel/optee/optee_os/lib/libmpa/mpa_gcd.c:258
    a07c:	aa1303e1 	mov	x1, x19
    a080:	aa1603e0 	mov	x0, x22
    a084:	9400021d 	bl	a8f8 <mpa_free_static_temp_var>
/home/ursus/devel/optee/optee_os/lib/libmpa/mpa_gcd.c:259
    a088:	aa1303e1 	mov	x1, x19
    a08c:	aa1503e0 	mov	x0, x21
    a090:	9400021a 	bl	a8f8 <mpa_free_static_temp_var>
/home/ursus/devel/optee/optee_os/lib/libmpa/mpa_gcd.c:260
    a094:	a94153f3 	ldp	x19, x20, [sp,#16]
    a098:	a9425bf5 	ldp	x21, x22, [sp,#32]
    a09c:	a94363f7 	ldp	x23, x24, [sp,#48]
    a0a0:	a8c67bfd 	ldp	x29, x30, [sp],#96
    a0a4:	d65f03c0 	ret
/home/ursus/devel/optee/optee_os/lib/libmpa/mpa_gcd.c:232
    a0a8:	f9402ba0 	ldr	x0, [x29,#80]
    a0ac:	97fffb47 	bl	8dc8 <mpa_parity>
    a0b0:	35fffca0 	cbnz	w0, a044 <__mpa_gcd.part.0+0x6c>
/home/ursus/devel/optee/optee_os/lib/libmpa/mpa_gcd.c:234
    a0b4:	f94027a0 	ldr	x0, [x29,#72]
/home/ursus/devel/optee/optee_os/lib/libmpa/mpa_gcd.c:233
    a0b8:	11000694 	add	w20, w20, #0x1
/home/ursus/devel/optee/optee_os/lib/libmpa/mpa_gcd.c:234
    a0bc:	97ffffa7 	bl	9f58 <__mpa_divby2>
/home/ursus/devel/optee/optee_os/lib/libmpa/mpa_gcd.c:235
    a0c0:	f9402ba0 	ldr	x0, [x29,#80]
    a0c4:	97ffffa5 	bl	9f58 <__mpa_divby2>
    a0c8:	17ffffdc 	b	a038 <__mpa_gcd.part.0+0x60>
/home/ursus/devel/optee/optee_os/lib/libmpa/mpa_gcd.c:241
    a0cc:	f94027a0 	ldr	x0, [x29,#72]
    a0d0:	97ffffa2 	bl	9f58 <__mpa_divby2>
/home/ursus/devel/optee/optee_os/lib/libmpa/mpa_gcd.c:240
    a0d4:	f94027a0 	ldr	x0, [x29,#72]
    a0d8:	97fffb3c 	bl	8dc8 <mpa_parity>
    a0dc:	34ffff80 	cbz	w0, a0cc <__mpa_gcd.part.0+0xf4>
/home/ursus/devel/optee/optee_os/lib/libmpa/mpa_gcd.c:243
    a0e0:	f9402ba0 	ldr	x0, [x29,#80]
    a0e4:	97fffb39 	bl	8dc8 <mpa_parity>
    a0e8:	34000240 	cbz	w0, a130 <__mpa_gcd.part.0+0x158>
/home/ursus/devel/optee/optee_os/lib/libmpa/mpa_gcd.c:246
    a0ec:	a9448ba1 	ldp	x1, x2, [x29,#72]
    a0f0:	aa1303e3 	mov	x3, x19
    a0f4:	f9402fa0 	ldr	x0, [x29,#88]
    a0f8:	94000558 	bl	b658 <mpa_sub>
/home/ursus/devel/optee/optee_os/lib/libmpa/mpa_gcd.c:248
    a0fc:	f9402fa0 	ldr	x0, [x29,#88]
    a100:	b9400401 	ldr	w1, [x0,#4]
    a104:	36f80061 	tbz	w1, #31, a110 <__mpa_gcd.part.0+0x138>
    a108:	4b0103e1 	neg	w1, w1
    a10c:	b9000401 	str	w1, [x0,#4]
/home/ursus/devel/optee/optee_os/lib/libmpa/mpa_gcd.c:249
    a110:	97ffff92 	bl	9f58 <__mpa_divby2>
/home/ursus/devel/optee/optee_os/lib/libmpa/mpa_gcd.c:250
    a114:	a94487a0 	ldp	x0, x1, [x29,#72]
    a118:	94000698 	bl	bb78 <mpa_cmp>
/home/ursus/devel/optee/optee_os/lib/libmpa/mpa_gcd.c:251
    a11c:	f9402fa1 	ldr	x1, [x29,#88]
/home/ursus/devel/optee/optee_os/lib/libmpa/mpa_gcd.c:250
    a120:	37f800e0 	tbnz	w0, #31, a13c <__mpa_gcd.part.0+0x164>
/home/ursus/devel/optee/optee_os/lib/libmpa/mpa_gcd.c:251
    a124:	f94027a0 	ldr	x0, [x29,#72]
/home/ursus/devel/optee/optee_os/lib/libmpa/mpa_gcd.c:253
    a128:	97fffade 	bl	8ca0 <mpa_copy>
    a12c:	17ffffca 	b	a054 <__mpa_gcd.part.0+0x7c>
/home/ursus/devel/optee/optee_os/lib/libmpa/mpa_gcd.c:244
    a130:	f9402ba0 	ldr	x0, [x29,#80]
    a134:	97ffff89 	bl	9f58 <__mpa_divby2>
    a138:	17ffffea 	b	a0e0 <__mpa_gcd.part.0+0x108>
/home/ursus/devel/optee/optee_os/lib/libmpa/mpa_gcd.c:253
    a13c:	f9402ba0 	ldr	x0, [x29,#80]
    a140:	17fffffa 	b	a128 <__mpa_gcd.part.0+0x150>

000000000000a144 <__mpa_egcd>:
__mpa_egcd():
/home/ursus/devel/optee/optee_os/lib/libmpa/mpa_gcd.c:116
    a144:	a9b57bfd 	stp	x29, x30, [sp,#-176]!
    a148:	910003fd 	mov	x29, sp
    a14c:	a90153f3 	stp	x19, x20, [sp,#16]
    a150:	aa0003f4 	mov	x20, x0
/home/ursus/devel/optee/optee_os/lib/libmpa/mpa_gcd.c:127
    a154:	b9400480 	ldr	w0, [x4,#4]
/home/ursus/devel/optee/optee_os/lib/libmpa/mpa_gcd.c:116
    a158:	a9025bf5 	stp	x21, x22, [sp,#32]
    a15c:	aa0103f6 	mov	x22, x1
    a160:	a9046bf9 	stp	x25, x26, [sp,#64]
    a164:	aa0203f5 	mov	x21, x2
    a168:	a90363f7 	stp	x23, x24, [sp,#48]
    a16c:	aa0303f9 	mov	x25, x3
    a170:	a90573fb 	stp	x27, x28, [sp,#80]
/home/ursus/devel/optee/optee_os/lib/libmpa/mpa_gcd.c:127
    a174:	35000260 	cbnz	w0, a1c0 <__mpa_egcd+0x7c>
/home/ursus/devel/optee/optee_os/lib/libmpa/mpa_gcd.c:128
    a178:	b4000081 	cbz	x1, a188 <__mpa_egcd+0x44>
/home/ursus/devel/optee/optee_os/lib/libmpa/mpa_gcd.c:129
    a17c:	52800021 	mov	w1, #0x1                   	// #1
    a180:	aa1603e0 	mov	x0, x22
    a184:	97fffd26 	bl	961c <mpa_set_word>
/home/ursus/devel/optee/optee_os/lib/libmpa/mpa_gcd.c:130
    a188:	b4000095 	cbz	x21, a198 <__mpa_egcd+0x54>
/home/ursus/devel/optee/optee_os/lib/libmpa/mpa_gcd.c:131
    a18c:	52800001 	mov	w1, #0x0                   	// #0
    a190:	aa1503e0 	mov	x0, x21
    a194:	97fffd22 	bl	961c <mpa_set_word>
/home/ursus/devel/optee/optee_os/lib/libmpa/mpa_gcd.c:132
    a198:	aa1903e1 	mov	x1, x25
    a19c:	aa1403e0 	mov	x0, x20
    a1a0:	97fffac0 	bl	8ca0 <mpa_copy>
/home/ursus/devel/optee/optee_os/lib/libmpa/mpa_gcd.c:205
    a1a4:	a94153f3 	ldp	x19, x20, [sp,#16]
    a1a8:	a9425bf5 	ldp	x21, x22, [sp,#32]
    a1ac:	a94363f7 	ldp	x23, x24, [sp,#48]
    a1b0:	a9446bf9 	ldp	x25, x26, [sp,#64]
    a1b4:	a94573fb 	ldp	x27, x28, [sp,#80]
    a1b8:	a8cb7bfd 	ldp	x29, x30, [sp],#176
    a1bc:	d65f03c0 	ret
/home/ursus/devel/optee/optee_os/lib/libmpa/mpa_gcd.c:135
    a1c0:	910263b8 	add	x24, x29, #0x98
    a1c4:	aa0403f7 	mov	x23, x4
    a1c8:	aa0503f3 	mov	x19, x5
    a1cc:	aa0503e1 	mov	x1, x5
    a1d0:	aa1803e0 	mov	x0, x24
    a1d4:	940001c5 	bl	a8e8 <mpa_alloc_static_temp_var>
/home/ursus/devel/optee/optee_os/lib/libmpa/mpa_gcd.c:136
    a1d8:	f9404fa0 	ldr	x0, [x29,#152]
    a1dc:	aa1903e1 	mov	x1, x25
    a1e0:	97fffab0 	bl	8ca0 <mpa_copy>
/home/ursus/devel/optee/optee_os/lib/libmpa/mpa_gcd.c:137
    a1e4:	910283a0 	add	x0, x29, #0xa0
    a1e8:	aa1303e1 	mov	x1, x19
    a1ec:	f90037a0 	str	x0, [x29,#104]
    a1f0:	940001be 	bl	a8e8 <mpa_alloc_static_temp_var>
/home/ursus/devel/optee/optee_os/lib/libmpa/mpa_gcd.c:138
    a1f4:	f94053a0 	ldr	x0, [x29,#160]
    a1f8:	aa1703e1 	mov	x1, x23
/home/ursus/devel/optee/optee_os/lib/libmpa/mpa_gcd.c:140
    a1fc:	52800017 	mov	w23, #0x0                   	// #0
/home/ursus/devel/optee/optee_os/lib/libmpa/mpa_gcd.c:138
    a200:	97fffaa8 	bl	8ca0 <mpa_copy>
/home/ursus/devel/optee/optee_os/lib/libmpa/mpa_gcd.c:141
    a204:	f9404fa0 	ldr	x0, [x29,#152]
    a208:	97fffaf0 	bl	8dc8 <mpa_parity>
    a20c:	34000980 	cbz	w0, a33c <__mpa_egcd+0x1f8>
/home/ursus/devel/optee/optee_os/lib/libmpa/mpa_gcd.c:147
    a210:	9102a3a0 	add	x0, x29, #0xa8
    a214:	aa1303e1 	mov	x1, x19
    a218:	f90033a0 	str	x0, [x29,#96]
    a21c:	940001b3 	bl	a8e8 <mpa_alloc_static_temp_var>
/home/ursus/devel/optee/optee_os/lib/libmpa/mpa_gcd.c:148
    a220:	f9404fa1 	ldr	x1, [x29,#152]
/home/ursus/devel/optee/optee_os/lib/libmpa/mpa_gcd.c:150
    a224:	9101e3bc 	add	x28, x29, #0x78
/home/ursus/devel/optee/optee_os/lib/libmpa/mpa_gcd.c:148
    a228:	f94057a0 	ldr	x0, [x29,#168]
/home/ursus/devel/optee/optee_os/lib/libmpa/mpa_gcd.c:152
    a22c:	910203bb 	add	x27, x29, #0x80
/home/ursus/devel/optee/optee_os/lib/libmpa/mpa_gcd.c:154
    a230:	910223ba 	add	x26, x29, #0x88
/home/ursus/devel/optee/optee_os/lib/libmpa/mpa_gcd.c:156
    a234:	910243b9 	add	x25, x29, #0x90
/home/ursus/devel/optee/optee_os/lib/libmpa/mpa_gcd.c:148
    a238:	97fffa9a 	bl	8ca0 <mpa_copy>
/home/ursus/devel/optee/optee_os/lib/libmpa/mpa_gcd.c:149
    a23c:	f94053a1 	ldr	x1, [x29,#160]
    a240:	aa1403e0 	mov	x0, x20
    a244:	97fffa97 	bl	8ca0 <mpa_copy>
/home/ursus/devel/optee/optee_os/lib/libmpa/mpa_gcd.c:150
    a248:	aa1303e1 	mov	x1, x19
    a24c:	aa1c03e0 	mov	x0, x28
    a250:	940001a6 	bl	a8e8 <mpa_alloc_static_temp_var>
/home/ursus/devel/optee/optee_os/lib/libmpa/mpa_gcd.c:151
    a254:	f9403fa0 	ldr	x0, [x29,#120]
    a258:	52800021 	mov	w1, #0x1                   	// #1
    a25c:	97fffcf0 	bl	961c <mpa_set_word>
/home/ursus/devel/optee/optee_os/lib/libmpa/mpa_gcd.c:152
    a260:	aa1303e1 	mov	x1, x19
    a264:	aa1b03e0 	mov	x0, x27
    a268:	940001a0 	bl	a8e8 <mpa_alloc_static_temp_var>
/home/ursus/devel/optee/optee_os/lib/libmpa/mpa_gcd.c:153
    a26c:	f94043a0 	ldr	x0, [x29,#128]
    a270:	52800001 	mov	w1, #0x0                   	// #0
    a274:	97fffcea 	bl	961c <mpa_set_word>
/home/ursus/devel/optee/optee_os/lib/libmpa/mpa_gcd.c:154
    a278:	aa1303e1 	mov	x1, x19
    a27c:	aa1a03e0 	mov	x0, x26
    a280:	9400019a 	bl	a8e8 <mpa_alloc_static_temp_var>
/home/ursus/devel/optee/optee_os/lib/libmpa/mpa_gcd.c:155
    a284:	f94047a0 	ldr	x0, [x29,#136]
    a288:	52800001 	mov	w1, #0x0                   	// #0
    a28c:	97fffce4 	bl	961c <mpa_set_word>
/home/ursus/devel/optee/optee_os/lib/libmpa/mpa_gcd.c:156
    a290:	aa1303e1 	mov	x1, x19
    a294:	aa1903e0 	mov	x0, x25
    a298:	94000194 	bl	a8e8 <mpa_alloc_static_temp_var>
/home/ursus/devel/optee/optee_os/lib/libmpa/mpa_gcd.c:157
    a29c:	f9404ba0 	ldr	x0, [x29,#144]
    a2a0:	52800021 	mov	w1, #0x1                   	// #1
    a2a4:	97fffcde 	bl	961c <mpa_set_word>
/home/ursus/devel/optee/optee_os/lib/libmpa/mpa_gcd.c:159
    a2a8:	f94057a0 	ldr	x0, [x29,#168]
    a2ac:	b9400400 	ldr	w0, [x0,#4]
    a2b0:	35000800 	cbnz	w0, a3b0 <__mpa_egcd+0x26c>
/home/ursus/devel/optee/optee_os/lib/libmpa/mpa_gcd.c:192
    a2b4:	b4000096 	cbz	x22, a2c4 <__mpa_egcd+0x180>
/home/ursus/devel/optee/optee_os/lib/libmpa/mpa_gcd.c:193
    a2b8:	f94047a1 	ldr	x1, [x29,#136]
    a2bc:	aa1603e0 	mov	x0, x22
    a2c0:	97fffa78 	bl	8ca0 <mpa_copy>
/home/ursus/devel/optee/optee_os/lib/libmpa/mpa_gcd.c:194
    a2c4:	b4000095 	cbz	x21, a2d4 <__mpa_egcd+0x190>
/home/ursus/devel/optee/optee_os/lib/libmpa/mpa_gcd.c:195
    a2c8:	f9404ba1 	ldr	x1, [x29,#144]
    a2cc:	aa1503e0 	mov	x0, x21
    a2d0:	97fffa74 	bl	8ca0 <mpa_copy>
/home/ursus/devel/optee/optee_os/lib/libmpa/mpa_gcd.c:196
    a2d4:	2a1703e2 	mov	w2, w23
    a2d8:	aa1403e1 	mov	x1, x20
    a2dc:	aa1403e0 	mov	x0, x20
    a2e0:	940002fb 	bl	aecc <mpa_shift_left>
/home/ursus/devel/optee/optee_os/lib/libmpa/mpa_gcd.c:198
    a2e4:	aa1303e1 	mov	x1, x19
    a2e8:	aa1c03e0 	mov	x0, x28
    a2ec:	94000183 	bl	a8f8 <mpa_free_static_temp_var>
/home/ursus/devel/optee/optee_os/lib/libmpa/mpa_gcd.c:199
    a2f0:	aa1303e1 	mov	x1, x19
    a2f4:	aa1b03e0 	mov	x0, x27
    a2f8:	94000180 	bl	a8f8 <mpa_free_static_temp_var>
/home/ursus/devel/optee/optee_os/lib/libmpa/mpa_gcd.c:200
    a2fc:	aa1303e1 	mov	x1, x19
    a300:	aa1a03e0 	mov	x0, x26
    a304:	9400017d 	bl	a8f8 <mpa_free_static_temp_var>
/home/ursus/devel/optee/optee_os/lib/libmpa/mpa_gcd.c:201
    a308:	aa1303e1 	mov	x1, x19
    a30c:	aa1903e0 	mov	x0, x25
    a310:	9400017a 	bl	a8f8 <mpa_free_static_temp_var>
/home/ursus/devel/optee/optee_os/lib/libmpa/mpa_gcd.c:202
    a314:	aa1303e1 	mov	x1, x19
    a318:	aa1803e0 	mov	x0, x24
    a31c:	94000177 	bl	a8f8 <mpa_free_static_temp_var>
/home/ursus/devel/optee/optee_os/lib/libmpa/mpa_gcd.c:203
    a320:	f94037a0 	ldr	x0, [x29,#104]
    a324:	aa1303e1 	mov	x1, x19
    a328:	94000174 	bl	a8f8 <mpa_free_static_temp_var>
/home/ursus/devel/optee/optee_os/lib/libmpa/mpa_gcd.c:204
    a32c:	f94033a0 	ldr	x0, [x29,#96]
    a330:	aa1303e1 	mov	x1, x19
    a334:	94000171 	bl	a8f8 <mpa_free_static_temp_var>
    a338:	17ffff9b 	b	a1a4 <__mpa_egcd+0x60>
/home/ursus/devel/optee/optee_os/lib/libmpa/mpa_gcd.c:141
    a33c:	f94053a0 	ldr	x0, [x29,#160]
    a340:	97fffaa2 	bl	8dc8 <mpa_parity>
    a344:	35fff660 	cbnz	w0, a210 <__mpa_egcd+0xcc>
/home/ursus/devel/optee/optee_os/lib/libmpa/mpa_gcd.c:143
    a348:	f9404fa0 	ldr	x0, [x29,#152]
/home/ursus/devel/optee/optee_os/lib/libmpa/mpa_gcd.c:142
    a34c:	110006f7 	add	w23, w23, #0x1
/home/ursus/devel/optee/optee_os/lib/libmpa/mpa_gcd.c:143
    a350:	97ffff02 	bl	9f58 <__mpa_divby2>
/home/ursus/devel/optee/optee_os/lib/libmpa/mpa_gcd.c:144
    a354:	f94053a0 	ldr	x0, [x29,#160]
    a358:	97ffff00 	bl	9f58 <__mpa_divby2>
    a35c:	17ffffaa 	b	a204 <__mpa_egcd+0xc0>
/home/ursus/devel/optee/optee_os/lib/libmpa/mpa_gcd.c:161
    a360:	f94057a0 	ldr	x0, [x29,#168]
    a364:	97fffefd 	bl	9f58 <__mpa_divby2>
/home/ursus/devel/optee/optee_os/lib/libmpa/mpa_gcd.c:162
    a368:	f9403fa0 	ldr	x0, [x29,#120]
    a36c:	97fffa97 	bl	8dc8 <mpa_parity>
    a370:	7100041f 	cmp	w0, #0x1
    a374:	54000521 	b.ne	a418 <__mpa_egcd+0x2d4>
/home/ursus/devel/optee/optee_os/lib/libmpa/mpa_gcd.c:163
    a378:	f9403fa1 	ldr	x1, [x29,#120]
    a37c:	aa1303e3 	mov	x3, x19
    a380:	f94053a2 	ldr	x2, [x29,#160]
    a384:	aa0103e0 	mov	x0, x1
    a388:	9400044f 	bl	b4c4 <mpa_add>
/home/ursus/devel/optee/optee_os/lib/libmpa/mpa_gcd.c:164
    a38c:	f94043a1 	ldr	x1, [x29,#128]
    a390:	aa1303e3 	mov	x3, x19
    a394:	f9404fa2 	ldr	x2, [x29,#152]
    a398:	aa0103e0 	mov	x0, x1
    a39c:	940004af 	bl	b658 <mpa_sub>
/home/ursus/devel/optee/optee_os/lib/libmpa/mpa_gcd.c:166
    a3a0:	f9403fa0 	ldr	x0, [x29,#120]
    a3a4:	97fffeed 	bl	9f58 <__mpa_divby2>
/home/ursus/devel/optee/optee_os/lib/libmpa/mpa_gcd.c:167
    a3a8:	f94043a0 	ldr	x0, [x29,#128]
    a3ac:	97fffeeb 	bl	9f58 <__mpa_divby2>
/home/ursus/devel/optee/optee_os/lib/libmpa/mpa_gcd.c:160
    a3b0:	f94057a0 	ldr	x0, [x29,#168]
    a3b4:	97fffa85 	bl	8dc8 <mpa_parity>
    a3b8:	34fffd40 	cbz	w0, a360 <__mpa_egcd+0x21c>
/home/ursus/devel/optee/optee_os/lib/libmpa/mpa_gcd.c:170
    a3bc:	aa1403e0 	mov	x0, x20
    a3c0:	97fffa82 	bl	8dc8 <mpa_parity>
    a3c4:	34000340 	cbz	w0, a42c <__mpa_egcd+0x2e8>
/home/ursus/devel/optee/optee_os/lib/libmpa/mpa_gcd.c:180
    a3c8:	f94057a0 	ldr	x0, [x29,#168]
    a3cc:	aa1403e1 	mov	x1, x20
    a3d0:	940005ea 	bl	bb78 <mpa_cmp>
/home/ursus/devel/optee/optee_os/lib/libmpa/mpa_gcd.c:181
    a3d4:	aa1303e3 	mov	x3, x19
/home/ursus/devel/optee/optee_os/lib/libmpa/mpa_gcd.c:180
    a3d8:	37f805c0 	tbnz	w0, #31, a490 <__mpa_egcd+0x34c>
/home/ursus/devel/optee/optee_os/lib/libmpa/mpa_gcd.c:181
    a3dc:	f94057a1 	ldr	x1, [x29,#168]
    a3e0:	aa1403e2 	mov	x2, x20
    a3e4:	aa0103e0 	mov	x0, x1
    a3e8:	9400049c 	bl	b658 <mpa_sub>
/home/ursus/devel/optee/optee_os/lib/libmpa/mpa_gcd.c:182
    a3ec:	f9403fa1 	ldr	x1, [x29,#120]
    a3f0:	aa1303e3 	mov	x3, x19
    a3f4:	f94047a2 	ldr	x2, [x29,#136]
    a3f8:	aa0103e0 	mov	x0, x1
    a3fc:	94000497 	bl	b658 <mpa_sub>
/home/ursus/devel/optee/optee_os/lib/libmpa/mpa_gcd.c:183
    a400:	f94043a1 	ldr	x1, [x29,#128]
    a404:	aa1303e3 	mov	x3, x19
    a408:	f9404ba2 	ldr	x2, [x29,#144]
/home/ursus/devel/optee/optee_os/lib/libmpa/mpa_gcd.c:187
    a40c:	aa0103e0 	mov	x0, x1
    a410:	94000492 	bl	b658 <mpa_sub>
    a414:	17ffffa5 	b	a2a8 <__mpa_egcd+0x164>
/home/ursus/devel/optee/optee_os/lib/libmpa/mpa_gcd.c:162
    a418:	f94043a0 	ldr	x0, [x29,#128]
    a41c:	97fffa6b 	bl	8dc8 <mpa_parity>
    a420:	7100041f 	cmp	w0, #0x1
    a424:	54fffbe1 	b.ne	a3a0 <__mpa_egcd+0x25c>
    a428:	17ffffd4 	b	a378 <__mpa_egcd+0x234>
/home/ursus/devel/optee/optee_os/lib/libmpa/mpa_gcd.c:171
    a42c:	aa1403e0 	mov	x0, x20
    a430:	97fffeca 	bl	9f58 <__mpa_divby2>
/home/ursus/devel/optee/optee_os/lib/libmpa/mpa_gcd.c:172
    a434:	f94047a0 	ldr	x0, [x29,#136]
    a438:	97fffa64 	bl	8dc8 <mpa_parity>
    a43c:	7100041f 	cmp	w0, #0x1
    a440:	540001e1 	b.ne	a47c <__mpa_egcd+0x338>
/home/ursus/devel/optee/optee_os/lib/libmpa/mpa_gcd.c:173
    a444:	f94047a1 	ldr	x1, [x29,#136]
    a448:	aa1303e3 	mov	x3, x19
    a44c:	f94053a2 	ldr	x2, [x29,#160]
    a450:	aa0103e0 	mov	x0, x1
    a454:	9400041c 	bl	b4c4 <mpa_add>
/home/ursus/devel/optee/optee_os/lib/libmpa/mpa_gcd.c:174
    a458:	a9490ba1 	ldp	x1, x2, [x29,#144]
    a45c:	aa1303e3 	mov	x3, x19
    a460:	aa0103e0 	mov	x0, x1
    a464:	9400047d 	bl	b658 <mpa_sub>
/home/ursus/devel/optee/optee_os/lib/libmpa/mpa_gcd.c:176
    a468:	f94047a0 	ldr	x0, [x29,#136]
    a46c:	97fffebb 	bl	9f58 <__mpa_divby2>
/home/ursus/devel/optee/optee_os/lib/libmpa/mpa_gcd.c:177
    a470:	f9404ba0 	ldr	x0, [x29,#144]
    a474:	97fffeb9 	bl	9f58 <__mpa_divby2>
    a478:	17ffffd1 	b	a3bc <__mpa_egcd+0x278>
/home/ursus/devel/optee/optee_os/lib/libmpa/mpa_gcd.c:172
    a47c:	f9404ba0 	ldr	x0, [x29,#144]
    a480:	97fffa52 	bl	8dc8 <mpa_parity>
    a484:	7100041f 	cmp	w0, #0x1
    a488:	54ffff01 	b.ne	a468 <__mpa_egcd+0x324>
    a48c:	17ffffee 	b	a444 <__mpa_egcd+0x300>
/home/ursus/devel/optee/optee_os/lib/libmpa/mpa_gcd.c:185
    a490:	f94057a2 	ldr	x2, [x29,#168]
    a494:	aa1403e1 	mov	x1, x20
    a498:	aa1403e0 	mov	x0, x20
    a49c:	9400046f 	bl	b658 <mpa_sub>
/home/ursus/devel/optee/optee_os/lib/libmpa/mpa_gcd.c:186
    a4a0:	f94047a1 	ldr	x1, [x29,#136]
    a4a4:	aa1303e3 	mov	x3, x19
    a4a8:	f9403fa2 	ldr	x2, [x29,#120]
    a4ac:	aa0103e0 	mov	x0, x1
    a4b0:	9400046a 	bl	b658 <mpa_sub>
/home/ursus/devel/optee/optee_os/lib/libmpa/mpa_gcd.c:187
    a4b4:	aa1303e3 	mov	x3, x19
    a4b8:	f94043a2 	ldr	x2, [x29,#128]
    a4bc:	f9404ba1 	ldr	x1, [x29,#144]
    a4c0:	17ffffd3 	b	a40c <__mpa_egcd+0x2c8>

000000000000a4c4 <mpa_gcd>:
mpa_gcd():
/home/ursus/devel/optee/optee_os/lib/libmpa/mpa_gcd.c:275
    a4c4:	a9bc7bfd 	stp	x29, x30, [sp,#-64]!
    a4c8:	910003fd 	mov	x29, sp
    a4cc:	a90153f3 	stp	x19, x20, [sp,#16]
    a4d0:	aa0203f3 	mov	x19, x2
    a4d4:	a9025bf5 	stp	x21, x22, [sp,#32]
    a4d8:	aa0003f6 	mov	x22, x0
/home/ursus/devel/optee/optee_os/lib/libmpa/mpa_gcd.c:281
    a4dc:	b9400420 	ldr	w0, [x1,#4]
/home/ursus/devel/optee/optee_os/lib/libmpa/mpa_gcd.c:275
    a4e0:	aa0103f4 	mov	x20, x1
/home/ursus/devel/optee/optee_os/lib/libmpa/mpa_gcd.c:282
    a4e4:	b9400661 	ldr	w1, [x19,#4]
/home/ursus/devel/optee/optee_os/lib/libmpa/mpa_gcd.c:281
    a4e8:	52800022 	mov	w2, #0x1                   	// #1
    a4ec:	7100001f 	cmp	w0, #0x0
/home/ursus/devel/optee/optee_os/lib/libmpa/mpa_gcd.c:275
    a4f0:	a90363f7 	stp	x23, x24, [sp,#48]
    a4f4:	aa0303f8 	mov	x24, x3
/home/ursus/devel/optee/optee_os/lib/libmpa/mpa_gcd.c:281
    a4f8:	5a82a457 	cneg	w23, w2, lt
/home/ursus/devel/optee/optee_os/lib/libmpa/mpa_gcd.c:282
    a4fc:	36f806e1 	tbz	w1, #31, a5d8 <mpa_gcd+0x114>
    a500:	12800015 	mov	w21, #0xffffffff            	// #-1
/home/ursus/devel/optee/optee_os/lib/libmpa/mpa_gcd.c:283
    a504:	36f800a0 	tbz	w0, #31, a518 <mpa_gcd+0x54>
/home/ursus/devel/optee/optee_os/lib/libmpa/mpa_gcd.c:283 (discriminator 1)
    a508:	4b0003e0 	neg	w0, w0
    a50c:	b9000680 	str	w0, [x20,#4]
/home/ursus/devel/optee/optee_os/lib/libmpa/mpa_gcd.c:284 (discriminator 1)
    a510:	b9400661 	ldr	w1, [x19,#4]
    a514:	36f80061 	tbz	w1, #31, a520 <mpa_gcd+0x5c>
    a518:	4b0103e1 	neg	w1, w1
    a51c:	b9000661 	str	w1, [x19,#4]
/home/ursus/devel/optee/optee_os/lib/libmpa/mpa_gcd.c:286
    a520:	aa1303e1 	mov	x1, x19
    a524:	aa1403e0 	mov	x0, x20
    a528:	94000594 	bl	bb78 <mpa_cmp>
/home/ursus/devel/optee/optee_os/lib/libmpa/mpa_gcd.c:287
    a52c:	7100001f 	cmp	w0, #0x0
    a530:	54000321 	b.ne	a594 <mpa_gcd+0xd0>
/home/ursus/devel/optee/optee_os/lib/libmpa/mpa_gcd.c:288
    a534:	aa1403e1 	mov	x1, x20
__mpa_gcd():
/home/ursus/devel/optee/optee_os/lib/libmpa/mpa_gcd.c:223
    a538:	aa1603e0 	mov	x0, x22
    a53c:	97fff9d9 	bl	8ca0 <mpa_copy>
mpa_gcd():
/home/ursus/devel/optee/optee_os/lib/libmpa/mpa_gcd.c:299
    a540:	b9400680 	ldr	w0, [x20,#4]
    a544:	52800021 	mov	w1, #0x1                   	// #1
    a548:	7100001f 	cmp	w0, #0x0
    a54c:	5a81a421 	cneg	w1, w1, lt
    a550:	6b0102ff 	cmp	w23, w1
    a554:	54000060 	b.eq	a560 <mpa_gcd+0x9c>
/home/ursus/devel/optee/optee_os/lib/libmpa/mpa_gcd.c:299 (discriminator 5)
    a558:	4b0003e0 	neg	w0, w0
    a55c:	b9000680 	str	w0, [x20,#4]
/home/ursus/devel/optee/optee_os/lib/libmpa/mpa_gcd.c:300
    a560:	b9400660 	ldr	w0, [x19,#4]
    a564:	52800021 	mov	w1, #0x1                   	// #1
    a568:	7100001f 	cmp	w0, #0x0
    a56c:	5a81a421 	cneg	w1, w1, lt
    a570:	6b15003f 	cmp	w1, w21
    a574:	54000060 	b.eq	a580 <mpa_gcd+0xbc>
/home/ursus/devel/optee/optee_os/lib/libmpa/mpa_gcd.c:300 (discriminator 5)
    a578:	4b0003e0 	neg	w0, w0
    a57c:	b9000660 	str	w0, [x19,#4]
/home/ursus/devel/optee/optee_os/lib/libmpa/mpa_gcd.c:301
    a580:	a94153f3 	ldp	x19, x20, [sp,#16]
    a584:	a9425bf5 	ldp	x21, x22, [sp,#32]
    a588:	a94363f7 	ldp	x23, x24, [sp,#48]
    a58c:	a8c47bfd 	ldp	x29, x30, [sp],#64
    a590:	d65f03c0 	ret
/home/ursus/devel/optee/optee_os/lib/libmpa/mpa_gcd.c:291
    a594:	5400016a 	b.ge	a5c0 <mpa_gcd+0xfc>
__mpa_gcd():
/home/ursus/devel/optee/optee_os/lib/libmpa/mpa_gcd.c:222
    a598:	b9400680 	ldr	w0, [x20,#4]
    a59c:	35000060 	cbnz	w0, a5a8 <mpa_gcd+0xe4>
/home/ursus/devel/optee/optee_os/lib/libmpa/mpa_gcd.c:223
    a5a0:	aa1303e1 	mov	x1, x19
    a5a4:	17ffffe5 	b	a538 <mpa_gcd+0x74>
    a5a8:	aa1803e3 	mov	x3, x24
    a5ac:	aa1403e2 	mov	x2, x20
    a5b0:	aa1303e1 	mov	x1, x19
    a5b4:	aa1603e0 	mov	x0, x22
    a5b8:	97fffe88 	bl	9fd8 <__mpa_gcd.part.0>
    a5bc:	17ffffe1 	b	a540 <mpa_gcd+0x7c>
/home/ursus/devel/optee/optee_os/lib/libmpa/mpa_gcd.c:222
    a5c0:	b9400660 	ldr	w0, [x19,#4]
    a5c4:	34fffb80 	cbz	w0, a534 <mpa_gcd+0x70>
    a5c8:	aa1803e3 	mov	x3, x24
    a5cc:	aa1303e2 	mov	x2, x19
    a5d0:	aa1403e1 	mov	x1, x20
    a5d4:	17fffff8 	b	a5b4 <mpa_gcd+0xf0>
mpa_gcd():
/home/ursus/devel/optee/optee_os/lib/libmpa/mpa_gcd.c:282
    a5d8:	2a0203f5 	mov	w21, w2
/home/ursus/devel/optee/optee_os/lib/libmpa/mpa_gcd.c:283
    a5dc:	36fffa20 	tbz	w0, #31, a520 <mpa_gcd+0x5c>
    a5e0:	17ffffca 	b	a508 <mpa_gcd+0x44>

000000000000a5e4 <mpa_extended_gcd>:
mpa_extended_gcd():
/home/ursus/devel/optee/optee_os/lib/libmpa/mpa_gcd.c:317
    a5e4:	a9b97bfd 	stp	x29, x30, [sp,#-112]!
/home/ursus/devel/optee/optee_os/lib/libmpa/mpa_gcd.c:324
    a5e8:	f100003f 	cmp	x1, #0x0
    a5ec:	fa400840 	ccmp	x2, #0x0, #0x0, eq
/home/ursus/devel/optee/optee_os/lib/libmpa/mpa_gcd.c:317
    a5f0:	910003fd 	mov	x29, sp
    a5f4:	a90153f3 	stp	x19, x20, [sp,#16]
    a5f8:	aa0303f3 	mov	x19, x3
    a5fc:	a9025bf5 	stp	x21, x22, [sp,#32]
    a600:	aa0403f4 	mov	x20, x4
    a604:	a9046bf9 	stp	x25, x26, [sp,#64]
    a608:	aa0003f6 	mov	x22, x0
    a60c:	a90363f7 	stp	x23, x24, [sp,#48]
    a610:	aa0503f9 	mov	x25, x5
    a614:	a90573fb 	stp	x27, x28, [sp,#80]
/home/ursus/devel/optee/optee_os/lib/libmpa/mpa_gcd.c:324
    a618:	540001a1 	b.ne	a64c <mpa_extended_gcd+0x68>
/home/ursus/devel/optee/optee_os/lib/libmpa/mpa_gcd.c:325
    a61c:	b40000a0 	cbz	x0, a630 <mpa_extended_gcd+0x4c>
/home/ursus/devel/optee/optee_os/lib/libmpa/mpa_gcd.c:326
    a620:	aa0503e3 	mov	x3, x5
    a624:	aa0403e2 	mov	x2, x4
    a628:	aa1303e1 	mov	x1, x19
    a62c:	97ffffa6 	bl	a4c4 <mpa_gcd>
/home/ursus/devel/optee/optee_os/lib/libmpa/mpa_gcd.c:372
    a630:	a94153f3 	ldp	x19, x20, [sp,#16]
    a634:	a9425bf5 	ldp	x21, x22, [sp,#32]
    a638:	a94363f7 	ldp	x23, x24, [sp,#48]
    a63c:	a9446bf9 	ldp	x25, x26, [sp,#64]
    a640:	a94573fb 	ldp	x27, x28, [sp,#80]
    a644:	a8c77bfd 	ldp	x29, x30, [sp],#112
    a648:	d65f03c0 	ret
/home/ursus/devel/optee/optee_os/lib/libmpa/mpa_gcd.c:331
    a64c:	b9400460 	ldr	w0, [x3,#4]
    a650:	aa0103f7 	mov	x23, x1
/home/ursus/devel/optee/optee_os/lib/libmpa/mpa_gcd.c:332
    a654:	b9400481 	ldr	w1, [x4,#4]
/home/ursus/devel/optee/optee_os/lib/libmpa/mpa_gcd.c:331
    a658:	52800035 	mov	w21, #0x1                   	// #1
    a65c:	7100001f 	cmp	w0, #0x0
    a660:	aa0203f8 	mov	x24, x2
    a664:	5a95a6ba 	cneg	w26, w21, lt
/home/ursus/devel/optee/optee_os/lib/libmpa/mpa_gcd.c:332
    a668:	36f80b01 	tbz	w1, #31, a7c8 <mpa_extended_gcd+0x1e4>
    a66c:	12800015 	mov	w21, #0xffffffff            	// #-1
/home/ursus/devel/optee/optee_os/lib/libmpa/mpa_gcd.c:333
    a670:	36f800a0 	tbz	w0, #31, a684 <mpa_extended_gcd+0xa0>
/home/ursus/devel/optee/optee_os/lib/libmpa/mpa_gcd.c:333 (discriminator 1)
    a674:	4b0003e0 	neg	w0, w0
    a678:	b9000660 	str	w0, [x19,#4]
/home/ursus/devel/optee/optee_os/lib/libmpa/mpa_gcd.c:334 (discriminator 1)
    a67c:	b9400681 	ldr	w1, [x20,#4]
    a680:	36f80061 	tbz	w1, #31, a68c <mpa_extended_gcd+0xa8>
    a684:	4b0103e1 	neg	w1, w1
    a688:	b9000681 	str	w1, [x20,#4]
/home/ursus/devel/optee/optee_os/lib/libmpa/mpa_gcd.c:336
    a68c:	aa1403e1 	mov	x1, x20
    a690:	aa1303e0 	mov	x0, x19
    a694:	94000539 	bl	bb78 <mpa_cmp>
    a698:	2a0003fc 	mov	w28, w0
/home/ursus/devel/optee/optee_os/lib/libmpa/mpa_gcd.c:337
    a69c:	35000540 	cbnz	w0, a744 <mpa_extended_gcd+0x160>
/home/ursus/devel/optee/optee_os/lib/libmpa/mpa_gcd.c:338
    a6a0:	b4000096 	cbz	x22, a6b0 <mpa_extended_gcd+0xcc>
/home/ursus/devel/optee/optee_os/lib/libmpa/mpa_gcd.c:339
    a6a4:	aa1303e1 	mov	x1, x19
    a6a8:	aa1603e0 	mov	x0, x22
    a6ac:	97fff97d 	bl	8ca0 <mpa_copy>
/home/ursus/devel/optee/optee_os/lib/libmpa/mpa_gcd.c:340
    a6b0:	b4000097 	cbz	x23, a6c0 <mpa_extended_gcd+0xdc>
/home/ursus/devel/optee/optee_os/lib/libmpa/mpa_gcd.c:341
    a6b4:	52800021 	mov	w1, #0x1                   	// #1
    a6b8:	aa1703e0 	mov	x0, x23
    a6bc:	97fffbd8 	bl	961c <mpa_set_word>
/home/ursus/devel/optee/optee_os/lib/libmpa/mpa_gcd.c:342
    a6c0:	b4000098 	cbz	x24, a6d0 <mpa_extended_gcd+0xec>
/home/ursus/devel/optee/optee_os/lib/libmpa/mpa_gcd.c:343
    a6c4:	52800001 	mov	w1, #0x0                   	// #0
    a6c8:	aa1803e0 	mov	x0, x24
    a6cc:	97fffbd4 	bl	961c <mpa_set_word>
/home/ursus/devel/optee/optee_os/lib/libmpa/mpa_gcd.c:365
    a6d0:	b9400660 	ldr	w0, [x19,#4]
    a6d4:	52800021 	mov	w1, #0x1                   	// #1
    a6d8:	7100001f 	cmp	w0, #0x0
    a6dc:	5a81a421 	cneg	w1, w1, lt
    a6e0:	6b01035f 	cmp	w26, w1
    a6e4:	54000060 	b.eq	a6f0 <mpa_extended_gcd+0x10c>
/home/ursus/devel/optee/optee_os/lib/libmpa/mpa_gcd.c:365 (discriminator 5)
    a6e8:	4b0003e0 	neg	w0, w0
    a6ec:	b9000660 	str	w0, [x19,#4]
/home/ursus/devel/optee/optee_os/lib/libmpa/mpa_gcd.c:366
    a6f0:	b9400680 	ldr	w0, [x20,#4]
    a6f4:	52800021 	mov	w1, #0x1                   	// #1
    a6f8:	7100001f 	cmp	w0, #0x0
    a6fc:	5a81a421 	cneg	w1, w1, lt
    a700:	6b15003f 	cmp	w1, w21
    a704:	54000060 	b.eq	a710 <mpa_extended_gcd+0x12c>
/home/ursus/devel/optee/optee_os/lib/libmpa/mpa_gcd.c:366 (discriminator 5)
    a708:	4b0003e0 	neg	w0, w0
    a70c:	b9000680 	str	w0, [x20,#4]
/home/ursus/devel/optee/optee_os/lib/libmpa/mpa_gcd.c:368
    a710:	f10002ff 	cmp	x23, #0x0
    a714:	3a411b40 	ccmn	w26, #0x1, #0x0, ne
    a718:	54000081 	b.ne	a728 <mpa_extended_gcd+0x144>
/home/ursus/devel/optee/optee_os/lib/libmpa/mpa_gcd.c:369
    a71c:	b94006e0 	ldr	w0, [x23,#4]
    a720:	4b0003e0 	neg	w0, w0
    a724:	b90006e0 	str	w0, [x23,#4]
/home/ursus/devel/optee/optee_os/lib/libmpa/mpa_gcd.c:370
    a728:	f100031f 	cmp	x24, #0x0
    a72c:	3a411aa0 	ccmn	w21, #0x1, #0x0, ne
    a730:	54fff801 	b.ne	a630 <mpa_extended_gcd+0x4c>
/home/ursus/devel/optee/optee_os/lib/libmpa/mpa_gcd.c:371
    a734:	b9400700 	ldr	w0, [x24,#4]
    a738:	4b0003e0 	neg	w0, w0
    a73c:	b9000700 	str	w0, [x24,#4]
    a740:	17ffffbc 	b	a630 <mpa_extended_gcd+0x4c>
/home/ursus/devel/optee/optee_os/lib/libmpa/mpa_gcd.c:347
    a744:	f10002df 	cmp	x22, #0x0
    a748:	fa561284 	ccmp	x20, x22, #0x4, ne
    a74c:	fa561264 	ccmp	x19, x22, #0x4, ne
    a750:	54000361 	b.ne	a7bc <mpa_extended_gcd+0x1d8>
    a754:	5280003b 	mov	w27, #0x1                   	// #1
/home/ursus/devel/optee/optee_os/lib/libmpa/mpa_gcd.c:349
    a758:	aa1903e1 	mov	x1, x25
    a75c:	9101a3a0 	add	x0, x29, #0x68
    a760:	94000062 	bl	a8e8 <mpa_alloc_static_temp_var>
/home/ursus/devel/optee/optee_os/lib/libmpa/mpa_gcd.c:354
    a764:	aa1903e5 	mov	x5, x25
/home/ursus/devel/optee/optee_os/lib/libmpa/mpa_gcd.c:353
    a768:	36f8021c 	tbz	w28, #31, a7a8 <mpa_extended_gcd+0x1c4>
/home/ursus/devel/optee/optee_os/lib/libmpa/mpa_gcd.c:354
    a76c:	aa1303e4 	mov	x4, x19
    a770:	aa1403e3 	mov	x3, x20
    a774:	aa1703e2 	mov	x2, x23
    a778:	aa1803e1 	mov	x1, x24
/home/ursus/devel/optee/optee_os/lib/libmpa/mpa_gcd.c:356
    a77c:	f94037a0 	ldr	x0, [x29,#104]
    a780:	97fffe71 	bl	a144 <__mpa_egcd>
/home/ursus/devel/optee/optee_os/lib/libmpa/mpa_gcd.c:358
    a784:	b4000096 	cbz	x22, a794 <mpa_extended_gcd+0x1b0>
/home/ursus/devel/optee/optee_os/lib/libmpa/mpa_gcd.c:359
    a788:	f94037a1 	ldr	x1, [x29,#104]
    a78c:	aa1603e0 	mov	x0, x22
    a790:	97fff944 	bl	8ca0 <mpa_copy>
/home/ursus/devel/optee/optee_os/lib/libmpa/mpa_gcd.c:360
    a794:	34fff9fb 	cbz	w27, a6d0 <mpa_extended_gcd+0xec>
/home/ursus/devel/optee/optee_os/lib/libmpa/mpa_gcd.c:361
    a798:	aa1903e1 	mov	x1, x25
    a79c:	9101a3a0 	add	x0, x29, #0x68
    a7a0:	94000056 	bl	a8f8 <mpa_free_static_temp_var>
    a7a4:	17ffffcb 	b	a6d0 <mpa_extended_gcd+0xec>
/home/ursus/devel/optee/optee_os/lib/libmpa/mpa_gcd.c:356
    a7a8:	aa1403e4 	mov	x4, x20
    a7ac:	aa1303e3 	mov	x3, x19
    a7b0:	aa1803e2 	mov	x2, x24
    a7b4:	aa1703e1 	mov	x1, x23
    a7b8:	17fffff1 	b	a77c <mpa_extended_gcd+0x198>
/home/ursus/devel/optee/optee_os/lib/libmpa/mpa_gcd.c:347
    a7bc:	5280001b 	mov	w27, #0x0                   	// #0
/home/ursus/devel/optee/optee_os/lib/libmpa/mpa_gcd.c:351
    a7c0:	f90037b6 	str	x22, [x29,#104]
    a7c4:	17ffffe8 	b	a764 <mpa_extended_gcd+0x180>
/home/ursus/devel/optee/optee_os/lib/libmpa/mpa_gcd.c:333
    a7c8:	36fff620 	tbz	w0, #31, a68c <mpa_extended_gcd+0xa8>
    a7cc:	17ffffaa 	b	a674 <mpa_extended_gcd+0x90>

000000000000a7d0 <mpa_init_scratch_mem_sync>:
mpa_init_scratch_mem_sync():
/home/ursus/devel/optee/optee_os/lib/libmpa/mpa_mem_static.c:41
    a7d0:	531f7842 	lsl	w2, w2, #1
/home/ursus/devel/optee/optee_os/lib/libmpa/mpa_mem_static.c:40
    a7d4:	b900081f 	str	wzr, [x0,#8]
/home/ursus/devel/optee/optee_os/lib/libmpa/mpa_mem_static.c:41
    a7d8:	29000801 	stp	w1, w2, [x0]
/home/ursus/devel/optee/optee_os/lib/libmpa/mpa_mem_static.c:43
    a7dc:	a9011003 	stp	x3, x4, [x0,#16]
/home/ursus/devel/optee/optee_os/lib/libmpa/mpa_mem_static.c:44
    a7e0:	f9001005 	str	x5, [x0,#32]
    a7e4:	d65f03c0 	ret

000000000000a7e8 <mpa_init_scratch_mem>:
/home/ursus/devel/optee/optee_os/lib/libmpa/mpa_mem_static.c:41
    a7e8:	531f7842 	lsl	w2, w2, #1
/home/ursus/devel/optee/optee_os/lib/libmpa/mpa_mem_static.c:40
    a7ec:	b900081f 	str	wzr, [x0,#8]
/home/ursus/devel/optee/optee_os/lib/libmpa/mpa_mem_static.c:41
    a7f0:	29000801 	stp	w1, w2, [x0]
/home/ursus/devel/optee/optee_os/lib/libmpa/mpa_mem_static.c:43
    a7f4:	a9017c1f 	stp	xzr, xzr, [x0,#16]
/home/ursus/devel/optee/optee_os/lib/libmpa/mpa_mem_static.c:44
    a7f8:	f900101f 	str	xzr, [x0,#32]
    a7fc:	d65f03c0 	ret

000000000000a800 <mpa_alloc_static_temp_var_size>:
mpa_alloc_static_temp_var_size():
/home/ursus/devel/optee/optee_os/lib/libmpa/mpa_mem_static.c:89
    a800:	a9bd7bfd 	stp	x29, x30, [sp,#-48]!
    a804:	910003fd 	mov	x29, sp
    a808:	f90013f5 	str	x21, [sp,#32]
    a80c:	aa0103f5 	mov	x21, x1
/home/ursus/devel/optee/optee_os/lib/libmpa/mpa_mem_static.c:95
    a810:	f9400841 	ldr	x1, [x2,#16]
/home/ursus/devel/optee/optee_os/lib/libmpa/mpa_mem_static.c:89
    a814:	a90153f3 	stp	x19, x20, [sp,#16]
    a818:	2a0003f4 	mov	w20, w0
    a81c:	aa0203f3 	mov	x19, x2
/home/ursus/devel/optee/optee_os/lib/libmpa/mpa_mem_static.c:95
    a820:	b4000061 	cbz	x1, a82c <mpa_alloc_static_temp_var_size+0x2c>
/home/ursus/devel/optee/optee_os/lib/libmpa/mpa_mem_static.c:96
    a824:	f9401040 	ldr	x0, [x2,#32]
    a828:	d63f0020 	blr	x1
/home/ursus/devel/optee/optee_os/lib/libmpa/mpa_mem_static.c:98
    a82c:	b9400a63 	ldr	w3, [x19,#8]
    a830:	34000463 	cbz	w3, a8bc <mpa_alloc_static_temp_var_size+0xbc>
/home/ursus/devel/optee/optee_os/lib/libmpa/mpa_mem_static.c:103
    a834:	2a0303e0 	mov	w0, w3
    a838:	8b000265 	add	x5, x19, x0
/home/ursus/devel/optee/optee_os/lib/libmpa/mpa_mem_static.c:104
    a83c:	b8606a62 	ldr	w2, [x19,x0]
    a840:	0b020062 	add	w2, w3, w2
/home/ursus/devel/optee/optee_os/lib/libmpa/mpa_mem_static.c:107
    a844:	11000c42 	add	w2, w2, #0x3
/home/ursus/devel/optee/optee_os/lib/libmpa/mpa_mem_static.c:108
    a848:	b9400260 	ldr	w0, [x19]
/home/ursus/devel/optee/optee_os/lib/libmpa/mpa_mem_static.c:107
    a84c:	121e7442 	and	w2, w2, #0xfffffffc
/home/ursus/devel/optee/optee_os/lib/libmpa/mpa_mem_static.c:108
    a850:	6b00005f 	cmp	w2, w0
    a854:	540003a8 	b.hi	a8c8 <mpa_alloc_static_temp_var_size+0xc8>
/home/ursus/devel/optee/optee_os/lib/libmpa/mpa_mem_static.c:112
    a858:	11007e81 	add	w1, w20, #0x1f
    a85c:	52800414 	mov	w20, #0x20                  	// #32
/home/ursus/devel/optee/optee_os/lib/libmpa/mpa_mem_static.c:114
    a860:	2a0203e6 	mov	w6, w2
/home/ursus/devel/optee/optee_os/lib/libmpa/mpa_mem_static.c:112
    a864:	1ad40c21 	sdiv	w1, w1, w20
    a868:	11000821 	add	w1, w1, #0x2
/home/ursus/devel/optee/optee_os/lib/libmpa/mpa_mem_static.c:111
    a86c:	937e7c24 	sbfiz	x4, x1, #2, #32
/home/ursus/devel/optee/optee_os/lib/libmpa/mpa_mem_static.c:113
    a870:	91003084 	add	x4, x4, #0xc
/home/ursus/devel/optee/optee_os/lib/libmpa/mpa_mem_static.c:114
    a874:	8b060087 	add	x7, x4, x6
    a878:	eb2040ff 	cmp	x7, w0, uxtw
    a87c:	54000268 	b.hi	a8c8 <mpa_alloc_static_temp_var_size+0xc8>
/home/ursus/devel/optee/optee_os/lib/libmpa/mpa_mem_static.c:117
    a880:	8b060260 	add	x0, x19, x6
/home/ursus/devel/optee/optee_os/lib/libmpa/mpa_mem_static.c:118
    a884:	b8266a64 	str	w4, [x19,x6]
/home/ursus/devel/optee/optee_os/lib/libmpa/mpa_mem_static.c:119
    a888:	b9000403 	str	w3, [x0,#4]
/home/ursus/devel/optee/optee_os/lib/libmpa/mpa_mem_static.c:120
    a88c:	b4000045 	cbz	x5, a894 <mpa_alloc_static_temp_var_size+0x94>
/home/ursus/devel/optee/optee_os/lib/libmpa/mpa_mem_static.c:121
    a890:	b90008a2 	str	w2, [x5,#8]
/home/ursus/devel/optee/optee_os/lib/libmpa/mpa_mem_static.c:122
    a894:	b900081f 	str	wzr, [x0,#8]
/home/ursus/devel/optee/optee_os/lib/libmpa/mpa_mem_static.c:125
    a898:	91003000 	add	x0, x0, #0xc
/home/ursus/devel/optee/optee_os/lib/libmpa/mpa_mem_static.c:123
    a89c:	b9000a62 	str	w2, [x19,#8]
/home/ursus/devel/optee/optee_os/lib/libmpa/mpa_mem_static.c:125
    a8a0:	f90002a0 	str	x0, [x21]
/home/ursus/devel/optee/optee_os/lib/libmpa/mpa_mem_static.c:126
    a8a4:	9400054e 	bl	bddc <mpa_init_static>
/home/ursus/devel/optee/optee_os/lib/libmpa/mpa_mem_static.c:127
    a8a8:	f94002a0 	ldr	x0, [x21]
/home/ursus/devel/optee/optee_os/lib/libmpa/mpa_mem_static.c:134
    a8ac:	a94153f3 	ldp	x19, x20, [sp,#16]
    a8b0:	f94013f5 	ldr	x21, [sp,#32]
    a8b4:	a8c37bfd 	ldp	x29, x30, [sp],#48
    a8b8:	d65f03c0 	ret
/home/ursus/devel/optee/optee_os/lib/libmpa/mpa_mem_static.c:93
    a8bc:	d2800005 	mov	x5, #0x0                   	// #0
/home/ursus/devel/optee/optee_os/lib/libmpa/mpa_mem_static.c:99
    a8c0:	52800502 	mov	w2, #0x28                  	// #40
    a8c4:	17ffffe0 	b	a844 <mpa_alloc_static_temp_var_size+0x44>
/home/ursus/devel/optee/optee_os/lib/libmpa/mpa_mem_static.c:131
    a8c8:	f9400e61 	ldr	x1, [x19,#24]
/home/ursus/devel/optee/optee_os/lib/libmpa/mpa_mem_static.c:133
    a8cc:	d2800000 	mov	x0, #0x0                   	// #0
/home/ursus/devel/optee/optee_os/lib/libmpa/mpa_mem_static.c:130
    a8d0:	f90002bf 	str	xzr, [x21]
/home/ursus/devel/optee/optee_os/lib/libmpa/mpa_mem_static.c:131
    a8d4:	b4fffec1 	cbz	x1, a8ac <mpa_alloc_static_temp_var_size+0xac>
/home/ursus/devel/optee/optee_os/lib/libmpa/mpa_mem_static.c:132
    a8d8:	f9401260 	ldr	x0, [x19,#32]
    a8dc:	d63f0020 	blr	x1
/home/ursus/devel/optee/optee_os/lib/libmpa/mpa_mem_static.c:133
    a8e0:	d2800000 	mov	x0, #0x0                   	// #0
    a8e4:	17fffff2 	b	a8ac <mpa_alloc_static_temp_var_size+0xac>

000000000000a8e8 <mpa_alloc_static_temp_var>:
mpa_alloc_static_temp_var():
/home/ursus/devel/optee/optee_os/lib/libmpa/mpa_mem_static.c:139
    a8e8:	aa0103e2 	mov	x2, x1
    a8ec:	aa0003e1 	mov	x1, x0
    a8f0:	b9400440 	ldr	w0, [x2,#4]
    a8f4:	17ffffc3 	b	a800 <mpa_alloc_static_temp_var_size>

000000000000a8f8 <mpa_free_static_temp_var>:
mpa_free_static_temp_var():
/home/ursus/devel/optee/optee_os/lib/libmpa/mpa_mem_static.c:154
    a8f8:	b4000240 	cbz	x0, a940 <mpa_free_static_temp_var+0x48>
/home/ursus/devel/optee/optee_os/lib/libmpa/mpa_mem_static.c:154 (discriminator 1)
    a8fc:	f9400002 	ldr	x2, [x0]
    a900:	b4000202 	cbz	x2, a940 <mpa_free_static_temp_var+0x48>
/home/ursus/devel/optee/optee_os/lib/libmpa/mpa_mem_static.c:159
    a904:	b85f8040 	ldur	w0, [x2,#-8]
    a908:	34000080 	cbz	w0, a918 <mpa_free_static_temp_var+0x20>
/home/ursus/devel/optee/optee_os/lib/libmpa/mpa_mem_static.c:162
    a90c:	8b204023 	add	x3, x1, w0, uxtw
    a910:	b85fc044 	ldur	w4, [x2,#-4]
    a914:	b9000864 	str	w4, [x3,#8]
/home/ursus/devel/optee/optee_os/lib/libmpa/mpa_mem_static.c:166
    a918:	b85fc042 	ldur	w2, [x2,#-4]
    a91c:	34000082 	cbz	w2, a92c <mpa_free_static_temp_var+0x34>
/home/ursus/devel/optee/optee_os/lib/libmpa/mpa_mem_static.c:169
    a920:	8b224022 	add	x2, x1, w2, uxtw
    a924:	b9000440 	str	w0, [x2,#4]
/home/ursus/devel/optee/optee_os/lib/libmpa/mpa_mem_static.c:170
    a928:	b9400820 	ldr	w0, [x1,#8]
/home/ursus/devel/optee/optee_os/lib/libmpa/mpa_mem_static.c:174
    a92c:	f9400c22 	ldr	x2, [x1,#24]
/home/ursus/devel/optee/optee_os/lib/libmpa/mpa_mem_static.c:173
    a930:	b9000820 	str	w0, [x1,#8]
/home/ursus/devel/optee/optee_os/lib/libmpa/mpa_mem_static.c:174
    a934:	b4000062 	cbz	x2, a940 <mpa_free_static_temp_var+0x48>
/home/ursus/devel/optee/optee_os/lib/libmpa/mpa_mem_static.c:175
    a938:	f9401020 	ldr	x0, [x1,#32]
    a93c:	d61f0040 	br	x2
    a940:	d65f03c0 	ret

000000000000a944 <__mpa_mul_add_word>:
__mpa_mul_add_word():
/home/ursus/devel/optee/optee_os/lib/libmpa/mpa_mul.c:54
    a944:	b9400064 	ldr	w4, [x3]
    a948:	9ba11000 	umaddl	x0, w0, w1, x4
/home/ursus/devel/optee/optee_os/lib/libmpa/mpa_mul.c:55
    a94c:	b9000040 	str	w0, [x2]
/home/ursus/devel/optee/optee_os/lib/libmpa/mpa_mul.c:56
    a950:	d360fc00 	lsr	x0, x0, #32
    a954:	b9000060 	str	w0, [x3]
    a958:	d65f03c0 	ret

000000000000a95c <__mpa_mul_add_word_cum>:
__mpa_mul_add_word_cum():
/home/ursus/devel/optee/optee_os/lib/libmpa/mpa_mul.c:76
    a95c:	b9400044 	ldr	w4, [x2]
/home/ursus/devel/optee/optee_os/lib/libmpa/mpa_mul.c:77
    a960:	b9400065 	ldr	w5, [x3]
/home/ursus/devel/optee/optee_os/lib/libmpa/mpa_mul.c:75
    a964:	8b050084 	add	x4, x4, x5
    a968:	9ba11000 	umaddl	x0, w0, w1, x4
/home/ursus/devel/optee/optee_os/lib/libmpa/mpa_mul.c:78
    a96c:	b9000040 	str	w0, [x2]
/home/ursus/devel/optee/optee_os/lib/libmpa/mpa_mul.c:79
    a970:	d360fc00 	lsr	x0, x0, #32
    a974:	b9000060 	str	w0, [x3]
    a978:	d65f03c0 	ret

000000000000a97c <__mpa_abs_mul_word>:
__mpa_abs_mul_word():
/home/ursus/devel/optee/optee_os/lib/libmpa/mpa_mul.c:95
    a97c:	a9bd7bfd 	stp	x29, x30, [sp,#-48]!
    a980:	910003fd 	mov	x29, sp
    a984:	a9025bf5 	stp	x21, x22, [sp,#32]
    a988:	2a0203f6 	mov	w22, w2
/home/ursus/devel/optee/optee_os/lib/libmpa/mpa_mul.c:102
    a98c:	b9400002 	ldr	w2, [x0]
/home/ursus/devel/optee/optee_os/lib/libmpa/mpa_mul.c:95
    a990:	aa0103f5 	mov	x21, x1
    a994:	a90153f3 	stp	x19, x20, [sp,#16]
/home/ursus/devel/optee/optee_os/lib/libmpa/mpa_mul.c:102
    a998:	91002014 	add	x20, x0, #0x8
    a99c:	52800001 	mov	w1, #0x0                   	// #0
/home/ursus/devel/optee/optee_os/lib/libmpa/mpa_mul.c:95
    a9a0:	aa0003f3 	mov	x19, x0
/home/ursus/devel/optee/optee_os/lib/libmpa/mpa_mul.c:102
    a9a4:	d37e7442 	ubfiz	x2, x2, #2, #30
    a9a8:	aa1403e0 	mov	x0, x20
    a9ac:	97fff4bc 	bl	7c9c <memset>
/home/ursus/devel/optee/optee_os/lib/libmpa/mpa_mul.c:104
    a9b0:	910022a3 	add	x3, x21, #0x8
/home/ursus/devel/optee/optee_os/lib/libmpa/mpa_mul.c:107
    a9b4:	d2800000 	mov	x0, #0x0                   	// #0
/home/ursus/devel/optee/optee_os/lib/libmpa/mpa_mul.c:106
    a9b8:	52800001 	mov	w1, #0x0                   	// #0
/home/ursus/devel/optee/optee_os/lib/libmpa/mpa_mul.c:107 (discriminator 1)
    a9bc:	b94006a2 	ldr	w2, [x21,#4]
    a9c0:	7100005f 	cmp	w2, #0x0
    a9c4:	5a82a442 	cneg	w2, w2, lt
    a9c8:	6b00005f 	cmp	w2, w0
    a9cc:	54000168 	b.hi	a9f8 <__mpa_abs_mul_word+0x7c>
/home/ursus/devel/optee/optee_os/lib/libmpa/mpa_mul.c:111
    a9d0:	b9000660 	str	w0, [x19,#4]
/home/ursus/devel/optee/optee_os/lib/libmpa/mpa_mul.c:112
    a9d4:	340000a1 	cbz	w1, a9e8 <__mpa_abs_mul_word+0x6c>
/home/ursus/devel/optee/optee_os/lib/libmpa/mpa_mul.c:113
    a9d8:	b8205a81 	str	w1, [x20,w0,uxtw #2]
/home/ursus/devel/optee/optee_os/lib/libmpa/mpa_mul.c:114
    a9dc:	b9400660 	ldr	w0, [x19,#4]
    a9e0:	11000400 	add	w0, w0, #0x1
    a9e4:	b9000660 	str	w0, [x19,#4]
/home/ursus/devel/optee/optee_os/lib/libmpa/mpa_mul.c:116
    a9e8:	a94153f3 	ldp	x19, x20, [sp,#16]
    a9ec:	a9425bf5 	ldp	x21, x22, [sp,#32]
    a9f0:	a8c37bfd 	ldp	x29, x30, [sp],#48
    a9f4:	d65f03c0 	ret
__mpa_mul_add_word():
/home/ursus/devel/optee/optee_os/lib/libmpa/mpa_mul.c:54 (discriminator 3)
    a9f8:	b8607862 	ldr	w2, [x3,x0,lsl #2]
    a9fc:	2a0103e1 	mov	w1, w1
    aa00:	9bb60441 	umaddl	x1, w2, w22, x1
/home/ursus/devel/optee/optee_os/lib/libmpa/mpa_mul.c:55 (discriminator 3)
    aa04:	b8205a81 	str	w1, [x20,w0,uxtw #2]
    aa08:	91000400 	add	x0, x0, #0x1
/home/ursus/devel/optee/optee_os/lib/libmpa/mpa_mul.c:56 (discriminator 3)
    aa0c:	d360fc21 	lsr	x1, x1, #32
    aa10:	17ffffeb 	b	a9bc <__mpa_abs_mul_word+0x40>

000000000000aa14 <__mpa_abs_mul>:
__mpa_abs_mul():
/home/ursus/devel/optee/optee_os/lib/libmpa/mpa_mul.c:126
    aa14:	a9b97bfd 	stp	x29, x30, [sp,#-112]!
    aa18:	910003fd 	mov	x29, sp
    aa1c:	a90153f3 	stp	x19, x20, [sp,#16]
/home/ursus/devel/optee/optee_os/lib/libmpa/mpa_mul.c:129
    aa20:	9101c3b4 	add	x20, x29, #0x70
/home/ursus/devel/optee/optee_os/lib/libmpa/mpa_mul.c:126
    aa24:	a90573fb 	stp	x27, x28, [sp,#80]
/home/ursus/devel/optee/optee_os/lib/libmpa/mpa_mul.c:140
    aa28:	9100205c 	add	x28, x2, #0x8
/home/ursus/devel/optee/optee_os/lib/libmpa/mpa_mul.c:126
    aa2c:	a90363f7 	stp	x23, x24, [sp,#48]
    aa30:	aa0203f7 	mov	x23, x2
/home/ursus/devel/optee/optee_os/lib/libmpa/mpa_mul.c:135
    aa34:	b9400002 	ldr	w2, [x0]
/home/ursus/devel/optee/optee_os/lib/libmpa/mpa_mul.c:126
    aa38:	aa0003f3 	mov	x19, x0
    aa3c:	a9025bf5 	stp	x21, x22, [sp,#32]
    aa40:	aa0103f6 	mov	x22, x1
/home/ursus/devel/optee/optee_os/lib/libmpa/mpa_mul.c:135
    aa44:	91002015 	add	x21, x0, #0x8
/home/ursus/devel/optee/optee_os/lib/libmpa/mpa_mul.c:126
    aa48:	a9046bf9 	stp	x25, x26, [sp,#64]
/home/ursus/devel/optee/optee_os/lib/libmpa/mpa_mul.c:135
    aa4c:	d37e7442 	ubfiz	x2, x2, #2, #30
/home/ursus/devel/optee/optee_os/lib/libmpa/mpa_mul.c:129
    aa50:	b81fce9f 	str	wzr, [x20,#-4]!
/home/ursus/devel/optee/optee_os/lib/libmpa/mpa_mul.c:135
    aa54:	52800001 	mov	w1, #0x0                   	// #0
    aa58:	aa1503e0 	mov	x0, x21
/home/ursus/devel/optee/optee_os/lib/libmpa/mpa_mul.c:137
    aa5c:	910022db 	add	x27, x22, #0x8
/home/ursus/devel/optee/optee_os/lib/libmpa/mpa_mul.c:135
    aa60:	97fff48f 	bl	7c9c <memset>
/home/ursus/devel/optee/optee_os/lib/libmpa/mpa_mul.c:139
    aa64:	d2800019 	mov	x25, #0x0                   	// #0
/home/ursus/devel/optee/optee_os/lib/libmpa/mpa_mul.c:128
    aa68:	52800002 	mov	w2, #0x0                   	// #0
/home/ursus/devel/optee/optee_os/lib/libmpa/mpa_mul.c:139 (discriminator 1)
    aa6c:	b94006c0 	ldr	w0, [x22,#4]
    aa70:	8b190aba 	add	x26, x21, x25, lsl #2
    aa74:	7100001f 	cmp	w0, #0x0
    aa78:	5a80a400 	cneg	w0, w0, lt
    aa7c:	6b00033f 	cmp	w25, w0
    aa80:	540001c3 	b.cc	aab8 <__mpa_abs_mul+0xa4>
/home/ursus/devel/optee/optee_os/lib/libmpa/mpa_mul.c:151
    aa84:	0b020320 	add	w0, w25, w2
    aa88:	51000401 	sub	w1, w0, #0x1
    aa8c:	b9000661 	str	w1, [x19,#4]
/home/ursus/devel/optee/optee_os/lib/libmpa/mpa_mul.c:152
    aa90:	b9406fa1 	ldr	w1, [x29,#108]
    aa94:	34000041 	cbz	w1, aa9c <__mpa_abs_mul+0x88>
/home/ursus/devel/optee/optee_os/lib/libmpa/mpa_mul.c:153
    aa98:	b9000660 	str	w0, [x19,#4]
/home/ursus/devel/optee/optee_os/lib/libmpa/mpa_mul.c:154
    aa9c:	a94153f3 	ldp	x19, x20, [sp,#16]
    aaa0:	a9425bf5 	ldp	x21, x22, [sp,#32]
    aaa4:	a94363f7 	ldp	x23, x24, [sp,#48]
    aaa8:	a9446bf9 	ldp	x25, x26, [sp,#64]
    aaac:	a94573fb 	ldp	x27, x28, [sp,#80]
    aab0:	a8c77bfd 	ldp	x29, x30, [sp],#112
    aab4:	d65f03c0 	ret
/home/ursus/devel/optee/optee_os/lib/libmpa/mpa_mul.c:142
    aab8:	d2800018 	mov	x24, #0x0                   	// #0
/home/ursus/devel/optee/optee_os/lib/libmpa/mpa_mul.c:141
    aabc:	b9006fbf 	str	wzr, [x29,#108]
/home/ursus/devel/optee/optee_os/lib/libmpa/mpa_mul.c:142 (discriminator 1)
    aac0:	b94006e0 	ldr	w0, [x23,#4]
    aac4:	2a1803e2 	mov	w2, w24
    aac8:	7100001f 	cmp	w0, #0x0
    aacc:	5a80a400 	cneg	w0, w0, lt
    aad0:	6b00031f 	cmp	w24, w0
    aad4:	540000c3 	b.cc	aaec <__mpa_abs_mul+0xd8>
/home/ursus/devel/optee/optee_os/lib/libmpa/mpa_mul.c:146
    aad8:	b9406fa0 	ldr	w0, [x29,#108]
    aadc:	34000040 	cbz	w0, aae4 <__mpa_abs_mul+0xd0>
/home/ursus/devel/optee/optee_os/lib/libmpa/mpa_mul.c:147
    aae0:	b8385b40 	str	w0, [x26,w24,uxtw #2]
    aae4:	91000739 	add	x25, x25, #0x1
    aae8:	17ffffe1 	b	aa6c <__mpa_abs_mul+0x58>
/home/ursus/devel/optee/optee_os/lib/libmpa/mpa_mul.c:143 (discriminator 3)
    aaec:	b8787b81 	ldr	w1, [x28,x24,lsl #2]
    aaf0:	8b384b42 	add	x2, x26, w24, uxtw #2
    aaf4:	b8797b60 	ldr	w0, [x27,x25,lsl #2]
    aaf8:	aa1403e3 	mov	x3, x20
    aafc:	91000718 	add	x24, x24, #0x1
    ab00:	97ffff97 	bl	a95c <__mpa_mul_add_word_cum>
    ab04:	17ffffef 	b	aac0 <__mpa_abs_mul+0xac>

000000000000ab08 <mpa_mul>:
mpa_mul():
/home/ursus/devel/optee/optee_os/lib/libmpa/mpa_mul.c:169
    ab08:	a9bb7bfd 	stp	x29, x30, [sp,#-80]!
    ab0c:	910003fd 	mov	x29, sp
    ab10:	a90153f3 	stp	x19, x20, [sp,#16]
    ab14:	aa0003f3 	mov	x19, x0
/home/ursus/devel/optee/optee_os/lib/libmpa/mpa_mul.c:173
    ab18:	b9400420 	ldr	w0, [x1,#4]
/home/ursus/devel/optee/optee_os/lib/libmpa/mpa_mul.c:169
    ab1c:	a9025bf5 	stp	x21, x22, [sp,#32]
    ab20:	f9001bf7 	str	x23, [sp,#48]
/home/ursus/devel/optee/optee_os/lib/libmpa/mpa_mul.c:173
    ab24:	34000080 	cbz	w0, ab34 <mpa_mul+0x2c>
/home/ursus/devel/optee/optee_os/lib/libmpa/mpa_mul.c:173 (discriminator 1)
    ab28:	b9400440 	ldr	w0, [x2,#4]
    ab2c:	aa0203f5 	mov	x21, x2
    ab30:	35000120 	cbnz	w0, ab54 <mpa_mul+0x4c>
/home/ursus/devel/optee/optee_os/lib/libmpa/mpa_mul.c:174
    ab34:	52800001 	mov	w1, #0x0                   	// #0
    ab38:	aa1303e0 	mov	x0, x19
    ab3c:	97fffab8 	bl	961c <mpa_set_word>
/home/ursus/devel/optee/optee_os/lib/libmpa/mpa_mul.c:193
    ab40:	a94153f3 	ldp	x19, x20, [sp,#16]
    ab44:	a9425bf5 	ldp	x21, x22, [sp,#32]
    ab48:	f9401bf7 	ldr	x23, [sp,#48]
    ab4c:	a8c57bfd 	ldp	x29, x30, [sp],#80
    ab50:	d65f03c0 	ret
/home/ursus/devel/optee/optee_os/lib/libmpa/mpa_mul.c:179
    ab54:	eb13003f 	cmp	x1, x19
    ab58:	aa0103f6 	mov	x22, x1
    ab5c:	1a9f17f4 	cset	w20, eq
    ab60:	eb13005f 	cmp	x2, x19
    ab64:	1a9f17e0 	cset	w0, eq
    ab68:	aa0303f7 	mov	x23, x3
    ab6c:	2a000294 	orr	w20, w20, w0
/home/ursus/devel/optee/optee_os/lib/libmpa/mpa_mul.c:180
    ab70:	340003b4 	cbz	w20, abe4 <mpa_mul+0xdc>
/home/ursus/devel/optee/optee_os/lib/libmpa/mpa_mul.c:181
    ab74:	aa0303e1 	mov	x1, x3
    ab78:	910123a0 	add	x0, x29, #0x48
    ab7c:	97ffff5b 	bl	a8e8 <mpa_alloc_static_temp_var>
/home/ursus/devel/optee/optee_os/lib/libmpa/mpa_mul.c:185
    ab80:	f94027a0 	ldr	x0, [x29,#72]
    ab84:	aa1503e2 	mov	x2, x21
    ab88:	aa1603e1 	mov	x1, x22
    ab8c:	97ffffa2 	bl	aa14 <__mpa_abs_mul>
/home/ursus/devel/optee/optee_os/lib/libmpa/mpa_mul.c:187
    ab90:	b94006c1 	ldr	w1, [x22,#4]
    ab94:	12800000 	mov	w0, #0xffffffff            	// #-1
    ab98:	b94006a2 	ldr	w2, [x21,#4]
    ab9c:	6b00003f 	cmp	w1, w0
    aba0:	5a80d401 	cneg	w1, w0, gt
    aba4:	6b00005f 	cmp	w2, w0
    aba8:	5a80d400 	cneg	w0, w0, gt
    abac:	6b00003f 	cmp	w1, w0
    abb0:	540000a0 	b.eq	abc4 <mpa_mul+0xbc>
/home/ursus/devel/optee/optee_os/lib/libmpa/mpa_mul.c:188
    abb4:	f94027a1 	ldr	x1, [x29,#72]
    abb8:	b9400420 	ldr	w0, [x1,#4]
    abbc:	4b0003e0 	neg	w0, w0
    abc0:	b9000420 	str	w0, [x1,#4]
/home/ursus/devel/optee/optee_os/lib/libmpa/mpa_mul.c:190
    abc4:	f94027a1 	ldr	x1, [x29,#72]
    abc8:	aa1303e0 	mov	x0, x19
    abcc:	97fff835 	bl	8ca0 <mpa_copy>
/home/ursus/devel/optee/optee_os/lib/libmpa/mpa_mul.c:191
    abd0:	34fffb94 	cbz	w20, ab40 <mpa_mul+0x38>
/home/ursus/devel/optee/optee_os/lib/libmpa/mpa_mul.c:192
    abd4:	aa1703e1 	mov	x1, x23
    abd8:	910123a0 	add	x0, x29, #0x48
    abdc:	97ffff47 	bl	a8f8 <mpa_free_static_temp_var>
    abe0:	17ffffd8 	b	ab40 <mpa_mul+0x38>
/home/ursus/devel/optee/optee_os/lib/libmpa/mpa_mul.c:183
    abe4:	f90027b3 	str	x19, [x29,#72]
    abe8:	17ffffe6 	b	ab80 <mpa_mul+0x78>

000000000000abec <mpa_mul_word>:
mpa_mul_word():
/home/ursus/devel/optee/optee_os/lib/libmpa/mpa_mul.c:202
    abec:	a9bb7bfd 	stp	x29, x30, [sp,#-80]!
    abf0:	910003fd 	mov	x29, sp
    abf4:	a90153f3 	stp	x19, x20, [sp,#16]
    abf8:	aa0103f4 	mov	x20, x1
/home/ursus/devel/optee/optee_os/lib/libmpa/mpa_mul.c:207
    abfc:	b9400421 	ldr	w1, [x1,#4]
/home/ursus/devel/optee/optee_os/lib/libmpa/mpa_mul.c:202
    ac00:	a9025bf5 	stp	x21, x22, [sp,#32]
    ac04:	f9001bf7 	str	x23, [sp,#48]
/home/ursus/devel/optee/optee_os/lib/libmpa/mpa_mul.c:207
    ac08:	7100003f 	cmp	w1, #0x0
    ac0c:	7a401844 	ccmp	w2, #0x0, #0x4, ne
    ac10:	54000101 	b.ne	ac30 <mpa_mul_word+0x44>
/home/ursus/devel/optee/optee_os/lib/libmpa/mpa_mul.c:208
    ac14:	52800001 	mov	w1, #0x0                   	// #0
    ac18:	97fffa81 	bl	961c <mpa_set_word>
/home/ursus/devel/optee/optee_os/lib/libmpa/mpa_mul.c:228
    ac1c:	a94153f3 	ldp	x19, x20, [sp,#16]
    ac20:	a9425bf5 	ldp	x21, x22, [sp,#32]
    ac24:	f9401bf7 	ldr	x23, [sp,#48]
    ac28:	a8c57bfd 	ldp	x29, x30, [sp],#80
    ac2c:	d65f03c0 	ret
    ac30:	aa0003f3 	mov	x19, x0
/home/ursus/devel/optee/optee_os/lib/libmpa/mpa_mul.c:212
    ac34:	12800000 	mov	w0, #0xffffffff            	// #-1
    ac38:	6b00003f 	cmp	w1, w0
    ac3c:	2a0203f7 	mov	w23, w2
    ac40:	5a80d415 	cneg	w21, w0, gt
    ac44:	aa0303f6 	mov	x22, x3
/home/ursus/devel/optee/optee_os/lib/libmpa/mpa_mul.c:216
    ac48:	eb13029f 	cmp	x20, x19
    ac4c:	540002e1 	b.ne	aca8 <mpa_mul_word+0xbc>
/home/ursus/devel/optee/optee_os/lib/libmpa/mpa_mul.c:217
    ac50:	aa0303e1 	mov	x1, x3
    ac54:	910123a0 	add	x0, x29, #0x48
    ac58:	97ffff24 	bl	a8e8 <mpa_alloc_static_temp_var>
/home/ursus/devel/optee/optee_os/lib/libmpa/mpa_mul.c:221
    ac5c:	f94027a0 	ldr	x0, [x29,#72]
    ac60:	2a1703e2 	mov	w2, w23
    ac64:	aa1403e1 	mov	x1, x20
    ac68:	97ffff45 	bl	a97c <__mpa_abs_mul_word>
/home/ursus/devel/optee/optee_os/lib/libmpa/mpa_mul.c:223
    ac6c:	310006bf 	cmn	w21, #0x1
    ac70:	540000a1 	b.ne	ac84 <mpa_mul_word+0x98>
/home/ursus/devel/optee/optee_os/lib/libmpa/mpa_mul.c:224
    ac74:	f94027a1 	ldr	x1, [x29,#72]
    ac78:	b9400420 	ldr	w0, [x1,#4]
    ac7c:	4b0003e0 	neg	w0, w0
    ac80:	b9000420 	str	w0, [x1,#4]
/home/ursus/devel/optee/optee_os/lib/libmpa/mpa_mul.c:225
    ac84:	f94027a1 	ldr	x1, [x29,#72]
    ac88:	aa1303e0 	mov	x0, x19
    ac8c:	97fff805 	bl	8ca0 <mpa_copy>
/home/ursus/devel/optee/optee_os/lib/libmpa/mpa_mul.c:226
    ac90:	eb13029f 	cmp	x20, x19
    ac94:	54fffc41 	b.ne	ac1c <mpa_mul_word+0x30>
/home/ursus/devel/optee/optee_os/lib/libmpa/mpa_mul.c:227
    ac98:	aa1603e1 	mov	x1, x22
    ac9c:	910123a0 	add	x0, x29, #0x48
    aca0:	97ffff16 	bl	a8f8 <mpa_free_static_temp_var>
    aca4:	17ffffde 	b	ac1c <mpa_mul_word+0x30>
/home/ursus/devel/optee/optee_os/lib/libmpa/mpa_mul.c:219
    aca8:	f90027b3 	str	x19, [x29,#72]
    acac:	17ffffec 	b	ac5c <mpa_mul_word+0x70>

000000000000acb0 <mpa_set_random_generator>:
mpa_set_random_generator():
/home/ursus/devel/optee/optee_os/lib/libmpa/mpa_random.c:34
    acb0:	f0000061 	adrp	x1, 19000 <mempool_u32+0xdd8>
    acb4:	f906e420 	str	x0, [x1,#3528]
    acb8:	d65f03c0 	ret

000000000000acbc <mpa_get_random>:
mpa_get_random():
/home/ursus/devel/optee/optee_os/lib/libmpa/mpa_random.c:52
    acbc:	a9ba7bfd 	stp	x29, x30, [sp,#-96]!
    acc0:	910003fd 	mov	x29, sp
    acc4:	a9025bf5 	stp	x21, x22, [sp,#32]
    acc8:	aa0103f5 	mov	x21, x1
    accc:	a90153f3 	stp	x19, x20, [sp,#16]
    acd0:	aa0003f4 	mov	x20, x0
    acd4:	a90363f7 	stp	x23, x24, [sp,#48]
get_random_byte():
/home/ursus/devel/optee/optee_os/lib/libmpa/mpa_random.c:40
    acd8:	91017fb7 	add	x23, x29, #0x5f
mpa_get_random():
/home/ursus/devel/optee/optee_os/lib/libmpa/mpa_random.c:52
    acdc:	a9046bf9 	stp	x25, x26, [sp,#64]
/home/ursus/devel/optee/optee_os/lib/libmpa/mpa_random.c:55
    ace0:	97fff7e4 	bl	8c70 <mpa_wipe>
/home/ursus/devel/optee/optee_os/lib/libmpa/mpa_random.c:56
    ace4:	b94006a0 	ldr	w0, [x21,#4]
    ace8:	52800013 	mov	w19, #0x0                   	// #0
    acec:	b9400281 	ldr	w1, [x20]
    acf0:	7100001f 	cmp	w0, #0x0
    acf4:	5a80a400 	cneg	w0, w0, lt
/home/ursus/devel/optee/optee_os/lib/libmpa/mpa_random.c:57
    acf8:	6b00003f 	cmp	w1, w0
    acfc:	1a812000 	csel	w0, w0, w1, cs
    ad00:	b9000680 	str	w0, [x20,#4]
get_random_byte():
/home/ursus/devel/optee/optee_os/lib/libmpa/mpa_random.c:40
    ad04:	f000007a 	adrp	x26, 19000 <mempool_u32+0xdd8>
mpa_get_random():
/home/ursus/devel/optee/optee_os/lib/libmpa/mpa_random.c:60
    ad08:	35000593 	cbnz	w19, adb8 <mpa_get_random+0xfc>
    ad0c:	91002299 	add	x25, x20, #0x8
    ad10:	1400000f 	b	ad4c <mpa_get_random+0x90>
    ad14:	52800098 	mov	w24, #0x4                   	// #4
    ad18:	52800000 	mov	w0, #0x0                   	// #0
/home/ursus/devel/optee/optee_os/lib/libmpa/mpa_random.c:64 (discriminator 3)
    ad1c:	53185c16 	lsl	w22, w0, #8
get_random_byte():
/home/ursus/devel/optee/optee_os/lib/libmpa/mpa_random.c:40
    ad20:	f946e742 	ldr	x2, [x26,#3528]
    ad24:	d2800021 	mov	x1, #0x1                   	// #1
    ad28:	aa1703e0 	mov	x0, x23
    ad2c:	d63f0040 	blr	x2
    ad30:	35ffff80 	cbnz	w0, ad20 <mpa_get_random+0x64>
/home/ursus/devel/optee/optee_os/lib/libmpa/mpa_random.c:43
    ad34:	39417fa0 	ldrb	w0, [x29,#95]
mpa_get_random():
/home/ursus/devel/optee/optee_os/lib/libmpa/mpa_random.c:63
    ad38:	71000718 	subs	w24, w24, #0x1
/home/ursus/devel/optee/optee_os/lib/libmpa/mpa_random.c:64
    ad3c:	4a160000 	eor	w0, w0, w22
/home/ursus/devel/optee/optee_os/lib/libmpa/mpa_random.c:63
    ad40:	54fffee1 	b.ne	ad1c <mpa_get_random+0x60>
/home/ursus/devel/optee/optee_os/lib/libmpa/mpa_random.c:61 (discriminator 2)
    ad44:	11000673 	add	w19, w19, #0x1
/home/ursus/devel/optee/optee_os/lib/libmpa/mpa_random.c:65 (discriminator 2)
    ad48:	b8004720 	str	w0, [x25],#4
/home/ursus/devel/optee/optee_os/lib/libmpa/mpa_random.c:61 (discriminator 1)
    ad4c:	b9400681 	ldr	w1, [x20,#4]
    ad50:	6b01027f 	cmp	w19, w1
    ad54:	54fffe0b 	b.lt	ad14 <mpa_get_random+0x58>
/home/ursus/devel/optee/optee_os/lib/libmpa/mpa_random.c:67
    ad58:	b94006a0 	ldr	w0, [x21,#4]
/home/ursus/devel/optee/optee_os/lib/libmpa/mpa_random.c:68
    ad5c:	52800033 	mov	w19, #0x1                   	// #1
/home/ursus/devel/optee/optee_os/lib/libmpa/mpa_random.c:67
    ad60:	7100001f 	cmp	w0, #0x0
    ad64:	5a80a400 	cneg	w0, w0, lt
    ad68:	6b00003f 	cmp	w1, w0
    ad6c:	5400026b 	b.lt	adb8 <mpa_get_random+0xfc>
/home/ursus/devel/optee/optee_os/lib/libmpa/mpa_random.c:71
    ad70:	aa1503e0 	mov	x0, x21
    ad74:	97fff7ec 	bl	8d24 <mpa_highest_bit_index>
/home/ursus/devel/optee/optee_os/lib/libmpa/mpa_random.c:73
    ad78:	12001000 	and	w0, w0, #0x1f
    ad7c:	0b130000 	add	w0, w0, w19
/home/ursus/devel/optee/optee_os/lib/libmpa/mpa_random.c:74
    ad80:	7100801f 	cmp	w0, #0x20
    ad84:	54000100 	b.eq	ada4 <mpa_get_random+0xe8>
/home/ursus/devel/optee/optee_os/lib/libmpa/mpa_random.c:75
    ad88:	1ac02273 	lsl	w19, w19, w0
    ad8c:	b9800680 	ldrsw	x0, [x20,#4]
    ad90:	51000673 	sub	w19, w19, #0x1
    ad94:	8b000a80 	add	x0, x20, x0, lsl #2
/home/ursus/devel/optee/optee_os/lib/libmpa/mpa_random.c:76
    ad98:	b9400401 	ldr	w1, [x0,#4]
    ad9c:	0a130033 	and	w19, w1, w19
    ada0:	b9000413 	str	w19, [x0,#4]
/home/ursus/devel/optee/optee_os/lib/libmpa/mpa_random.c:78
    ada4:	aa1503e1 	mov	x1, x21
    ada8:	aa1403e0 	mov	x0, x20
    adac:	94000373 	bl	bb78 <mpa_cmp>
    adb0:	531f7c13 	lsr	w19, w0, #31
    adb4:	17ffffd4 	b	ad04 <mpa_get_random+0x48>
/home/ursus/devel/optee/optee_os/lib/libmpa/mpa_random.c:81
    adb8:	a94153f3 	ldp	x19, x20, [sp,#16]
    adbc:	a9425bf5 	ldp	x21, x22, [sp,#32]
    adc0:	a94363f7 	ldp	x23, x24, [sp,#48]
    adc4:	a9446bf9 	ldp	x25, x26, [sp,#64]
    adc8:	a8c67bfd 	ldp	x29, x30, [sp],#96
    adcc:	d65f03c0 	ret

000000000000add0 <__mpa_shift_words_left>:
__mpa_shift_words_left():
/home/ursus/devel/optee/optee_os/lib/libmpa/mpa_shift.c:44
    add0:	340004a1 	cbz	w1, ae64 <__mpa_shift_words_left+0x94>
/home/ursus/devel/optee/optee_os/lib/libmpa/mpa_shift.c:41 (discriminator 1)
    add4:	a9bd7bfd 	stp	x29, x30, [sp,#-48]!
    add8:	910003fd 	mov	x29, sp
    addc:	f90013f5 	str	x21, [sp,#32]
    ade0:	a90153f3 	stp	x19, x20, [sp,#16]
/home/ursus/devel/optee/optee_os/lib/libmpa/mpa_shift.c:44 (discriminator 1)
    ade4:	b9400415 	ldr	w21, [x0,#4]
    ade8:	710002bf 	cmp	w21, #0x0
    adec:	54000280 	b.eq	ae3c <__mpa_shift_words_left+0x6c>
    adf0:	51000425 	sub	w5, w1, #0x1
/home/ursus/devel/optee/optee_os/lib/libmpa/mpa_shift.c:46
    adf4:	5a95a6a2 	cneg	w2, w21, lt
    adf8:	0b050042 	add	w2, w2, w5
    adfc:	d37e7c43 	ubfiz	x3, x2, #2, #32
    ae00:	91002063 	add	x3, x3, #0x8
    ae04:	8b030003 	add	x3, x0, x3
/home/ursus/devel/optee/optee_os/lib/libmpa/mpa_shift.c:46 (discriminator 1)
    ae08:	6b05005f 	cmp	w2, w5
    ae0c:	54000208 	b.hi	ae4c <__mpa_shift_words_left+0x7c>
    ae10:	2a0103f3 	mov	w19, w1
    ae14:	aa0003f4 	mov	x20, x0
/home/ursus/devel/optee/optee_os/lib/libmpa/mpa_shift.c:49
    ae18:	52800001 	mov	w1, #0x0                   	// #0
    ae1c:	d37e7662 	ubfiz	x2, x19, #2, #30
    ae20:	91002000 	add	x0, x0, #0x8
    ae24:	97fff39e 	bl	7c9c <memset>
/home/ursus/devel/optee/optee_os/lib/libmpa/mpa_shift.c:53
    ae28:	4b1302a0 	sub	w0, w21, w19
    ae2c:	0b1302a1 	add	w1, w21, w19
    ae30:	710002bf 	cmp	w21, #0x0
    ae34:	1a80c021 	csel	w1, w1, w0, gt
    ae38:	b9000681 	str	w1, [x20,#4]
/home/ursus/devel/optee/optee_os/lib/libmpa/mpa_shift.c:56
    ae3c:	a94153f3 	ldp	x19, x20, [sp,#16]
    ae40:	f94013f5 	ldr	x21, [sp,#32]
    ae44:	a8c37bfd 	ldp	x29, x30, [sp],#48
    ae48:	d65f03c0 	ret
/home/ursus/devel/optee/optee_os/lib/libmpa/mpa_shift.c:47 (discriminator 3)
    ae4c:	4b010044 	sub	w4, w2, w1
/home/ursus/devel/optee/optee_os/lib/libmpa/mpa_shift.c:46 (discriminator 3)
    ae50:	51000442 	sub	w2, w2, #0x1
/home/ursus/devel/optee/optee_os/lib/libmpa/mpa_shift.c:47 (discriminator 3)
    ae54:	8b040804 	add	x4, x0, x4, lsl #2
    ae58:	b9400884 	ldr	w4, [x4,#8]
    ae5c:	b81fc464 	str	w4, [x3],#-4
    ae60:	17ffffea 	b	ae08 <__mpa_shift_words_left+0x38>
    ae64:	d65f03c0 	ret

000000000000ae68 <__mpa_shift_words_right>:
__mpa_shift_words_right():
/home/ursus/devel/optee/optee_os/lib/libmpa/mpa_shift.c:64
    ae68:	aa0003e3 	mov	x3, x0
/home/ursus/devel/optee/optee_os/lib/libmpa/mpa_shift.c:67
    ae6c:	34000201 	cbz	w1, aeac <__mpa_shift_words_right+0x44>
/home/ursus/devel/optee/optee_os/lib/libmpa/mpa_shift.c:67 (discriminator 1)
    ae70:	b9400402 	ldr	w2, [x0,#4]
    ae74:	7100005f 	cmp	w2, #0x0
    ae78:	540001a0 	b.eq	aeac <__mpa_shift_words_right+0x44>
/home/ursus/devel/optee/optee_os/lib/libmpa/mpa_shift.c:70
    ae7c:	5a82a444 	cneg	w4, w2, lt
    ae80:	6b04003f 	cmp	w1, w4
    ae84:	54000162 	b.cs	aeb0 <__mpa_shift_words_right+0x48>
    ae88:	91002005 	add	x5, x0, #0x8
    ae8c:	2a0103e0 	mov	w0, w1
/home/ursus/devel/optee/optee_os/lib/libmpa/mpa_shift.c:75 (discriminator 1)
    ae90:	6b04001f 	cmp	w0, w4
    ae94:	54000121 	b.ne	aeb8 <__mpa_shift_words_right+0x50>
/home/ursus/devel/optee/optee_os/lib/libmpa/mpa_shift.c:80
    ae98:	0b010040 	add	w0, w2, w1
    ae9c:	7100005f 	cmp	w2, #0x0
    aea0:	4b010041 	sub	w1, w2, w1
    aea4:	1a80c021 	csel	w1, w1, w0, gt
    aea8:	b9000461 	str	w1, [x3,#4]
    aeac:	d65f03c0 	ret
/home/ursus/devel/optee/optee_os/lib/libmpa/mpa_shift.c:71
    aeb0:	52800001 	mov	w1, #0x0                   	// #0
    aeb4:	17fff9da 	b	961c <mpa_set_word>
/home/ursus/devel/optee/optee_os/lib/libmpa/mpa_shift.c:76 (discriminator 3)
    aeb8:	8b204866 	add	x6, x3, w0, uxtw #2
    aebc:	11000400 	add	w0, w0, #0x1
    aec0:	b94008c6 	ldr	w6, [x6,#8]
    aec4:	b80044a6 	str	w6, [x5],#4
    aec8:	17fffff2 	b	ae90 <__mpa_shift_words_right+0x28>

000000000000aecc <mpa_shift_left>:
mpa_shift_left():
/home/ursus/devel/optee/optee_os/lib/libmpa/mpa_shift.c:98
    aecc:	a9bd7bfd 	stp	x29, x30, [sp,#-48]!
    aed0:	910003fd 	mov	x29, sp
    aed4:	a90153f3 	stp	x19, x20, [sp,#16]
    aed8:	aa0003f3 	mov	x19, x0
    aedc:	a9025bf5 	stp	x21, x22, [sp,#32]
    aee0:	2a0203f6 	mov	w22, w2
/home/ursus/devel/optee/optee_os/lib/libmpa/mpa_shift.c:110
    aee4:	97fff76f 	bl	8ca0 <mpa_copy>
/home/ursus/devel/optee/optee_os/lib/libmpa/mpa_shift.c:111
    aee8:	aa1303e0 	mov	x0, x19
    aeec:	97fff758 	bl	8c4c <__mpa_set_unused_digits_to_zero>
/home/ursus/devel/optee/optee_os/lib/libmpa/mpa_shift.c:112
    aef0:	34000316 	cbz	w22, af50 <mpa_shift_left+0x84>
/home/ursus/devel/optee/optee_os/lib/libmpa/mpa_shift.c:112 (discriminator 1)
    aef4:	b9400674 	ldr	w20, [x19,#4]
    aef8:	340002d4 	cbz	w20, af50 <mpa_shift_left+0x84>
/home/ursus/devel/optee/optee_os/lib/libmpa/mpa_shift.c:116
    aefc:	53057ed5 	lsr	w21, w22, #5
/home/ursus/devel/optee/optee_os/lib/libmpa/mpa_shift.c:132
    af00:	720012d6 	ands	w22, w22, #0x1f
    af04:	540003a1 	b.ne	af78 <mpa_shift_left+0xac>
/home/ursus/devel/optee/optee_os/lib/libmpa/mpa_shift.c:136
    af08:	7100029f 	cmp	w20, #0x0
    af0c:	510006a3 	sub	w3, w21, #0x1
    af10:	5a94a680 	cneg	w0, w20, lt
    af14:	0b030000 	add	w0, w0, w3
    af18:	d37e7c01 	ubfiz	x1, x0, #2, #32
    af1c:	91002021 	add	x1, x1, #0x8
    af20:	8b010261 	add	x1, x19, x1
/home/ursus/devel/optee/optee_os/lib/libmpa/mpa_shift.c:136 (discriminator 1)
    af24:	6b03001f 	cmp	w0, w3
    af28:	540001c8 	b.hi	af60 <mpa_shift_left+0x94>
/home/ursus/devel/optee/optee_os/lib/libmpa/mpa_shift.c:162
    af2c:	d37e6aa2 	ubfiz	x2, x21, #2, #27
    af30:	52800001 	mov	w1, #0x0                   	// #0
    af34:	91002260 	add	x0, x19, #0x8
    af38:	97fff359 	bl	7c9c <memset>
/home/ursus/devel/optee/optee_os/lib/libmpa/mpa_shift.c:164
    af3c:	7100029f 	cmp	w20, #0x0
    af40:	5400088d 	b.le	b050 <mpa_shift_left+0x184>
/home/ursus/devel/optee/optee_os/lib/libmpa/mpa_shift.c:165
    af44:	0b150294 	add	w20, w20, w21
    af48:	0b160294 	add	w20, w20, w22
/home/ursus/devel/optee/optee_os/lib/libmpa/mpa_shift.c:167
    af4c:	b9000674 	str	w20, [x19,#4]
/home/ursus/devel/optee/optee_os/lib/libmpa/mpa_shift.c:168
    af50:	a94153f3 	ldp	x19, x20, [sp,#16]
    af54:	a9425bf5 	ldp	x21, x22, [sp,#32]
    af58:	a8c37bfd 	ldp	x29, x30, [sp],#48
    af5c:	d65f03c0 	ret
/home/ursus/devel/optee/optee_os/lib/libmpa/mpa_shift.c:137 (discriminator 3)
    af60:	4b150002 	sub	w2, w0, w21
/home/ursus/devel/optee/optee_os/lib/libmpa/mpa_shift.c:136 (discriminator 3)
    af64:	51000400 	sub	w0, w0, #0x1
/home/ursus/devel/optee/optee_os/lib/libmpa/mpa_shift.c:137 (discriminator 3)
    af68:	8b020a62 	add	x2, x19, x2, lsl #2
    af6c:	b9400842 	ldr	w2, [x2,#8]
    af70:	b81fc422 	str	w2, [x1],#-4
    af74:	17ffffec 	b	af24 <mpa_shift_left+0x58>
/home/ursus/devel/optee/optee_os/lib/libmpa/mpa_shift.c:139
    af78:	7100029f 	cmp	w20, #0x0
/home/ursus/devel/optee/optee_os/lib/libmpa/mpa_shift.c:140
    af7c:	52800021 	mov	w1, #0x1                   	// #1
/home/ursus/devel/optee/optee_os/lib/libmpa/mpa_shift.c:139
    af80:	5a94a680 	cneg	w0, w20, lt
/home/ursus/devel/optee/optee_os/lib/libmpa/mpa_shift.c:140
    af84:	52800403 	mov	w3, #0x20                  	// #32
/home/ursus/devel/optee/optee_os/lib/libmpa/mpa_shift.c:139
    af88:	51000402 	sub	w2, w0, #0x1
/home/ursus/devel/optee/optee_os/lib/libmpa/mpa_shift.c:140
    af8c:	4b160063 	sub	w3, w3, w22
/home/ursus/devel/optee/optee_os/lib/libmpa/mpa_shift.c:139
    af90:	8b22ca62 	add	x2, x19, w2, sxtw #2
/home/ursus/devel/optee/optee_os/lib/libmpa/mpa_shift.c:140
    af94:	1ad62021 	lsl	w1, w1, w22
    af98:	51000421 	sub	w1, w1, #0x1
/home/ursus/devel/optee/optee_os/lib/libmpa/mpa_shift.c:148
    af9c:	0b150000 	add	w0, w0, w21
/home/ursus/devel/optee/optee_os/lib/libmpa/mpa_shift.c:139
    afa0:	b9400842 	ldr	w2, [x2,#8]
/home/ursus/devel/optee/optee_os/lib/libmpa/mpa_shift.c:140
    afa4:	1ac32021 	lsl	w1, w1, w3
/home/ursus/devel/optee/optee_os/lib/libmpa/mpa_shift.c:139
    afa8:	6a020021 	ands	w1, w1, w2
    afac:	1a9f07e6 	cset	w6, ne
/home/ursus/devel/optee/optee_os/lib/libmpa/mpa_shift.c:148
    afb0:	0b060000 	add	w0, w0, w6
/home/ursus/devel/optee/optee_os/lib/libmpa/mpa_shift.c:149
    afb4:	34000141 	cbz	w1, afdc <mpa_shift_left+0x110>
/home/ursus/devel/optee/optee_os/lib/libmpa/mpa_shift.c:150
    afb8:	2a3503e1 	mvn	w1, w21
    afbc:	8b204a64 	add	x4, x19, w0, uxtw #2
    afc0:	0b000021 	add	w1, w1, w0
    afc4:	8b010a61 	add	x1, x19, x1, lsl #2
    afc8:	b9400821 	ldr	w1, [x1,#8]
    afcc:	1ac32422 	lsr	w2, w1, w3
/home/ursus/devel/optee/optee_os/lib/libmpa/mpa_shift.c:151
    afd0:	b9400881 	ldr	w1, [x4,#8]
    afd4:	4a020021 	eor	w1, w1, w2
    afd8:	b9000881 	str	w1, [x4,#8]
/home/ursus/devel/optee/optee_os/lib/libmpa/mpa_shift.c:153
    afdc:	51000401 	sub	w1, w0, #0x1
    afe0:	4b150000 	sub	w0, w0, w21
/home/ursus/devel/optee/optee_os/lib/libmpa/mpa_shift.c:154
    afe4:	4b150024 	sub	w4, w1, w21
    afe8:	8b010a65 	add	x5, x19, x1, lsl #2
    afec:	8b040a64 	add	x4, x19, x4, lsl #2
/home/ursus/devel/optee/optee_os/lib/libmpa/mpa_shift.c:153
    aff0:	aa0103e2 	mov	x2, x1
    aff4:	91000821 	add	x1, x1, #0x2
    aff8:	51000800 	sub	w0, w0, #0x2
    affc:	8b010a61 	add	x1, x19, x1, lsl #2
/home/ursus/devel/optee/optee_os/lib/libmpa/mpa_shift.c:154
    b000:	b9400884 	ldr	w4, [x4,#8]
    b004:	1ad62084 	lsl	w4, w4, w22
    b008:	b90008a4 	str	w4, [x5,#8]
/home/ursus/devel/optee/optee_os/lib/libmpa/mpa_shift.c:155
    b00c:	6b15005f 	cmp	w2, w21
    b010:	54000068 	b.hi	b01c <mpa_shift_left+0x150>
/home/ursus/devel/optee/optee_os/lib/libmpa/mpa_shift.c:130
    b014:	2a0603f6 	mov	w22, w6
    b018:	17ffffc5 	b	af2c <mpa_shift_left+0x60>
/home/ursus/devel/optee/optee_os/lib/libmpa/mpa_shift.c:156
    b01c:	8b204a67 	add	x7, x19, w0, uxtw #2
/home/ursus/devel/optee/optee_os/lib/libmpa/mpa_shift.c:158
    b020:	51000442 	sub	w2, w2, #0x1
    b024:	51000400 	sub	w0, w0, #0x1
/home/ursus/devel/optee/optee_os/lib/libmpa/mpa_shift.c:156
    b028:	b94008e4 	ldr	w4, [x7,#8]
    b02c:	1ac32485 	lsr	w5, w4, w3
/home/ursus/devel/optee/optee_os/lib/libmpa/mpa_shift.c:157
    b030:	b9400024 	ldr	w4, [x1]
    b034:	4a050084 	eor	w4, w4, w5
    b038:	b81fc424 	str	w4, [x1],#-4
/home/ursus/devel/optee/optee_os/lib/libmpa/mpa_shift.c:159
    b03c:	8b224a65 	add	x5, x19, w2, uxtw #2
    b040:	b94008e4 	ldr	w4, [x7,#8]
    b044:	1ad62084 	lsl	w4, w4, w22
    b048:	b90008a4 	str	w4, [x5,#8]
    b04c:	17fffff0 	b	b00c <mpa_shift_left+0x140>
/home/ursus/devel/optee/optee_os/lib/libmpa/mpa_shift.c:167
    b050:	4b150294 	sub	w20, w20, w21
    b054:	4b160294 	sub	w20, w20, w22
    b058:	17ffffbd 	b	af4c <mpa_shift_left+0x80>

000000000000b05c <mpa_shift_right>:
mpa_shift_right():
/home/ursus/devel/optee/optee_os/lib/libmpa/mpa_shift.c:179
    b05c:	a9be7bfd 	stp	x29, x30, [sp,#-32]!
    b060:	910003fd 	mov	x29, sp
    b064:	a90153f3 	stp	x19, x20, [sp,#16]
    b068:	aa0003f3 	mov	x19, x0
    b06c:	2a0203f4 	mov	w20, w2
/home/ursus/devel/optee/optee_os/lib/libmpa/mpa_shift.c:190
    b070:	97fff70c 	bl	8ca0 <mpa_copy>
/home/ursus/devel/optee/optee_os/lib/libmpa/mpa_shift.c:191
    b074:	aa1303e0 	mov	x0, x19
    b078:	97fff6f5 	bl	8c4c <__mpa_set_unused_digits_to_zero>
/home/ursus/devel/optee/optee_os/lib/libmpa/mpa_shift.c:192
    b07c:	34000674 	cbz	w20, b148 <mpa_shift_right+0xec>
/home/ursus/devel/optee/optee_os/lib/libmpa/mpa_shift.c:192 (discriminator 1)
    b080:	b9400663 	ldr	w3, [x19,#4]
    b084:	7100007f 	cmp	w3, #0x0
    b088:	54000600 	b.eq	b148 <mpa_shift_right+0xec>
/home/ursus/devel/optee/optee_os/lib/libmpa/mpa_shift.c:196
    b08c:	53057e82 	lsr	w2, w20, #5
/home/ursus/devel/optee/optee_os/lib/libmpa/mpa_shift.c:198
    b090:	5a83a466 	cneg	w6, w3, lt
/home/ursus/devel/optee/optee_os/lib/libmpa/mpa_shift.c:195
    b094:	12001284 	and	w4, w20, #0x1f
/home/ursus/devel/optee/optee_os/lib/libmpa/mpa_shift.c:198
    b098:	6b06005f 	cmp	w2, w6
    b09c:	540000c3 	b.cc	b0b4 <mpa_shift_right+0x58>
/home/ursus/devel/optee/optee_os/lib/libmpa/mpa_shift.c:199
    b0a0:	aa1303e0 	mov	x0, x19
    b0a4:	52800001 	mov	w1, #0x0                   	// #0
/home/ursus/devel/optee/optee_os/lib/libmpa/mpa_shift.c:237
    b0a8:	a94153f3 	ldp	x19, x20, [sp,#16]
    b0ac:	a8c27bfd 	ldp	x29, x30, [sp],#32
/home/ursus/devel/optee/optee_os/lib/libmpa/mpa_shift.c:199
    b0b0:	17fff95b 	b	961c <mpa_set_word>
    b0b4:	91002260 	add	x0, x19, #0x8
/home/ursus/devel/optee/optee_os/lib/libmpa/mpa_shift.c:208
    b0b8:	34000264 	cbz	w4, b104 <mpa_shift_right+0xa8>
/home/ursus/devel/optee/optee_os/lib/libmpa/mpa_shift.c:216 (discriminator 1)
    b0bc:	d2800025 	mov	x5, #0x1                   	// #1
/home/ursus/devel/optee/optee_os/lib/libmpa/mpa_shift.c:218 (discriminator 1)
    b0c0:	52800409 	mov	w9, #0x20                  	// #32
/home/ursus/devel/optee/optee_os/lib/libmpa/mpa_shift.c:216 (discriminator 1)
    b0c4:	9ac420a5 	lsl	x5, x5, x4
    b0c8:	2a0203e1 	mov	w1, w2
    b0cc:	510004a5 	sub	w5, w5, #0x1
/home/ursus/devel/optee/optee_os/lib/libmpa/mpa_shift.c:218 (discriminator 1)
    b0d0:	4b040129 	sub	w9, w9, w4
    b0d4:	11000428 	add	w8, w1, #0x1
/home/ursus/devel/optee/optee_os/lib/libmpa/mpa_shift.c:214 (discriminator 1)
    b0d8:	6b0800df 	cmp	w6, w8
    b0dc:	54000461 	b.ne	b168 <mpa_shift_right+0x10c>
    b0e0:	2a2203e0 	mvn	w0, w2
    b0e4:	0b060000 	add	w0, w0, w6
/home/ursus/devel/optee/optee_os/lib/libmpa/mpa_shift.c:221
    b0e8:	8b204a61 	add	x1, x19, w0, uxtw #2
    b0ec:	0b000040 	add	w0, w2, w0
    b0f0:	8b000a60 	add	x0, x19, x0, lsl #2
    b0f4:	b9400800 	ldr	w0, [x0,#8]
    b0f8:	1ac42404 	lsr	w4, w0, w4
    b0fc:	b9000824 	str	w4, [x1,#8]
    b100:	14000004 	b	b110 <mpa_shift_right+0xb4>
/home/ursus/devel/optee/optee_os/lib/libmpa/mpa_shift.c:208 (discriminator 1)
    b104:	2a0203e1 	mov	w1, w2
/home/ursus/devel/optee/optee_os/lib/libmpa/mpa_shift.c:210 (discriminator 1)
    b108:	6b0100df 	cmp	w6, w1
    b10c:	54000241 	b.ne	b154 <mpa_shift_right+0xf8>
/home/ursus/devel/optee/optee_os/lib/libmpa/mpa_shift.c:226
    b110:	0b020060 	add	w0, w3, w2
    b114:	7100007f 	cmp	w3, #0x0
    b118:	4b020062 	sub	w2, w3, w2
    b11c:	1a80c042 	csel	w2, w2, w0, gt
    b120:	b9000662 	str	w2, [x19,#4]
/home/ursus/devel/optee/optee_os/lib/libmpa/mpa_shift.c:231
    b124:	7100005f 	cmp	w2, #0x0
    b128:	5a82a440 	cneg	w0, w2, lt
    b12c:	51000400 	sub	w0, w0, #0x1
    b130:	8b20ca60 	add	x0, x19, w0, sxtw #2
    b134:	b9400800 	ldr	w0, [x0,#8]
    b138:	35000080 	cbnz	w0, b148 <mpa_shift_right+0xec>
/home/ursus/devel/optee/optee_os/lib/libmpa/mpa_shift.c:232
    b13c:	540002ed 	b.le	b198 <mpa_shift_right+0x13c>
/home/ursus/devel/optee/optee_os/lib/libmpa/mpa_shift.c:233
    b140:	51000442 	sub	w2, w2, #0x1
/home/ursus/devel/optee/optee_os/lib/libmpa/mpa_shift.c:235
    b144:	b9000662 	str	w2, [x19,#4]
/home/ursus/devel/optee/optee_os/lib/libmpa/mpa_shift.c:237
    b148:	a94153f3 	ldp	x19, x20, [sp,#16]
    b14c:	a8c27bfd 	ldp	x29, x30, [sp],#32
    b150:	d65f03c0 	ret
/home/ursus/devel/optee/optee_os/lib/libmpa/mpa_shift.c:211 (discriminator 3)
    b154:	8b214a64 	add	x4, x19, w1, uxtw #2
    b158:	11000421 	add	w1, w1, #0x1
    b15c:	b9400884 	ldr	w4, [x4,#8]
    b160:	b8004404 	str	w4, [x0],#4
    b164:	17ffffe9 	b	b108 <mpa_shift_right+0xac>
/home/ursus/devel/optee/optee_os/lib/libmpa/mpa_shift.c:215 (discriminator 3)
    b168:	8b214a61 	add	x1, x19, w1, uxtw #2
    b16c:	b9400827 	ldr	w7, [x1,#8]
/home/ursus/devel/optee/optee_os/lib/libmpa/mpa_shift.c:216 (discriminator 3)
    b170:	8b284a61 	add	x1, x19, w8, uxtw #2
/home/ursus/devel/optee/optee_os/lib/libmpa/mpa_shift.c:215 (discriminator 3)
    b174:	b9000007 	str	w7, [x0]
/home/ursus/devel/optee/optee_os/lib/libmpa/mpa_shift.c:216 (discriminator 3)
    b178:	b9400821 	ldr	w1, [x1,#8]
/home/ursus/devel/optee/optee_os/lib/libmpa/mpa_shift.c:218 (discriminator 3)
    b17c:	1ac424e7 	lsr	w7, w7, w4
/home/ursus/devel/optee/optee_os/lib/libmpa/mpa_shift.c:216 (discriminator 3)
    b180:	0a0100a1 	and	w1, w5, w1
/home/ursus/devel/optee/optee_os/lib/libmpa/mpa_shift.c:218 (discriminator 3)
    b184:	1ac92021 	lsl	w1, w1, w9
    b188:	4a070021 	eor	w1, w1, w7
/home/ursus/devel/optee/optee_os/lib/libmpa/mpa_shift.c:217 (discriminator 3)
    b18c:	b8004401 	str	w1, [x0],#4
    b190:	2a0803e1 	mov	w1, w8
    b194:	17ffffd0 	b	b0d4 <mpa_shift_right+0x78>
/home/ursus/devel/optee/optee_os/lib/libmpa/mpa_shift.c:235
    b198:	11000442 	add	w2, w2, #0x1
    b19c:	17ffffea 	b	b144 <mpa_shift_right+0xe8>

000000000000b1a0 <__mpa_full_adder>:
__mpa_full_adder():
/home/ursus/devel/optee/optee_os/lib/libmpa/mpa_addsub.c:54
    b1a0:	b9400064 	ldr	w4, [x3]
    b1a4:	8b214081 	add	x1, x4, w1, uxtw
    b1a8:	8b204020 	add	x0, x1, w0, uxtw
/home/ursus/devel/optee/optee_os/lib/libmpa/mpa_addsub.c:55
    b1ac:	b9000040 	str	w0, [x2]
/home/ursus/devel/optee/optee_os/lib/libmpa/mpa_addsub.c:56
    b1b0:	d360fc00 	lsr	x0, x0, #32
    b1b4:	b9000060 	str	w0, [x3]
    b1b8:	d65f03c0 	ret

000000000000b1bc <__mpa_full_sub>:
__mpa_full_sub():
/home/ursus/devel/optee/optee_os/lib/libmpa/mpa_addsub.c:77
    b1bc:	2a0003e0 	mov	w0, w0
    b1c0:	cb214001 	sub	x1, x0, w1, uxtw
    b1c4:	b9400060 	ldr	w0, [x3]
    b1c8:	cb000021 	sub	x1, x1, x0
/home/ursus/devel/optee/optee_os/lib/libmpa/mpa_addsub.c:78
    b1cc:	b9000041 	str	w1, [x2]
/home/ursus/devel/optee/optee_os/lib/libmpa/mpa_addsub.c:79
    b1d0:	d360fc21 	lsr	x1, x1, #32
    b1d4:	4b0103e1 	neg	w1, w1
    b1d8:	b9000061 	str	w1, [x3]
    b1dc:	d65f03c0 	ret

000000000000b1e0 <__mpa_full_adder_ackum>:
__mpa_full_adder_ackum():
/home/ursus/devel/optee/optee_os/lib/libmpa/mpa_addsub.c:101
    b1e0:	b9400043 	ldr	w3, [x2]
    b1e4:	8b214061 	add	x1, x3, w1, uxtw
    b1e8:	b9400003 	ldr	w3, [x0]
    b1ec:	8b030021 	add	x1, x1, x3
/home/ursus/devel/optee/optee_os/lib/libmpa/mpa_addsub.c:102
    b1f0:	b9000001 	str	w1, [x0]
/home/ursus/devel/optee/optee_os/lib/libmpa/mpa_addsub.c:103
    b1f4:	d360fc21 	lsr	x1, x1, #32
    b1f8:	b9000041 	str	w1, [x2]
    b1fc:	d65f03c0 	ret

000000000000b200 <__mpa_abs_add>:
__mpa_abs_add():
/home/ursus/devel/optee/optee_os/lib/libmpa/mpa_addsub.c:127
    b200:	a9bd7bfd 	stp	x29, x30, [sp,#-48]!
/home/ursus/devel/optee/optee_os/lib/libmpa/mpa_addsub.c:137
    b204:	6b05007f 	cmp	w3, w5
/home/ursus/devel/optee/optee_os/lib/libmpa/mpa_addsub.c:127
    b208:	910003fd 	mov	x29, sp
    b20c:	a90153f3 	stp	x19, x20, [sp,#16]
    b210:	aa0003f4 	mov	x20, x0
    b214:	f90013f5 	str	x21, [sp,#32]
    b218:	aa0103f5 	mov	x21, x1
/home/ursus/devel/optee/optee_os/lib/libmpa/mpa_addsub.c:137
    b21c:	540000ec 	b.gt	b238 <__mpa_abs_add+0x38>
    b220:	2a0503e0 	mov	w0, w5
    b224:	2a0303e5 	mov	w5, w3
    b228:	2a0003e3 	mov	w3, w0
    b22c:	aa0403e0 	mov	x0, x4
/home/ursus/devel/optee/optee_os/lib/libmpa/mpa_addsub.c:144
    b230:	aa0203e4 	mov	x4, x2
/home/ursus/devel/optee/optee_os/lib/libmpa/mpa_addsub.c:143
    b234:	aa0003e2 	mov	x2, x0
/home/ursus/devel/optee/optee_os/lib/libmpa/mpa_addsub.c:152
    b238:	d2800001 	mov	x1, #0x0                   	// #0
/home/ursus/devel/optee/optee_os/lib/libmpa/mpa_addsub.c:150
    b23c:	52800008 	mov	w8, #0x0                   	// #0
/home/ursus/devel/optee/optee_os/lib/libmpa/mpa_addsub.c:152
    b240:	6b0100bf 	cmp	w5, w1
    b244:	540001ac 	b.gt	b278 <__mpa_abs_add+0x78>
    b248:	710000bf 	cmp	w5, #0x0
    b24c:	1a9fa0a5 	csel	w5, w5, wzr, ge
    b250:	937e7ca1 	sbfiz	x1, x5, #2, #32
    b254:	8b010284 	add	x4, x20, x1
    b258:	8b010041 	add	x1, x2, x1
/home/ursus/devel/optee/optee_os/lib/libmpa/mpa_addsub.c:156
    b25c:	6b05007f 	cmp	w3, w5
    b260:	340002c8 	cbz	w8, b2b8 <__mpa_abs_add+0xb8>
    b264:	91001080 	add	x0, x4, #0x4
/home/ursus/devel/optee/optee_os/lib/libmpa/mpa_addsub.c:156 (discriminator 1)
    b268:	540001ac 	b.gt	b29c <__mpa_abs_add+0x9c>
/home/ursus/devel/optee/optee_os/lib/libmpa/mpa_addsub.c:168
    b26c:	52800021 	mov	w1, #0x1                   	// #1
    b270:	b9000081 	str	w1, [x4]
    b274:	14000019 	b	b2d8 <__mpa_abs_add+0xd8>
__mpa_full_adder():
/home/ursus/devel/optee/optee_os/lib/libmpa/mpa_addsub.c:54
    b278:	b8617886 	ldr	w6, [x4,x1,lsl #2]
    b27c:	2a0803e0 	mov	w0, w8
    b280:	b8617847 	ldr	w7, [x2,x1,lsl #2]
    b284:	8b0700c6 	add	x6, x6, x7
    b288:	8b0000c0 	add	x0, x6, x0
/home/ursus/devel/optee/optee_os/lib/libmpa/mpa_addsub.c:55
    b28c:	b8217a80 	str	w0, [x20,x1,lsl #2]
/home/ursus/devel/optee/optee_os/lib/libmpa/mpa_addsub.c:56
    b290:	d360fc08 	lsr	x8, x0, #32
    b294:	91000421 	add	x1, x1, #0x1
    b298:	17ffffea 	b	b240 <__mpa_abs_add+0x40>
__mpa_abs_add():
/home/ursus/devel/optee/optee_os/lib/libmpa/mpa_addsub.c:157
    b29c:	aa0003e4 	mov	x4, x0
__mpa_full_adder():
/home/ursus/devel/optee/optee_os/lib/libmpa/mpa_addsub.c:54
    b2a0:	b8404420 	ldr	w0, [x1],#4
__mpa_abs_add():
/home/ursus/devel/optee/optee_os/lib/libmpa/mpa_addsub.c:158
    b2a4:	110004a5 	add	w5, w5, #0x1
__mpa_full_adder():
/home/ursus/devel/optee/optee_os/lib/libmpa/mpa_addsub.c:54
    b2a8:	91000400 	add	x0, x0, #0x1
/home/ursus/devel/optee/optee_os/lib/libmpa/mpa_addsub.c:56
    b2ac:	d360fc08 	lsr	x8, x0, #32
/home/ursus/devel/optee/optee_os/lib/libmpa/mpa_addsub.c:55
    b2b0:	b81fc080 	stur	w0, [x4,#-4]
    b2b4:	17ffffea 	b	b25c <__mpa_abs_add+0x5c>
__mpa_abs_add():
/home/ursus/devel/optee/optee_os/lib/libmpa/mpa_addsub.c:161
    b2b8:	540000ed 	b.le	b2d4 <__mpa_abs_add+0xd4>
/home/ursus/devel/optee/optee_os/lib/libmpa/mpa_addsub.c:163
    b2bc:	4b050073 	sub	w19, w3, w5
    b2c0:	aa0403e0 	mov	x0, x4
    b2c4:	531e7662 	lsl	w2, w19, #2
    b2c8:	93407c42 	sxtw	x2, w2
    b2cc:	97fff259 	bl	7c30 <memcpy>
/home/ursus/devel/optee/optee_os/lib/libmpa/mpa_addsub.c:164
    b2d0:	8b33c804 	add	x4, x0, w19, sxtw #2
/home/ursus/devel/optee/optee_os/lib/libmpa/mpa_addsub.c:150
    b2d4:	aa0403e0 	mov	x0, x4
/home/ursus/devel/optee/optee_os/lib/libmpa/mpa_addsub.c:169
    b2d8:	cb140001 	sub	x1, x0, x20
    b2dc:	9342fc20 	asr	x0, x1, #2
    b2e0:	b90002a0 	str	w0, [x21]
/home/ursus/devel/optee/optee_os/lib/libmpa/mpa_addsub.c:170
    b2e4:	a94153f3 	ldp	x19, x20, [sp,#16]
    b2e8:	f94013f5 	ldr	x21, [sp,#32]
    b2ec:	a8c37bfd 	ldp	x29, x30, [sp],#48
    b2f0:	d65f03c0 	ret

000000000000b2f4 <__mpa_abs_add_ackum>:
__mpa_abs_add_ackum():
/home/ursus/devel/optee/optee_os/lib/libmpa/mpa_addsub.c:179
    b2f4:	a9bb7bfd 	stp	x29, x30, [sp,#-80]!
    b2f8:	910003fd 	mov	x29, sp
    b2fc:	a90153f3 	stp	x19, x20, [sp,#16]
/home/ursus/devel/optee/optee_os/lib/libmpa/mpa_addsub.c:190
    b300:	91002014 	add	x20, x0, #0x8
/home/ursus/devel/optee/optee_os/lib/libmpa/mpa_addsub.c:179
    b304:	a9025bf5 	stp	x21, x22, [sp,#32]
    b308:	aa0003f3 	mov	x19, x0
    b30c:	a90363f7 	stp	x23, x24, [sp,#48]
    b310:	aa0103f5 	mov	x21, x1
/home/ursus/devel/optee/optee_os/lib/libmpa/mpa_addsub.c:187
    b314:	b9400400 	ldr	w0, [x0,#4]
/home/ursus/devel/optee/optee_os/lib/libmpa/mpa_addsub.c:193
    b318:	91002038 	add	x24, x1, #0x8
/home/ursus/devel/optee/optee_os/lib/libmpa/mpa_addsub.c:187
    b31c:	b9400421 	ldr	w1, [x1,#4]
/home/ursus/devel/optee/optee_os/lib/libmpa/mpa_addsub.c:196
    b320:	910143b7 	add	x23, x29, #0x50
/home/ursus/devel/optee/optee_os/lib/libmpa/mpa_addsub.c:197
    b324:	d2800016 	mov	x22, #0x0                   	// #0
/home/ursus/devel/optee/optee_os/lib/libmpa/mpa_addsub.c:190
    b328:	6b000022 	subs	w2, w1, w0
    b32c:	52800001 	mov	w1, #0x0                   	// #0
    b330:	1a9f5042 	csel	w2, w2, wzr, pl
    b334:	8b20ca80 	add	x0, x20, w0, sxtw #2
    b338:	11000442 	add	w2, w2, #0x1
    b33c:	531e7442 	lsl	w2, w2, #2
    b340:	93407c42 	sxtw	x2, w2
    b344:	97fff256 	bl	7c9c <memset>
/home/ursus/devel/optee/optee_os/lib/libmpa/mpa_addsub.c:196
    b348:	b81fceff 	str	wzr, [x23,#-4]!
/home/ursus/devel/optee/optee_os/lib/libmpa/mpa_addsub.c:197
    b34c:	b94006a1 	ldr	w1, [x21,#4]
    b350:	8b160a80 	add	x0, x20, x22, lsl #2
    b354:	6b16003f 	cmp	w1, w22
    b358:	540001ec 	b.gt	b394 <__mpa_abs_add_ackum+0xa0>
/home/ursus/devel/optee/optee_os/lib/libmpa/mpa_addsub.c:208
    b35c:	910133b6 	add	x22, x29, #0x4c
/home/ursus/devel/optee/optee_os/lib/libmpa/mpa_addsub.c:207
    b360:	b9404fa1 	ldr	w1, [x29,#76]
    b364:	35000221 	cbnz	w1, b3a8 <__mpa_abs_add_ackum+0xb4>
/home/ursus/devel/optee/optee_os/lib/libmpa/mpa_addsub.c:215
    b368:	cb140000 	sub	x0, x0, x20
/home/ursus/devel/optee/optee_os/lib/libmpa/mpa_addsub.c:216
    b36c:	b9400661 	ldr	w1, [x19,#4]
/home/ursus/devel/optee/optee_os/lib/libmpa/mpa_addsub.c:215
    b370:	9342fc02 	asr	x2, x0, #2
/home/ursus/devel/optee/optee_os/lib/libmpa/mpa_addsub.c:216
    b374:	6b01005f 	cmp	w2, w1
    b378:	5400004d 	b.le	b380 <__mpa_abs_add_ackum+0x8c>
/home/ursus/devel/optee/optee_os/lib/libmpa/mpa_addsub.c:217
    b37c:	b9000662 	str	w2, [x19,#4]
/home/ursus/devel/optee/optee_os/lib/libmpa/mpa_addsub.c:218
    b380:	a94153f3 	ldp	x19, x20, [sp,#16]
    b384:	a9425bf5 	ldp	x21, x22, [sp,#32]
    b388:	a94363f7 	ldp	x23, x24, [sp,#48]
    b38c:	a8c57bfd 	ldp	x29, x30, [sp],#80
    b390:	d65f03c0 	ret
/home/ursus/devel/optee/optee_os/lib/libmpa/mpa_addsub.c:198
    b394:	b8767b01 	ldr	w1, [x24,x22,lsl #2]
    b398:	aa1703e2 	mov	x2, x23
    b39c:	910006d6 	add	x22, x22, #0x1
    b3a0:	97ffff90 	bl	b1e0 <__mpa_full_adder_ackum>
    b3a4:	17ffffea 	b	b34c <__mpa_abs_add_ackum+0x58>
/home/ursus/devel/optee/optee_os/lib/libmpa/mpa_addsub.c:208
    b3a8:	91001015 	add	x21, x0, #0x4
    b3ac:	aa1603e2 	mov	x2, x22
    b3b0:	52800001 	mov	w1, #0x0                   	// #0
    b3b4:	97ffff8b 	bl	b1e0 <__mpa_full_adder_ackum>
    b3b8:	aa1503e0 	mov	x0, x21
    b3bc:	17ffffe9 	b	b360 <__mpa_abs_add_ackum+0x6c>

000000000000b3c0 <__mpa_abs_sub>:
__mpa_abs_sub():
/home/ursus/devel/optee/optee_os/lib/libmpa/mpa_addsub.c:233
    b3c0:	a9ba7bfd 	stp	x29, x30, [sp,#-96]!
    b3c4:	910003fd 	mov	x29, sp
    b3c8:	a9046bf9 	stp	x25, x26, [sp,#64]
/home/ursus/devel/optee/optee_os/lib/libmpa/mpa_addsub.c:237
    b3cc:	910183b9 	add	x25, x29, #0x60
/home/ursus/devel/optee/optee_os/lib/libmpa/mpa_addsub.c:233
    b3d0:	a90153f3 	stp	x19, x20, [sp,#16]
    b3d4:	aa0403fa 	mov	x26, x4
    b3d8:	a9025bf5 	stp	x21, x22, [sp,#32]
    b3dc:	2a0303f4 	mov	w20, w3
    b3e0:	a90363f7 	stp	x23, x24, [sp,#48]
    b3e4:	aa0103f5 	mov	x21, x1
    b3e8:	aa0003f7 	mov	x23, x0
    b3ec:	aa0203f8 	mov	x24, x2
    b3f0:	2a0503f6 	mov	w22, w5
/home/ursus/devel/optee/optee_os/lib/libmpa/mpa_addsub.c:237
    b3f4:	b81fcf3f 	str	wzr, [x25,#-4]!
/home/ursus/devel/optee/optee_os/lib/libmpa/mpa_addsub.c:239
    b3f8:	d2800013 	mov	x19, #0x0                   	// #0
    b3fc:	8b130ae2 	add	x2, x23, x19, lsl #2
    b400:	6b1302df 	cmp	w22, w19
    b404:	5400028c 	b.gt	b454 <__mpa_abs_sub+0x94>
    b408:	710002df 	cmp	w22, #0x0
    b40c:	1a9fa2d3 	csel	w19, w22, wzr, ge
    b410:	937e7e60 	sbfiz	x0, x19, #2, #32
    b414:	8b000316 	add	x22, x24, x0
    b418:	8b0002e4 	add	x4, x23, x0
/home/ursus/devel/optee/optee_os/lib/libmpa/mpa_addsub.c:248
    b41c:	910173b8 	add	x24, x29, #0x5c
/home/ursus/devel/optee/optee_os/lib/libmpa/mpa_addsub.c:247
    b420:	b9405fa0 	ldr	w0, [x29,#92]
    b424:	6b14027f 	cmp	w19, w20
    b428:	34000340 	cbz	w0, b490 <__mpa_abs_sub+0xd0>
/home/ursus/devel/optee/optee_os/lib/libmpa/mpa_addsub.c:247 (discriminator 1)
    b42c:	5400020b 	b.lt	b46c <__mpa_abs_sub+0xac>
/home/ursus/devel/optee/optee_os/lib/libmpa/mpa_addsub.c:262
    b430:	7100029f 	cmp	w20, #0x0
    b434:	5400040c 	b.gt	b4b4 <__mpa_abs_sub+0xf4>
/home/ursus/devel/optee/optee_os/lib/libmpa/mpa_addsub.c:264
    b438:	b90002b4 	str	w20, [x21]
/home/ursus/devel/optee/optee_os/lib/libmpa/mpa_addsub.c:265
    b43c:	a94363f7 	ldp	x23, x24, [sp,#48]
    b440:	a94153f3 	ldp	x19, x20, [sp,#16]
    b444:	a9425bf5 	ldp	x21, x22, [sp,#32]
    b448:	a9446bf9 	ldp	x25, x26, [sp,#64]
    b44c:	a8c67bfd 	ldp	x29, x30, [sp],#96
    b450:	d65f03c0 	ret
/home/ursus/devel/optee/optee_os/lib/libmpa/mpa_addsub.c:240
    b454:	b8737b41 	ldr	w1, [x26,x19,lsl #2]
    b458:	aa1903e3 	mov	x3, x25
    b45c:	b8737b00 	ldr	w0, [x24,x19,lsl #2]
    b460:	91000673 	add	x19, x19, #0x1
    b464:	97ffff56 	bl	b1bc <__mpa_full_sub>
    b468:	17ffffe5 	b	b3fc <__mpa_abs_sub+0x3c>
/home/ursus/devel/optee/optee_os/lib/libmpa/mpa_addsub.c:248
    b46c:	b84046c0 	ldr	w0, [x22],#4
    b470:	91001097 	add	x23, x4, #0x4
    b474:	aa0403e2 	mov	x2, x4
    b478:	aa1803e3 	mov	x3, x24
    b47c:	52800001 	mov	w1, #0x0                   	// #0
/home/ursus/devel/optee/optee_os/lib/libmpa/mpa_addsub.c:249
    b480:	11000673 	add	w19, w19, #0x1
/home/ursus/devel/optee/optee_os/lib/libmpa/mpa_addsub.c:248
    b484:	97ffff4e 	bl	b1bc <__mpa_full_sub>
    b488:	aa1703e4 	mov	x4, x23
    b48c:	17ffffe5 	b	b420 <__mpa_abs_sub+0x60>
/home/ursus/devel/optee/optee_os/lib/libmpa/mpa_addsub.c:252
    b490:	54fffd0a 	b.ge	b430 <__mpa_abs_sub+0x70>
/home/ursus/devel/optee/optee_os/lib/libmpa/mpa_addsub.c:257
    b494:	4b130293 	sub	w19, w20, w19
    b498:	aa0403e0 	mov	x0, x4
    b49c:	531e7662 	lsl	w2, w19, #2
    b4a0:	aa1603e1 	mov	x1, x22
    b4a4:	93407c42 	sxtw	x2, w2
    b4a8:	97fff1e2 	bl	7c30 <memcpy>
/home/ursus/devel/optee/optee_os/lib/libmpa/mpa_addsub.c:258
    b4ac:	8b33c804 	add	x4, x0, w19, sxtw #2
/home/ursus/devel/optee/optee_os/lib/libmpa/mpa_addsub.c:262
    b4b0:	17ffffe0 	b	b430 <__mpa_abs_sub+0x70>
/home/ursus/devel/optee/optee_os/lib/libmpa/mpa_addsub.c:262 (discriminator 1)
    b4b4:	b85fcc80 	ldr	w0, [x4,#-4]!
    b4b8:	35fffc00 	cbnz	w0, b438 <__mpa_abs_sub+0x78>
/home/ursus/devel/optee/optee_os/lib/libmpa/mpa_addsub.c:263
    b4bc:	51000694 	sub	w20, w20, #0x1
    b4c0:	17ffffdc 	b	b430 <__mpa_abs_sub+0x70>

000000000000b4c4 <mpa_add>:
mpa_add():
/home/ursus/devel/optee/optee_os/lib/libmpa/mpa_addsub.c:281
    b4c4:	a9b97bfd 	stp	x29, x30, [sp,#-112]!
    b4c8:	910003fd 	mov	x29, sp
    b4cc:	a90363f7 	stp	x23, x24, [sp,#48]
    b4d0:	aa0203f8 	mov	x24, x2
/home/ursus/devel/optee/optee_os/lib/libmpa/mpa_addsub.c:289
    b4d4:	b9400422 	ldr	w2, [x1,#4]
/home/ursus/devel/optee/optee_os/lib/libmpa/mpa_addsub.c:281
    b4d8:	aa0103f7 	mov	x23, x1
    b4dc:	a9025bf5 	stp	x21, x22, [sp,#32]
/home/ursus/devel/optee/optee_os/lib/libmpa/mpa_addsub.c:290
    b4e0:	b9400701 	ldr	w1, [x24,#4]
/home/ursus/devel/optee/optee_os/lib/libmpa/mpa_addsub.c:289
    b4e4:	7100005f 	cmp	w2, #0x0
    b4e8:	5a82a456 	cneg	w22, w2, lt
/home/ursus/devel/optee/optee_os/lib/libmpa/mpa_addsub.c:281
    b4ec:	a90153f3 	stp	x19, x20, [sp,#16]
/home/ursus/devel/optee/optee_os/lib/libmpa/mpa_addsub.c:290
    b4f0:	7100003f 	cmp	w1, #0x0
/home/ursus/devel/optee/optee_os/lib/libmpa/mpa_addsub.c:281
    b4f4:	a9046bf9 	stp	x25, x26, [sp,#64]
/home/ursus/devel/optee/optee_os/lib/libmpa/mpa_addsub.c:290
    b4f8:	5a81a434 	cneg	w20, w1, lt
/home/ursus/devel/optee/optee_os/lib/libmpa/mpa_addsub.c:281
    b4fc:	aa0003f9 	mov	x25, x0
/home/ursus/devel/optee/optee_os/lib/libmpa/mpa_addsub.c:292
    b500:	12800000 	mov	w0, #0xffffffff            	// #-1
    b504:	6b00005f 	cmp	w2, w0
/home/ursus/devel/optee/optee_os/lib/libmpa/mpa_addsub.c:281
    b508:	a90573fb 	stp	x27, x28, [sp,#80]
/home/ursus/devel/optee/optee_os/lib/libmpa/mpa_addsub.c:292
    b50c:	5a80d41c 	cneg	w28, w0, gt
/home/ursus/devel/optee/optee_os/lib/libmpa/mpa_addsub.c:293
    b510:	6b00003f 	cmp	w1, w0
/home/ursus/devel/optee/optee_os/lib/libmpa/mpa_addsub.c:281
    b514:	aa0303fa 	mov	x26, x3
/home/ursus/devel/optee/optee_os/lib/libmpa/mpa_addsub.c:293
    b518:	5a80d413 	cneg	w19, w0, gt
/home/ursus/devel/optee/optee_os/lib/libmpa/mpa_addsub.c:296
    b51c:	eb1902ff 	cmp	x23, x25
    b520:	1a9f17fb 	cset	w27, eq
    b524:	eb19031f 	cmp	x24, x25
    b528:	1a9f17e0 	cset	w0, eq
    b52c:	2a00037b 	orr	w27, w27, w0
/home/ursus/devel/optee/optee_os/lib/libmpa/mpa_addsub.c:297
    b530:	3400049b 	cbz	w27, b5c0 <mpa_add+0xfc>
/home/ursus/devel/optee/optee_os/lib/libmpa/mpa_addsub.c:298
    b534:	aa0303e1 	mov	x1, x3
    b538:	9101a3a0 	add	x0, x29, #0x68
    b53c:	97fffceb 	bl	a8e8 <mpa_alloc_static_temp_var>
/home/ursus/devel/optee/optee_os/lib/libmpa/mpa_addsub.c:306
    b540:	6b13039f 	cmp	w28, w19
    b544:	910022f5 	add	x21, x23, #0x8
    b548:	91002313 	add	x19, x24, #0x8
    b54c:	540003e1 	b.ne	b5c8 <mpa_add+0x104>
/home/ursus/devel/optee/optee_os/lib/libmpa/mpa_addsub.c:308
    b550:	f94037a0 	ldr	x0, [x29,#104]
    b554:	2a1403e5 	mov	w5, w20
    b558:	aa1303e4 	mov	x4, x19
    b55c:	2a1603e3 	mov	w3, w22
    b560:	91001001 	add	x1, x0, #0x4
    b564:	aa1503e2 	mov	x2, x21
    b568:	91002000 	add	x0, x0, #0x8
    b56c:	97ffff25 	bl	b200 <__mpa_abs_add>
/home/ursus/devel/optee/optee_os/lib/libmpa/mpa_addsub.c:311
    b570:	3100079f 	cmn	w28, #0x1
    b574:	540000a1 	b.ne	b588 <mpa_add+0xc4>
/home/ursus/devel/optee/optee_os/lib/libmpa/mpa_addsub.c:327
    b578:	f94037a1 	ldr	x1, [x29,#104]
    b57c:	b9400420 	ldr	w0, [x1,#4]
    b580:	4b0003e0 	neg	w0, w0
    b584:	b9000420 	str	w0, [x1,#4]
/home/ursus/devel/optee/optee_os/lib/libmpa/mpa_addsub.c:346
    b588:	f94037a1 	ldr	x1, [x29,#104]
    b58c:	aa1903e0 	mov	x0, x25
    b590:	97fff5c4 	bl	8ca0 <mpa_copy>
/home/ursus/devel/optee/optee_os/lib/libmpa/mpa_addsub.c:347
    b594:	3400009b 	cbz	w27, b5a4 <mpa_add+0xe0>
/home/ursus/devel/optee/optee_os/lib/libmpa/mpa_addsub.c:348
    b598:	aa1a03e1 	mov	x1, x26
    b59c:	9101a3a0 	add	x0, x29, #0x68
    b5a0:	97fffcd6 	bl	a8f8 <mpa_free_static_temp_var>
/home/ursus/devel/optee/optee_os/lib/libmpa/mpa_addsub.c:349
    b5a4:	a94153f3 	ldp	x19, x20, [sp,#16]
    b5a8:	a9425bf5 	ldp	x21, x22, [sp,#32]
    b5ac:	a94363f7 	ldp	x23, x24, [sp,#48]
    b5b0:	a9446bf9 	ldp	x25, x26, [sp,#64]
    b5b4:	a94573fb 	ldp	x27, x28, [sp,#80]
    b5b8:	a8c77bfd 	ldp	x29, x30, [sp],#112
    b5bc:	d65f03c0 	ret
/home/ursus/devel/optee/optee_os/lib/libmpa/mpa_addsub.c:300
    b5c0:	f90037b9 	str	x25, [x29,#104]
    b5c4:	17ffffdf 	b	b540 <mpa_add+0x7c>
/home/ursus/devel/optee/optee_os/lib/libmpa/mpa_addsub.c:316
    b5c8:	aa1803e1 	mov	x1, x24
    b5cc:	aa1703e0 	mov	x0, x23
/home/ursus/devel/optee/optee_os/lib/libmpa/mpa_addsub.c:315
    b5d0:	7100079f 	cmp	w28, #0x1
    b5d4:	54000281 	b.ne	b624 <mpa_add+0x160>
/home/ursus/devel/optee/optee_os/lib/libmpa/mpa_addsub.c:316
    b5d8:	9400015b 	bl	bb44 <__mpa_abs_greater_than>
    b5dc:	f94037a6 	ldr	x6, [x29,#104]
    b5e0:	34000120 	cbz	w0, b604 <mpa_add+0x140>
/home/ursus/devel/optee/optee_os/lib/libmpa/mpa_addsub.c:320
    b5e4:	2a1403e5 	mov	w5, w20
    b5e8:	aa1303e4 	mov	x4, x19
    b5ec:	2a1603e3 	mov	w3, w22
    b5f0:	aa1503e2 	mov	x2, x21
/home/ursus/devel/optee/optee_os/lib/libmpa/mpa_addsub.c:340
    b5f4:	910010c1 	add	x1, x6, #0x4
    b5f8:	910020c0 	add	x0, x6, #0x8
    b5fc:	97ffff71 	bl	b3c0 <__mpa_abs_sub>
    b600:	17ffffe2 	b	b588 <mpa_add+0xc4>
/home/ursus/devel/optee/optee_os/lib/libmpa/mpa_addsub.c:325
    b604:	2a1603e5 	mov	w5, w22
    b608:	aa1503e4 	mov	x4, x21
    b60c:	2a1403e3 	mov	w3, w20
    b610:	aa1303e2 	mov	x2, x19
    b614:	910010c1 	add	x1, x6, #0x4
    b618:	910020c0 	add	x0, x6, #0x8
    b61c:	97ffff69 	bl	b3c0 <__mpa_abs_sub>
    b620:	17ffffd6 	b	b578 <mpa_add+0xb4>
/home/ursus/devel/optee/optee_os/lib/libmpa/mpa_addsub.c:331
    b624:	94000148 	bl	bb44 <__mpa_abs_greater_than>
    b628:	f94037a6 	ldr	x6, [x29,#104]
    b62c:	340000c0 	cbz	w0, b644 <mpa_add+0x180>
/home/ursus/devel/optee/optee_os/lib/libmpa/mpa_addsub.c:335
    b630:	2a1403e5 	mov	w5, w20
    b634:	aa1303e4 	mov	x4, x19
    b638:	2a1603e3 	mov	w3, w22
    b63c:	aa1503e2 	mov	x2, x21
    b640:	17fffff5 	b	b614 <mpa_add+0x150>
/home/ursus/devel/optee/optee_os/lib/libmpa/mpa_addsub.c:340
    b644:	2a1603e5 	mov	w5, w22
    b648:	aa1503e4 	mov	x4, x21
    b64c:	2a1403e3 	mov	w3, w20
    b650:	aa1303e2 	mov	x2, x19
    b654:	17ffffe8 	b	b5f4 <mpa_add+0x130>

000000000000b658 <mpa_sub>:
mpa_sub():
/home/ursus/devel/optee/optee_os/lib/libmpa/mpa_addsub.c:359
    b658:	a9b97bfd 	stp	x29, x30, [sp,#-112]!
    b65c:	910003fd 	mov	x29, sp
    b660:	a90363f7 	stp	x23, x24, [sp,#48]
    b664:	aa0203f8 	mov	x24, x2
/home/ursus/devel/optee/optee_os/lib/libmpa/mpa_addsub.c:367
    b668:	b9400422 	ldr	w2, [x1,#4]
/home/ursus/devel/optee/optee_os/lib/libmpa/mpa_addsub.c:359
    b66c:	aa0103f7 	mov	x23, x1
    b670:	a90153f3 	stp	x19, x20, [sp,#16]
/home/ursus/devel/optee/optee_os/lib/libmpa/mpa_addsub.c:368
    b674:	b9400701 	ldr	w1, [x24,#4]
/home/ursus/devel/optee/optee_os/lib/libmpa/mpa_addsub.c:367
    b678:	7100005f 	cmp	w2, #0x0
    b67c:	5a82a454 	cneg	w20, w2, lt
/home/ursus/devel/optee/optee_os/lib/libmpa/mpa_addsub.c:359
    b680:	a9046bf9 	stp	x25, x26, [sp,#64]
/home/ursus/devel/optee/optee_os/lib/libmpa/mpa_addsub.c:368
    b684:	7100003f 	cmp	w1, #0x0
/home/ursus/devel/optee/optee_os/lib/libmpa/mpa_addsub.c:359
    b688:	aa0003f9 	mov	x25, x0
    b68c:	a9025bf5 	stp	x21, x22, [sp,#32]
/home/ursus/devel/optee/optee_os/lib/libmpa/mpa_addsub.c:370
    b690:	12800000 	mov	w0, #0xffffffff            	// #-1
/home/ursus/devel/optee/optee_os/lib/libmpa/mpa_addsub.c:368
    b694:	5a81a436 	cneg	w22, w1, lt
/home/ursus/devel/optee/optee_os/lib/libmpa/mpa_addsub.c:370
    b698:	6b00005f 	cmp	w2, w0
/home/ursus/devel/optee/optee_os/lib/libmpa/mpa_addsub.c:359
    b69c:	a90573fb 	stp	x27, x28, [sp,#80]
/home/ursus/devel/optee/optee_os/lib/libmpa/mpa_addsub.c:370
    b6a0:	5a80d41c 	cneg	w28, w0, gt
/home/ursus/devel/optee/optee_os/lib/libmpa/mpa_addsub.c:371
    b6a4:	6b00003f 	cmp	w1, w0
/home/ursus/devel/optee/optee_os/lib/libmpa/mpa_addsub.c:359
    b6a8:	aa0303fa 	mov	x26, x3
/home/ursus/devel/optee/optee_os/lib/libmpa/mpa_addsub.c:371
    b6ac:	5a80d413 	cneg	w19, w0, gt
/home/ursus/devel/optee/optee_os/lib/libmpa/mpa_addsub.c:374
    b6b0:	eb1902ff 	cmp	x23, x25
    b6b4:	1a9f17fb 	cset	w27, eq
    b6b8:	eb19031f 	cmp	x24, x25
    b6bc:	1a9f17e0 	cset	w0, eq
    b6c0:	2a00037b 	orr	w27, w27, w0
/home/ursus/devel/optee/optee_os/lib/libmpa/mpa_addsub.c:375
    b6c4:	3400049b 	cbz	w27, b754 <mpa_sub+0xfc>
/home/ursus/devel/optee/optee_os/lib/libmpa/mpa_addsub.c:376
    b6c8:	aa0303e1 	mov	x1, x3
    b6cc:	9101a3a0 	add	x0, x29, #0x68
    b6d0:	97fffc86 	bl	a8e8 <mpa_alloc_static_temp_var>
/home/ursus/devel/optee/optee_os/lib/libmpa/mpa_addsub.c:384
    b6d4:	6b13039f 	cmp	w28, w19
    b6d8:	91002315 	add	x21, x24, #0x8
    b6dc:	910022f3 	add	x19, x23, #0x8
    b6e0:	54000701 	b.ne	b7c0 <mpa_sub+0x168>
/home/ursus/devel/optee/optee_os/lib/libmpa/mpa_addsub.c:386
    b6e4:	aa1803e1 	mov	x1, x24
    b6e8:	aa1703e0 	mov	x0, x23
/home/ursus/devel/optee/optee_os/lib/libmpa/mpa_addsub.c:385
    b6ec:	7100079f 	cmp	w28, #0x1
    b6f0:	540004e1 	b.ne	b78c <mpa_sub+0x134>
/home/ursus/devel/optee/optee_os/lib/libmpa/mpa_addsub.c:386
    b6f4:	94000114 	bl	bb44 <__mpa_abs_greater_than>
    b6f8:	f94037a6 	ldr	x6, [x29,#104]
    b6fc:	34000300 	cbz	w0, b75c <mpa_sub+0x104>
/home/ursus/devel/optee/optee_os/lib/libmpa/mpa_addsub.c:389
    b700:	2a1603e5 	mov	w5, w22
    b704:	aa1503e4 	mov	x4, x21
    b708:	2a1403e3 	mov	w3, w20
    b70c:	aa1303e2 	mov	x2, x19
/home/ursus/devel/optee/optee_os/lib/libmpa/mpa_addsub.c:409
    b710:	910010c1 	add	x1, x6, #0x4
    b714:	910020c0 	add	x0, x6, #0x8
    b718:	97ffff2a 	bl	b3c0 <__mpa_abs_sub>
/home/ursus/devel/optee/optee_os/lib/libmpa/mpa_addsub.c:426
    b71c:	f94037a1 	ldr	x1, [x29,#104]
    b720:	aa1903e0 	mov	x0, x25
    b724:	97fff55f 	bl	8ca0 <mpa_copy>
/home/ursus/devel/optee/optee_os/lib/libmpa/mpa_addsub.c:427
    b728:	3400009b 	cbz	w27, b738 <mpa_sub+0xe0>
/home/ursus/devel/optee/optee_os/lib/libmpa/mpa_addsub.c:428
    b72c:	aa1a03e1 	mov	x1, x26
    b730:	9101a3a0 	add	x0, x29, #0x68
    b734:	97fffc71 	bl	a8f8 <mpa_free_static_temp_var>
/home/ursus/devel/optee/optee_os/lib/libmpa/mpa_addsub.c:429
    b738:	a94153f3 	ldp	x19, x20, [sp,#16]
    b73c:	a9425bf5 	ldp	x21, x22, [sp,#32]
    b740:	a94363f7 	ldp	x23, x24, [sp,#48]
    b744:	a9446bf9 	ldp	x25, x26, [sp,#64]
    b748:	a94573fb 	ldp	x27, x28, [sp,#80]
    b74c:	a8c77bfd 	ldp	x29, x30, [sp],#112
    b750:	d65f03c0 	ret
/home/ursus/devel/optee/optee_os/lib/libmpa/mpa_addsub.c:378
    b754:	f90037b9 	str	x25, [x29,#104]
    b758:	17ffffdf 	b	b6d4 <mpa_sub+0x7c>
/home/ursus/devel/optee/optee_os/lib/libmpa/mpa_addsub.c:393
    b75c:	2a1403e5 	mov	w5, w20
    b760:	aa1303e4 	mov	x4, x19
    b764:	2a1603e3 	mov	w3, w22
    b768:	aa1503e2 	mov	x2, x21
/home/ursus/devel/optee/optee_os/lib/libmpa/mpa_addsub.c:404
    b76c:	910010c1 	add	x1, x6, #0x4
    b770:	910020c0 	add	x0, x6, #0x8
    b774:	97ffff13 	bl	b3c0 <__mpa_abs_sub>
/home/ursus/devel/optee/optee_os/lib/libmpa/mpa_addsub.c:422
    b778:	f94037a1 	ldr	x1, [x29,#104]
    b77c:	b9400420 	ldr	w0, [x1,#4]
    b780:	4b0003e0 	neg	w0, w0
    b784:	b9000420 	str	w0, [x1,#4]
    b788:	17ffffe5 	b	b71c <mpa_sub+0xc4>
/home/ursus/devel/optee/optee_os/lib/libmpa/mpa_addsub.c:400
    b78c:	940000ee 	bl	bb44 <__mpa_abs_greater_than>
    b790:	f94037a6 	ldr	x6, [x29,#104]
    b794:	340000c0 	cbz	w0, b7ac <mpa_sub+0x154>
/home/ursus/devel/optee/optee_os/lib/libmpa/mpa_addsub.c:404
    b798:	2a1603e5 	mov	w5, w22
    b79c:	aa1503e4 	mov	x4, x21
    b7a0:	2a1403e3 	mov	w3, w20
    b7a4:	aa1303e2 	mov	x2, x19
    b7a8:	17fffff1 	b	b76c <mpa_sub+0x114>
/home/ursus/devel/optee/optee_os/lib/libmpa/mpa_addsub.c:409
    b7ac:	2a1403e5 	mov	w5, w20
    b7b0:	aa1303e4 	mov	x4, x19
    b7b4:	2a1603e3 	mov	w3, w22
    b7b8:	aa1503e2 	mov	x2, x21
    b7bc:	17ffffd5 	b	b710 <mpa_sub+0xb8>
    b7c0:	f94037a0 	ldr	x0, [x29,#104]
/home/ursus/devel/optee/optee_os/lib/libmpa/mpa_addsub.c:416
    b7c4:	2a1603e5 	mov	w5, w22
    b7c8:	aa1503e4 	mov	x4, x21
    b7cc:	2a1403e3 	mov	w3, w20
    b7d0:	91001001 	add	x1, x0, #0x4
    b7d4:	aa1303e2 	mov	x2, x19
/home/ursus/devel/optee/optee_os/lib/libmpa/mpa_addsub.c:414
    b7d8:	7100079f 	cmp	w28, #0x1
/home/ursus/devel/optee/optee_os/lib/libmpa/mpa_addsub.c:416
    b7dc:	91002000 	add	x0, x0, #0x8
/home/ursus/devel/optee/optee_os/lib/libmpa/mpa_addsub.c:414
    b7e0:	54000061 	b.ne	b7ec <mpa_sub+0x194>
/home/ursus/devel/optee/optee_os/lib/libmpa/mpa_addsub.c:416
    b7e4:	97fffe87 	bl	b200 <__mpa_abs_add>
    b7e8:	17ffffcd 	b	b71c <mpa_sub+0xc4>
/home/ursus/devel/optee/optee_os/lib/libmpa/mpa_addsub.c:420
    b7ec:	97fffe85 	bl	b200 <__mpa_abs_add>
    b7f0:	17ffffe2 	b	b778 <mpa_sub+0x120>

000000000000b7f4 <mpa_neg>:
mpa_neg():
/home/ursus/devel/optee/optee_os/lib/libmpa/mpa_addsub.c:438
    b7f4:	a9be7bfd 	stp	x29, x30, [sp,#-32]!
    b7f8:	910003fd 	mov	x29, sp
    b7fc:	f9000bf3 	str	x19, [sp,#16]
    b800:	aa0003f3 	mov	x19, x0
/home/ursus/devel/optee/optee_os/lib/libmpa/mpa_addsub.c:439
    b804:	97fff527 	bl	8ca0 <mpa_copy>
/home/ursus/devel/optee/optee_os/lib/libmpa/mpa_addsub.c:440
    b808:	b9400660 	ldr	w0, [x19,#4]
    b80c:	4b0003e0 	neg	w0, w0
    b810:	b9000660 	str	w0, [x19,#4]
/home/ursus/devel/optee/optee_os/lib/libmpa/mpa_addsub.c:441
    b814:	f9400bf3 	ldr	x19, [sp,#16]
    b818:	a8c27bfd 	ldp	x29, x30, [sp],#32
    b81c:	d65f03c0 	ret

000000000000b820 <mpa_add_word>:
mpa_add_word():
/home/ursus/devel/optee/optee_os/lib/libmpa/mpa_addsub.c:450
    b820:	a9ba7bfd 	stp	x29, x30, [sp,#-96]!
    b824:	910003fd 	mov	x29, sp
    b828:	a90153f3 	stp	x19, x20, [sp,#16]
    b82c:	a9025bf5 	stp	x21, x22, [sp,#32]
    b830:	b9004fa2 	str	w2, [x29,#76]
    b834:	f9001bf7 	str	x23, [sp,#48]
/home/ursus/devel/optee/optee_os/lib/libmpa/mpa_addsub.c:456
    b838:	350000e2 	cbnz	w2, b854 <mpa_add_word+0x34>
/home/ursus/devel/optee/optee_os/lib/libmpa/mpa_addsub.c:457
    b83c:	97fff519 	bl	8ca0 <mpa_copy>
/home/ursus/devel/optee/optee_os/lib/libmpa/mpa_addsub.c:500
    b840:	a94153f3 	ldp	x19, x20, [sp,#16]
    b844:	a9425bf5 	ldp	x21, x22, [sp,#32]
    b848:	f9401bf7 	ldr	x23, [sp,#48]
    b84c:	a8c67bfd 	ldp	x29, x30, [sp],#96
    b850:	d65f03c0 	ret
    b854:	aa0303f6 	mov	x22, x3
/home/ursus/devel/optee/optee_os/lib/libmpa/mpa_addsub.c:461
    b858:	b9400423 	ldr	w3, [x1,#4]
    b85c:	aa0003f5 	mov	x21, x0
    b860:	aa0103f4 	mov	x20, x1
    b864:	35000083 	cbnz	w3, b874 <mpa_add_word+0x54>
/home/ursus/devel/optee/optee_os/lib/libmpa/mpa_addsub.c:462
    b868:	52800020 	mov	w0, #0x1                   	// #1
/home/ursus/devel/optee/optee_os/lib/libmpa/mpa_addsub.c:463
    b86c:	29008aa0 	stp	w0, w2, [x21,#4]
/home/ursus/devel/optee/optee_os/lib/libmpa/mpa_addsub.c:464
    b870:	17fffff4 	b	b840 <mpa_add_word+0x20>
/home/ursus/devel/optee/optee_os/lib/libmpa/mpa_addsub.c:467
    b874:	12800017 	mov	w23, #0xffffffff            	// #-1
    b878:	6b17007f 	cmp	w3, w23
    b87c:	5a97d6f7 	cneg	w23, w23, gt
/home/ursus/devel/optee/optee_os/lib/libmpa/mpa_addsub.c:468
    b880:	7100007f 	cmp	w3, #0x0
    b884:	5a83a473 	cneg	w19, w3, lt
/home/ursus/devel/optee/optee_os/lib/libmpa/mpa_addsub.c:472
    b888:	eb00003f 	cmp	x1, x0
    b88c:	540002e1 	b.ne	b8e8 <mpa_add_word+0xc8>
/home/ursus/devel/optee/optee_os/lib/libmpa/mpa_addsub.c:473
    b890:	aa1603e1 	mov	x1, x22
    b894:	910163a0 	add	x0, x29, #0x58
    b898:	97fffc14 	bl	a8e8 <mpa_alloc_static_temp_var>
/home/ursus/devel/optee/optee_os/lib/libmpa/mpa_addsub.c:478
    b89c:	710006ff 	cmp	w23, #0x1
    b8a0:	f9402fa0 	ldr	x0, [x29,#88]
    b8a4:	54000261 	b.ne	b8f0 <mpa_add_word+0xd0>
/home/ursus/devel/optee/optee_os/lib/libmpa/mpa_addsub.c:480
    b8a8:	91001001 	add	x1, x0, #0x4
    b8ac:	2a1703e5 	mov	w5, w23
    b8b0:	910133a4 	add	x4, x29, #0x4c
    b8b4:	2a1303e3 	mov	w3, w19
    b8b8:	91002282 	add	x2, x20, #0x8
    b8bc:	91002000 	add	x0, x0, #0x8
    b8c0:	97fffe50 	bl	b200 <__mpa_abs_add>
/home/ursus/devel/optee/optee_os/lib/libmpa/mpa_addsub.c:497
    b8c4:	f9402fa1 	ldr	x1, [x29,#88]
    b8c8:	aa1503e0 	mov	x0, x21
    b8cc:	97fff4f5 	bl	8ca0 <mpa_copy>
/home/ursus/devel/optee/optee_os/lib/libmpa/mpa_addsub.c:498
    b8d0:	eb15029f 	cmp	x20, x21
    b8d4:	54fffb61 	b.ne	b840 <mpa_add_word+0x20>
/home/ursus/devel/optee/optee_os/lib/libmpa/mpa_addsub.c:499
    b8d8:	aa1603e1 	mov	x1, x22
    b8dc:	910163a0 	add	x0, x29, #0x58
    b8e0:	97fffc06 	bl	a8f8 <mpa_free_static_temp_var>
    b8e4:	17ffffd7 	b	b840 <mpa_add_word+0x20>
/home/ursus/devel/optee/optee_os/lib/libmpa/mpa_addsub.c:475
    b8e8:	f9002fa0 	str	x0, [x29,#88]
    b8ec:	17ffffec 	b	b89c <mpa_add_word+0x7c>
/home/ursus/devel/optee/optee_os/lib/libmpa/mpa_addsub.c:483
    b8f0:	b9400681 	ldr	w1, [x20,#4]
    b8f4:	7100003f 	cmp	w1, #0x0
    b8f8:	5a81a421 	cneg	w1, w1, lt
    b8fc:	7100043f 	cmp	w1, #0x1
    b900:	540000ac 	b.gt	b914 <mpa_add_word+0xf4>
/home/ursus/devel/optee/optee_os/lib/libmpa/mpa_addsub.c:483 (discriminator 1)
    b904:	b9400a82 	ldr	w2, [x20,#8]
    b908:	b9404fa1 	ldr	w1, [x29,#76]
    b90c:	6b01005f 	cmp	w2, w1
    b910:	540001a9 	b.ls	b944 <mpa_add_word+0x124>
/home/ursus/devel/optee/optee_os/lib/libmpa/mpa_addsub.c:487
    b914:	91001001 	add	x1, x0, #0x4
    b918:	52800025 	mov	w5, #0x1                   	// #1
    b91c:	91002000 	add	x0, x0, #0x8
    b920:	910133a4 	add	x4, x29, #0x4c
    b924:	2a1303e3 	mov	w3, w19
    b928:	91002282 	add	x2, x20, #0x8
    b92c:	97fffea5 	bl	b3c0 <__mpa_abs_sub>
/home/ursus/devel/optee/optee_os/lib/libmpa/mpa_addsub.c:489
    b930:	f9402fa1 	ldr	x1, [x29,#88]
    b934:	b9400420 	ldr	w0, [x1,#4]
    b938:	4b0003e0 	neg	w0, w0
    b93c:	b9000420 	str	w0, [x1,#4]
    b940:	17ffffe1 	b	b8c4 <mpa_add_word+0xa4>
/home/ursus/devel/optee/optee_os/lib/libmpa/mpa_addsub.c:492
    b944:	4b020021 	sub	w1, w1, w2
    b948:	b9000801 	str	w1, [x0,#8]
/home/ursus/devel/optee/optee_os/lib/libmpa/mpa_addsub.c:493
    b94c:	7100003f 	cmp	w1, #0x0
    b950:	1a9f07e1 	cset	w1, ne
    b954:	b9000401 	str	w1, [x0,#4]
    b958:	17ffffdb 	b	b8c4 <mpa_add_word+0xa4>

000000000000b95c <mpa_sub_word>:
mpa_sub_word():
/home/ursus/devel/optee/optee_os/lib/libmpa/mpa_addsub.c:509
    b95c:	a9ba7bfd 	stp	x29, x30, [sp,#-96]!
    b960:	910003fd 	mov	x29, sp
    b964:	a90153f3 	stp	x19, x20, [sp,#16]
    b968:	a9025bf5 	stp	x21, x22, [sp,#32]
    b96c:	b9004fa2 	str	w2, [x29,#76]
    b970:	f9001bf7 	str	x23, [sp,#48]
/home/ursus/devel/optee/optee_os/lib/libmpa/mpa_addsub.c:515
    b974:	350000e2 	cbnz	w2, b990 <mpa_sub_word+0x34>
/home/ursus/devel/optee/optee_os/lib/libmpa/mpa_addsub.c:516
    b978:	97fff4ca 	bl	8ca0 <mpa_copy>
/home/ursus/devel/optee/optee_os/lib/libmpa/mpa_addsub.c:561
    b97c:	a94153f3 	ldp	x19, x20, [sp,#16]
    b980:	a9425bf5 	ldp	x21, x22, [sp,#32]
    b984:	f9401bf7 	ldr	x23, [sp,#48]
    b988:	a8c67bfd 	ldp	x29, x30, [sp],#96
    b98c:	d65f03c0 	ret
    b990:	aa0303f6 	mov	x22, x3
/home/ursus/devel/optee/optee_os/lib/libmpa/mpa_addsub.c:520
    b994:	b9400423 	ldr	w3, [x1,#4]
    b998:	aa0003f5 	mov	x21, x0
    b99c:	aa0103f4 	mov	x20, x1
/home/ursus/devel/optee/optee_os/lib/libmpa/mpa_addsub.c:521
    b9a0:	12800000 	mov	w0, #0xffffffff            	// #-1
/home/ursus/devel/optee/optee_os/lib/libmpa/mpa_addsub.c:520
    b9a4:	35000063 	cbnz	w3, b9b0 <mpa_sub_word+0x54>
/home/ursus/devel/optee/optee_os/lib/libmpa/mpa_addsub.c:522
    b9a8:	29008aa0 	stp	w0, w2, [x21,#4]
/home/ursus/devel/optee/optee_os/lib/libmpa/mpa_addsub.c:523
    b9ac:	17fffff4 	b	b97c <mpa_sub_word+0x20>
/home/ursus/devel/optee/optee_os/lib/libmpa/mpa_addsub.c:526
    b9b0:	6b00007f 	cmp	w3, w0
    b9b4:	5a80d417 	cneg	w23, w0, gt
/home/ursus/devel/optee/optee_os/lib/libmpa/mpa_addsub.c:527
    b9b8:	7100007f 	cmp	w3, #0x0
    b9bc:	5a83a473 	cneg	w19, w3, lt
/home/ursus/devel/optee/optee_os/lib/libmpa/mpa_addsub.c:531
    b9c0:	eb15003f 	cmp	x1, x21
    b9c4:	54000401 	b.ne	ba44 <mpa_sub_word+0xe8>
/home/ursus/devel/optee/optee_os/lib/libmpa/mpa_addsub.c:532
    b9c8:	aa1603e1 	mov	x1, x22
    b9cc:	910163a0 	add	x0, x29, #0x58
    b9d0:	97fffbc6 	bl	a8e8 <mpa_alloc_static_temp_var>
/home/ursus/devel/optee/optee_os/lib/libmpa/mpa_addsub.c:544
    b9d4:	710006ff 	cmp	w23, #0x1
    b9d8:	f9402fa0 	ldr	x0, [x29,#88]
    b9dc:	54000441 	b.ne	ba64 <mpa_sub_word+0x108>
/home/ursus/devel/optee/optee_os/lib/libmpa/mpa_addsub.c:545
    b9e0:	b9400681 	ldr	w1, [x20,#4]
    b9e4:	7100003f 	cmp	w1, #0x0
    b9e8:	5a81a421 	cneg	w1, w1, lt
    b9ec:	7100043f 	cmp	w1, #0x1
    b9f0:	540000ac 	b.gt	ba04 <mpa_sub_word+0xa8>
/home/ursus/devel/optee/optee_os/lib/libmpa/mpa_addsub.c:545 (discriminator 1)
    b9f4:	b9400a82 	ldr	w2, [x20,#8]
    b9f8:	b9404fa1 	ldr	w1, [x29,#76]
    b9fc:	6b01005f 	cmp	w2, w1
    ba00:	54000269 	b.ls	ba4c <mpa_sub_word+0xf0>
/home/ursus/devel/optee/optee_os/lib/libmpa/mpa_addsub.c:546
    ba04:	91001001 	add	x1, x0, #0x4
    ba08:	52800025 	mov	w5, #0x1                   	// #1
    ba0c:	910133a4 	add	x4, x29, #0x4c
    ba10:	2a1303e3 	mov	w3, w19
    ba14:	91002282 	add	x2, x20, #0x8
    ba18:	91002000 	add	x0, x0, #0x8
    ba1c:	97fffe69 	bl	b3c0 <__mpa_abs_sub>
/home/ursus/devel/optee/optee_os/lib/libmpa/mpa_addsub.c:558
    ba20:	f9402fa1 	ldr	x1, [x29,#88]
    ba24:	aa1503e0 	mov	x0, x21
    ba28:	97fff49e 	bl	8ca0 <mpa_copy>
/home/ursus/devel/optee/optee_os/lib/libmpa/mpa_addsub.c:559
    ba2c:	eb15029f 	cmp	x20, x21
    ba30:	54fffa61 	b.ne	b97c <mpa_sub_word+0x20>
/home/ursus/devel/optee/optee_os/lib/libmpa/mpa_addsub.c:560
    ba34:	aa1603e1 	mov	x1, x22
    ba38:	910163a0 	add	x0, x29, #0x58
    ba3c:	97fffbaf 	bl	a8f8 <mpa_free_static_temp_var>
    ba40:	17ffffcf 	b	b97c <mpa_sub_word+0x20>
/home/ursus/devel/optee/optee_os/lib/libmpa/mpa_addsub.c:534
    ba44:	f9002fb5 	str	x21, [x29,#88]
    ba48:	17ffffe3 	b	b9d4 <mpa_sub_word+0x78>
/home/ursus/devel/optee/optee_os/lib/libmpa/mpa_addsub.c:549
    ba4c:	4b020021 	sub	w1, w1, w2
    ba50:	b9000801 	str	w1, [x0,#8]
/home/ursus/devel/optee/optee_os/lib/libmpa/mpa_addsub.c:550
    ba54:	7100003f 	cmp	w1, #0x0
    ba58:	5a9f03e1 	csetm	w1, ne
    ba5c:	b9000401 	str	w1, [x0,#4]
    ba60:	17fffff0 	b	ba20 <mpa_sub_word+0xc4>
/home/ursus/devel/optee/optee_os/lib/libmpa/mpa_addsub.c:553
    ba64:	91001001 	add	x1, x0, #0x4
    ba68:	52800025 	mov	w5, #0x1                   	// #1
    ba6c:	91002000 	add	x0, x0, #0x8
    ba70:	910133a4 	add	x4, x29, #0x4c
    ba74:	2a1303e3 	mov	w3, w19
    ba78:	91002282 	add	x2, x20, #0x8
    ba7c:	97fffde1 	bl	b200 <__mpa_abs_add>
/home/ursus/devel/optee/optee_os/lib/libmpa/mpa_addsub.c:555
    ba80:	f9402fa1 	ldr	x1, [x29,#88]
    ba84:	b9400420 	ldr	w0, [x1,#4]
    ba88:	4b0003e0 	neg	w0, w0
    ba8c:	b9000420 	str	w0, [x1,#4]
    ba90:	17ffffe4 	b	ba20 <mpa_sub_word+0xc4>

000000000000ba94 <__mpa_abs_cmp>:
__mpa_abs_cmp():
/home/ursus/devel/optee/optee_os/lib/libmpa/mpa_cmp.c:43
    ba94:	aa0003e4 	mov	x4, x0
/home/ursus/devel/optee/optee_os/lib/libmpa/mpa_cmp.c:48
    ba98:	eb01001f 	cmp	x0, x1
    ba9c:	54000500 	b.eq	bb3c <__mpa_abs_cmp+0xa8>
/home/ursus/devel/optee/optee_os/lib/libmpa/mpa_cmp.c:52
    baa0:	b9400482 	ldr	w2, [x4,#4]
    baa4:	b9400420 	ldr	w0, [x1,#4]
    baa8:	7100005f 	cmp	w2, #0x0
    baac:	5a82a443 	cneg	w3, w2, lt
    bab0:	7100001f 	cmp	w0, #0x0
    bab4:	5a80a405 	cneg	w5, w0, lt
    bab8:	6b05007f 	cmp	w3, w5
    babc:	54000060 	b.eq	bac8 <__mpa_abs_cmp+0x34>
/home/ursus/devel/optee/optee_os/lib/libmpa/mpa_cmp.c:53
    bac0:	4b050060 	sub	w0, w3, w5
    bac4:	d65f03c0 	ret
/home/ursus/devel/optee/optee_os/lib/libmpa/mpa_cmp.c:55 (discriminator 1)
    bac8:	2a000040 	orr	w0, w2, w0
    bacc:	340003a0 	cbz	w0, bb40 <__mpa_abs_cmp+0xac>
/home/ursus/devel/optee/optee_os/lib/libmpa/mpa_cmp.c:59
    bad0:	51000462 	sub	w2, w3, #0x1
/home/ursus/devel/optee/optee_os/lib/libmpa/mpa_cmp.c:60
    bad4:	52800025 	mov	w5, #0x1                   	// #1
    bad8:	93407c43 	sxtw	x3, w2
    badc:	91000863 	add	x3, x3, #0x2
    bae0:	d37ef463 	lsl	x3, x3, #2
/home/ursus/devel/optee/optee_os/lib/libmpa/mpa_cmp.c:61
    bae4:	2a2203e0 	mvn	w0, w2
    bae8:	6a407cbf 	tst	w5, w0, lsr #31
    baec:	540001a1 	b.ne	bb20 <__mpa_abs_cmp+0x8c>
/home/ursus/devel/optee/optee_os/lib/libmpa/mpa_cmp.c:49
    baf0:	52800000 	mov	w0, #0x0                   	// #0
/home/ursus/devel/optee/optee_os/lib/libmpa/mpa_cmp.c:65
    baf4:	35000265 	cbnz	w5, bb40 <__mpa_abs_cmp+0xac>
/home/ursus/devel/optee/optee_os/lib/libmpa/mpa_cmp.c:67
    baf8:	11000442 	add	w2, w2, #0x1
/home/ursus/devel/optee/optee_os/lib/libmpa/mpa_cmp.c:68
    bafc:	12800000 	mov	w0, #0xffffffff            	// #-1
    bb00:	937e7c42 	sbfiz	x2, x2, #2, #32
    bb04:	8b020084 	add	x4, x4, x2
    bb08:	8b020022 	add	x2, x1, x2
    bb0c:	b9400883 	ldr	w3, [x4,#8]
    bb10:	b9400841 	ldr	w1, [x2,#8]
    bb14:	6b01007f 	cmp	w3, w1
    bb18:	5a809400 	cneg	w0, w0, hi
    bb1c:	d65f03c0 	ret
/home/ursus/devel/optee/optee_os/lib/libmpa/mpa_cmp.c:62
    bb20:	b8636885 	ldr	w5, [x4,x3]
/home/ursus/devel/optee/optee_os/lib/libmpa/mpa_cmp.c:63
    bb24:	51000442 	sub	w2, w2, #0x1
/home/ursus/devel/optee/optee_os/lib/libmpa/mpa_cmp.c:62
    bb28:	b8636820 	ldr	w0, [x1,x3]
    bb2c:	d1001063 	sub	x3, x3, #0x4
    bb30:	6b0000bf 	cmp	w5, w0
    bb34:	1a9f17e5 	cset	w5, eq
    bb38:	17ffffeb 	b	bae4 <__mpa_abs_cmp+0x50>
/home/ursus/devel/optee/optee_os/lib/libmpa/mpa_cmp.c:49
    bb3c:	52800000 	mov	w0, #0x0                   	// #0
/home/ursus/devel/optee/optee_os/lib/libmpa/mpa_cmp.c:69
    bb40:	d65f03c0 	ret

000000000000bb44 <__mpa_abs_greater_than>:
__mpa_abs_greater_than():
/home/ursus/devel/optee/optee_os/lib/libmpa/mpa_cmp.c:77
    bb44:	a9bf7bfd 	stp	x29, x30, [sp,#-16]!
    bb48:	910003fd 	mov	x29, sp
/home/ursus/devel/optee/optee_os/lib/libmpa/mpa_cmp.c:78
    bb4c:	97ffffd2 	bl	ba94 <__mpa_abs_cmp>
    bb50:	7100001f 	cmp	w0, #0x0
/home/ursus/devel/optee/optee_os/lib/libmpa/mpa_cmp.c:79
    bb54:	1a9fd7e0 	cset	w0, gt
    bb58:	a8c17bfd 	ldp	x29, x30, [sp],#16
    bb5c:	d65f03c0 	ret

000000000000bb60 <__mpa_abs_less_than>:
__mpa_abs_less_than():
/home/ursus/devel/optee/optee_os/lib/libmpa/mpa_cmp.c:87
    bb60:	a9bf7bfd 	stp	x29, x30, [sp,#-16]!
    bb64:	910003fd 	mov	x29, sp
/home/ursus/devel/optee/optee_os/lib/libmpa/mpa_cmp.c:88
    bb68:	97ffffcb 	bl	ba94 <__mpa_abs_cmp>
/home/ursus/devel/optee/optee_os/lib/libmpa/mpa_cmp.c:89
    bb6c:	531f7c00 	lsr	w0, w0, #31
    bb70:	a8c17bfd 	ldp	x29, x30, [sp],#16
    bb74:	d65f03c0 	ret

000000000000bb78 <mpa_cmp>:
mpa_cmp():
/home/ursus/devel/optee/optee_os/lib/libmpa/mpa_cmp.c:105
    bb78:	a9be7bfd 	stp	x29, x30, [sp,#-32]!
/home/ursus/devel/optee/optee_os/lib/libmpa/mpa_cmp.c:110
    bb7c:	12800002 	mov	w2, #0xffffffff            	// #-1
/home/ursus/devel/optee/optee_os/lib/libmpa/mpa_cmp.c:105
    bb80:	910003fd 	mov	x29, sp
/home/ursus/devel/optee/optee_os/lib/libmpa/mpa_cmp.c:110
    bb84:	b9400404 	ldr	w4, [x0,#4]
/home/ursus/devel/optee/optee_os/lib/libmpa/mpa_cmp.c:111
    bb88:	b9400423 	ldr	w3, [x1,#4]
/home/ursus/devel/optee/optee_os/lib/libmpa/mpa_cmp.c:110
    bb8c:	6b02009f 	cmp	w4, w2
/home/ursus/devel/optee/optee_os/lib/libmpa/mpa_cmp.c:105
    bb90:	f9000bf3 	str	x19, [sp,#16]
/home/ursus/devel/optee/optee_os/lib/libmpa/mpa_cmp.c:110
    bb94:	5a82d453 	cneg	w19, w2, gt
/home/ursus/devel/optee/optee_os/lib/libmpa/mpa_cmp.c:111
    bb98:	6b02007f 	cmp	w3, w2
    bb9c:	5a82d442 	cneg	w2, w2, gt
    bba0:	6b02027f 	cmp	w19, w2
    bba4:	540000e1 	b.ne	bbc0 <mpa_cmp+0x48>
/home/ursus/devel/optee/optee_os/lib/libmpa/mpa_cmp.c:115
    bba8:	35000144 	cbnz	w4, bbd0 <mpa_cmp+0x58>
/home/ursus/devel/optee/optee_os/lib/libmpa/mpa_cmp.c:116
    bbac:	52800013 	mov	w19, #0x0                   	// #0
    bbb0:	34000083 	cbz	w3, bbc0 <mpa_cmp+0x48>
/home/ursus/devel/optee/optee_os/lib/libmpa/mpa_cmp.c:116 (discriminator 1)
    bbb4:	3100047f 	cmn	w3, #0x1
    bbb8:	52800026 	mov	w6, #0x1                   	// #1
    bbbc:	5a86d4d3 	cneg	w19, w6, gt
/home/ursus/devel/optee/optee_os/lib/libmpa/mpa_cmp.c:126
    bbc0:	2a1303e0 	mov	w0, w19
    bbc4:	f9400bf3 	ldr	x19, [sp,#16]
    bbc8:	a8c27bfd 	ldp	x29, x30, [sp],#32
    bbcc:	d65f03c0 	ret
/home/ursus/devel/optee/optee_os/lib/libmpa/mpa_cmp.c:122
    bbd0:	97ffffb1 	bl	ba94 <__mpa_abs_cmp>
/home/ursus/devel/optee/optee_os/lib/libmpa/mpa_cmp.c:124
    bbd4:	7100067f 	cmp	w19, #0x1
    bbd8:	5a800413 	cneg	w19, w0, ne
    bbdc:	17fffff9 	b	bbc0 <mpa_cmp+0x48>

000000000000bbe0 <mpa_cmp_short>:
mpa_cmp_short():
/home/ursus/devel/optee/optee_os/lib/libmpa/mpa_cmp.c:144
    bbe0:	b9400403 	ldr	w3, [x0,#4]
/home/ursus/devel/optee/optee_os/lib/libmpa/mpa_cmp.c:137
    bbe4:	aa0003e4 	mov	x4, x0
/home/ursus/devel/optee/optee_os/lib/libmpa/mpa_cmp.c:144
    bbe8:	37f80343 	tbnz	w3, #31, bc50 <mpa_cmp_short+0x70>
/home/ursus/devel/optee/optee_os/lib/libmpa/mpa_cmp.c:145 (discriminator 4)
    bbec:	37f802a1 	tbnz	w1, #31, bc40 <mpa_cmp_short+0x60>
/home/ursus/devel/optee/optee_os/lib/libmpa/mpa_cmp.c:148 (discriminator 4)
    bbf0:	350000c3 	cbnz	w3, bc08 <mpa_cmp_short+0x28>
/home/ursus/devel/optee/optee_os/lib/libmpa/mpa_cmp.c:149
    bbf4:	52800000 	mov	w0, #0x0                   	// #0
    bbf8:	34000341 	cbz	w1, bc60 <mpa_cmp_short+0x80>
/home/ursus/devel/optee/optee_os/lib/libmpa/mpa_cmp.c:145
    bbfc:	52800022 	mov	w2, #0x1                   	// #1
/home/ursus/devel/optee/optee_os/lib/libmpa/mpa_cmp.c:149 (discriminator 1)
    bc00:	4b0203e0 	neg	w0, w2
    bc04:	d65f03c0 	ret
/home/ursus/devel/optee/optee_os/lib/libmpa/mpa_cmp.c:144
    bc08:	52800020 	mov	w0, #0x1                   	// #1
/home/ursus/devel/optee/optee_os/lib/libmpa/mpa_cmp.c:145
    bc0c:	52800022 	mov	w2, #0x1                   	// #1
/home/ursus/devel/optee/optee_os/lib/libmpa/mpa_cmp.c:152
    bc10:	7100007f 	cmp	w3, #0x0
    bc14:	5a83a463 	cneg	w3, w3, lt
/home/ursus/devel/optee/optee_os/lib/libmpa/mpa_cmp.c:156
    bc18:	7100047f 	cmp	w3, #0x1
    bc1c:	7a420000 	ccmp	w0, w2, #0x0, eq
    bc20:	54000201 	b.ne	bc60 <mpa_cmp_short+0x80>
/home/ursus/devel/optee/optee_os/lib/libmpa/mpa_cmp.c:161
    bc24:	7100003f 	cmp	w1, #0x0
/home/ursus/devel/optee/optee_os/lib/libmpa/mpa_cmp.c:163
    bc28:	b9400882 	ldr	w2, [x4,#8]
/home/ursus/devel/optee/optee_os/lib/libmpa/mpa_cmp.c:161
    bc2c:	5a81a421 	cneg	w1, w1, lt
/home/ursus/devel/optee/optee_os/lib/libmpa/mpa_cmp.c:163
    bc30:	6b02003f 	cmp	w1, w2
/home/ursus/devel/optee/optee_os/lib/libmpa/mpa_cmp.c:166
    bc34:	5a803400 	cneg	w0, w0, cs
    bc38:	1a9f1000 	csel	w0, w0, wzr, ne
    bc3c:	d65f03c0 	ret
/home/ursus/devel/optee/optee_os/lib/libmpa/mpa_cmp.c:145
    bc40:	12800002 	mov	w2, #0xffffffff            	// #-1
/home/ursus/devel/optee/optee_os/lib/libmpa/mpa_cmp.c:144
    bc44:	52800020 	mov	w0, #0x1                   	// #1
/home/ursus/devel/optee/optee_os/lib/libmpa/mpa_cmp.c:148
    bc48:	34fffdc3 	cbz	w3, bc00 <mpa_cmp_short+0x20>
    bc4c:	17fffff1 	b	bc10 <mpa_cmp_short+0x30>
/home/ursus/devel/optee/optee_os/lib/libmpa/mpa_cmp.c:144
    bc50:	12800000 	mov	w0, #0xffffffff            	// #-1
/home/ursus/devel/optee/optee_os/lib/libmpa/mpa_cmp.c:145
    bc54:	2a0003e2 	mov	w2, w0
    bc58:	36fffda1 	tbz	w1, #31, bc0c <mpa_cmp_short+0x2c>
    bc5c:	17ffffed 	b	bc10 <mpa_cmp_short+0x30>
/home/ursus/devel/optee/optee_os/lib/libmpa/mpa_cmp.c:171
    bc60:	d65f03c0 	ret

000000000000bc64 <mpa_exp_mod>:
mpa_exp_mod():
/home/ursus/devel/optee/optee_os/lib/libmpa/mpa_expmod.c:43
    bc64:	a9b77bfd 	stp	x29, x30, [sp,#-144]!
    bc68:	910003fd 	mov	x29, sp
    bc6c:	a9046bf9 	stp	x25, x26, [sp,#64]
/home/ursus/devel/optee/optee_os/lib/libmpa/mpa_expmod.c:52
    bc70:	9101e3b9 	add	x25, x29, #0x78
/home/ursus/devel/optee/optee_os/lib/libmpa/mpa_expmod.c:43
    bc74:	a90153f3 	stp	x19, x20, [sp,#16]
    bc78:	aa0703f4 	mov	x20, x7
    bc7c:	aa0403f3 	mov	x19, x4
    bc80:	a9025bf5 	stp	x21, x22, [sp,#32]
    bc84:	a90363f7 	stp	x23, x24, [sp,#48]
    bc88:	2a0603f6 	mov	w22, w6
    bc8c:	aa0303f5 	mov	x21, x3
    bc90:	a90573fb 	stp	x27, x28, [sp,#80]
    bc94:	aa0103f7 	mov	x23, x1
    bc98:	aa0503fc 	mov	x28, x5
/home/ursus/devel/optee/optee_os/lib/libmpa/mpa_expmod.c:52
    bc9c:	aa0703e1 	mov	x1, x7
/home/ursus/devel/optee/optee_os/lib/libmpa/mpa_expmod.c:43
    bca0:	aa0203fb 	mov	x27, x2
/home/ursus/devel/optee/optee_os/lib/libmpa/mpa_expmod.c:53
    bca4:	910203b8 	add	x24, x29, #0x80
/home/ursus/devel/optee/optee_os/lib/libmpa/mpa_expmod.c:43
    bca8:	f90037a0 	str	x0, [x29,#104]
/home/ursus/devel/optee/optee_os/lib/libmpa/mpa_expmod.c:52
    bcac:	aa1903e0 	mov	x0, x25
    bcb0:	97fffb0e 	bl	a8e8 <mpa_alloc_static_temp_var>
/home/ursus/devel/optee/optee_os/lib/libmpa/mpa_expmod.c:53
    bcb4:	aa1403e1 	mov	x1, x20
/home/ursus/devel/optee/optee_os/lib/libmpa/mpa_expmod.c:54
    bcb8:	910223ba 	add	x26, x29, #0x88
/home/ursus/devel/optee/optee_os/lib/libmpa/mpa_expmod.c:53
    bcbc:	aa1803e0 	mov	x0, x24
    bcc0:	97fffb0a 	bl	a8e8 <mpa_alloc_static_temp_var>
/home/ursus/devel/optee/optee_os/lib/libmpa/mpa_expmod.c:54
    bcc4:	aa1403e1 	mov	x1, x20
    bcc8:	aa1a03e0 	mov	x0, x26
    bccc:	97fffb07 	bl	a8e8 <mpa_alloc_static_temp_var>
/home/ursus/devel/optee/optee_os/lib/libmpa/mpa_expmod.c:58
    bcd0:	f94047a0 	ldr	x0, [x29,#136]
    bcd4:	aa1c03e2 	mov	x2, x28
    bcd8:	2a1603e4 	mov	w4, w22
    bcdc:	aa1503e3 	mov	x3, x21
    bce0:	aa1703e1 	mov	x1, x23
/home/ursus/devel/optee/optee_os/lib/libmpa/mpa_expmod.c:61
    bce4:	aa1903fc 	mov	x28, x25
/home/ursus/devel/optee/optee_os/lib/libmpa/mpa_expmod.c:58
    bce8:	97fff480 	bl	8ee8 <__mpa_montgomery_mul>
/home/ursus/devel/optee/optee_os/lib/libmpa/mpa_expmod.c:60
    bcec:	f9403fa0 	ldr	x0, [x29,#120]
    bcf0:	aa1303e1 	mov	x1, x19
/home/ursus/devel/optee/optee_os/lib/libmpa/mpa_expmod.c:62
    bcf4:	aa1803f3 	mov	x19, x24
/home/ursus/devel/optee/optee_os/lib/libmpa/mpa_expmod.c:60
    bcf8:	97fff3ea 	bl	8ca0 <mpa_copy>
/home/ursus/devel/optee/optee_os/lib/libmpa/mpa_expmod.c:63
    bcfc:	f9403fa0 	ldr	x0, [x29,#120]
    bd00:	97fff3d3 	bl	8c4c <__mpa_set_unused_digits_to_zero>
/home/ursus/devel/optee/optee_os/lib/libmpa/mpa_expmod.c:64
    bd04:	f94043a0 	ldr	x0, [x29,#128]
    bd08:	97fff3d1 	bl	8c4c <__mpa_set_unused_digits_to_zero>
/home/ursus/devel/optee/optee_os/lib/libmpa/mpa_expmod.c:65
    bd0c:	aa1b03e0 	mov	x0, x27
    bd10:	97fff405 	bl	8d24 <mpa_highest_bit_index>
    bd14:	2a0003f7 	mov	w23, w0
/home/ursus/devel/optee/optee_os/lib/libmpa/mpa_expmod.c:66 (discriminator 1)
    bd18:	2a1603e4 	mov	w4, w22
    bd1c:	aa1503e3 	mov	x3, x21
    bd20:	f9400382 	ldr	x2, [x28]
/home/ursus/devel/optee/optee_os/lib/libmpa/mpa_expmod.c:65 (discriminator 1)
    bd24:	36f80317 	tbz	w23, #31, bd84 <mpa_exp_mod+0x120>
/home/ursus/devel/optee/optee_os/lib/libmpa/mpa_expmod.c:77
    bd28:	f0000001 	adrp	x1, e000 <__func__.3633+0x30>
    bd2c:	f9400260 	ldr	x0, [x19]
    bd30:	f9465021 	ldr	x1, [x1,#3232]
    bd34:	97fff46d 	bl	8ee8 <__mpa_montgomery_mul>
/home/ursus/devel/optee/optee_os/lib/libmpa/mpa_expmod.c:80
    bd38:	f9400261 	ldr	x1, [x19]
    bd3c:	f94037a0 	ldr	x0, [x29,#104]
    bd40:	97fff3d8 	bl	8ca0 <mpa_copy>
/home/ursus/devel/optee/optee_os/lib/libmpa/mpa_expmod.c:82
    bd44:	aa1403e1 	mov	x1, x20
    bd48:	aa1903e0 	mov	x0, x25
    bd4c:	97fffaeb 	bl	a8f8 <mpa_free_static_temp_var>
/home/ursus/devel/optee/optee_os/lib/libmpa/mpa_expmod.c:83
    bd50:	aa1403e1 	mov	x1, x20
    bd54:	aa1803e0 	mov	x0, x24
    bd58:	97fffae8 	bl	a8f8 <mpa_free_static_temp_var>
/home/ursus/devel/optee/optee_os/lib/libmpa/mpa_expmod.c:84
    bd5c:	aa1403e1 	mov	x1, x20
    bd60:	aa1a03e0 	mov	x0, x26
    bd64:	97fffae5 	bl	a8f8 <mpa_free_static_temp_var>
/home/ursus/devel/optee/optee_os/lib/libmpa/mpa_expmod.c:85
    bd68:	a94153f3 	ldp	x19, x20, [sp,#16]
    bd6c:	a9425bf5 	ldp	x21, x22, [sp,#32]
    bd70:	a94363f7 	ldp	x23, x24, [sp,#48]
    bd74:	a9446bf9 	ldp	x25, x26, [sp,#64]
    bd78:	a94573fb 	ldp	x27, x28, [sp,#80]
    bd7c:	a8c97bfd 	ldp	x29, x30, [sp],#144
    bd80:	d65f03c0 	ret
/home/ursus/devel/optee/optee_os/lib/libmpa/mpa_expmod.c:66
    bd84:	f9400260 	ldr	x0, [x19]
    bd88:	aa0203e1 	mov	x1, x2
    bd8c:	97fff457 	bl	8ee8 <__mpa_montgomery_mul>
/home/ursus/devel/optee/optee_os/lib/libmpa/mpa_expmod.c:67
    bd90:	2a1703e1 	mov	w1, w23
    bd94:	aa1b03e0 	mov	x0, x27
    bd98:	97fff3f4 	bl	8d68 <mpa_get_bit>
    bd9c:	7100041f 	cmp	w0, #0x1
    bda0:	54000141 	b.ne	bdc8 <mpa_exp_mod+0x164>
/home/ursus/devel/optee/optee_os/lib/libmpa/mpa_expmod.c:68
    bda4:	f9400380 	ldr	x0, [x28]
    bda8:	2a1603e4 	mov	w4, w22
    bdac:	f9400261 	ldr	x1, [x19]
    bdb0:	aa1503e3 	mov	x3, x21
    bdb4:	f94047a2 	ldr	x2, [x29,#136]
    bdb8:	97fff44c 	bl	8ee8 <__mpa_montgomery_mul>
    bdbc:	aa1303e0 	mov	x0, x19
    bdc0:	aa1c03f3 	mov	x19, x28
    bdc4:	aa0003fc 	mov	x28, x0
/home/ursus/devel/optee/optee_os/lib/libmpa/mpa_expmod.c:65 (discriminator 2)
    bdc8:	aa1c03e0 	mov	x0, x28
    bdcc:	510006f7 	sub	w23, w23, #0x1
    bdd0:	aa1303fc 	mov	x28, x19
    bdd4:	aa0003f3 	mov	x19, x0
    bdd8:	17ffffd0 	b	bd18 <mpa_exp_mod+0xb4>

000000000000bddc <mpa_init_static>:
mpa_init_static():
/home/ursus/devel/optee/optee_os/lib/libmpa/mpa_init.c:35
    bddc:	531e7421 	lsl	w1, w1, #2
    bde0:	51002021 	sub	w1, w1, #0x8
    bde4:	d3427c21 	ubfx	x1, x1, #2, #30
/home/ursus/devel/optee/optee_os/lib/libmpa/mpa_init.c:36
    bde8:	29007c01 	stp	w1, wzr, [x0]
/home/ursus/devel/optee/optee_os/lib/libmpa/mpa_init.c:37
    bdec:	b4000041 	cbz	x1, bdf4 <mpa_init_static+0x18>
/home/ursus/devel/optee/optee_os/lib/libmpa/mpa_init.c:38
    bdf0:	b900081f 	str	wzr, [x0,#8]
    bdf4:	d65f03c0 	ret

000000000000bdf8 <mpa_init_static_fmm_context>:
mpa_init_static_fmm_context():
/home/ursus/devel/optee/optee_os/lib/libmpa/mpa_init.c:47
    bdf8:	a9bd7bfd 	stp	x29, x30, [sp,#-48]!
    bdfc:	910003fd 	mov	x29, sp
    be00:	a90153f3 	stp	x19, x20, [sp,#16]
/home/ursus/devel/optee/optee_os/lib/libmpa/mpa_init.c:51
    be04:	531e7433 	lsl	w19, w1, #2
    be08:	51006273 	sub	w19, w19, #0x18
/home/ursus/devel/optee/optee_os/lib/libmpa/mpa_init.c:54
    be0c:	91005014 	add	x20, x0, #0x14
/home/ursus/devel/optee/optee_os/lib/libmpa/mpa_init.c:47
    be10:	f90013f5 	str	x21, [sp,#32]
/home/ursus/devel/optee/optee_os/lib/libmpa/mpa_init.c:54
    be14:	52800001 	mov	w1, #0x0                   	// #0
/home/ursus/devel/optee/optee_os/lib/libmpa/mpa_init.c:51
    be18:	d3427e73 	ubfx	x19, x19, #2, #30
/home/ursus/devel/optee/optee_os/lib/libmpa/mpa_init.c:47
    be1c:	aa0003f5 	mov	x21, x0
/home/ursus/devel/optee/optee_os/lib/libmpa/mpa_init.c:54
    be20:	d37ef662 	lsl	x2, x19, #2
    be24:	aa1403e0 	mov	x0, x20
/home/ursus/devel/optee/optee_os/lib/libmpa/mpa_init.c:55
    be28:	53017e73 	lsr	w19, w19, #1
/home/ursus/devel/optee/optee_os/lib/libmpa/mpa_init.c:54
    be2c:	97ffef9c 	bl	7c9c <memset>
/home/ursus/devel/optee/optee_os/lib/libmpa/mpa_init.c:62
    be30:	51000a61 	sub	w1, w19, #0x2
/home/ursus/devel/optee/optee_os/lib/libmpa/mpa_init.c:65
    be34:	d37e7273 	ubfiz	x19, x19, #2, #29
    be38:	8b130280 	add	x0, x20, x19
/home/ursus/devel/optee/optee_os/lib/libmpa/mpa_init.c:61
    be3c:	290206bf 	stp	wzr, w1, [x21,#16]
/home/ursus/devel/optee/optee_os/lib/libmpa/mpa_init.c:65
    be40:	a90002b4 	stp	x20, x0, [x21]
/home/ursus/devel/optee/optee_os/lib/libmpa/mpa_init.c:63
    be44:	b9001abf 	str	wzr, [x21,#24]
/home/ursus/devel/optee/optee_os/lib/libmpa/mpa_init.c:66
    be48:	b8336a81 	str	w1, [x20,x19]
/home/ursus/devel/optee/optee_os/lib/libmpa/mpa_init.c:69
    be4c:	f94013f5 	ldr	x21, [sp,#32]
    be50:	a94153f3 	ldp	x19, x20, [sp,#16]
/home/ursus/devel/optee/optee_os/lib/libmpa/mpa_init.c:68
    be54:	b900041f 	str	wzr, [x0,#4]
/home/ursus/devel/optee/optee_os/lib/libmpa/mpa_init.c:69
    be58:	a8c37bfd 	ldp	x29, x30, [sp],#48
    be5c:	d65f03c0 	ret

000000000000be60 <__mpa_word_to_hexstr>:
__mpa_word_to_hexstr():
/home/ursus/devel/optee/optee_os/lib/libmpa/mpa_io.c:129
    be60:	d28000e4 	mov	x4, #0x7                   	// #7
/home/ursus/devel/optee/optee_os/lib/libmpa/mpa_io.c:133 (discriminator 3)
    be64:	531e7483 	lsl	w3, w4, #2
    be68:	1ac32423 	lsr	w3, w1, w3
    be6c:	12000c63 	and	w3, w3, #0xf
__mpa_nibble_to_char():
/home/ursus/devel/optee/optee_os/lib/libmpa/mpa_io.c:118 (discriminator 3)
    be70:	7100247f 	cmp	w3, #0x9
    be74:	540000e8 	b.hi	be90 <__mpa_word_to_hexstr+0x30>
/home/ursus/devel/optee/optee_os/lib/libmpa/mpa_io.c:119
    be78:	1100c063 	add	w3, w3, #0x30
__mpa_word_to_hexstr():
/home/ursus/devel/optee/optee_os/lib/libmpa/mpa_io.c:132
    be7c:	38246803 	strb	w3, [x0,x4]
    be80:	d1000484 	sub	x4, x4, #0x1
/home/ursus/devel/optee/optee_os/lib/libmpa/mpa_io.c:131
    be84:	b100049f 	cmn	x4, #0x1
    be88:	54fffee1 	b.ne	be64 <__mpa_word_to_hexstr+0x4>
/home/ursus/devel/optee/optee_os/lib/libmpa/mpa_io.c:135
    be8c:	d65f03c0 	ret
__mpa_nibble_to_char():
/home/ursus/devel/optee/optee_os/lib/libmpa/mpa_io.c:120
    be90:	1100dc65 	add	w5, w3, #0x37
    be94:	7100005f 	cmp	w2, #0x0
    be98:	11015c63 	add	w3, w3, #0x57
    be9c:	1a851063 	csel	w3, w3, w5, ne
    bea0:	17fffff7 	b	be7c <__mpa_word_to_hexstr+0x1c>

000000000000bea4 <__mpa_mpanum_to_hexstr>:
__mpa_mpanum_to_hexstr():
/home/ursus/devel/optee/optee_os/lib/libmpa/mpa_io.c:151
    bea4:	b9400447 	ldr	w7, [x2,#4]
/home/ursus/devel/optee/optee_os/lib/libmpa/mpa_io.c:152
    bea8:	710000ff 	cmp	w7, #0x0
    beac:	540000c1 	b.ne	bec4 <__mpa_mpanum_to_hexstr+0x20>
/home/ursus/devel/optee/optee_os/lib/libmpa/mpa_io.c:153
    beb0:	52800601 	mov	w1, #0x30                  	// #48
/home/ursus/devel/optee/optee_os/lib/libmpa/mpa_io.c:154
    beb4:	3900041f 	strb	wzr, [x0,#1]
/home/ursus/devel/optee/optee_os/lib/libmpa/mpa_io.c:153
    beb8:	39000001 	strb	w1, [x0]
/home/ursus/devel/optee/optee_os/lib/libmpa/mpa_io.c:155
    bebc:	52800020 	mov	w0, #0x1                   	// #1
    bec0:	d65f03c0 	ret
/home/ursus/devel/optee/optee_os/lib/libmpa/mpa_io.c:143
    bec4:	a9bb7bfd 	stp	x29, x30, [sp,#-80]!
    bec8:	910003fd 	mov	x29, sp
    becc:	a9025bf5 	stp	x21, x22, [sp,#32]
/home/ursus/devel/optee/optee_os/lib/libmpa/mpa_io.c:151
    bed0:	5a87a4f6 	cneg	w22, w7, lt
    bed4:	aa0003f5 	mov	x21, x0
/home/ursus/devel/optee/optee_os/lib/libmpa/mpa_io.c:157
    bed8:	510006c0 	sub	w0, w22, #0x1
/home/ursus/devel/optee/optee_os/lib/libmpa/mpa_io.c:163
    bedc:	8b20c840 	add	x0, x2, w0, sxtw #2
/home/ursus/devel/optee/optee_os/lib/libmpa/mpa_io.c:143
    bee0:	a90363f7 	stp	x23, x24, [sp,#48]
    bee4:	aa0203f8 	mov	x24, x2
    bee8:	2a0103f7 	mov	w23, w1
/home/ursus/devel/optee/optee_os/lib/libmpa/mpa_io.c:163
    beec:	2a0103e2 	mov	w2, w1
/home/ursus/devel/optee/optee_os/lib/libmpa/mpa_io.c:143
    bef0:	a90153f3 	stp	x19, x20, [sp,#16]
/home/ursus/devel/optee/optee_os/lib/libmpa/mpa_io.c:163
    bef4:	b9400801 	ldr	w1, [x0,#8]
    bef8:	910123b4 	add	x20, x29, #0x48
    befc:	aa1403e0 	mov	x0, x20
    bf00:	97ffffd8 	bl	be60 <__mpa_word_to_hexstr>
/home/ursus/devel/optee/optee_os/lib/libmpa/mpa_io.c:167
    bf04:	d28000e6 	mov	x6, #0x7                   	// #7
    bf08:	93407cc0 	sxtw	x0, w6
    bf0c:	b10004df 	cmn	x6, #0x1
    bf10:	54000181 	b.ne	bf40 <__mpa_mpanum_to_hexstr+0x9c>
    bf14:	aa1503f3 	mov	x19, x21
/home/ursus/devel/optee/optee_os/lib/libmpa/mpa_io.c:174
    bf18:	51000ac7 	sub	w7, w22, #0x2
    bf1c:	93407cf6 	sxtw	x22, w7
/home/ursus/devel/optee/optee_os/lib/libmpa/mpa_io.c:175
    bf20:	36f802f6 	tbz	w22, #31, bf7c <__mpa_mpanum_to_hexstr+0xd8>
/home/ursus/devel/optee/optee_os/lib/libmpa/mpa_io.c:183
    bf24:	3900027f 	strb	wzr, [x19]
/home/ursus/devel/optee/optee_os/lib/libmpa/mpa_io.c:182
    bf28:	4b150260 	sub	w0, w19, w21
/home/ursus/devel/optee/optee_os/lib/libmpa/mpa_io.c:185
    bf2c:	a94153f3 	ldp	x19, x20, [sp,#16]
    bf30:	a9425bf5 	ldp	x21, x22, [sp,#32]
    bf34:	a94363f7 	ldp	x23, x24, [sp,#48]
    bf38:	a8c57bfd 	ldp	x29, x30, [sp],#80
    bf3c:	d65f03c0 	ret
/home/ursus/devel/optee/optee_os/lib/libmpa/mpa_io.c:168
    bf40:	38666a82 	ldrb	w2, [x20,x6]
    bf44:	d10004c1 	sub	x1, x6, #0x1
    bf48:	7100c05f 	cmp	w2, #0x30
    bf4c:	540000c0 	b.eq	bf64 <__mpa_mpanum_to_hexstr+0xc0>
    bf50:	aa1503e1 	mov	x1, x21
/home/ursus/devel/optee/optee_os/lib/libmpa/mpa_io.c:170
    bf54:	36f800c0 	tbz	w0, #31, bf6c <__mpa_mpanum_to_hexstr+0xc8>
    bf58:	110004c6 	add	w6, w6, #0x1
    bf5c:	8b0602b3 	add	x19, x21, x6
    bf60:	17ffffee 	b	bf18 <__mpa_mpanum_to_hexstr+0x74>
    bf64:	aa0103e6 	mov	x6, x1
    bf68:	17ffffe8 	b	bf08 <__mpa_mpanum_to_hexstr+0x64>
/home/ursus/devel/optee/optee_os/lib/libmpa/mpa_io.c:171
    bf6c:	38606a82 	ldrb	w2, [x20,x0]
    bf70:	d1000400 	sub	x0, x0, #0x1
    bf74:	38001422 	strb	w2, [x1],#1
    bf78:	17fffff7 	b	bf54 <__mpa_mpanum_to_hexstr+0xb0>
/home/ursus/devel/optee/optee_os/lib/libmpa/mpa_io.c:176
    bf7c:	8b160b00 	add	x0, x24, x22, lsl #2
    bf80:	2a1703e2 	mov	w2, w23
    bf84:	b9400801 	ldr	w1, [x0,#8]
    bf88:	aa1403e0 	mov	x0, x20
    bf8c:	97ffffb5 	bl	be60 <__mpa_word_to_hexstr>
    bf90:	d28000e0 	mov	x0, #0x7                   	// #7
/home/ursus/devel/optee/optee_os/lib/libmpa/mpa_io.c:179
    bf94:	cb000261 	sub	x1, x19, x0
    bf98:	38606a82 	ldrb	w2, [x20,x0]
    bf9c:	d1000400 	sub	x0, x0, #0x1
/home/ursus/devel/optee/optee_os/lib/libmpa/mpa_io.c:178
    bfa0:	b100041f 	cmn	x0, #0x1
/home/ursus/devel/optee/optee_os/lib/libmpa/mpa_io.c:179
    bfa4:	39001c22 	strb	w2, [x1,#7]
/home/ursus/devel/optee/optee_os/lib/libmpa/mpa_io.c:178
    bfa8:	54ffff61 	b.ne	bf94 <__mpa_mpanum_to_hexstr+0xf0>
    bfac:	91002273 	add	x19, x19, #0x8
    bfb0:	d10006d6 	sub	x22, x22, #0x1
    bfb4:	17ffffdb 	b	bf20 <__mpa_mpanum_to_hexstr+0x7c>

000000000000bfb8 <__mpa_isspace>:
__mpa_isspace():
/home/ursus/devel/optee/optee_os/lib/libmpa/mpa_io.c:49
    bfb8:	12001c02 	and	w2, w0, #0xff
/home/ursus/devel/optee/optee_os/lib/libmpa/mpa_io.c:50
    bfbc:	71017c5f 	cmp	w2, #0x5f
    bfc0:	1a9f17e1 	cset	w1, eq
/home/ursus/devel/optee/optee_os/lib/libmpa/mpa_io.c:52
    bfc4:	7100805f 	cmp	w2, #0x20
    bfc8:	1a9f17e0 	cset	w0, eq
/home/ursus/devel/optee/optee_os/lib/libmpa/mpa_io.c:50
    bfcc:	2a000020 	orr	w0, w1, w0
/home/ursus/devel/optee/optee_os/lib/libmpa/mpa_io.c:54
    bfd0:	35000100 	cbnz	w0, bff0 <__mpa_isspace+0x38>
    bfd4:	51002440 	sub	w0, w2, #0x9
    bfd8:	12001c00 	and	w0, w0, #0xff
    bfdc:	7100041f 	cmp	w0, #0x1
    bfe0:	1a9f87e1 	cset	w1, ls
    bfe4:	7100345f 	cmp	w2, #0xd
    bfe8:	1a9f17e0 	cset	w0, eq
    bfec:	2a000020 	orr	w0, w1, w0
/home/ursus/devel/optee/optee_os/lib/libmpa/mpa_io.c:56 (discriminator 5)
    bff0:	d65f03c0 	ret

000000000000bff4 <mpa_get_str_size>:
mpa_get_str_size():
/home/ursus/devel/optee/optee_os/lib/libmpa/mpa_io.c:237
    bff4:	52820040 	mov	w0, #0x1002                	// #4098
    bff8:	d65f03c0 	ret

000000000000bffc <mpa_set_str>:
mpa_set_str():
/home/ursus/devel/optee/optee_os/lib/libmpa/mpa_io.c:261
    bffc:	a9bc7bfd 	stp	x29, x30, [sp,#-64]!
    c000:	910003fd 	mov	x29, sp
    c004:	a90153f3 	stp	x19, x20, [sp,#16]
    c008:	aa0003f4 	mov	x20, x0
    c00c:	a90363f7 	stp	x23, x24, [sp,#48]
    c010:	aa0103f8 	mov	x24, x1
    c014:	a9025bf5 	stp	x21, x22, [sp,#32]
/home/ursus/devel/optee/optee_os/lib/libmpa/mpa_io.c:280
    c018:	39400020 	ldrb	w0, [x1]
    c01c:	35000080 	cbnz	w0, c02c <mpa_set_str+0x30>
/home/ursus/devel/optee/optee_os/lib/libmpa/mpa_io.c:281
    c020:	52800013 	mov	w19, #0x0                   	// #0
    c024:	14000013 	b	c070 <mpa_set_str+0x74>
    c028:	aa1703f8 	mov	x24, x23
/home/ursus/devel/optee/optee_os/lib/libmpa/mpa_io.c:285 (discriminator 1)
    c02c:	aa1803f7 	mov	x23, x24
    c030:	384016f5 	ldrb	w21, [x23],#1
/home/ursus/devel/optee/optee_os/lib/libmpa/mpa_io.c:286 (discriminator 1)
    c034:	2a1503e0 	mov	w0, w21
    c038:	97ffffe0 	bl	bfb8 <__mpa_isspace>
    c03c:	2a0003f3 	mov	w19, w0
    c040:	35ffff40 	cbnz	w0, c028 <mpa_set_str+0x2c>
/home/ursus/devel/optee/optee_os/lib/libmpa/mpa_io.c:285
    c044:	2a1503f6 	mov	w22, w21
/home/ursus/devel/optee/optee_os/lib/libmpa/mpa_io.c:289
    c048:	52800015 	mov	w21, #0x0                   	// #0
/home/ursus/devel/optee/optee_os/lib/libmpa/mpa_io.c:290
    c04c:	7100b6df 	cmp	w22, #0x2d
    c050:	54000081 	b.ne	c060 <mpa_set_str+0x64>
/home/ursus/devel/optee/optee_os/lib/libmpa/mpa_io.c:292
    c054:	394002f6 	ldrb	w22, [x23]
    c058:	91000b17 	add	x23, x24, #0x2
/home/ursus/devel/optee/optee_os/lib/libmpa/mpa_io.c:291
    c05c:	52800035 	mov	w21, #0x1                   	// #1
/home/ursus/devel/optee/optee_os/lib/libmpa/mpa_io.c:294
    c060:	35000156 	cbnz	w22, c088 <mpa_set_str+0x8c>
/home/ursus/devel/optee/optee_os/lib/libmpa/mpa_io.c:295
    c064:	52800001 	mov	w1, #0x0                   	// #0
    c068:	aa1403e0 	mov	x0, x20
    c06c:	97fff56c 	bl	961c <mpa_set_word>
/home/ursus/devel/optee/optee_os/lib/libmpa/mpa_io.c:382
    c070:	2a1303e0 	mov	w0, w19
    c074:	a94153f3 	ldp	x19, x20, [sp,#16]
    c078:	a9425bf5 	ldp	x21, x22, [sp,#32]
    c07c:	a94363f7 	ldp	x23, x24, [sp,#48]
    c080:	a8c47bfd 	ldp	x29, x30, [sp],#64
    c084:	d65f03c0 	ret
/home/ursus/devel/optee/optee_os/lib/libmpa/mpa_io.c:300
    c088:	7100c2df 	cmp	w22, #0x30
    c08c:	540000e1 	b.ne	c0a8 <mpa_set_str+0xac>
/home/ursus/devel/optee/optee_os/lib/libmpa/mpa_io.c:301
    c090:	394002e3 	ldrb	w3, [x23]
/home/ursus/devel/optee/optee_os/lib/libmpa/mpa_io.c:302
    c094:	121a7860 	and	w0, w3, #0xffffffdf
    c098:	7101601f 	cmp	w0, #0x58
    c09c:	54000540 	b.eq	c144 <mpa_set_str+0x148>
/home/ursus/devel/optee/optee_os/lib/libmpa/mpa_io.c:301
    c0a0:	910006f7 	add	x23, x23, #0x1
    c0a4:	2a0303f6 	mov	w22, w3
/home/ursus/devel/optee/optee_os/lib/libmpa/mpa_io.c:307
    c0a8:	7100c2df 	cmp	w22, #0x30
    c0ac:	54000520 	b.eq	c150 <mpa_set_str+0x154>
/home/ursus/devel/optee/optee_os/lib/libmpa/mpa_io.c:307 (discriminator 1)
    c0b0:	2a1603e0 	mov	w0, w22
    c0b4:	97ffffc1 	bl	bfb8 <__mpa_isspace>
    c0b8:	350004c0 	cbnz	w0, c150 <mpa_set_str+0x154>
    c0bc:	aa1703e5 	mov	x5, x23
/home/ursus/devel/optee/optee_os/lib/libmpa/mpa_io.c:311
    c0c0:	34fffd36 	cbz	w22, c064 <mpa_set_str+0x68>
/home/ursus/devel/optee/optee_os/lib/libmpa/mpa_io.c:318
    c0c4:	394000a0 	ldrb	w0, [x5]
    c0c8:	35000480 	cbnz	w0, c158 <mpa_set_str+0x15c>
/home/ursus/devel/optee/optee_os/lib/libmpa/mpa_io.c:322
    c0cc:	cb1700a5 	sub	x5, x5, x23
/home/ursus/devel/optee/optee_os/lib/libmpa/mpa_io.c:323
    c0d0:	52820046 	mov	w6, #0x1002                	// #4098
/home/ursus/devel/optee/optee_os/lib/libmpa/mpa_io.c:322
    c0d4:	110004a5 	add	w5, w5, #0x1
/home/ursus/devel/optee/optee_os/lib/libmpa/mpa_io.c:323
    c0d8:	6b0600bf 	cmp	w5, w6
    c0dc:	5400042c 	b.gt	c160 <mpa_set_str+0x164>
/home/ursus/devel/optee/optee_os/lib/libmpa/mpa_io.c:333
    c0e0:	b0000065 	adrp	x5, 19000 <mempool_u32+0xdd8>
    c0e4:	913740b8 	add	x24, x5, #0xdd0
/home/ursus/devel/optee/optee_os/lib/libmpa/mpa_io.c:323
    c0e8:	52800013 	mov	w19, #0x0                   	// #0
__mpa_is_char_in_base():
/home/ursus/devel/optee/optee_os/lib/libmpa/mpa_io.c:66
    c0ec:	2a1603e0 	mov	w0, w22
    c0f0:	97ffffb2 	bl	bfb8 <__mpa_isspace>
    c0f4:	350005c0 	cbnz	w0, c1ac <mpa_set_str+0x1b0>
/home/ursus/devel/optee/optee_os/lib/libmpa/mpa_io.c:74
    c0f8:	121a7ac1 	and	w1, w22, #0xffffffdf
/home/ursus/devel/optee/optee_os/lib/libmpa/mpa_io.c:73
    c0fc:	5100c2c0 	sub	w0, w22, #0x30
/home/ursus/devel/optee/optee_os/lib/libmpa/mpa_io.c:74
    c100:	51010421 	sub	w1, w1, #0x41
    c104:	7100143f 	cmp	w1, #0x5
    c108:	7a498800 	ccmp	w0, #0x9, #0x0, hi
    c10c:	540003e9 	b.ls	c188 <mpa_set_str+0x18c>
mpa_set_str():
/home/ursus/devel/optee/optee_os/lib/libmpa/mpa_io.c:337
    c110:	34000393 	cbz	w19, c180 <mpa_set_str+0x184>
__mpa_digitstr_to_binary_wsize_base_16():
/home/ursus/devel/optee/optee_os/lib/libmpa/mpa_io.c:107
    c114:	11001e65 	add	w5, w19, #0x7
mpa_set_str():
/home/ursus/devel/optee/optee_os/lib/libmpa/mpa_io.c:342
    c118:	b9400286 	ldr	w6, [x20]
__mpa_digitstr_to_binary_wsize_base_16():
/home/ursus/devel/optee/optee_os/lib/libmpa/mpa_io.c:107
    c11c:	13037ca0 	asr	w0, w5, #3
mpa_set_str():
/home/ursus/devel/optee/optee_os/lib/libmpa/mpa_io.c:341
    c120:	6b06001f 	cmp	w0, w6
    c124:	54000529 	b.ls	c1c8 <mpa_set_str+0x1cc>
/home/ursus/devel/optee/optee_os/lib/libmpa/mpa_io.c:343
    c128:	d0000004 	adrp	x4, e000 <__func__.3633+0x30>
    c12c:	2a0003e5 	mov	w5, w0
    c130:	9127dc84 	add	x4, x4, #0x9f7
    c134:	52800023 	mov	w3, #0x1                   	// #1
    c138:	52800022 	mov	w2, #0x1                   	// #1
    c13c:	52802b21 	mov	w1, #0x159                 	// #345
    c140:	1400000d 	b	c174 <mpa_set_str+0x178>
/home/ursus/devel/optee/optee_os/lib/libmpa/mpa_io.c:303
    c144:	394006f6 	ldrb	w22, [x23,#1]
    c148:	91000af7 	add	x23, x23, #0x2
    c14c:	17ffffd7 	b	c0a8 <mpa_set_str+0xac>
/home/ursus/devel/optee/optee_os/lib/libmpa/mpa_io.c:308
    c150:	384016f6 	ldrb	w22, [x23],#1
    c154:	17ffffd5 	b	c0a8 <mpa_set_str+0xac>
/home/ursus/devel/optee/optee_os/lib/libmpa/mpa_io.c:319
    c158:	910004a5 	add	x5, x5, #0x1
    c15c:	17ffffda 	b	c0c4 <mpa_set_str+0xc8>
/home/ursus/devel/optee/optee_os/lib/libmpa/mpa_io.c:324
    c160:	d0000004 	adrp	x4, e000 <__func__.3633+0x30>
    c164:	91276484 	add	x4, x4, #0x9d9
    c168:	52800023 	mov	w3, #0x1                   	// #1
    c16c:	52800022 	mov	w2, #0x1                   	// #1
    c170:	52802881 	mov	w1, #0x144                 	// #324
/home/ursus/devel/optee/optee_os/lib/libmpa/mpa_io.c:343
    c174:	b0000000 	adrp	x0, d000 <__func__.4585>
    c178:	913f0000 	add	x0, x0, #0xfc0
    c17c:	97fff21d 	bl	89f0 <trace_printf>
/home/ursus/devel/optee/optee_os/lib/libmpa/mpa_io.c:346
    c180:	12800013 	mov	w19, #0xffffffff            	// #-1
/home/ursus/devel/optee/optee_os/lib/libmpa/mpa_io.c:347
    c184:	17ffffbb 	b	c070 <mpa_set_str+0x74>
/home/ursus/devel/optee/optee_os/lib/libmpa/mpa_io.c:333
    c188:	11000661 	add	w1, w19, #0x1
__mpa_digit_value():
/home/ursus/devel/optee/optee_os/lib/libmpa/mpa_io.c:88
    c18c:	7100241f 	cmp	w0, #0x9
    c190:	540000a9 	b.ls	c1a4 <mpa_set_str+0x1a8>
/home/ursus/devel/optee/optee_os/lib/libmpa/mpa_io.c:90
    c194:	510106c0 	sub	w0, w22, #0x41
    c198:	7100141f 	cmp	w0, #0x5
    c19c:	540000c8 	b.hi	c1b4 <mpa_set_str+0x1b8>
/home/ursus/devel/optee/optee_os/lib/libmpa/mpa_io.c:91
    c1a0:	5100dec0 	sub	w0, w22, #0x37
mpa_set_str():
/home/ursus/devel/optee/optee_os/lib/libmpa/mpa_io.c:333
    c1a4:	3833cb00 	strb	w0, [x24,w19,sxtw]
    c1a8:	2a0103f3 	mov	w19, w1
/home/ursus/devel/optee/optee_os/lib/libmpa/mpa_io.c:334
    c1ac:	384016f6 	ldrb	w22, [x23],#1
    c1b0:	17ffffcf 	b	c0ec <mpa_set_str+0xf0>
__mpa_digit_value():
/home/ursus/devel/optee/optee_os/lib/libmpa/mpa_io.c:92
    c1b4:	510186c0 	sub	w0, w22, #0x61
/home/ursus/devel/optee/optee_os/lib/libmpa/mpa_io.c:93
    c1b8:	51015ec3 	sub	w3, w22, #0x57
    c1bc:	7100141f 	cmp	w0, #0x5
    c1c0:	1a9f9060 	csel	w0, w3, wzr, ls
    c1c4:	17fffff8 	b	c1a4 <mpa_set_str+0x1a8>
mpa_set_str():
/home/ursus/devel/optee/optee_os/lib/libmpa/mpa_io.c:352
    c1c8:	aa1403e0 	mov	x0, x20
    c1cc:	52800001 	mov	w1, #0x0                   	// #0
    c1d0:	97fff513 	bl	961c <mpa_set_word>
/home/ursus/devel/optee/optee_os/lib/libmpa/mpa_io.c:351
    c1d4:	91002296 	add	x22, x20, #0x8
/home/ursus/devel/optee/optee_os/lib/libmpa/mpa_io.c:356
    c1d8:	52800020 	mov	w0, #0x1                   	// #1
/home/ursus/devel/optee/optee_os/lib/libmpa/mpa_io.c:357
    c1dc:	51000666 	sub	w6, w19, #0x1
    c1e0:	b0000064 	adrp	x4, 19000 <mempool_u32+0xdd8>
/home/ursus/devel/optee/optee_os/lib/libmpa/mpa_io.c:354
    c1e4:	2900fe80 	stp	w0, wzr, [x20,#4]
    c1e8:	93407cc3 	sxtw	x3, w6
/home/ursus/devel/optee/optee_os/lib/libmpa/mpa_io.c:355
    c1ec:	52800080 	mov	w0, #0x4                   	// #4
/home/ursus/devel/optee/optee_os/lib/libmpa/mpa_io.c:359
    c1f0:	91374087 	add	x7, x4, #0xdd0
/home/ursus/devel/optee/optee_os/lib/libmpa/mpa_io.c:360
    c1f4:	2a0003e8 	mov	w8, w0
/home/ursus/devel/optee/optee_os/lib/libmpa/mpa_io.c:358
    c1f8:	7100047f 	cmp	w3, #0x1
    c1fc:	b94002c2 	ldr	w2, [x22]
    c200:	5400024c 	b.gt	c248 <mpa_set_str+0x24c>
/home/ursus/devel/optee/optee_os/lib/libmpa/mpa_io.c:374
    c204:	39774081 	ldrb	w1, [x4,#3536]
/home/ursus/devel/optee/optee_os/lib/libmpa/mpa_io.c:370
    c208:	360000a6 	tbz	w6, #0, c21c <mpa_set_str+0x220>
/home/ursus/devel/optee/optee_os/lib/libmpa/mpa_io.c:371
    c20c:	91374083 	add	x3, x4, #0xdd0
    c210:	39774081 	ldrb	w1, [x4,#3536]
    c214:	39400463 	ldrb	w3, [x3,#1]
    c218:	4a011061 	eor	w1, w3, w1, lsl #4
/home/ursus/devel/optee/optee_os/lib/libmpa/mpa_io.c:372
    c21c:	52800083 	mov	w3, #0x4                   	// #4
    c220:	4b000060 	sub	w0, w3, w0
    c224:	531d7000 	lsl	w0, w0, #3
/home/ursus/devel/optee/optee_os/lib/libmpa/mpa_io.c:371
    c228:	1ac02020 	lsl	w0, w1, w0
    c22c:	4a000040 	eor	w0, w2, w0
    c230:	b90002c0 	str	w0, [x22]
/home/ursus/devel/optee/optee_os/lib/libmpa/mpa_io.c:377
    c234:	34fff1f5 	cbz	w21, c070 <mpa_set_str+0x74>
/home/ursus/devel/optee/optee_os/lib/libmpa/mpa_io.c:378
    c238:	b9400680 	ldr	w0, [x20,#4]
    c23c:	4b0003e0 	neg	w0, w0
    c240:	b9000680 	str	w0, [x20,#4]
    c244:	17ffff8b 	b	c070 <mpa_set_str+0x74>
/home/ursus/devel/optee/optee_os/lib/libmpa/mpa_io.c:359
    c248:	8b0300e1 	add	x1, x7, x3
    c24c:	38676865 	ldrb	w5, [x3,x7]
    c250:	385ff021 	ldurb	w1, [x1,#-1]
    c254:	4a0110a1 	eor	w1, w5, w1, lsl #4
/home/ursus/devel/optee/optee_os/lib/libmpa/mpa_io.c:360
    c258:	4b000105 	sub	w5, w8, w0
    c25c:	531d70a5 	lsl	w5, w5, #3
/home/ursus/devel/optee/optee_os/lib/libmpa/mpa_io.c:363
    c260:	71000400 	subs	w0, w0, #0x1
/home/ursus/devel/optee/optee_os/lib/libmpa/mpa_io.c:359
    c264:	1ac52021 	lsl	w1, w1, w5
    c268:	4a010041 	eor	w1, w2, w1
    c26c:	b90002c1 	str	w1, [x22]
/home/ursus/devel/optee/optee_os/lib/libmpa/mpa_io.c:363
    c270:	540000e1 	b.ne	c28c <mpa_set_str+0x290>
/home/ursus/devel/optee/optee_os/lib/libmpa/mpa_io.c:365
    c274:	b90006df 	str	wzr, [x22,#4]
/home/ursus/devel/optee/optee_os/lib/libmpa/mpa_io.c:364
    c278:	910012d6 	add	x22, x22, #0x4
/home/ursus/devel/optee/optee_os/lib/libmpa/mpa_io.c:367
    c27c:	b9400680 	ldr	w0, [x20,#4]
    c280:	11000400 	add	w0, w0, #0x1
    c284:	b9000680 	str	w0, [x20,#4]
/home/ursus/devel/optee/optee_os/lib/libmpa/mpa_io.c:366
    c288:	52800080 	mov	w0, #0x4                   	// #4
    c28c:	d1000863 	sub	x3, x3, #0x2
    c290:	17ffffda 	b	c1f8 <mpa_set_str+0x1fc>

000000000000c294 <mpa_get_str>:
mpa_get_str():
/home/ursus/devel/optee/optee_os/lib/libmpa/mpa_io.c:398
    c294:	a9be7bfd 	stp	x29, x30, [sp,#-32]!
    c298:	910003fd 	mov	x29, sp
    c29c:	f9000bf3 	str	x19, [sp,#16]
/home/ursus/devel/optee/optee_os/lib/libmpa/mpa_io.c:401
    c2a0:	b5000160 	cbnz	x0, c2cc <mpa_get_str+0x38>
/home/ursus/devel/optee/optee_os/lib/libmpa/mpa_io.c:401 (discriminator 1)
    c2a4:	b0000003 	adrp	x3, d000 <__func__.4585>
    c2a8:	913f0063 	add	x3, x3, #0xfc0
    c2ac:	91004063 	add	x3, x3, #0x10
    c2b0:	d0000001 	adrp	x1, e000 <__func__.3633+0x30>
    c2b4:	d0000000 	adrp	x0, e000 <__func__.3633+0x30>
    c2b8:	91288021 	add	x1, x1, #0xa20
    c2bc:	9128d000 	add	x0, x0, #0xa34
    c2c0:	52803222 	mov	w2, #0x191                 	// #401
    c2c4:	97ffe7da 	bl	622c <_assert_log>
    c2c8:	97ffe7ea 	bl	6270 <_assert_break>
/home/ursus/devel/optee/optee_os/lib/libmpa/mpa_io.c:404
    c2cc:	b9400443 	ldr	w3, [x2,#4]
    c2d0:	aa0003f3 	mov	x19, x0
    c2d4:	36f80063 	tbz	w3, #31, c2e0 <mpa_get_str+0x4c>
/home/ursus/devel/optee/optee_os/lib/libmpa/mpa_io.c:405
    c2d8:	528005a3 	mov	w3, #0x2d                  	// #45
    c2dc:	38001403 	strb	w3, [x0],#1
/home/ursus/devel/optee/optee_os/lib/libmpa/mpa_io.c:408
    c2e0:	7100403f 	cmp	w1, #0x10
    c2e4:	540000a0 	b.eq	c2f8 <mpa_get_str+0x64>
    c2e8:	7100443f 	cmp	w1, #0x11
    c2ec:	54000120 	b.eq	c310 <mpa_get_str+0x7c>
/home/ursus/devel/optee/optee_os/lib/libmpa/mpa_io.c:416
    c2f0:	d2800013 	mov	x19, #0x0                   	// #0
    c2f4:	14000003 	b	c300 <mpa_get_str+0x6c>
/home/ursus/devel/optee/optee_os/lib/libmpa/mpa_io.c:410
    c2f8:	52800001 	mov	w1, #0x0                   	// #0
/home/ursus/devel/optee/optee_os/lib/libmpa/mpa_io.c:413
    c2fc:	97fffeea 	bl	bea4 <__mpa_mpanum_to_hexstr>
/home/ursus/devel/optee/optee_os/lib/libmpa/mpa_io.c:420
    c300:	aa1303e0 	mov	x0, x19
    c304:	f9400bf3 	ldr	x19, [sp,#16]
    c308:	a8c27bfd 	ldp	x29, x30, [sp],#32
    c30c:	d65f03c0 	ret
/home/ursus/devel/optee/optee_os/lib/libmpa/mpa_io.c:413
    c310:	52800021 	mov	w1, #0x1                   	// #1
    c314:	17fffffa 	b	c2fc <mpa_get_str+0x68>

000000000000c318 <mpa_set_oct_str>:
mpa_set_oct_str():
/home/ursus/devel/optee/optee_os/lib/libmpa/mpa_io.c:437
    c318:	a9bc7bfd 	stp	x29, x30, [sp,#-64]!
    c31c:	910003fd 	mov	x29, sp
    c320:	a90153f3 	stp	x19, x20, [sp,#16]
    c324:	aa0003f4 	mov	x20, x0
    c328:	a9025bf5 	stp	x21, x22, [sp,#32]
/home/ursus/devel/optee/optee_os/lib/libmpa/mpa_io.c:439
    c32c:	2a0203f3 	mov	w19, w2
/home/ursus/devel/optee/optee_os/lib/libmpa/mpa_io.c:437
    c330:	f9001bf7 	str	x23, [sp,#48]
    c334:	aa0103f5 	mov	x21, x1
    c338:	12001c77 	and	w23, w3, #0xff
/home/ursus/devel/optee/optee_os/lib/libmpa/mpa_io.c:443
    c33c:	7100027f 	cmp	w19, #0x0
    c340:	5400016c 	b.gt	c36c <mpa_set_oct_str+0x54>
/home/ursus/devel/optee/optee_os/lib/libmpa/mpa_io.c:450
    c344:	540001e1 	b.ne	c380 <mpa_set_oct_str+0x68>
/home/ursus/devel/optee/optee_os/lib/libmpa/mpa_io.c:451
    c348:	52800001 	mov	w1, #0x0                   	// #0
    c34c:	aa1403e0 	mov	x0, x20
    c350:	97fff4b3 	bl	961c <mpa_set_word>
/home/ursus/devel/optee/optee_os/lib/libmpa/mpa_io.c:480
    c354:	2a1303e0 	mov	w0, w19
    c358:	f9401bf7 	ldr	x23, [sp,#48]
    c35c:	a94153f3 	ldp	x19, x20, [sp,#16]
    c360:	a9425bf5 	ldp	x21, x22, [sp,#32]
    c364:	a8c47bfd 	ldp	x29, x30, [sp],#64
    c368:	d65f03c0 	ret
/home/ursus/devel/optee/optee_os/lib/libmpa/mpa_io.c:444
    c36c:	394002a0 	ldrb	w0, [x21]
    c370:	35000080 	cbnz	w0, c380 <mpa_set_oct_str+0x68>
/home/ursus/devel/optee/optee_os/lib/libmpa/mpa_io.c:446
    c374:	51000673 	sub	w19, w19, #0x1
/home/ursus/devel/optee/optee_os/lib/libmpa/mpa_io.c:447
    c378:	910006b5 	add	x21, x21, #0x1
    c37c:	17fffff0 	b	c33c <mpa_set_oct_str+0x24>
/home/ursus/devel/optee/optee_os/lib/libmpa/mpa_io.c:460
    c380:	b9400280 	ldr	w0, [x20]
    c384:	51000661 	sub	w1, w19, #0x1
    c388:	d37e7400 	ubfiz	x0, x0, #2, #30
    c38c:	eb21c01f 	cmp	x0, w1, sxtw
    c390:	54000483 	b.cc	c420 <mpa_set_oct_str+0x108>
/home/ursus/devel/optee/optee_os/lib/libmpa/mpa_io.c:464
    c394:	52800001 	mov	w1, #0x0                   	// #0
    c398:	aa1403e0 	mov	x0, x20
/home/ursus/devel/optee/optee_os/lib/libmpa/mpa_io.c:463
    c39c:	91002296 	add	x22, x20, #0x8
/home/ursus/devel/optee/optee_os/lib/libmpa/mpa_io.c:464
    c3a0:	97fff49f 	bl	961c <mpa_set_word>
/home/ursus/devel/optee/optee_os/lib/libmpa/mpa_io.c:468
    c3a4:	52800083 	mov	w3, #0x4                   	// #4
    c3a8:	12bc0005 	mov	w5, #0x1fffffff            	// #536870911
/home/ursus/devel/optee/optee_os/lib/libmpa/mpa_io.c:466
    c3ac:	b900069f 	str	wzr, [x20,#4]
/home/ursus/devel/optee/optee_os/lib/libmpa/mpa_io.c:467
    c3b0:	7100027f 	cmp	w19, #0x0
    c3b4:	540000ec 	b.gt	c3d0 <mpa_set_oct_str+0xb8>
/home/ursus/devel/optee/optee_os/lib/libmpa/mpa_io.c:479
    c3b8:	52800013 	mov	w19, #0x0                   	// #0
/home/ursus/devel/optee/optee_os/lib/libmpa/mpa_io.c:476
    c3bc:	34fffcd7 	cbz	w23, c354 <mpa_set_oct_str+0x3c>
/home/ursus/devel/optee/optee_os/lib/libmpa/mpa_io.c:477
    c3c0:	b9400680 	ldr	w0, [x20,#4]
    c3c4:	4b0003e0 	neg	w0, w0
    c3c8:	b9000680 	str	w0, [x20,#4]
    c3cc:	17ffffe2 	b	c354 <mpa_set_oct_str+0x3c>
/home/ursus/devel/optee/optee_os/lib/libmpa/mpa_io.c:468
    c3d0:	7100127f 	cmp	w19, #0x4
    c3d4:	110004a1 	add	w1, w5, #0x1
    c3d8:	1a83d260 	csel	w0, w19, w3, le
    c3dc:	531d7021 	lsl	w1, w1, #3
/home/ursus/devel/optee/optee_os/lib/libmpa/mpa_io.c:470
    c3e0:	4b000273 	sub	w19, w19, w0
    c3e4:	51000400 	sub	w0, w0, #0x1
set_word():
/home/ursus/devel/optee/optee_os/lib/libmpa/mpa_io.c:431
    c3e8:	8b33c2a6 	add	x6, x21, w19, sxtw
/home/ursus/devel/optee/optee_os/lib/libmpa/mpa_io.c:429
    c3ec:	52800002 	mov	w2, #0x0                   	// #0
/home/ursus/devel/optee/optee_os/lib/libmpa/mpa_io.c:431
    c3f0:	386068c4 	ldrb	w4, [x6,x0]
    c3f4:	d1000400 	sub	x0, x0, #0x1
/home/ursus/devel/optee/optee_os/lib/libmpa/mpa_io.c:430
    c3f8:	3100041f 	cmn	w0, #0x1
/home/ursus/devel/optee/optee_os/lib/libmpa/mpa_io.c:431
    c3fc:	1ac12084 	lsl	w4, w4, w1
    c400:	11002021 	add	w1, w1, #0x8
    c404:	2a040042 	orr	w2, w2, w4
/home/ursus/devel/optee/optee_os/lib/libmpa/mpa_io.c:430
    c408:	54ffff41 	b.ne	c3f0 <mpa_set_oct_str+0xd8>
mpa_set_oct_str():
/home/ursus/devel/optee/optee_os/lib/libmpa/mpa_io.c:471
    c40c:	b80046c2 	str	w2, [x22],#4
/home/ursus/devel/optee/optee_os/lib/libmpa/mpa_io.c:473
    c410:	b9400680 	ldr	w0, [x20,#4]
    c414:	11000400 	add	w0, w0, #0x1
    c418:	b9000680 	str	w0, [x20,#4]
    c41c:	17ffffe5 	b	c3b0 <mpa_set_oct_str+0x98>
/home/ursus/devel/optee/optee_os/lib/libmpa/mpa_io.c:461
    c420:	12800013 	mov	w19, #0xffffffff            	// #-1
    c424:	17ffffcc 	b	c354 <mpa_set_oct_str+0x3c>

000000000000c428 <mpa_get_oct_str>:
mpa_get_oct_str():
/home/ursus/devel/optee/optee_os/lib/libmpa/mpa_io.c:493
    c428:	a9bb7bfd 	stp	x29, x30, [sp,#-80]!
    c42c:	52800024 	mov	w4, #0x1                   	// #1
    c430:	910003fd 	mov	x29, sp
    c434:	a90153f3 	stp	x19, x20, [sp,#16]
__mpa_size_in_base_255():
/home/ursus/devel/optee/optee_os/lib/libmpa/mpa_io.c:219
    c438:	b9400443 	ldr	w3, [x2,#4]
mpa_get_oct_str():
/home/ursus/devel/optee/optee_os/lib/libmpa/mpa_io.c:493
    c43c:	a9025bf5 	stp	x21, x22, [sp,#32]
    c440:	f9001bf7 	str	x23, [sp,#48]
__mpa_size_in_base_255():
/home/ursus/devel/optee/optee_os/lib/libmpa/mpa_io.c:219
    c444:	7100007f 	cmp	w3, #0x0
    c448:	540001e0 	b.eq	c484 <mpa_get_oct_str+0x5c>
/home/ursus/devel/optee/optee_os/lib/libmpa/mpa_io.c:223
    c44c:	5a83a464 	cneg	w4, w3, lt
    c450:	51000485 	sub	w5, w4, #0x1
/home/ursus/devel/optee/optee_os/lib/libmpa/mpa_io.c:222
    c454:	8b25c845 	add	x5, x2, w5, sxtw #2
    c458:	b94008a7 	ldr	w7, [x5,#8]
__mpa_count_leading_zero_bits():
/home/ursus/devel/optee/optee_os/lib/libmpa/mpa_io.c:198
    c45c:	52800405 	mov	w5, #0x20                  	// #32
/home/ursus/devel/optee/optee_os/lib/libmpa/mpa_io.c:197
    c460:	340000a7 	cbz	w7, c474 <mpa_get_oct_str+0x4c>
    c464:	52800005 	mov	w5, #0x0                   	// #0
    c468:	52b00006 	mov	w6, #0x80000000            	// #-2147483648
/home/ursus/devel/optee/optee_os/lib/libmpa/mpa_io.c:201
    c46c:	6a0600ff 	tst	w7, w6
    c470:	54000180 	b.eq	c4a0 <mpa_get_oct_str+0x78>
__mpa_size_in_base_255():
/home/ursus/devel/optee/optee_os/lib/libmpa/mpa_io.c:224
    c474:	531b6893 	lsl	w19, w4, #5
/home/ursus/devel/optee/optee_os/lib/libmpa/mpa_io.c:226
    c478:	11001e73 	add	w19, w19, #0x7
    c47c:	4b050273 	sub	w19, w19, w5
    c480:	53037e64 	lsr	w4, w19, #3
mpa_get_oct_str():
/home/ursus/devel/optee/optee_os/lib/libmpa/mpa_io.c:500
    c484:	f9400025 	ldr	x5, [x1]
/home/ursus/devel/optee/optee_os/lib/libmpa/mpa_io.c:494
    c488:	2a0403f3 	mov	w19, w4
/home/ursus/devel/optee/optee_os/lib/libmpa/mpa_io.c:500
    c48c:	eb05027f 	cmp	x19, x5
    c490:	540000e9 	b.ls	c4ac <mpa_get_oct_str+0x84>
/home/ursus/devel/optee/optee_os/lib/libmpa/mpa_io.c:501
    c494:	f9000033 	str	x19, [x1]
/home/ursus/devel/optee/optee_os/lib/libmpa/mpa_io.c:526
    c498:	12800000 	mov	w0, #0xffffffff            	// #-1
    c49c:	1400000e 	b	c4d4 <mpa_get_oct_str+0xac>
__mpa_count_leading_zero_bits():
/home/ursus/devel/optee/optee_os/lib/libmpa/mpa_io.c:202
    c4a0:	110004a5 	add	w5, w5, #0x1
/home/ursus/devel/optee/optee_os/lib/libmpa/mpa_io.c:203
    c4a4:	53017cc6 	lsr	w6, w6, #1
    c4a8:	17fffff1 	b	c46c <mpa_get_oct_str+0x44>
    c4ac:	aa0203f7 	mov	x23, x2
    c4b0:	aa0103f6 	mov	x22, x1
    c4b4:	aa0003e4 	mov	x4, x0
mpa_get_oct_str():
/home/ursus/devel/optee/optee_os/lib/libmpa/mpa_io.c:506
    c4b8:	7100007f 	cmp	w3, #0x0
    c4bc:	54000161 	b.ne	c4e8 <mpa_get_oct_str+0xc0>
/home/ursus/devel/optee/optee_os/lib/libmpa/mpa_io.c:507
    c4c0:	aa0503e2 	mov	x2, x5
    c4c4:	52800001 	mov	w1, #0x0                   	// #0
    c4c8:	97ffedf5 	bl	7c9c <memset>
/home/ursus/devel/optee/optee_os/lib/libmpa/mpa_io.c:535
    c4cc:	52800000 	mov	w0, #0x0                   	// #0
/home/ursus/devel/optee/optee_os/lib/libmpa/mpa_io.c:534
    c4d0:	f90002d3 	str	x19, [x22]
/home/ursus/devel/optee/optee_os/lib/libmpa/mpa_io.c:536
    c4d4:	a94153f3 	ldp	x19, x20, [sp,#16]
    c4d8:	a9425bf5 	ldp	x21, x22, [sp,#32]
    c4dc:	f9401bf7 	ldr	x23, [sp,#48]
    c4e0:	a8c57bfd 	ldp	x29, x30, [sp],#80
    c4e4:	d65f03c0 	ret
/home/ursus/devel/optee/optee_os/lib/libmpa/mpa_io.c:505
    c4e8:	5a83a474 	cneg	w20, w3, lt
/home/ursus/devel/optee/optee_os/lib/libmpa/mpa_io.c:510
    c4ec:	51000680 	sub	w0, w20, #0x1
/home/ursus/devel/optee/optee_os/lib/libmpa/mpa_io.c:513
    c4f0:	8b20c840 	add	x0, x2, w0, sxtw #2
    c4f4:	b9400801 	ldr	w1, [x0,#8]
get_word():
/home/ursus/devel/optee/optee_os/lib/libmpa/mpa_io.c:487
    c4f8:	39012fa1 	strb	w1, [x29,#75]
/home/ursus/devel/optee/optee_os/lib/libmpa/mpa_io.c:488
    c4fc:	53087c20 	lsr	w0, w1, #8
    c500:	53187c23 	lsr	w3, w1, #24
/home/ursus/devel/optee/optee_os/lib/libmpa/mpa_io.c:487
    c504:	39012ba0 	strb	w0, [x29,#74]
/home/ursus/devel/optee/optee_os/lib/libmpa/mpa_io.c:488
    c508:	53107c20 	lsr	w0, w1, #16
/home/ursus/devel/optee/optee_os/lib/libmpa/mpa_io.c:487
    c50c:	910143a1 	add	x1, x29, #0x50
    c510:	390127a0 	strb	w0, [x29,#73]
    c514:	d2800000 	mov	x0, #0x0                   	// #0
    c518:	381f8c23 	strb	w3, [x1,#-8]!
mpa_get_oct_str():
/home/ursus/devel/optee/optee_os/lib/libmpa/mpa_io.c:516
    c51c:	38616802 	ldrb	w2, [x0,x1]
    c520:	34000342 	cbz	w2, c588 <mpa_get_oct_str+0x160>
/home/ursus/devel/optee/optee_os/lib/libmpa/mpa_io.c:517
    c524:	52800095 	mov	w21, #0x4                   	// #4
    c528:	4b0002b5 	sub	w21, w21, w0
    c52c:	93407eb5 	sxtw	x21, w21
    c530:	8b20c021 	add	x1, x1, w0, sxtw
    c534:	aa1503e2 	mov	x2, x21
    c538:	aa0403e0 	mov	x0, x4
    c53c:	97ffedbd 	bl	7c30 <memcpy>
    c540:	aa0003e4 	mov	x4, x0
/home/ursus/devel/optee/optee_os/lib/libmpa/mpa_io.c:522
    c544:	51000a83 	sub	w3, w20, #0x2
    c548:	93407c63 	sxtw	x3, w3
/home/ursus/devel/optee/optee_os/lib/libmpa/mpa_io.c:524
    c54c:	37fffc03 	tbnz	w3, #31, c4cc <mpa_get_oct_str+0xa4>
/home/ursus/devel/optee/optee_os/lib/libmpa/mpa_io.c:525
    c550:	eb1302bf 	cmp	x21, x19
    c554:	54fffa28 	b.hi	c498 <mpa_get_oct_str+0x70>
/home/ursus/devel/optee/optee_os/lib/libmpa/mpa_io.c:527
    c558:	8b030ae0 	add	x0, x23, x3, lsl #2
get_word():
/home/ursus/devel/optee/optee_os/lib/libmpa/mpa_io.c:487
    c55c:	8b150082 	add	x2, x4, x21
mpa_get_oct_str():
/home/ursus/devel/optee/optee_os/lib/libmpa/mpa_io.c:527
    c560:	b9400801 	ldr	w1, [x0,#8]
    c564:	d2800060 	mov	x0, #0x3                   	// #3
get_word():
/home/ursus/devel/optee/optee_os/lib/libmpa/mpa_io.c:487
    c568:	38206841 	strb	w1, [x2,x0]
    c56c:	d1000400 	sub	x0, x0, #0x1
/home/ursus/devel/optee/optee_os/lib/libmpa/mpa_io.c:488
    c570:	53087c21 	lsr	w1, w1, #8
/home/ursus/devel/optee/optee_os/lib/libmpa/mpa_io.c:486
    c574:	b100041f 	cmn	x0, #0x1
    c578:	54ffff81 	b.ne	c568 <mpa_get_oct_str+0x140>
mpa_get_oct_str():
/home/ursus/devel/optee/optee_os/lib/libmpa/mpa_io.c:529
    c57c:	910012b5 	add	x21, x21, #0x4
    c580:	d1000463 	sub	x3, x3, #0x1
    c584:	17fffff2 	b	c54c <mpa_get_oct_str+0x124>
    c588:	91000400 	add	x0, x0, #0x1
/home/ursus/devel/optee/optee_os/lib/libmpa/mpa_io.c:515 (discriminator 2)
    c58c:	f100101f 	cmp	x0, #0x4
    c590:	54fffc61 	b.ne	c51c <mpa_get_oct_str+0xf4>
/home/ursus/devel/optee/optee_os/lib/libmpa/mpa_io.c:496
    c594:	d2800015 	mov	x21, #0x0                   	// #0
    c598:	17ffffeb 	b	c544 <mpa_get_oct_str+0x11c>

000000000000c59c <mpa_mod>:
mpa_mod():
/home/ursus/devel/optee/optee_os/lib/libmpa/mpa_modulus.c:42
    c59c:	aa0303e4 	mov	x4, x3
    c5a0:	aa0203e3 	mov	x3, x2
    c5a4:	aa0103e2 	mov	x2, x1
    c5a8:	aa0003e1 	mov	x1, x0
    c5ac:	d2800000 	mov	x0, #0x0                   	// #0
    c5b0:	17fff62e 	b	9e68 <mpa_div>

000000000000c5b4 <mpa_add_mod>:
mpa_add_mod():
/home/ursus/devel/optee/optee_os/lib/libmpa/mpa_modulus.c:53
    c5b4:	a9bb7bfd 	stp	x29, x30, [sp,#-80]!
    c5b8:	910003fd 	mov	x29, sp
    c5bc:	a90153f3 	stp	x19, x20, [sp,#16]
/home/ursus/devel/optee/optee_os/lib/libmpa/mpa_modulus.c:56
    c5c0:	910123b3 	add	x19, x29, #0x48
/home/ursus/devel/optee/optee_os/lib/libmpa/mpa_modulus.c:53
    c5c4:	aa0403f4 	mov	x20, x4
    c5c8:	a9025bf5 	stp	x21, x22, [sp,#32]
    c5cc:	a90363f7 	stp	x23, x24, [sp,#48]
    c5d0:	aa0303f6 	mov	x22, x3
    c5d4:	aa0003f5 	mov	x21, x0
    c5d8:	aa0103f7 	mov	x23, x1
    c5dc:	aa0203f8 	mov	x24, x2
/home/ursus/devel/optee/optee_os/lib/libmpa/mpa_modulus.c:56
    c5e0:	aa0403e1 	mov	x1, x4
    c5e4:	aa1303e0 	mov	x0, x19
    c5e8:	97fff8c0 	bl	a8e8 <mpa_alloc_static_temp_var>
/home/ursus/devel/optee/optee_os/lib/libmpa/mpa_modulus.c:58
    c5ec:	f94027a0 	ldr	x0, [x29,#72]
    c5f0:	aa1403e3 	mov	x3, x20
    c5f4:	aa1803e2 	mov	x2, x24
    c5f8:	aa1703e1 	mov	x1, x23
    c5fc:	97fffbb2 	bl	b4c4 <mpa_add>
/home/ursus/devel/optee/optee_os/lib/libmpa/mpa_modulus.c:59
    c600:	f94027a2 	ldr	x2, [x29,#72]
    c604:	aa1403e4 	mov	x4, x20
    c608:	aa1603e3 	mov	x3, x22
    c60c:	aa1503e1 	mov	x1, x21
    c610:	d2800000 	mov	x0, #0x0                   	// #0
    c614:	97fff615 	bl	9e68 <mpa_div>
/home/ursus/devel/optee/optee_os/lib/libmpa/mpa_modulus.c:61
    c618:	aa1403e1 	mov	x1, x20
    c61c:	aa1303e0 	mov	x0, x19
    c620:	97fff8b6 	bl	a8f8 <mpa_free_static_temp_var>
/home/ursus/devel/optee/optee_os/lib/libmpa/mpa_modulus.c:62
    c624:	a94153f3 	ldp	x19, x20, [sp,#16]
    c628:	a9425bf5 	ldp	x21, x22, [sp,#32]
    c62c:	a94363f7 	ldp	x23, x24, [sp,#48]
    c630:	a8c57bfd 	ldp	x29, x30, [sp],#80
    c634:	d65f03c0 	ret

000000000000c638 <mpa_sub_mod>:
mpa_sub_mod():
/home/ursus/devel/optee/optee_os/lib/libmpa/mpa_modulus.c:72
    c638:	a9bb7bfd 	stp	x29, x30, [sp,#-80]!
    c63c:	910003fd 	mov	x29, sp
    c640:	a90153f3 	stp	x19, x20, [sp,#16]
/home/ursus/devel/optee/optee_os/lib/libmpa/mpa_modulus.c:75
    c644:	910123b3 	add	x19, x29, #0x48
/home/ursus/devel/optee/optee_os/lib/libmpa/mpa_modulus.c:72
    c648:	aa0403f4 	mov	x20, x4
    c64c:	a9025bf5 	stp	x21, x22, [sp,#32]
    c650:	a90363f7 	stp	x23, x24, [sp,#48]
    c654:	aa0303f6 	mov	x22, x3
    c658:	aa0003f5 	mov	x21, x0
    c65c:	aa0103f7 	mov	x23, x1
    c660:	aa0203f8 	mov	x24, x2
/home/ursus/devel/optee/optee_os/lib/libmpa/mpa_modulus.c:75
    c664:	aa0403e1 	mov	x1, x4
    c668:	aa1303e0 	mov	x0, x19
    c66c:	97fff89f 	bl	a8e8 <mpa_alloc_static_temp_var>
/home/ursus/devel/optee/optee_os/lib/libmpa/mpa_modulus.c:77
    c670:	f94027a0 	ldr	x0, [x29,#72]
    c674:	aa1403e3 	mov	x3, x20
    c678:	aa1803e2 	mov	x2, x24
    c67c:	aa1703e1 	mov	x1, x23
    c680:	97fffbf6 	bl	b658 <mpa_sub>
/home/ursus/devel/optee/optee_os/lib/libmpa/mpa_modulus.c:78
    c684:	f94027a2 	ldr	x2, [x29,#72]
    c688:	aa1403e4 	mov	x4, x20
    c68c:	aa1603e3 	mov	x3, x22
    c690:	aa1503e1 	mov	x1, x21
    c694:	d2800000 	mov	x0, #0x0                   	// #0
    c698:	97fff5f4 	bl	9e68 <mpa_div>
/home/ursus/devel/optee/optee_os/lib/libmpa/mpa_modulus.c:80
    c69c:	aa1403e1 	mov	x1, x20
    c6a0:	aa1303e0 	mov	x0, x19
    c6a4:	97fff895 	bl	a8f8 <mpa_free_static_temp_var>
/home/ursus/devel/optee/optee_os/lib/libmpa/mpa_modulus.c:81
    c6a8:	a94153f3 	ldp	x19, x20, [sp,#16]
    c6ac:	a9425bf5 	ldp	x21, x22, [sp,#32]
    c6b0:	a94363f7 	ldp	x23, x24, [sp,#48]
    c6b4:	a8c57bfd 	ldp	x29, x30, [sp],#80
    c6b8:	d65f03c0 	ret

000000000000c6bc <mpa_mul_mod>:
mpa_mul_mod():
/home/ursus/devel/optee/optee_os/lib/libmpa/mpa_modulus.c:91
    c6bc:	a9bb7bfd 	stp	x29, x30, [sp,#-80]!
    c6c0:	910003fd 	mov	x29, sp
    c6c4:	a90153f3 	stp	x19, x20, [sp,#16]
/home/ursus/devel/optee/optee_os/lib/libmpa/mpa_modulus.c:94
    c6c8:	910123b3 	add	x19, x29, #0x48
/home/ursus/devel/optee/optee_os/lib/libmpa/mpa_modulus.c:91
    c6cc:	aa0403f4 	mov	x20, x4
    c6d0:	a9025bf5 	stp	x21, x22, [sp,#32]
    c6d4:	a90363f7 	stp	x23, x24, [sp,#48]
    c6d8:	aa0303f6 	mov	x22, x3
    c6dc:	aa0003f5 	mov	x21, x0
    c6e0:	aa0103f7 	mov	x23, x1
    c6e4:	aa0203f8 	mov	x24, x2
/home/ursus/devel/optee/optee_os/lib/libmpa/mpa_modulus.c:94
    c6e8:	aa0403e1 	mov	x1, x4
    c6ec:	aa1303e0 	mov	x0, x19
    c6f0:	97fff87e 	bl	a8e8 <mpa_alloc_static_temp_var>
/home/ursus/devel/optee/optee_os/lib/libmpa/mpa_modulus.c:96
    c6f4:	f94027a0 	ldr	x0, [x29,#72]
    c6f8:	aa1403e3 	mov	x3, x20
    c6fc:	aa1803e2 	mov	x2, x24
    c700:	aa1703e1 	mov	x1, x23
    c704:	97fff901 	bl	ab08 <mpa_mul>
/home/ursus/devel/optee/optee_os/lib/libmpa/mpa_modulus.c:97
    c708:	f94027a2 	ldr	x2, [x29,#72]
    c70c:	aa1403e4 	mov	x4, x20
    c710:	aa1603e3 	mov	x3, x22
    c714:	aa1503e1 	mov	x1, x21
    c718:	d2800000 	mov	x0, #0x0                   	// #0
    c71c:	97fff5d3 	bl	9e68 <mpa_div>
/home/ursus/devel/optee/optee_os/lib/libmpa/mpa_modulus.c:99
    c720:	aa1403e1 	mov	x1, x20
    c724:	aa1303e0 	mov	x0, x19
    c728:	97fff874 	bl	a8f8 <mpa_free_static_temp_var>
/home/ursus/devel/optee/optee_os/lib/libmpa/mpa_modulus.c:100
    c72c:	a94153f3 	ldp	x19, x20, [sp,#16]
    c730:	a9425bf5 	ldp	x21, x22, [sp,#32]
    c734:	a94363f7 	ldp	x23, x24, [sp,#48]
    c738:	a8c57bfd 	ldp	x29, x30, [sp],#80
    c73c:	d65f03c0 	ret

000000000000c740 <mpa_inv_mod>:
mpa_inv_mod():
/home/ursus/devel/optee/optee_os/lib/libmpa/mpa_modulus.c:109
    c740:	a9bb7bfd 	stp	x29, x30, [sp,#-80]!
    c744:	910003fd 	mov	x29, sp
    c748:	a9025bf5 	stp	x21, x22, [sp,#32]
    c74c:	aa0103f6 	mov	x22, x1
    c750:	a90153f3 	stp	x19, x20, [sp,#16]
/home/ursus/devel/optee/optee_os/lib/libmpa/mpa_modulus.c:115
    c754:	52800021 	mov	w1, #0x1                   	// #1
/home/ursus/devel/optee/optee_os/lib/libmpa/mpa_modulus.c:109
    c758:	a90363f7 	stp	x23, x24, [sp,#48]
    c75c:	aa0003f3 	mov	x19, x0
    c760:	aa0203f7 	mov	x23, x2
    c764:	aa0303f4 	mov	x20, x3
/home/ursus/devel/optee/optee_os/lib/libmpa/mpa_modulus.c:115
    c768:	aa1603e0 	mov	x0, x22
    c76c:	97fffd1d 	bl	bbe0 <mpa_cmp_short>
    c770:	35000160 	cbnz	w0, c79c <mpa_inv_mod+0x5c>
/home/ursus/devel/optee/optee_os/lib/libmpa/mpa_modulus.c:117
    c774:	52800015 	mov	w21, #0x0                   	// #0
/home/ursus/devel/optee/optee_os/lib/libmpa/mpa_modulus.c:116
    c778:	52800021 	mov	w1, #0x1                   	// #1
    c77c:	aa1303e0 	mov	x0, x19
    c780:	97fff37f 	bl	957c <mpa_set_S32>
/home/ursus/devel/optee/optee_os/lib/libmpa/mpa_modulus.c:144
    c784:	2a1503e0 	mov	w0, w21
    c788:	a94153f3 	ldp	x19, x20, [sp,#16]
    c78c:	a9425bf5 	ldp	x21, x22, [sp,#32]
    c790:	a94363f7 	ldp	x23, x24, [sp,#48]
    c794:	a8c57bfd 	ldp	x29, x30, [sp],#80
    c798:	d65f03c0 	ret
/home/ursus/devel/optee/optee_os/lib/libmpa/mpa_modulus.c:121
    c79c:	eb1302df 	cmp	x22, x19
    c7a0:	54000421 	b.ne	c824 <mpa_inv_mod+0xe4>
/home/ursus/devel/optee/optee_os/lib/libmpa/mpa_modulus.c:122
    c7a4:	aa1403e1 	mov	x1, x20
    c7a8:	910123a0 	add	x0, x29, #0x48
    c7ac:	97fff84f 	bl	a8e8 <mpa_alloc_static_temp_var>
/home/ursus/devel/optee/optee_os/lib/libmpa/mpa_modulus.c:126
    c7b0:	910103b8 	add	x24, x29, #0x40
    c7b4:	aa1403e1 	mov	x1, x20
    c7b8:	aa1803e0 	mov	x0, x24
    c7bc:	97fff84b 	bl	a8e8 <mpa_alloc_static_temp_var>
/home/ursus/devel/optee/optee_os/lib/libmpa/mpa_modulus.c:128
    c7c0:	a94407a0 	ldp	x0, x1, [x29,#64]
    c7c4:	aa1403e5 	mov	x5, x20
    c7c8:	aa1703e4 	mov	x4, x23
    c7cc:	aa1603e3 	mov	x3, x22
    c7d0:	d2800002 	mov	x2, #0x0                   	// #0
    c7d4:	97fff784 	bl	a5e4 <mpa_extended_gcd>
/home/ursus/devel/optee/optee_os/lib/libmpa/mpa_modulus.c:129
    c7d8:	f94023a0 	ldr	x0, [x29,#64]
    c7dc:	52800021 	mov	w1, #0x1                   	// #1
    c7e0:	97fffd00 	bl	bbe0 <mpa_cmp_short>
    c7e4:	2a0003f5 	mov	w21, w0
/home/ursus/devel/optee/optee_os/lib/libmpa/mpa_modulus.c:131
    c7e8:	eb1302df 	cmp	x22, x19
    c7ec:	54000101 	b.ne	c80c <mpa_inv_mod+0xcc>
/home/ursus/devel/optee/optee_os/lib/libmpa/mpa_modulus.c:132
    c7f0:	910143b6 	add	x22, x29, #0x50
    c7f4:	aa1303e0 	mov	x0, x19
    c7f8:	f85f8ec1 	ldr	x1, [x22,#-8]!
    c7fc:	97fff129 	bl	8ca0 <mpa_copy>
/home/ursus/devel/optee/optee_os/lib/libmpa/mpa_modulus.c:133
    c800:	aa1403e1 	mov	x1, x20
    c804:	aa1603e0 	mov	x0, x22
    c808:	97fff83c 	bl	a8f8 <mpa_free_static_temp_var>
/home/ursus/devel/optee/optee_os/lib/libmpa/mpa_modulus.c:136
    c80c:	aa1403e1 	mov	x1, x20
    c810:	aa1803e0 	mov	x0, x24
    c814:	97fff839 	bl	a8f8 <mpa_free_static_temp_var>
/home/ursus/devel/optee/optee_os/lib/libmpa/mpa_modulus.c:137
    c818:	34000155 	cbz	w21, c840 <mpa_inv_mod+0x100>
/home/ursus/devel/optee/optee_os/lib/libmpa/mpa_modulus.c:142
    c81c:	12800015 	mov	w21, #0xffffffff            	// #-1
    c820:	17ffffd9 	b	c784 <mpa_inv_mod+0x44>
/home/ursus/devel/optee/optee_os/lib/libmpa/mpa_modulus.c:124
    c824:	f90027b3 	str	x19, [x29,#72]
    c828:	17ffffe2 	b	c7b0 <mpa_inv_mod+0x70>
/home/ursus/devel/optee/optee_os/lib/libmpa/mpa_modulus.c:139
    c82c:	aa1403e3 	mov	x3, x20
    c830:	aa1703e2 	mov	x2, x23
    c834:	aa1303e1 	mov	x1, x19
    c838:	aa1303e0 	mov	x0, x19
    c83c:	97fffb22 	bl	b4c4 <mpa_add>
/home/ursus/devel/optee/optee_os/lib/libmpa/mpa_modulus.c:138
    c840:	52800001 	mov	w1, #0x0                   	// #0
    c844:	aa1303e0 	mov	x0, x19
    c848:	97fffce6 	bl	bbe0 <mpa_cmp_short>
    c84c:	37ffff00 	tbnz	w0, #31, c82c <mpa_inv_mod+0xec>
    c850:	17ffffcd 	b	c784 <mpa_inv_mod+0x44>
