
5dbac793-f574-4871-8ad3-04331ec17f24.elf:     file format elf32-littlearm
5dbac793-f574-4871-8ad3-04331ec17f24.elf
architecture: arm, flags 0x00000150:
HAS_SYMS, DYNAMIC, D_PAGED
start address 0x00000020

Program Header:
0x70000001 off    0x00020e44 vaddr 0x00010e44 paddr 0x00010e44 align 2**2
         filesz 0x00000a50 memsz 0x00000a50 flags r--
    LOAD off    0x00010000 vaddr 0x00000000 paddr 0x00000000 align 2**16
         filesz 0x0000e750 memsz 0x0000e750 flags r-x
    LOAD off    0x0001e750 vaddr 0x0000e750 paddr 0x0000e750 align 2**16
         filesz 0x000034c0 memsz 0x000034c0 flags r--
    LOAD off    0x00022000 vaddr 0x00012000 paddr 0x00012000 align 2**16
         filesz 0x0000009c memsz 0x0000ac28 flags rw-
 DYNAMIC off    0x000219e0 vaddr 0x000119e0 paddr 0x000119e0 align 2**2
         filesz 0x00000080 memsz 0x00000080 flags rw-

Dynamic Section:
  HASH                 0x00011bc8
  STRTAB               0x00011b30
  SYMTAB               0x00011a60
  STRSZ                0x00000096
  SYMENT               0x00000010
  DEBUG                0x00000000
  REL                  0x000118c8
  RELSZ                0x00000118
  RELENT               0x00000008
  FLAGS_1              0x08000000
  RELCOUNT             0x00000019
private flags = 5000400: [Version5 EABI] [hard-float ABI]

Sections:
Idx Name          Size      VMA       LMA       File off  Algn
  0 .ta_head      00000020  00000000  00000000  00010000  2**3
                  CONTENTS, ALLOC, LOAD, DATA
  1 .text         0000e730  00000020  00000020  00010020  2**2
                  CONTENTS, ALLOC, LOAD, READONLY, CODE
  2 .rodata       000018f8  0000e750  0000e750  0001e750  2**2
                  CONTENTS, ALLOC, LOAD, READONLY, DATA
  3 .ARM.extab    00000dd8  00010048  00010048  00020048  2**2
                  CONTENTS, ALLOC, LOAD, READONLY, DATA
  4 .ARM.extab.text.utee_panic 0000000c  00010e20  00010e20  00020e20  2**2
                  CONTENTS, ALLOC, LOAD, READONLY, DATA
  5 .ARM.extab.text.__aeabi_ldivmod 0000000c  00010e2c  00010e2c  00020e2c  2**2
                  CONTENTS, ALLOC, LOAD, READONLY, DATA
  6 .ARM.extab.text.__aeabi_uldivmod 0000000c  00010e38  00010e38  00020e38  2**2
                  CONTENTS, ALLOC, LOAD, READONLY, DATA
  7 .ARM.exidx    00000a50  00010e44  00010e44  00020e44  2**2
                  CONTENTS, ALLOC, LOAD, READONLY, DATA
  8 .got          00000034  00011894  00011894  00021894  2**2
                  CONTENTS, ALLOC, LOAD, DATA
  9 .dynsym       000000d0  00011a60  00011a60  00021a60  2**2
                  CONTENTS, ALLOC, LOAD, READONLY, DATA
 10 .rel.got      00000050  00011990  00011990  00021990  2**2
                  CONTENTS, ALLOC, LOAD, READONLY, DATA
 11 .dynamic      00000080  000119e0  000119e0  000219e0  2**2
                  CONTENTS, ALLOC, LOAD, DATA
 12 .dynstr       00000096  00011b30  00011b30  00021b30  2**0
                  CONTENTS, ALLOC, LOAD, READONLY, DATA
 13 .hash         00000048  00011bc8  00011bc8  00021bc8  2**2
                  CONTENTS, ALLOC, LOAD, READONLY, DATA
 14 .data         0000009c  00012000  00012000  00022000  2**2
                  CONTENTS, ALLOC, LOAD, DATA
 15 .bss          0000ab8c  0001209c  0001209c  0002209c  2**2
                  ALLOC
 16 .debug_info   0000c412  00000000  00000000  0002209c  2**0
                  CONTENTS, READONLY, DEBUGGING
 17 .debug_abbrev 00003480  00000000  00000000  0002e4ae  2**0
                  CONTENTS, READONLY, DEBUGGING
 18 .debug_aranges 000007c0  00000000  00000000  00031930  2**3
                  CONTENTS, READONLY, DEBUGGING
 19 .debug_macro  00005c61  00000000  00000000  000320f0  2**0
                  CONTENTS, READONLY, DEBUGGING
 20 .debug_line   000076ec  00000000  00000000  00037d51  2**0
                  CONTENTS, READONLY, DEBUGGING
 21 .debug_str    0001152a  00000000  00000000  0003f43d  2**0
                  CONTENTS, READONLY, DEBUGGING
 22 .comment      0000002d  00000000  00000000  00050967  2**0
                  CONTENTS, READONLY
 23 .ARM.attributes 00000038  00000000  00000000  00050994  2**0
                  CONTENTS, READONLY
 24 .debug_frame  000034bc  00000000  00000000  000509cc  2**2
                  CONTENTS, READONLY, DEBUGGING
 25 .rel.dyn      000000c8  000118c8  000118c8  000218c8  2**2
                  CONTENTS, ALLOC, LOAD, READONLY, DATA
 26 .debug_ranges 00000288  00000000  00000000  00053e88  2**3
                  CONTENTS, READONLY, DEBUGGING
SYMBOL TABLE:
00000000 l    d  .ta_head	00000000 .ta_head
00000020 l    d  .text	00000000 .text
0000e750 l    d  .rodata	00000000 .rodata
00010048 l    d  .ARM.extab	00000000 .ARM.extab
00010e20 l    d  .ARM.extab.text.utee_panic	00000000 .ARM.extab.text.utee_panic
00010e2c l    d  .ARM.extab.text.__aeabi_ldivmod	00000000 .ARM.extab.text.__aeabi_ldivmod
00010e38 l    d  .ARM.extab.text.__aeabi_uldivmod	00000000 .ARM.extab.text.__aeabi_uldivmod
00010e44 l    d  .ARM.exidx	00000000 .ARM.exidx
00011894 l    d  .got	00000000 .got
00011990 l    d  .rel.got	00000000 .rel.got
000119e0 l    d  .dynamic	00000000 .dynamic
00011a60 l    d  .dynsym	00000000 .dynsym
00011b30 l    d  .dynstr	00000000 .dynstr
00011bc8 l    d  .hash	00000000 .hash
00012000 l    d  .data	00000000 .data
0001209c l    d  .bss	00000000 .bss
00000000 l    d  .debug_info	00000000 .debug_info
00000000 l    d  .debug_abbrev	00000000 .debug_abbrev
00000000 l    d  .debug_aranges	00000000 .debug_aranges
00000000 l    d  .debug_macro	00000000 .debug_macro
00000000 l    d  .debug_line	00000000 .debug_line
00000000 l    d  .debug_str	00000000 .debug_str
00000000 l    d  .comment	00000000 .comment
00000000 l    d  .ARM.attributes	00000000 .ARM.attributes
00000000 l    d  .debug_frame	00000000 .debug_frame
000118c8 l    d  .rel.dyn	00000000 .rel.dyn
00000000 l    d  .debug_ranges	00000000 .debug_ranges
00000000 l    df *ABS*	00000000 user_ta_header.c
0000e9f8 l     O .rodata	00000001 __compound_literal.0
0000e9f9 l     O .rodata	00000001 __compound_literal.1
0000e9fa l     O .rodata	00000001 __compound_literal.2
0000e9fc l     O .rodata	00000004 __compound_literal.3
0000ea00 l     O .rodata	00000004 __compound_literal.4
0000ea04 l     O .rodata	00000004 __compound_literal.5
00000000 l    df *ABS*	00000000 aes_ta.c
00000020 l     F .text	0000008c ta2tee_algo_id
0000e930 l     O .rodata	0000000f __func__.6137
000000ac l     F .text	0000005c ta2tee_key_size
0000e940 l     O .rodata	00000010 __func__.6145
00000108 l     F .text	0000006c ta2tee_mode_id
0000e950 l     O .rodata	0000000f __func__.6153
00000174 l     F .text	0000026c alloc_resources
0000e960 l     O .rodata	00000010 __func__.6164
000003e0 l     F .text	00000154 set_aes_key
0000e970 l     O .rodata	0000000c __func__.6177
00000534 l     F .text	00000078 reset_aes_iv
0000e97c l     O .rodata	0000000d __func__.6187
000005ac l     F .text	000000ec cipher_buffer
0000e98c l     O .rodata	0000000e __func__.6195
0000e99c l     O .rodata	00000019 __func__.6208
0000e9b8 l     O .rodata	0000001a __func__.6213
0000e9d4 l     O .rodata	0000001b __func__.6225
00000000 l    df *ABS*	00000000 tee_api.c
0000eb10 l     O .rodata	00000004 DEFAULT_TEE_MALLOC_HINT
0001a09c l     O .bss	00000004 tee_api_instance_data
00000000 l    df *ABS*	00000000 tee_api_operations.c
00002010 l     F .text	00000048 init_hash_operation
0000220c l     F .text	00000310 tee_buffer_update
00000000 l    df *ABS*	00000000 user_ta_entry.c
00003a90 l     F .text	00000010 __utee_gprof_init
00003aa0 l     F .text	00000010 __utee_gprof_fini
00012074 l     O .data	00000008 ta_sessions
0001a0c4 l     O .bss	00000001 init_done
00003ab0 l     F .text	00000054 init_instance
00003b04 l     F .text	00000014 uninit_instance
00003b18 l     F .text	00000058 ta_header_save_params
00003b70 l     F .text	00000044 ta_header_get_session
00003bb4 l     F .text	000000c0 ta_header_add_session
00003c74 l     F .text	000000a8 ta_header_remove_session
00003d1c l     F .text	0000008e entry_open_session
00003daa l     F .text	00000040 entry_close_session
00003dea l     F .text	00000070 entry_invoke_command
00000000 l    df *ABS*	00000000 utee_syscalls_a32.o
00000000 l    df *ABS*	00000000 gprof_a32.o
00000000 l    df *ABS*	00000000 tee_user_mem.c
0000eb14 l     O .rodata	00000004 DEFAULT_TEE_MALLOC_HINT
0001207c l     O .data	00000004 ARTIST
0000eb18 l     O .rodata	00000004 CANARY_LINE_SIZE
000044b0 l     F .text	0000001e buf_addr
000044ce l     F .text	00000028 buf_size
000044f6 l     F .text	0000001e elem_addr
00004514 l     F .text	00000048 is_buffer_valid
0000455c l     F .text	00000068 print_buf
0001a0c8 l     O .bss	00000004 heap_level
0001a0cc l     O .bss	00000008 global_stats
000045c4 l     F .text	00000060 heap_inc
00004624 l     F .text	00000064 heap_dec
00004688 l     F .text	00000064 check_elem_end
0000ec18 l     O .rodata	0000000f __func__.6246
000046ec l     F .text	000000dc check_elem
0000ec28 l     O .rodata	0000000b __func__.6251
000047c8 l     F .text	00000060 is_mem_coherent
0000ec34 l     O .rodata	00000010 __func__.6256
0000ec44 l     O .rodata	00000013 __func__.6271
0000ec58 l     O .rodata	00000012 __func__.6288
0000ec6c l     O .rodata	00000018 __func__.6296
00004bc0 l     F .text	00000068 tee_user_mem_status
0000ec84 l     O .rodata	00000014 __func__.6301
00000000 l    df *ABS*	00000000 assert.c
00000000 l    df *ABS*	00000000 tee_api_arith.c
0001a0d4 l     O .bss	00001b00 mempool_u32
00012088 l     O .data	00000004 mempool
00004cc0 l     F .text	00000028 TEE_BigInt_Panic
00000000 l    df *ABS*	00000000 trace_ext.c
00000000 l    df *ABS*	00000000 bget_malloc.c
000057b4 l     F .text	00000014 malloc_lock
000057c8 l     F .text	00000018 malloc_unlock
000057e0 l     F .text	0000001a tag_asan_free
000057fa l     F .text	0000001a tag_asan_alloced
00005814 l     F .text	00000024 memset_unchecked
0001208c l     O .data	00000010 freelist
0001bbd4 l     O .bss	00000004 totalloc
0001bbd8 l     O .bss	00000004 numget
0001bbdc l     O .bss	00000004 numrel
0000f128 l     O .rodata	00000005 __func__.5667
0000f130 l     O .rodata	00000006 __func__.5681
0000f138 l     O .rodata	00000006 __func__.5689
0000f140 l     O .rodata	00000005 __func__.5696
0000f148 l     O .rodata	00000006 __func__.5704
0000f150 l     O .rodata	00000007 __func__.5713
0001bbe0 l     O .bss	00000004 malloc_pool
0001bbe4 l     O .bss	00000004 malloc_pool_len
0001bbe8 l     O .bss	00000038 mstats
00006110 l     F .text	0000009c raw_malloc_return_hook
00006250 l     F .text	00000010 raw_malloc_validate_pools
00006260 l     F .text	00000030 bpool_foreach_iterator_init
00006290 l     F .text	000000d8 bpool_foreach_pool
0000f158 l     O .rodata	00000013 __func__.5752
00006368 l     F .text	00000080 bpool_foreach
000063e8 l     F .text	0000005e raw_malloc
00006446 l     F .text	00000024 raw_free
0000646a l     F .text	00000070 raw_calloc
000064da l     F .text	00000060 raw_realloc
0000653a l     F .text	0000015e create_free_block
0000f16c l     O .rodata	00000012 __func__.5799
00006698 l     F .text	0000015c brel_before
0000f180 l     O .rodata	0000000c __func__.5808
000067f4 l     F .text	00000220 brel_after
0000f18c l     O .rodata	0000000b __func__.5818
00006a14 l     F .text	00000148 raw_memalign
0000f198 l     O .rodata	0000000d __func__.5832
00006b5c l     F .text	0000005c bget_buf_size
0000f1a8 l     O .rodata	0000000e __func__.5838
00006c46 l     F .text	00000028 realloc_unlocked
00006cd2 l     F .text	00000026 get_payload_start_size
0000f1b8 l     O .rodata	00000010 __func__.5884
00000000 l    df *ABS*	00000000 snprintk.c
0000f1c8 l     O .rodata	00000011 hexdigits
0000f1dc l     O .rodata	00000011 HEXDIGITS
00007154 l     F .text	00000df4 kprintf
000070b6 l     F .text	0000009e uuid2str
00000000 l    df *ABS*	00000000 trace.c
00007fb4 l     F .text	00000054 trace_level_to_string
0000f26c l     O .rodata	00000005 lvl_strs.5538
00008008 l     F .text	0000005c print_thread_id
00000000 l    df *ABS*	00000000 arm32_aeabi_ldivmod_a32.o
00000000 l    df *ABS*	00000000 mpa_misc.c
00000000 l    df *ABS*	00000000 mpa_montgomery.c
00000000 l    df *ABS*	00000000 mpa_primetest.c
0000fedc l     O .rodata	000000b8 const_small_prime_factors
0000ff94 l     O .rodata	00000010 const_miller_rabin_proof_limit
0000ffa4 l     O .rodata	0000000c const_two
00008b20 l     F .text	0000009a is_small_prime
00008bba l     F .text	00000062 has_small_factors
00008c1c l     F .text	000002c4 primality_test_miller_rabin
00008ae6 l     F .text	0000003a check_table
0000ffb0 l     O .rodata	0000001c proof_a.5919
00000000 l    df *ABS*	00000000 mpa_random.c
0001bc20 l     O .bss	00000004 get_rng_array
00008f08 l     F .text	00000034 get_random_byte
00000000 l    df *ABS*	00000000 mpa_expmod.c
00000000 l    df *ABS*	00000000 mpa_io.c
00009274 l     F .text	00000042 __mpa_isspace
000092b6 l     F .text	00000084 __mpa_is_char_in_base
0000933a l     F .text	00000058 __mpa_digit_value
00009392 l     F .text	00000022 __mpa_digitstr_to_binary_wsize_base_16
000093b4 l     F .text	00000050 __mpa_nibble_to_char
00009404 l     F .text	00000066 __mpa_word_to_hexstr
0000946a l     F .text	00000128 __mpa_mpanum_to_hexstr
00009592 l     F .text	00000050 __mpa_count_leading_zero_bits
000095e2 l     F .text	00000064 __mpa_size_in_base_255
00010030 l     O .rodata	0000000c __func__.5993
0001bc24 l     O .bss	00001002 buf.5979
0001003c l     O .rodata	0000000c __func__.6007
00009a1c l     F .text	00000064 set_word
00009b6c l     F .text	00000044 get_word
00000000 l    df *ABS*	00000000 tee_api_objects.c
00000000 l    df *ABS*	00000000 tee_api_panic.c
00000000 l    df *ABS*	00000000 utee_misc.c
00000000 l    df *ABS*	00000000 snprintf.c
00000000 l    df *ABS*	00000000 memcmp.c
00000000 l    df *ABS*	00000000 memcpy.c
00000000 l    df *ABS*	00000000 memmove.c
00000000 l    df *ABS*	00000000 memset.c
00000000 l    df *ABS*	00000000 strlen.c
00000000 l    df *ABS*	00000000 buf_compare_ct.c
00000000 l    df *ABS*	00000000 aeabi_unwind.c
00000000 l    df *ABS*	00000000 memchr.c
00000000 l    df *ABS*	00000000 arm32_aeabi_ldivmod.c
0000b4c8 l     F .text	000000ee division_lqr
0000b5b6 l     F .text	0000006a ul_div_qr
00000000 l    df *ABS*	00000000 mpa_conv.c
00000000 l    df *ABS*	00000000 mpa_div.c
0000b8be l     F .text	000000d8 __mpa_soft_div
0000b9ee l     F .text	0000061a __mpa_div_q_r_internal
00000000 l    df *ABS*	00000000 mpa_gcd.c
0000c35a l     F .text	000000f4 __mpa_divby2
0000c44e l     F .text	000002c8 __mpa_egcd
0000c716 l     F .text	0000015a __mpa_gcd
00000000 l    df *ABS*	00000000 mpa_mem_static.c
00000000 l    df *ABS*	00000000 mpa_mul.c
00000000 l    df *ABS*	00000000 mpa_shift.c
00000000 l    df *ABS*	00000000 mpa_addsub.c
00000000 l    df *ABS*	00000000 mpa_cmp.c
00000000 l    df *ABS*	00000000 mpa_init.c
00000000 l    df *ABS*	00000000 mpa_modulus.c
00000000 l    df *ABS*	00000000 
000119e0 l     O *ABS*	00000000 _DYNAMIC
00011894 l     O *ABS*	00000000 _GLOBAL_OFFSET_TABLE_
00004464 g     F .text	00000018 utee_se_channel_transmit
0000577c g     F .text	00000038 putchar
0000e464 g     F .text	0000004c mpa_init_static
0000a276 g     F .text	0000012e TEE_PopulateTransientObject
000083cc g     F .text	00000048 mpa_copy
0000557c g     F .text	0000004c TEE_BigIntConvertToFMM
000053dc g     F .text	00000024 TEE_BigIntSquareMod
00004fbc g     F .text	0000002a TEE_BigIntShiftRight
0000b7c4 g     F .text	00000096 mpa_get_S32
00008446 g     F .text	00000080 mpa_highest_bit_index
00004254 g     F .text	00000018 utee_storage_obj_create
0000b692 g     F .text	000000e6 __l_divmod
00004428 g     F .text	00000014 utee_se_session_close
00003ed4 g     F .text	00000014 utee_return
00002058 g     F .text	0000005c TEE_DigestUpdate
00004384 g     F .text	00000014 utee_se_service_get_readers
00000ecc g     F .text	00000020 TEE_Realloc
0000c008 g     F .text	00000132 __mpa_div_q_r_internal_word
00004970 g     F .text	000000ac tee_user_mem_realloc
00001cb8 g     F .text	00000230 TEE_SetOperationKey2
0000dd20 g     F .text	00000202 mpa_sub
000056dc g     F .text	00000068 printf
00004a1c g     F .text	00000110 tee_user_mem_free
00003ee8 g     F .text	00000014 utee_log
0000f2a0 g     O .rodata	00000004 NR_STORED_PRIMES
0000a3a4 g     F .text	0000004c TEE_InitRefAttribute
00000b32 g     F .text	00000090 TEE_InvokeTACommand
00008530 g     F .text	00000032 mpa_can_hold
0000ce9c g     F .text	000000ae __mpa_abs_mul_word
00002ed0 g     F .text	000001fc TEE_AEEncryptFinal
00008a44 g     F .text	0000004c mpa_montgomery_mul
00007016 g     F .text	0000002e vsnprintk
00008562 g     F .text	0000002a mpa_parity
0000b00c g     F .text	0000013e memmove
0000d7fc g     F .text	00000064 __mpa_full_adder_ackum
0000adf8 g     F .text	0000003c snprintf
00004f98 g     F .text	00000024 TEE_BigIntCmpS32
0000a3f0 g     F .text	0000004c TEE_InitValueAttribute
0000b384 g     F .text	00000010 __aeabi_unwind_cpp_pr0
00005038 g     F .text	00000038 TEE_BigIntAdd
00003f28 g     F .text	00000014 utee_get_property_name_to_index
0000e9f4 g     O .rodata	00000004 ta_heap_size
0000f29c g     O .rodata	00000004 MAX_TABULATED_PRIME
0000a216 g     F .text	00000060 TEE_ResetTransientObject
0000ad62 g     F .text	0000001c utee_malloc
0000400c g     F .text	00000018 utee_cryp_state_alloc
000041dc g     F .text	00000018 utee_authenc_enc_final
0000ce14 g     F .text	00000088 __mpa_mul_add_word_cum
00002174 g     F .text	00000098 TEE_CipherInit
000050a8 g     F .text	00000026 TEE_BigIntNeg
0000c284 g     F .text	000000d6 mpa_div
00000020 g       .text	00000000 __text_start
0000a9c2 g     F .text	0000005a TEE_StartPersistentObjectEnumerator
0000f290 g     O .rodata	0000000c const_one
00006f1e g     F .text	000000c2 malloc_buffer_overlaps_heap
0000e30c g     F .text	00000026 __mpa_abs_less_than
0000529c g     F .text	00000084 TEE_BigIntSubMod
00002bec g     F .text	000000e6 TEE_AEInit
00008f3c g     F .text	0000013c mpa_get_random
0000add8 g     F .text	00000020 get_rng_array
00008064 g     F .text	0000029c trace_printf
0000435c g     F .text	00000014 utee_se_service_open
0000af1a g     F .text	000000f2 memcpy
00004038 g     F .text	00000014 utee_cryp_state_free
00008398 g     F .text	00000034 mpa_wipe
000055c8 g     F .text	00000090 TEE_BigIntConvertFromFMM
0000ad34 g     F .text	0000001a TEE_Panic
00004450 g     F .text	00000014 utee_se_channel_get_select_resp
00008338 g     F .text	00000018 __aeabi_uldivmod
00001ee8 g     F .text	00000128 TEE_CopyOperation
00005744 g     F .text	00000038 puts
00005658 g     F .text	0000004c TEE_BigIntComputeFMM
0000b85a g     F .text	00000032 mpa_set_word
0000620c g     F .text	00000044 malloc_get_stats
0000d32a g     F .text	00000228 mpa_shift_left
000040b8 g     F .text	00000018 utee_cipher_final
0000d056 g     F .text	000000c4 mpa_mul
00000e80 g     F .text	0000002c TEE_GetREETime
0000a8fe g     F .text	00000060 TEE_AllocatePersistentObjectEnumerator
00012004 g     O .data	0000006c ta_props
000032b0 g     F .text	00000196 TEE_AsymmetricEncrypt
00006bb8 g     F .text	00000032 malloc
00004120 g     F .text	00000014 utee_cryp_obj_close
000043c0 g     F .text	00000014 utee_se_reader_open_session
0000ae34 g     F .text	0000002e vsnprintf
0000a540 g     F .text	000000f0 TEE_GenerateKey
00012000 g     O .data	00000004 trace_level
0000ad4e g     F .text	00000014 utee_get_ta_exec_id
00004f70 g     F .text	00000028 TEE_BigIntCmp
0000ad7e g     F .text	00000020 utee_realloc
0000eb0c g     O .rodata	00000004 ta_num_props
00005b34 g     F .text	00000094 bgetr
000041c4 g     F .text	00000018 utee_authenc_update_payload
0000251c g     F .text	000001bc TEE_CipherUpdate
00004e8e g     F .text	0000006a TEE_BigIntConvertToOctetString
00001954 g     F .text	000001a0 TEE_GetOperationInfoMultiple
00004490 g     F .text	00000014 utee_cache_operation
00004198 g     F .text	00000018 utee_authenc_init
00004fe6 g     F .text	0000002e TEE_BigIntGetBit
0000e9f0 g     O .rodata	00000003 trace_ext_prefix
0000d860 g     F .text	00000114 __mpa_abs_add
00005aa0 g     F .text	00000094 bgetz
00000cc8 g     F .text	0000001c TEE_GetInstanceData
00000d7e g     F .text	00000038 TEE_Wait
0000430c g     F .text	00000014 utee_storage_obj_write
0000cd0a g     F .text	00000090 mpa_free_static_temp_var
00008a90 g     F .text	00000056 mpa_is_prob_prime
0000b3a4 g     F .text	00000010 __aeabi_unwind_cpp_pr2
0000447c g     F .text	00000014 utee_se_channel_close
0000d11a g     F .text	000000aa mpa_mul_word
00000f2a g     F .text	00000024 TEE_CacheFlush
000006ac g     F .text	00000010 TA_DestroyEntryPoint
00004c64 g     F .text	00000048 _assert_log
00004dfa g     F .text	0000002e TEE_BigIntFMMContextSizeInU32
00002b12 g     F .text	000000da TEE_MACCompareFinal
0000a86a g     F .text	00000094 TEE_RenamePersistentObject
000020b4 g     F .text	000000c0 TEE_DigestDoFinal
0000c13a g     F .text	0000014a __mpa_div_q_r
00004ce8 g     F .text	00000044 _TEE_MathAPI_Init
000042e4 g     F .text	00000014 utee_storage_next_enum
0001209c g     O .bss	00008000 ta_heap
00005400 g     F .text	00000068 TEE_BigIntInvMod
00000734 g     F .text	00000068 TA_CloseSessionEntryPoint
00003446 g     F .text	00000196 TEE_AsymmetricDecrypt
0000a630 g     F .text	000000c6 TEE_OpenPersistentObject
00003efc g     F .text	00000014 __utee_panic
00004024 g     F .text	00000014 utee_cryp_state_copy
0000079c g     F .text	000000a0 TA_InvokeCommandEntryPoint
00009a80 g     F .text	000000ec mpa_set_oct_str
00004410 g     F .text	00000018 utee_se_session_open_channel
0000d1c4 g     F .text	000000b2 __mpa_shift_words_left
0000410c g     F .text	00000014 utee_cryp_obj_alloc
00003ff8 g     F .text	00000014 utee_set_ta_time
000040f8 g     F .text	00000014 utee_cryp_obj_get_attr
0000a43c g     F .text	0000004c TEE_CopyObjectAttributes
000086d8 g     F .text	0000011a __mpa_montgomery_sub_ack
00006c10 g     F .text	00000036 calloc
00000eac g     F .text	00000020 TEE_Malloc
00003fbc g     F .text	00000014 utee_mask_cancellation
00004134 g     F .text	00000014 utee_cryp_obj_reset
00000c5e g     F .text	00000042 TEE_CheckMemoryAccessRights
0001cc28 g       .bss	00000000 __gprof_buf_end
0000b620 g     F .text	00000072 __ul_divmod
0000df22 g     F .text	0000002a mpa_neg
0000f2a4 g     O .rodata	00000c38 PRIME_TABLE
0000aad6 g     F .text	00000088 TEE_ReadObjectData
00009f84 g     F .text	000000c2 TEE_GetObjectBufferAttribute
000006bc g     F .text	00000078 TA_OpenSessionEntryPoint
0000c870 g     F .text	000000ec mpa_gcd
00008414 g     F .text	00000032 mpa_abs
000042d0 g     F .text	00000014 utee_storage_start_enum
000018b4 g     F .text	0000004a TEE_FreeOperation
0000965a g     F .text	00000332 mpa_set_str
00004280 g     F .text	00000014 utee_storage_obj_rename
0001a0a0 g     O .bss	00000004 ta_param_types
00009cdc g     F .text	00000156 __utee_from_attr
00005530 g     F .text	0000004c TEE_BigIntIsProbablePrime
0000cce4 g     F .text	00000026 mpa_alloc_static_temp_var
0000a820 g     F .text	0000004a TEE_CloseAndDeletePersistentObject1
00008ee0 g     F .text	00000028 mpa_set_random_generator
00003f10 g     F .text	00000018 utee_get_property
000030cc g     F .text	000001e4 TEE_AEDecryptFinal
00004d2c g     F .text	0000001e TEE_BigIntInit
00000ce4 g     F .text	00000024 TEE_MemMove
00004e28 g     F .text	00000066 TEE_BigIntConvertFromOctetString
00012070 g     O .data	00000004 _ref__utee_mcount
00002928 g     F .text	00000072 TEE_MACInit
000035dc g     F .text	00000180 TEE_AsymmetricSignDigest
0000b3b4 g     F .text	00000114 memchr
00000bf6 g     F .text	00000034 TEE_UnmaskCancellation
00009e32 g     F .text	0000006e TEE_GetObjectInfo
0000e618 g     F .text	00000050 mpa_mul_mod
0000426c g     F .text	00000014 utee_storage_obj_del
00002d4c g     F .text	00000184 TEE_AEUpdate
00004334 g     F .text	00000014 utee_storage_obj_seek
0000a1b6 g     F .text	00000060 TEE_FreeTransientObject
00008922 g     F .text	00000122 mpa_compute_fmm_context
00004060 g     F .text	00000014 utee_hash_update
0000cb36 g     F .text	00000048 mpa_init_scratch_mem_sync
000044a4  w    F .text	0000000c __utee_mcount
000018fe g     F .text	00000056 TEE_GetOperationInfo
0000519c g     F .text	0000007c TEE_BigIntMod
0000443c g     F .text	00000014 utee_se_channel_select_next
00003f54 g     F .text	00000014 utee_close_ta_session
0000513c g     F .text	00000060 TEE_BigIntDiv
000061ac g     F .text	00000060 malloc_reset_stats
000040a0 g     F .text	00000018 utee_cipher_update
00009f38 g     F .text	0000004c TEE_RestrictObjectUsage1
000043fc g     F .text	00000014 utee_se_session_get_atr
00006c6e g     F .text	0000002e realloc
0000d974 g     F .text	000000e6 __mpa_abs_add_ackum
00004224 g     F .text	00000018 utee_asymm_verify
000050ce g     F .text	0000003a TEE_BigIntMul
00001af4 g     F .text	00000080 TEE_ResetOperation
0000b88c g     F .text	00000032 mpa_get_word
00000d2c g     F .text	00000026 TEE_MemFill
0000ae62 g     F .text	000000b8 memcmp
00006cf8 g     F .text	00000188 malloc_add_pool
0000299a g     F .text	00000082 TEE_MACUpdate
00007f90 g     F .text	00000024 trace_get_level
00004184 g     F .text	00000014 utee_cryp_random_number_generate
00009eec g     F .text	0000004c TEE_RestrictObjectUsage
00004dd4 g     F .text	00000026 TEE_BigIntFMMSizeInU32
00004d4a g     F .text	00000040 TEE_BigIntInitFMM
0000420c g     F .text	00000018 utee_asymm_operate
0000a124 g     F .text	00000032 TEE_CloseObject
00003e5a g     F .text	00000066 __utee_entry
0000e750 g       .text	00000000 __text_end
00005468 g     F .text	0000007c TEE_BigIntRelativePrime
00009078 g     F .text	0000006c mpa_get_random_digits
00005f28 g     F .text	00000124 bpool
0000b778 g     F .text	0000004c mpa_set_S32
0000e4b0 g     F .text	0000009c mpa_init_static_fmm_context
00000bc2 g     F .text	00000034 TEE_GetCancellationFlag
00004370 g     F .text	00000014 utee_se_service_close
00004828 g     F .text	00000148 tee_user_mem_alloc
00012080 g     O .data	00000008 user_mem_head
00000e3a g     F .text	00000046 TEE_SetTAPersistentTime
0000df4c g     F .text	0000014a mpa_add_word
00004398 g     F .text	00000014 utee_se_reader_get_prop
0000b14a g     F .text	0000011c memset
00000db6 g     F .text	00000084 TEE_GetTAPersistentTime
00008300 g     F .text	0000001e dhex_dump
0000a6f6 g     F .text	000000f8 TEE_CreatePersistentObject
00000c2a g     F .text	00000034 TEE_MaskCancellation
0000d794 g     F .text	00000068 __mpa_full_sub
00002cd2 g     F .text	0000007a TEE_AEUpdateAAD
000042f8 g     F .text	00000014 utee_storage_obj_read
0000abdc g     F .text	0000006c TEE_TruncateObjectData
0000ad9e g     F .text	00000020 utee_calloc
00004148 g     F .text	00000014 utee_cryp_obj_populate
0000e332 g     F .text	0000008a mpa_cmp
0000e668 g     F .text	000000e8 mpa_inv_mod
0000e096 g     F .text	0000014e mpa_sub_word
0000cd9a g     F .text	0000007a __mpa_mul_add_word
0000db46 g     F .text	000001da mpa_add
000090e4 g     F .text	00000190 mpa_exp_mod
00009ea0 g     F .text	0000004c TEE_GetObjectInfo1
0000d276 g     F .text	000000b4 __mpa_shift_words_right
00007f48 g     F .text	00000048 trace_set_level
000043e8 g     F .text	00000014 utee_se_session_is_closed
000040d0 g     F .text	00000014 utee_cryp_obj_get_info
0000a046 g     F .text	000000de TEE_GetObjectValueAttribute
00001b74 g     F .text	00000144 TEE_SetOperationKey
00004294 g     F .text	00000014 utee_storage_alloc_enum
000042bc g     F .text	00000014 utee_storage_reset_enum
00004320 g     F .text	00000014 utee_storage_obj_trunc
0000e54c g     F .text	0000002c mpa_mod
0000e2e2 g     F .text	0000002a __mpa_abs_greater_than
00004f1a g     F .text	00000056 TEE_BigIntConvertToS32
00005070 g     F .text	00000038 TEE_BigIntSub
00003f80 g     F .text	00000014 utee_get_cancellation_flag
0000404c g     F .text	00000014 utee_hash_init
00009cc8 g     F .text	00000014 tahead_get_trace_level
0000083c g     F .text	00000166 __utee_from_param
0000ac48 g     F .text	000000ec TEE_SeekObjectData
0000f280 g     O .rodata	00000010 Const_1_LShift_Base
000009a2 g     F .text	000000fa __utee_to_param
00006c9c g     F .text	00000036 memalign
000026d8 g     F .text	00000250 TEE_CipherDoFinal
00004ef8 g     F .text	00000022 TEE_BigIntConvertFromS32
0000e5c8 g     F .text	00000050 mpa_sub_mod
000040e4 g     F .text	00000014 utee_cryp_obj_restrict_usage
00006e80 g     F .text	0000009e malloc_buffer_is_within_alloced
0000415c g     F .text	00000014 utee_cryp_obj_copy
0000d552 g     F .text	000001de mpa_shift_right
00004d8a g     F .text	0000004a TEE_BigIntInitFMMContext
00004170 g     F .text	00000014 utee_cryp_derive_key
000087f2 g     F .text	00000130 __mpa_montgomery_mul
00009bb0 g     F .text	00000116 mpa_get_oct_str
0000e3bc g     F .text	000000a8 mpa_cmp_short
000041f4 g     F .text	00000018 utee_authenc_dec_final
0000ab5e g     F .text	0000007e TEE_WriteObjectData
0000a990 g     F .text	00000032 TEE_ResetPersistentObjectEnumerator
0000e1e4 g     F .text	000000fe __mpa_abs_cmp
00005108 g     F .text	00000034 TEE_BigIntSquare
00000698 g     F .text	00000014 TA_CreateEntryPoint
00006fe0 g     F .text	00000036 snprintk
00005014 g     F .text	00000024 TEE_BigIntGetBitCount
00005320 g     F .text	000000bc TEE_BigIntMulMod
000038c4 g     F .text	000001a0 TEE_DeriveKey
0001a0a4 g     O .bss	00000020 ta_params
0000cf4a g     F .text	0000010c __mpa_abs_mul
00005838 g     F .text	00000268 bget
0000a156 g     F .text	00000060 TEE_AllocateTransientObject
00000eec g     F .text	0000001a TEE_Free
000043ac g     F .text	00000014 utee_se_reader_get_name
00000f4e g     F .text	00000024 TEE_CacheInvalidate
0000408c g     F .text	00000014 utee_cipher_init
00004cac g     F .text	00000014 _assert_break
00005218 g     F .text	00000084 TEE_BigIntAddMod
000042a8 g     F .text	00000014 utee_storage_free_enum
000041b0 g     F .text	00000014 utee_authenc_update_aad
000084c6 g     F .text	0000006a mpa_get_bit
00000f74 g     F .text	00000940 TEE_AllocateOperation
0000cb7e g     F .text	00000032 mpa_init_scratch_mem
00003a64 g     F .text	0000002c TEE_GenerateRandom
00000d08 g     F .text	00000024 TEE_MemCompare
00007044 g     F .text	00000072 __vsnprintf
0000a95e g     F .text	00000032 TEE_FreePersistentObjectEnumerator
00003ec0 g     F .text	00000014 utee_panic
00000a9c g     F .text	00000066 TEE_OpenTASession
000056a4 g     F .text	00000024 trace_ext_puts
00004c28 g     F .text	0000003c tee_user_mem_garbage
000056c8 g     F .text	00000014 trace_ext_get_thread_id
0000a7ee g     F .text	00000032 TEE_CloseAndDeletePersistentObject
00000f06 g     F .text	00000024 TEE_CacheClean
00003f3c g     F .text	00000018 utee_open_ta_session
0000b2f0 g     F .text	00000094 buf_compare_ct
0000b996 g     F .text	00000058 __mpa_div_dword
00008350 g     F .text	00000048 __mpa_set_unused_digits_to_zero
0000f274 g     O .rodata	0000000c const_largest_deci_base
00009646 g     F .text	00000014 mpa_get_str_size
00004b4c g     F .text	00000074 tee_user_mem_check_heap
0000a488 g     F .text	000000b8 TEE_CopyObjectAttributes1
00004074 g     F .text	00000018 utee_hash_final
0000b266 g     F .text	0000008a strlen
000054e4 g     F .text	0000004c TEE_BigIntComputeExtendedGcd
0000b394 g     F .text	00000010 __aeabi_unwind_cpp_pr1
0000c95c g     F .text	000001da mpa_extended_gcd
0000e578 g     F .text	00000050 mpa_add_mod
0000423c g     F .text	00000018 utee_storage_obj_open
00003f68 g     F .text	00000018 utee_invoke_ta_command
0000998c g     F .text	00000090 mpa_get_str
00003fd0 g     F .text	00000014 utee_wait
0000adbe g     F .text	0000001a utee_free
00004b2c g     F .text	00000020 tee_user_mem_mark_heap
00000d52 g     F .text	0000002c TEE_GetSystemTime
00000000 g     O .ta_head	00000020 ta_head
00005bc8 g     F .text	00000360 brel
0000cbb0 g     F .text	00000134 mpa_alloc_static_temp_var_size
00003fe4 g     F .text	00000014 utee_get_time
000085a4 g     F .text	00000134 __mpa_montgomery_mul_add
00000ca0 g     F .text	00000028 TEE_SetInstanceData
00003fa8 g     F .text	00000014 utee_unmask_cancellation
00008320 g     F .text	00000018 __aeabi_ldivmod
00003f94 g     F .text	00000014 utee_check_access_rights
000043d4 g     F .text	00000014 utee_se_reader_close_sessions
0000aa1c g     F .text	000000ba TEE_GetNextPersistentObject
00004348 g     F .text	00000014 utee_cryp_obj_generate_key
0000858c g     F .text	00000018 mpa_constant_one
00000b02 g     F .text	00000030 TEE_CloseTASession
0000375c g     F .text	00000168 TEE_AsymmetricVerifyDigest
0000d730 g     F .text	00000064 __mpa_full_adder
0000da5a g     F .text	000000ec __mpa_abs_sub
0001cc28 g       .bss	00000000 __gprof_buf_start
00006bea g     F .text	00000026 free
0000604c g     F .text	000000c4 bstats
00002a1c g     F .text	000000f6 TEE_MACComputeFinal



Disassembly of section .text:

00000020 <ta2tee_algo_id>:
ta2tee_algo_id():
/home/test/devel/optee/optee_examples/aes/ta/aes_ta.c:58
      20:	e96d 7e02 	strd	r7, lr, [sp, #-8]!
      24:	b084      	sub	sp, #16
      26:	af02      	add	r7, sp, #8
      28:	6078      	str	r0, [r7, #4]
      2a:	6039      	str	r1, [r7, #0]
/home/test/devel/optee/optee_examples/aes/ta/aes_ta.c:59
      2c:	687b      	ldr	r3, [r7, #4]
      2e:	2b01      	cmp	r3, #1
      30:	d00d      	beq.n	4e <ta2tee_algo_id+0x2e>
      32:	2b01      	cmp	r3, #1
      34:	d302      	bcc.n	3c <ta2tee_algo_id+0x1c>
      36:	2b02      	cmp	r3, #2
      38:	d012      	beq.n	60 <ta2tee_algo_id+0x40>
      3a:	e01a      	b.n	72 <ta2tee_algo_id+0x52>
/home/test/devel/optee/optee_examples/aes/ta/aes_ta.c:61
      3c:	683a      	ldr	r2, [r7, #0]
      3e:	f04f 0310 	mov.w	r3, #16
      42:	f2c1 0300 	movt	r3, #4096	; 0x1000
      46:	6013      	str	r3, [r2, #0]
/home/test/devel/optee/optee_examples/aes/ta/aes_ta.c:62
      48:	f04f 0300 	mov.w	r3, #0
      4c:	e024      	b.n	98 <ta2tee_algo_id+0x78>
/home/test/devel/optee/optee_examples/aes/ta/aes_ta.c:64
      4e:	683a      	ldr	r2, [r7, #0]
      50:	f44f 7388 	mov.w	r3, #272	; 0x110
      54:	f2c1 0300 	movt	r3, #4096	; 0x1000
      58:	6013      	str	r3, [r2, #0]
/home/test/devel/optee/optee_examples/aes/ta/aes_ta.c:65
      5a:	f04f 0300 	mov.w	r3, #0
      5e:	e01b      	b.n	98 <ta2tee_algo_id+0x78>
/home/test/devel/optee/optee_examples/aes/ta/aes_ta.c:67
      60:	683a      	ldr	r2, [r7, #0]
      62:	f44f 7304 	mov.w	r3, #528	; 0x210
      66:	f2c1 0300 	movt	r3, #4096	; 0x1000
      6a:	6013      	str	r3, [r2, #0]
/home/test/devel/optee/optee_examples/aes/ta/aes_ta.c:68
      6c:	f04f 0300 	mov.w	r3, #0
      70:	e012      	b.n	98 <ta2tee_algo_id+0x78>
/home/test/devel/optee/optee_examples/aes/ta/aes_ta.c:70
      72:	687b      	ldr	r3, [r7, #4]
      74:	9301      	str	r3, [sp, #4]
      76:	4b0b      	ldr	r3, [pc, #44]	; (a4 <ta2tee_algo_id+0x84>)
      78:	447b      	add	r3, pc
      7a:	9300      	str	r3, [sp, #0]
      7c:	f04f 0301 	mov.w	r3, #1
      80:	f04f 0201 	mov.w	r2, #1
      84:	f04f 0146 	mov.w	r1, #70	; 0x46
      88:	4807      	ldr	r0, [pc, #28]	; (a8 <ta2tee_algo_id+0x88>)
      8a:	4478      	add	r0, pc
      8c:	f007 ffea 	bl	8064 <trace_printf>
/home/test/devel/optee/optee_examples/aes/ta/aes_ta.c:71
      90:	f04f 0306 	mov.w	r3, #6
      94:	f6cf 73ff 	movt	r3, #65535	; 0xffff
/home/test/devel/optee/optee_examples/aes/ta/aes_ta.c:73
      98:	4618      	mov	r0, r3
      9a:	f107 0708 	add.w	r7, r7, #8
      9e:	46bd      	mov	sp, r7
      a0:	bd80      	pop	{r7, pc}
      a2:	bf00      	nop
      a4:	0000e6d4 	.word	0x0000e6d4
      a8:	0000e8a2 	.word	0x0000e8a2

000000ac <ta2tee_key_size>:
ta2tee_key_size():
/home/test/devel/optee/optee_examples/aes/ta/aes_ta.c:75
      ac:	e96d 7e02 	strd	r7, lr, [sp, #-8]!
      b0:	b084      	sub	sp, #16
      b2:	af02      	add	r7, sp, #8
      b4:	6078      	str	r0, [r7, #4]
      b6:	6039      	str	r1, [r7, #0]
/home/test/devel/optee/optee_examples/aes/ta/aes_ta.c:76
      b8:	687b      	ldr	r3, [r7, #4]
      ba:	2b10      	cmp	r3, #16
      bc:	d001      	beq.n	c2 <ta2tee_key_size+0x16>
      be:	2b20      	cmp	r3, #32
      c0:	d105      	bne.n	ce <ta2tee_key_size+0x22>
/home/test/devel/optee/optee_examples/aes/ta/aes_ta.c:79
      c2:	683b      	ldr	r3, [r7, #0]
      c4:	687a      	ldr	r2, [r7, #4]
      c6:	601a      	str	r2, [r3, #0]
/home/test/devel/optee/optee_examples/aes/ta/aes_ta.c:80
      c8:	f04f 0300 	mov.w	r3, #0
      cc:	e012      	b.n	f4 <ta2tee_key_size+0x48>
/home/test/devel/optee/optee_examples/aes/ta/aes_ta.c:82
      ce:	687b      	ldr	r3, [r7, #4]
      d0:	9301      	str	r3, [sp, #4]
      d2:	4b0b      	ldr	r3, [pc, #44]	; (100 <ta2tee_key_size+0x54>)
      d4:	447b      	add	r3, pc
      d6:	9300      	str	r3, [sp, #0]
      d8:	f04f 0301 	mov.w	r3, #1
      dc:	f04f 0201 	mov.w	r2, #1
      e0:	f04f 0152 	mov.w	r1, #82	; 0x52
      e4:	4807      	ldr	r0, [pc, #28]	; (104 <ta2tee_key_size+0x58>)
      e6:	4478      	add	r0, pc
      e8:	f007 ffbc 	bl	8064 <trace_printf>
/home/test/devel/optee/optee_examples/aes/ta/aes_ta.c:83
      ec:	f04f 0306 	mov.w	r3, #6
      f0:	f6cf 73ff 	movt	r3, #65535	; 0xffff
/home/test/devel/optee/optee_examples/aes/ta/aes_ta.c:85
      f4:	4618      	mov	r0, r3
      f6:	f107 0708 	add.w	r7, r7, #8
      fa:	46bd      	mov	sp, r7
      fc:	bd80      	pop	{r7, pc}
      fe:	bf00      	nop
     100:	0000e688 	.word	0x0000e688
     104:	0000e856 	.word	0x0000e856

00000108 <ta2tee_mode_id>:
ta2tee_mode_id():
/home/test/devel/optee/optee_examples/aes/ta/aes_ta.c:87
     108:	e96d 7e02 	strd	r7, lr, [sp, #-8]!
     10c:	b084      	sub	sp, #16
     10e:	af02      	add	r7, sp, #8
     110:	6078      	str	r0, [r7, #4]
     112:	6039      	str	r1, [r7, #0]
/home/test/devel/optee/optee_examples/aes/ta/aes_ta.c:88
     114:	687b      	ldr	r3, [r7, #4]
     116:	2b00      	cmp	r3, #0
     118:	d008      	beq.n	12c <ta2tee_mode_id+0x24>
     11a:	2b01      	cmp	r3, #1
     11c:	d10d      	bne.n	13a <ta2tee_mode_id+0x32>
/home/test/devel/optee/optee_examples/aes/ta/aes_ta.c:90
     11e:	683b      	ldr	r3, [r7, #0]
     120:	f04f 0200 	mov.w	r2, #0
     124:	601a      	str	r2, [r3, #0]
/home/test/devel/optee/optee_examples/aes/ta/aes_ta.c:91
     126:	f04f 0300 	mov.w	r3, #0
     12a:	e019      	b.n	160 <ta2tee_mode_id+0x58>
/home/test/devel/optee/optee_examples/aes/ta/aes_ta.c:93
     12c:	683b      	ldr	r3, [r7, #0]
     12e:	f04f 0201 	mov.w	r2, #1
     132:	601a      	str	r2, [r3, #0]
/home/test/devel/optee/optee_examples/aes/ta/aes_ta.c:94
     134:	f04f 0300 	mov.w	r3, #0
     138:	e012      	b.n	160 <ta2tee_mode_id+0x58>
/home/test/devel/optee/optee_examples/aes/ta/aes_ta.c:96
     13a:	687b      	ldr	r3, [r7, #4]
     13c:	9301      	str	r3, [sp, #4]
     13e:	4b0b      	ldr	r3, [pc, #44]	; (16c <ta2tee_mode_id+0x64>)
     140:	447b      	add	r3, pc
     142:	9300      	str	r3, [sp, #0]
     144:	f04f 0301 	mov.w	r3, #1
     148:	f04f 0201 	mov.w	r2, #1
     14c:	f04f 0160 	mov.w	r1, #96	; 0x60
     150:	4807      	ldr	r0, [pc, #28]	; (170 <ta2tee_mode_id+0x68>)
     152:	4478      	add	r0, pc
     154:	f007 ff86 	bl	8064 <trace_printf>
/home/test/devel/optee/optee_examples/aes/ta/aes_ta.c:97
     158:	f04f 0306 	mov.w	r3, #6
     15c:	f6cf 73ff 	movt	r3, #65535	; 0xffff
/home/test/devel/optee/optee_examples/aes/ta/aes_ta.c:99
     160:	4618      	mov	r0, r3
     162:	f107 0708 	add.w	r7, r7, #8
     166:	46bd      	mov	sp, r7
     168:	bd80      	pop	{r7, pc}
     16a:	bf00      	nop
     16c:	0000e630 	.word	0x0000e630
     170:	0000e7fa 	.word	0x0000e7fa

00000174 <alloc_resources>:
alloc_resources():
/home/test/devel/optee/optee_examples/aes/ta/aes_ta.c:112
     174:	e96d 7e02 	strd	r7, lr, [sp, #-8]!
     178:	b08e      	sub	sp, #56	; 0x38
     17a:	af02      	add	r7, sp, #8
     17c:	60f8      	str	r0, [r7, #12]
     17e:	60b9      	str	r1, [r7, #8]
     180:	607a      	str	r2, [r7, #4]
/home/test/devel/optee/optee_examples/aes/ta/aes_ta.c:113
     182:	f240 1311 	movw	r3, #273	; 0x111
     186:	62bb      	str	r3, [r7, #40]	; 0x28
/home/test/devel/optee/optee_examples/aes/ta/aes_ta.c:124
     188:	68fb      	ldr	r3, [r7, #12]
     18a:	9301      	str	r3, [sp, #4]
     18c:	4b8a      	ldr	r3, [pc, #552]	; (3b8 <alloc_resources+0x244>)
     18e:	447b      	add	r3, pc
     190:	9300      	str	r3, [sp, #0]
     192:	f04f 0301 	mov.w	r3, #1
     196:	f04f 0203 	mov.w	r2, #3
     19a:	f04f 017c 	mov.w	r1, #124	; 0x7c
     19e:	4887      	ldr	r0, [pc, #540]	; (3bc <alloc_resources+0x248>)
     1a0:	4478      	add	r0, pc
     1a2:	f007 ff5f 	bl	8064 <trace_printf>
/home/test/devel/optee/optee_examples/aes/ta/aes_ta.c:125
     1a6:	68fb      	ldr	r3, [r7, #12]
     1a8:	627b      	str	r3, [r7, #36]	; 0x24
/home/test/devel/optee/optee_examples/aes/ta/aes_ta.c:128
     1aa:	68ba      	ldr	r2, [r7, #8]
     1ac:	6abb      	ldr	r3, [r7, #40]	; 0x28
     1ae:	429a      	cmp	r2, r3
     1b0:	d004      	beq.n	1bc <alloc_resources+0x48>
/home/test/devel/optee/optee_examples/aes/ta/aes_ta.c:129
     1b2:	f04f 0306 	mov.w	r3, #6
     1b6:	f6cf 73ff 	movt	r3, #65535	; 0xffff
     1ba:	e0f7      	b.n	3ac <alloc_resources+0x238>
/home/test/devel/optee/optee_examples/aes/ta/aes_ta.c:131
     1bc:	687b      	ldr	r3, [r7, #4]
     1be:	681b      	ldr	r3, [r3, #0]
     1c0:	6a7a      	ldr	r2, [r7, #36]	; 0x24
     1c2:	4611      	mov	r1, r2
     1c4:	4618      	mov	r0, r3
     1c6:	f7ff ff2b 	bl	20 <ta2tee_algo_id>
     1ca:	62f8      	str	r0, [r7, #44]	; 0x2c
/home/test/devel/optee/optee_examples/aes/ta/aes_ta.c:132
     1cc:	6afb      	ldr	r3, [r7, #44]	; 0x2c
     1ce:	2b00      	cmp	r3, #0
     1d0:	d001      	beq.n	1d6 <alloc_resources+0x62>
/home/test/devel/optee/optee_examples/aes/ta/aes_ta.c:133
     1d2:	6afb      	ldr	r3, [r7, #44]	; 0x2c
     1d4:	e0ea      	b.n	3ac <alloc_resources+0x238>
/home/test/devel/optee/optee_examples/aes/ta/aes_ta.c:135
     1d6:	687b      	ldr	r3, [r7, #4]
     1d8:	f103 0308 	add.w	r3, r3, #8
     1dc:	681a      	ldr	r2, [r3, #0]
     1de:	6a7b      	ldr	r3, [r7, #36]	; 0x24
     1e0:	f103 0308 	add.w	r3, r3, #8
     1e4:	4619      	mov	r1, r3
     1e6:	4610      	mov	r0, r2
     1e8:	f7ff ff60 	bl	ac <ta2tee_key_size>
     1ec:	62f8      	str	r0, [r7, #44]	; 0x2c
/home/test/devel/optee/optee_examples/aes/ta/aes_ta.c:136
     1ee:	6afb      	ldr	r3, [r7, #44]	; 0x2c
     1f0:	2b00      	cmp	r3, #0
     1f2:	d001      	beq.n	1f8 <alloc_resources+0x84>
/home/test/devel/optee/optee_examples/aes/ta/aes_ta.c:137
     1f4:	6afb      	ldr	r3, [r7, #44]	; 0x2c
     1f6:	e0d9      	b.n	3ac <alloc_resources+0x238>
/home/test/devel/optee/optee_examples/aes/ta/aes_ta.c:139
     1f8:	687b      	ldr	r3, [r7, #4]
     1fa:	f103 0310 	add.w	r3, r3, #16
     1fe:	681a      	ldr	r2, [r3, #0]
     200:	6a7b      	ldr	r3, [r7, #36]	; 0x24
     202:	f103 0304 	add.w	r3, r3, #4
     206:	4619      	mov	r1, r3
     208:	4610      	mov	r0, r2
     20a:	f7ff ff7d 	bl	108 <ta2tee_mode_id>
     20e:	62f8      	str	r0, [r7, #44]	; 0x2c
/home/test/devel/optee/optee_examples/aes/ta/aes_ta.c:140
     210:	6afb      	ldr	r3, [r7, #44]	; 0x2c
     212:	2b00      	cmp	r3, #0
     214:	d001      	beq.n	21a <alloc_resources+0xa6>
/home/test/devel/optee/optee_examples/aes/ta/aes_ta.c:141
     216:	6afb      	ldr	r3, [r7, #44]	; 0x2c
     218:	e0c8      	b.n	3ac <alloc_resources+0x238>
/home/test/devel/optee/optee_examples/aes/ta/aes_ta.c:151
     21a:	6a7b      	ldr	r3, [r7, #36]	; 0x24
     21c:	68db      	ldr	r3, [r3, #12]
     21e:	2b00      	cmp	r3, #0
     220:	d004      	beq.n	22c <alloc_resources+0xb8>
/home/test/devel/optee/optee_examples/aes/ta/aes_ta.c:152
     222:	6a7b      	ldr	r3, [r7, #36]	; 0x24
     224:	68db      	ldr	r3, [r3, #12]
     226:	4618      	mov	r0, r3
     228:	f001 fb44 	bl	18b4 <TEE_FreeOperation>
/home/test/devel/optee/optee_examples/aes/ta/aes_ta.c:155
     22c:	6a7b      	ldr	r3, [r7, #36]	; 0x24
     22e:	f103 000c 	add.w	r0, r3, #12
     232:	6a7b      	ldr	r3, [r7, #36]	; 0x24
     234:	6819      	ldr	r1, [r3, #0]
     236:	6a7b      	ldr	r3, [r7, #36]	; 0x24
     238:	685a      	ldr	r2, [r3, #4]
/home/test/devel/optee/optee_examples/aes/ta/aes_ta.c:158
     23a:	6a7b      	ldr	r3, [r7, #36]	; 0x24
     23c:	689b      	ldr	r3, [r3, #8]
/home/test/devel/optee/optee_examples/aes/ta/aes_ta.c:155
     23e:	ea4f 03c3 	mov.w	r3, r3, lsl #3
     242:	f000 fe97 	bl	f74 <TEE_AllocateOperation>
     246:	62f8      	str	r0, [r7, #44]	; 0x2c
/home/test/devel/optee/optee_examples/aes/ta/aes_ta.c:159
     248:	6afb      	ldr	r3, [r7, #44]	; 0x2c
     24a:	2b00      	cmp	r3, #0
     24c:	d011      	beq.n	272 <alloc_resources+0xfe>
/home/test/devel/optee/optee_examples/aes/ta/aes_ta.c:160
     24e:	4b5c      	ldr	r3, [pc, #368]	; (3c0 <alloc_resources+0x24c>)
     250:	447b      	add	r3, pc
     252:	9300      	str	r3, [sp, #0]
     254:	f04f 0301 	mov.w	r3, #1
     258:	f04f 0201 	mov.w	r2, #1
     25c:	f04f 01a0 	mov.w	r1, #160	; 0xa0
     260:	4858      	ldr	r0, [pc, #352]	; (3c4 <alloc_resources+0x250>)
     262:	4478      	add	r0, pc
     264:	f007 fefe 	bl	8064 <trace_printf>
/home/test/devel/optee/optee_examples/aes/ta/aes_ta.c:161
     268:	6a7b      	ldr	r3, [r7, #36]	; 0x24
     26a:	f04f 0200 	mov.w	r2, #0
     26e:	60da      	str	r2, [r3, #12]
/home/test/devel/optee/optee_examples/aes/ta/aes_ta.c:162
     270:	e081      	b.n	376 <alloc_resources+0x202>
/home/test/devel/optee/optee_examples/aes/ta/aes_ta.c:166
     272:	6a7b      	ldr	r3, [r7, #36]	; 0x24
     274:	691b      	ldr	r3, [r3, #16]
     276:	2b00      	cmp	r3, #0
     278:	d004      	beq.n	284 <alloc_resources+0x110>
/home/test/devel/optee/optee_examples/aes/ta/aes_ta.c:167
     27a:	6a7b      	ldr	r3, [r7, #36]	; 0x24
     27c:	691b      	ldr	r3, [r3, #16]
     27e:	4618      	mov	r0, r3
     280:	f009 ff99 	bl	a1b6 <TEE_FreeTransientObject>
/home/test/devel/optee/optee_examples/aes/ta/aes_ta.c:171
     284:	6a7b      	ldr	r3, [r7, #36]	; 0x24
     286:	689b      	ldr	r3, [r3, #8]
/home/test/devel/optee/optee_examples/aes/ta/aes_ta.c:170
     288:	ea4f 01c3 	mov.w	r1, r3, lsl #3
     28c:	6a7b      	ldr	r3, [r7, #36]	; 0x24
     28e:	f103 0310 	add.w	r3, r3, #16
     292:	461a      	mov	r2, r3
     294:	f04f 0010 	mov.w	r0, #16
     298:	f2ca 0000 	movt	r0, #40960	; 0xa000
     29c:	f009 ff5b 	bl	a156 <TEE_AllocateTransientObject>
     2a0:	62f8      	str	r0, [r7, #44]	; 0x2c
/home/test/devel/optee/optee_examples/aes/ta/aes_ta.c:173
     2a2:	6afb      	ldr	r3, [r7, #44]	; 0x2c
     2a4:	2b00      	cmp	r3, #0
     2a6:	d011      	beq.n	2cc <alloc_resources+0x158>
/home/test/devel/optee/optee_examples/aes/ta/aes_ta.c:174
     2a8:	4b47      	ldr	r3, [pc, #284]	; (3c8 <alloc_resources+0x254>)
     2aa:	447b      	add	r3, pc
     2ac:	9300      	str	r3, [sp, #0]
     2ae:	f04f 0301 	mov.w	r3, #1
     2b2:	f04f 0201 	mov.w	r2, #1
     2b6:	f04f 01ae 	mov.w	r1, #174	; 0xae
     2ba:	4844      	ldr	r0, [pc, #272]	; (3cc <alloc_resources+0x258>)
     2bc:	4478      	add	r0, pc
     2be:	f007 fed1 	bl	8064 <trace_printf>
/home/test/devel/optee/optee_examples/aes/ta/aes_ta.c:175
     2c2:	6a7b      	ldr	r3, [r7, #36]	; 0x24
     2c4:	f04f 0200 	mov.w	r2, #0
     2c8:	611a      	str	r2, [r3, #16]
/home/test/devel/optee/optee_examples/aes/ta/aes_ta.c:176
     2ca:	e054      	b.n	376 <alloc_resources+0x202>
/home/test/devel/optee/optee_examples/aes/ta/aes_ta.c:188
     2cc:	6a7b      	ldr	r3, [r7, #36]	; 0x24
     2ce:	689b      	ldr	r3, [r3, #8]
     2d0:	f04f 0100 	mov.w	r1, #0
     2d4:	4618      	mov	r0, r3
     2d6:	f000 fde9 	bl	eac <TEE_Malloc>
     2da:	6238      	str	r0, [r7, #32]
/home/test/devel/optee/optee_examples/aes/ta/aes_ta.c:189
     2dc:	6a3b      	ldr	r3, [r7, #32]
     2de:	2b00      	cmp	r3, #0
     2e0:	d105      	bne.n	2ee <alloc_resources+0x17a>
/home/test/devel/optee/optee_examples/aes/ta/aes_ta.c:190
     2e2:	f04f 030c 	mov.w	r3, #12
     2e6:	f6cf 73ff 	movt	r3, #65535	; 0xffff
     2ea:	62fb      	str	r3, [r7, #44]	; 0x2c
/home/test/devel/optee/optee_examples/aes/ta/aes_ta.c:191
     2ec:	e043      	b.n	376 <alloc_resources+0x202>
/home/test/devel/optee/optee_examples/aes/ta/aes_ta.c:194
     2ee:	6a7b      	ldr	r3, [r7, #36]	; 0x24
     2f0:	689b      	ldr	r3, [r3, #8]
     2f2:	f107 0014 	add.w	r0, r7, #20
     2f6:	6a3a      	ldr	r2, [r7, #32]
     2f8:	f04f 4140 	mov.w	r1, #3221225472	; 0xc0000000
     2fc:	f00a f852 	bl	a3a4 <TEE_InitRefAttribute>
/home/test/devel/optee/optee_examples/aes/ta/aes_ta.c:196
     300:	6a7b      	ldr	r3, [r7, #36]	; 0x24
     302:	691b      	ldr	r3, [r3, #16]
     304:	f107 0114 	add.w	r1, r7, #20
     308:	f04f 0201 	mov.w	r2, #1
     30c:	4618      	mov	r0, r3
     30e:	f009 ffb2 	bl	a276 <TEE_PopulateTransientObject>
     312:	62f8      	str	r0, [r7, #44]	; 0x2c
/home/test/devel/optee/optee_examples/aes/ta/aes_ta.c:197
     314:	6afb      	ldr	r3, [r7, #44]	; 0x2c
     316:	2b00      	cmp	r3, #0
     318:	d00f      	beq.n	33a <alloc_resources+0x1c6>
/home/test/devel/optee/optee_examples/aes/ta/aes_ta.c:198
     31a:	6afb      	ldr	r3, [r7, #44]	; 0x2c
     31c:	9301      	str	r3, [sp, #4]
     31e:	4b2c      	ldr	r3, [pc, #176]	; (3d0 <alloc_resources+0x25c>)
     320:	447b      	add	r3, pc
     322:	9300      	str	r3, [sp, #0]
     324:	f04f 0301 	mov.w	r3, #1
     328:	f04f 0201 	mov.w	r2, #1
     32c:	f04f 01c6 	mov.w	r1, #198	; 0xc6
     330:	4828      	ldr	r0, [pc, #160]	; (3d4 <alloc_resources+0x260>)
     332:	4478      	add	r0, pc
     334:	f007 fe96 	bl	8064 <trace_printf>
/home/test/devel/optee/optee_examples/aes/ta/aes_ta.c:199
     338:	e01d      	b.n	376 <alloc_resources+0x202>
/home/test/devel/optee/optee_examples/aes/ta/aes_ta.c:202
     33a:	6a7b      	ldr	r3, [r7, #36]	; 0x24
     33c:	68da      	ldr	r2, [r3, #12]
     33e:	6a7b      	ldr	r3, [r7, #36]	; 0x24
     340:	691b      	ldr	r3, [r3, #16]
     342:	4619      	mov	r1, r3
     344:	4610      	mov	r0, r2
     346:	f001 fc15 	bl	1b74 <TEE_SetOperationKey>
     34a:	62f8      	str	r0, [r7, #44]	; 0x2c
/home/test/devel/optee/optee_examples/aes/ta/aes_ta.c:203
     34c:	6afb      	ldr	r3, [r7, #44]	; 0x2c
     34e:	2b00      	cmp	r3, #0
     350:	d00f      	beq.n	372 <alloc_resources+0x1fe>
/home/test/devel/optee/optee_examples/aes/ta/aes_ta.c:204
     352:	6afb      	ldr	r3, [r7, #44]	; 0x2c
     354:	9301      	str	r3, [sp, #4]
     356:	4b20      	ldr	r3, [pc, #128]	; (3d8 <alloc_resources+0x264>)
     358:	447b      	add	r3, pc
     35a:	9300      	str	r3, [sp, #0]
     35c:	f04f 0301 	mov.w	r3, #1
     360:	f04f 0201 	mov.w	r2, #1
     364:	f04f 01cc 	mov.w	r1, #204	; 0xcc
     368:	481c      	ldr	r0, [pc, #112]	; (3dc <alloc_resources+0x268>)
     36a:	4478      	add	r0, pc
     36c:	f007 fe7a 	bl	8064 <trace_printf>
/home/test/devel/optee/optee_examples/aes/ta/aes_ta.c:205
     370:	e001      	b.n	376 <alloc_resources+0x202>
/home/test/devel/optee/optee_examples/aes/ta/aes_ta.c:208
     372:	6afb      	ldr	r3, [r7, #44]	; 0x2c
     374:	e01a      	b.n	3ac <alloc_resources+0x238>
/home/test/devel/optee/optee_examples/aes/ta/aes_ta.c:211
     376:	6a7b      	ldr	r3, [r7, #36]	; 0x24
     378:	68db      	ldr	r3, [r3, #12]
     37a:	2b00      	cmp	r3, #0
     37c:	d004      	beq.n	388 <alloc_resources+0x214>
/home/test/devel/optee/optee_examples/aes/ta/aes_ta.c:212
     37e:	6a7b      	ldr	r3, [r7, #36]	; 0x24
     380:	68db      	ldr	r3, [r3, #12]
     382:	4618      	mov	r0, r3
     384:	f001 fa96 	bl	18b4 <TEE_FreeOperation>
/home/test/devel/optee/optee_examples/aes/ta/aes_ta.c:213
     388:	6a7b      	ldr	r3, [r7, #36]	; 0x24
     38a:	f04f 0200 	mov.w	r2, #0
     38e:	60da      	str	r2, [r3, #12]
/home/test/devel/optee/optee_examples/aes/ta/aes_ta.c:215
     390:	6a7b      	ldr	r3, [r7, #36]	; 0x24
     392:	691b      	ldr	r3, [r3, #16]
     394:	2b00      	cmp	r3, #0
     396:	d004      	beq.n	3a2 <alloc_resources+0x22e>
/home/test/devel/optee/optee_examples/aes/ta/aes_ta.c:216
     398:	6a7b      	ldr	r3, [r7, #36]	; 0x24
     39a:	691b      	ldr	r3, [r3, #16]
     39c:	4618      	mov	r0, r3
     39e:	f009 ff0a 	bl	a1b6 <TEE_FreeTransientObject>
/home/test/devel/optee/optee_examples/aes/ta/aes_ta.c:217
     3a2:	6a7b      	ldr	r3, [r7, #36]	; 0x24
     3a4:	f04f 0200 	mov.w	r2, #0
     3a8:	611a      	str	r2, [r3, #16]
/home/test/devel/optee/optee_examples/aes/ta/aes_ta.c:219
     3aa:	6afb      	ldr	r3, [r7, #44]	; 0x2c
/home/test/devel/optee/optee_examples/aes/ta/aes_ta.c:220 (discriminator 1)
     3ac:	4618      	mov	r0, r3
     3ae:	f107 0730 	add.w	r7, r7, #48	; 0x30
     3b2:	46bd      	mov	sp, r7
     3b4:	bd80      	pop	{r7, pc}
     3b6:	bf00      	nop
     3b8:	0000e5f2 	.word	0x0000e5f2
     3bc:	0000e7bc 	.word	0x0000e7bc
     3c0:	0000e554 	.word	0x0000e554
     3c4:	0000e6fa 	.word	0x0000e6fa
     3c8:	0000e51a 	.word	0x0000e51a
     3cc:	0000e6a0 	.word	0x0000e6a0
     3d0:	0000e4c8 	.word	0x0000e4c8
     3d4:	0000e62a 	.word	0x0000e62a
     3d8:	0000e4b8 	.word	0x0000e4b8
     3dc:	0000e5f2 	.word	0x0000e5f2

000003e0 <set_aes_key>:
set_aes_key():
/home/test/devel/optee/optee_examples/aes/ta/aes_ta.c:227
     3e0:	e96d 7e02 	strd	r7, lr, [sp, #-8]!
     3e4:	b090      	sub	sp, #64	; 0x40
     3e6:	af04      	add	r7, sp, #16
     3e8:	60f8      	str	r0, [r7, #12]
     3ea:	60b9      	str	r1, [r7, #8]
     3ec:	607a      	str	r2, [r7, #4]
/home/test/devel/optee/optee_examples/aes/ta/aes_ta.c:228
     3ee:	f04f 0305 	mov.w	r3, #5
     3f2:	62fb      	str	r3, [r7, #44]	; 0x2c
/home/test/devel/optee/optee_examples/aes/ta/aes_ta.c:240
     3f4:	68fb      	ldr	r3, [r7, #12]
     3f6:	9301      	str	r3, [sp, #4]
     3f8:	4b46      	ldr	r3, [pc, #280]	; (514 <set_aes_key+0x134>)
     3fa:	447b      	add	r3, pc
     3fc:	9300      	str	r3, [sp, #0]
     3fe:	f04f 0301 	mov.w	r3, #1
     402:	f04f 0203 	mov.w	r2, #3
     406:	f04f 01f0 	mov.w	r1, #240	; 0xf0
     40a:	4843      	ldr	r0, [pc, #268]	; (518 <set_aes_key+0x138>)
     40c:	4478      	add	r0, pc
     40e:	f007 fe29 	bl	8064 <trace_printf>
/home/test/devel/optee/optee_examples/aes/ta/aes_ta.c:241
     412:	68fb      	ldr	r3, [r7, #12]
     414:	62bb      	str	r3, [r7, #40]	; 0x28
/home/test/devel/optee/optee_examples/aes/ta/aes_ta.c:244
     416:	68ba      	ldr	r2, [r7, #8]
     418:	6afb      	ldr	r3, [r7, #44]	; 0x2c
     41a:	429a      	cmp	r2, r3
     41c:	d004      	beq.n	428 <set_aes_key+0x48>
/home/test/devel/optee/optee_examples/aes/ta/aes_ta.c:245
     41e:	f04f 0306 	mov.w	r3, #6
     422:	f6cf 73ff 	movt	r3, #65535	; 0xffff
     426:	e06f      	b.n	508 <set_aes_key+0x128>
/home/test/devel/optee/optee_examples/aes/ta/aes_ta.c:247
     428:	687b      	ldr	r3, [r7, #4]
     42a:	681b      	ldr	r3, [r3, #0]
     42c:	627b      	str	r3, [r7, #36]	; 0x24
/home/test/devel/optee/optee_examples/aes/ta/aes_ta.c:248
     42e:	687b      	ldr	r3, [r7, #4]
     430:	685b      	ldr	r3, [r3, #4]
     432:	623b      	str	r3, [r7, #32]
/home/test/devel/optee/optee_examples/aes/ta/aes_ta.c:250
     434:	6abb      	ldr	r3, [r7, #40]	; 0x28
     436:	689a      	ldr	r2, [r3, #8]
     438:	6a3b      	ldr	r3, [r7, #32]
     43a:	429a      	cmp	r2, r3
     43c:	d016      	beq.n	46c <set_aes_key+0x8c>
/home/test/devel/optee/optee_examples/aes/ta/aes_ta.c:251
     43e:	6abb      	ldr	r3, [r7, #40]	; 0x28
     440:	689b      	ldr	r3, [r3, #8]
     442:	9302      	str	r3, [sp, #8]
     444:	6a3b      	ldr	r3, [r7, #32]
     446:	9301      	str	r3, [sp, #4]
     448:	4b34      	ldr	r3, [pc, #208]	; (51c <set_aes_key+0x13c>)
     44a:	447b      	add	r3, pc
     44c:	9300      	str	r3, [sp, #0]
     44e:	f04f 0301 	mov.w	r3, #1
     452:	f04f 0201 	mov.w	r2, #1
     456:	f04f 01fc 	mov.w	r1, #252	; 0xfc
     45a:	4831      	ldr	r0, [pc, #196]	; (520 <set_aes_key+0x140>)
     45c:	4478      	add	r0, pc
     45e:	f007 fe01 	bl	8064 <trace_printf>
/home/test/devel/optee/optee_examples/aes/ta/aes_ta.c:253
     462:	f04f 0306 	mov.w	r3, #6
     466:	f6cf 73ff 	movt	r3, #65535	; 0xffff
     46a:	e04d      	b.n	508 <set_aes_key+0x128>
/home/test/devel/optee/optee_examples/aes/ta/aes_ta.c:273
     46c:	f107 0010 	add.w	r0, r7, #16
     470:	6a3b      	ldr	r3, [r7, #32]
     472:	6a7a      	ldr	r2, [r7, #36]	; 0x24
     474:	f04f 4140 	mov.w	r1, #3221225472	; 0xc0000000
     478:	f009 ff94 	bl	a3a4 <TEE_InitRefAttribute>
/home/test/devel/optee/optee_examples/aes/ta/aes_ta.c:275
     47c:	6abb      	ldr	r3, [r7, #40]	; 0x28
     47e:	691b      	ldr	r3, [r3, #16]
     480:	4618      	mov	r0, r3
     482:	f009 fec8 	bl	a216 <TEE_ResetTransientObject>
/home/test/devel/optee/optee_examples/aes/ta/aes_ta.c:276
     486:	6abb      	ldr	r3, [r7, #40]	; 0x28
     488:	691b      	ldr	r3, [r3, #16]
     48a:	f107 0110 	add.w	r1, r7, #16
     48e:	f04f 0201 	mov.w	r2, #1
     492:	4618      	mov	r0, r3
     494:	f009 feef 	bl	a276 <TEE_PopulateTransientObject>
     498:	61f8      	str	r0, [r7, #28]
/home/test/devel/optee/optee_examples/aes/ta/aes_ta.c:277
     49a:	69fb      	ldr	r3, [r7, #28]
     49c:	2b00      	cmp	r3, #0
     49e:	d010      	beq.n	4c2 <set_aes_key+0xe2>
/home/test/devel/optee/optee_examples/aes/ta/aes_ta.c:278
     4a0:	69fb      	ldr	r3, [r7, #28]
     4a2:	9301      	str	r3, [sp, #4]
     4a4:	4b1f      	ldr	r3, [pc, #124]	; (524 <set_aes_key+0x144>)
     4a6:	447b      	add	r3, pc
     4a8:	9300      	str	r3, [sp, #0]
     4aa:	f04f 0301 	mov.w	r3, #1
     4ae:	f04f 0201 	mov.w	r2, #1
     4b2:	f44f 718b 	mov.w	r1, #278	; 0x116
     4b6:	481c      	ldr	r0, [pc, #112]	; (528 <set_aes_key+0x148>)
     4b8:	4478      	add	r0, pc
     4ba:	f007 fdd3 	bl	8064 <trace_printf>
/home/test/devel/optee/optee_examples/aes/ta/aes_ta.c:279
     4be:	69fb      	ldr	r3, [r7, #28]
     4c0:	e022      	b.n	508 <set_aes_key+0x128>
/home/test/devel/optee/optee_examples/aes/ta/aes_ta.c:282
     4c2:	6abb      	ldr	r3, [r7, #40]	; 0x28
     4c4:	68db      	ldr	r3, [r3, #12]
     4c6:	4618      	mov	r0, r3
     4c8:	f001 fb14 	bl	1af4 <TEE_ResetOperation>
/home/test/devel/optee/optee_examples/aes/ta/aes_ta.c:283
     4cc:	6abb      	ldr	r3, [r7, #40]	; 0x28
     4ce:	68da      	ldr	r2, [r3, #12]
     4d0:	6abb      	ldr	r3, [r7, #40]	; 0x28
     4d2:	691b      	ldr	r3, [r3, #16]
     4d4:	4619      	mov	r1, r3
     4d6:	4610      	mov	r0, r2
     4d8:	f001 fb4c 	bl	1b74 <TEE_SetOperationKey>
     4dc:	61f8      	str	r0, [r7, #28]
/home/test/devel/optee/optee_examples/aes/ta/aes_ta.c:284
     4de:	69fb      	ldr	r3, [r7, #28]
     4e0:	2b00      	cmp	r3, #0
     4e2:	d010      	beq.n	506 <set_aes_key+0x126>
/home/test/devel/optee/optee_examples/aes/ta/aes_ta.c:285
     4e4:	69fb      	ldr	r3, [r7, #28]
     4e6:	9301      	str	r3, [sp, #4]
     4e8:	4b10      	ldr	r3, [pc, #64]	; (52c <set_aes_key+0x14c>)
     4ea:	447b      	add	r3, pc
     4ec:	9300      	str	r3, [sp, #0]
     4ee:	f04f 0301 	mov.w	r3, #1
     4f2:	f04f 0201 	mov.w	r2, #1
     4f6:	f240 111d 	movw	r1, #285	; 0x11d
     4fa:	480d      	ldr	r0, [pc, #52]	; (530 <set_aes_key+0x150>)
     4fc:	4478      	add	r0, pc
     4fe:	f007 fdb1 	bl	8064 <trace_printf>
/home/test/devel/optee/optee_examples/aes/ta/aes_ta.c:286
     502:	69fb      	ldr	r3, [r7, #28]
     504:	e000      	b.n	508 <set_aes_key+0x128>
/home/test/devel/optee/optee_examples/aes/ta/aes_ta.c:289
     506:	69fb      	ldr	r3, [r7, #28]
/home/test/devel/optee/optee_examples/aes/ta/aes_ta.c:290 (discriminator 1)
     508:	4618      	mov	r0, r3
     50a:	f107 0730 	add.w	r7, r7, #48	; 0x30
     50e:	46bd      	mov	sp, r7
     510:	bd80      	pop	{r7, pc}
     512:	bf00      	nop
     514:	0000e436 	.word	0x0000e436
     518:	0000e560 	.word	0x0000e560
     51c:	0000e406 	.word	0x0000e406
     520:	0000e510 	.word	0x0000e510
     524:	0000e342 	.word	0x0000e342
     528:	0000e4b4 	.word	0x0000e4b4
     52c:	0000e326 	.word	0x0000e326
     530:	0000e470 	.word	0x0000e470

00000534 <reset_aes_iv>:
reset_aes_iv():
/home/test/devel/optee/optee_examples/aes/ta/aes_ta.c:297
     534:	e96d 7e02 	strd	r7, lr, [sp, #-8]!
     538:	b08a      	sub	sp, #40	; 0x28
     53a:	af02      	add	r7, sp, #8
     53c:	60f8      	str	r0, [r7, #12]
     53e:	60b9      	str	r1, [r7, #8]
     540:	607a      	str	r2, [r7, #4]
/home/test/devel/optee/optee_examples/aes/ta/aes_ta.c:298
     542:	f04f 0305 	mov.w	r3, #5
     546:	61fb      	str	r3, [r7, #28]
/home/test/devel/optee/optee_examples/aes/ta/aes_ta.c:308
     548:	68fb      	ldr	r3, [r7, #12]
     54a:	9301      	str	r3, [sp, #4]
     54c:	4b15      	ldr	r3, [pc, #84]	; (5a4 <reset_aes_iv+0x70>)
     54e:	447b      	add	r3, pc
     550:	9300      	str	r3, [sp, #0]
     552:	f04f 0301 	mov.w	r3, #1
     556:	f04f 0203 	mov.w	r2, #3
     55a:	f44f 719a 	mov.w	r1, #308	; 0x134
     55e:	4812      	ldr	r0, [pc, #72]	; (5a8 <reset_aes_iv+0x74>)
     560:	4478      	add	r0, pc
     562:	f007 fd7f 	bl	8064 <trace_printf>
/home/test/devel/optee/optee_examples/aes/ta/aes_ta.c:309
     566:	68fb      	ldr	r3, [r7, #12]
     568:	61bb      	str	r3, [r7, #24]
/home/test/devel/optee/optee_examples/aes/ta/aes_ta.c:312
     56a:	68ba      	ldr	r2, [r7, #8]
     56c:	69fb      	ldr	r3, [r7, #28]
     56e:	429a      	cmp	r2, r3
     570:	d004      	beq.n	57c <reset_aes_iv+0x48>
/home/test/devel/optee/optee_examples/aes/ta/aes_ta.c:313
     572:	f04f 0306 	mov.w	r3, #6
     576:	f6cf 73ff 	movt	r3, #65535	; 0xffff
     57a:	e00e      	b.n	59a <reset_aes_iv+0x66>
/home/test/devel/optee/optee_examples/aes/ta/aes_ta.c:315
     57c:	687b      	ldr	r3, [r7, #4]
     57e:	681b      	ldr	r3, [r3, #0]
     580:	617b      	str	r3, [r7, #20]
/home/test/devel/optee/optee_examples/aes/ta/aes_ta.c:316
     582:	687b      	ldr	r3, [r7, #4]
     584:	685b      	ldr	r3, [r3, #4]
     586:	613b      	str	r3, [r7, #16]
/home/test/devel/optee/optee_examples/aes/ta/aes_ta.c:321
     588:	69bb      	ldr	r3, [r7, #24]
     58a:	68db      	ldr	r3, [r3, #12]
     58c:	693a      	ldr	r2, [r7, #16]
     58e:	6979      	ldr	r1, [r7, #20]
     590:	4618      	mov	r0, r3
     592:	f001 fdef 	bl	2174 <TEE_CipherInit>
/home/test/devel/optee/optee_examples/aes/ta/aes_ta.c:323
     596:	f04f 0300 	mov.w	r3, #0
/home/test/devel/optee/optee_examples/aes/ta/aes_ta.c:324
     59a:	4618      	mov	r0, r3
     59c:	f107 0720 	add.w	r7, r7, #32
     5a0:	46bd      	mov	sp, r7
     5a2:	bd80      	pop	{r7, pc}
     5a4:	0000e326 	.word	0x0000e326
     5a8:	0000e418 	.word	0x0000e418

000005ac <cipher_buffer>:
cipher_buffer():
/home/test/devel/optee/optee_examples/aes/ta/aes_ta.c:331
     5ac:	f84d 4d0c 	str.w	r4, [sp, #-12]!
     5b0:	e9cd 7e01 	strd	r7, lr, [sp, #4]
     5b4:	b08b      	sub	sp, #44	; 0x2c
     5b6:	af04      	add	r7, sp, #16
     5b8:	60f8      	str	r0, [r7, #12]
     5ba:	60b9      	str	r1, [r7, #8]
     5bc:	607a      	str	r2, [r7, #4]
/home/test/devel/optee/optee_examples/aes/ta/aes_ta.c:332
     5be:	f04f 0365 	mov.w	r3, #101	; 0x65
     5c2:	617b      	str	r3, [r7, #20]
/home/test/devel/optee/optee_examples/aes/ta/aes_ta.c:340
     5c4:	68fb      	ldr	r3, [r7, #12]
     5c6:	9301      	str	r3, [sp, #4]
     5c8:	4b2f      	ldr	r3, [pc, #188]	; (688 <cipher_buffer+0xdc>)
     5ca:	447b      	add	r3, pc
     5cc:	9300      	str	r3, [sp, #0]
     5ce:	f04f 0301 	mov.w	r3, #1
     5d2:	f04f 0203 	mov.w	r2, #3
     5d6:	f44f 71aa 	mov.w	r1, #340	; 0x154
     5da:	482c      	ldr	r0, [pc, #176]	; (68c <cipher_buffer+0xe0>)
     5dc:	4478      	add	r0, pc
     5de:	f007 fd41 	bl	8064 <trace_printf>
/home/test/devel/optee/optee_examples/aes/ta/aes_ta.c:341
     5e2:	68fb      	ldr	r3, [r7, #12]
     5e4:	613b      	str	r3, [r7, #16]
/home/test/devel/optee/optee_examples/aes/ta/aes_ta.c:344
     5e6:	68ba      	ldr	r2, [r7, #8]
     5e8:	697b      	ldr	r3, [r7, #20]
     5ea:	429a      	cmp	r2, r3
     5ec:	d004      	beq.n	5f8 <cipher_buffer+0x4c>
/home/test/devel/optee/optee_examples/aes/ta/aes_ta.c:345
     5ee:	f04f 0306 	mov.w	r3, #6
     5f2:	f6cf 73ff 	movt	r3, #65535	; 0xffff
     5f6:	e03e      	b.n	676 <cipher_buffer+0xca>
/home/test/devel/optee/optee_examples/aes/ta/aes_ta.c:347
     5f8:	687b      	ldr	r3, [r7, #4]
     5fa:	f103 0308 	add.w	r3, r3, #8
     5fe:	685a      	ldr	r2, [r3, #4]
     600:	687b      	ldr	r3, [r7, #4]
     602:	685b      	ldr	r3, [r3, #4]
     604:	429a      	cmp	r2, r3
     606:	d219      	bcs.n	63c <cipher_buffer+0x90>
/home/test/devel/optee/optee_examples/aes/ta/aes_ta.c:348
     608:	687b      	ldr	r3, [r7, #4]
     60a:	685b      	ldr	r3, [r3, #4]
     60c:	687a      	ldr	r2, [r7, #4]
     60e:	f102 0208 	add.w	r2, r2, #8
     612:	6852      	ldr	r2, [r2, #4]
     614:	9202      	str	r2, [sp, #8]
     616:	9301      	str	r3, [sp, #4]
     618:	4b1d      	ldr	r3, [pc, #116]	; (690 <cipher_buffer+0xe4>)
     61a:	447b      	add	r3, pc
     61c:	9300      	str	r3, [sp, #0]
     61e:	f04f 0301 	mov.w	r3, #1
     622:	f04f 0201 	mov.w	r2, #1
     626:	f240 115d 	movw	r1, #349	; 0x15d
     62a:	481a      	ldr	r0, [pc, #104]	; (694 <cipher_buffer+0xe8>)
     62c:	4478      	add	r0, pc
     62e:	f007 fd19 	bl	8064 <trace_printf>
/home/test/devel/optee/optee_examples/aes/ta/aes_ta.c:350
     632:	f04f 0306 	mov.w	r3, #6
     636:	f6cf 73ff 	movt	r3, #65535	; 0xffff
     63a:	e01c      	b.n	676 <cipher_buffer+0xca>
/home/test/devel/optee/optee_examples/aes/ta/aes_ta.c:353
     63c:	693b      	ldr	r3, [r7, #16]
     63e:	68db      	ldr	r3, [r3, #12]
     640:	2b00      	cmp	r3, #0
     642:	d104      	bne.n	64e <cipher_buffer+0xa2>
/home/test/devel/optee/optee_examples/aes/ta/aes_ta.c:354
     644:	f04f 0307 	mov.w	r3, #7
     648:	f6cf 73ff 	movt	r3, #65535	; 0xffff
     64c:	e013      	b.n	676 <cipher_buffer+0xca>
/home/test/devel/optee/optee_examples/aes/ta/aes_ta.c:359
     64e:	693b      	ldr	r3, [r7, #16]
     650:	68d8      	ldr	r0, [r3, #12]
/home/test/devel/optee/optee_examples/aes/ta/aes_ta.c:360
     652:	687b      	ldr	r3, [r7, #4]
     654:	6819      	ldr	r1, [r3, #0]
/home/test/devel/optee/optee_examples/aes/ta/aes_ta.c:359
     656:	687b      	ldr	r3, [r7, #4]
     658:	685a      	ldr	r2, [r3, #4]
/home/test/devel/optee/optee_examples/aes/ta/aes_ta.c:361
     65a:	687b      	ldr	r3, [r7, #4]
     65c:	f103 0308 	add.w	r3, r3, #8
/home/test/devel/optee/optee_examples/aes/ta/aes_ta.c:359
     660:	681c      	ldr	r4, [r3, #0]
/home/test/devel/optee/optee_examples/aes/ta/aes_ta.c:361
     662:	687b      	ldr	r3, [r7, #4]
     664:	f103 0308 	add.w	r3, r3, #8
/home/test/devel/optee/optee_examples/aes/ta/aes_ta.c:359
     668:	f103 0304 	add.w	r3, r3, #4
     66c:	9300      	str	r3, [sp, #0]
     66e:	4623      	mov	r3, r4
     670:	f001 ff54 	bl	251c <TEE_CipherUpdate>
     674:	4603      	mov	r3, r0
/home/test/devel/optee/optee_examples/aes/ta/aes_ta.c:362
     676:	4618      	mov	r0, r3
     678:	f107 071c 	add.w	r7, r7, #28
     67c:	46bd      	mov	sp, r7
     67e:	e9dd 4700 	ldrd	r4, r7, [sp]
     682:	b002      	add	sp, #8
     684:	f85d fb04 	ldr.w	pc, [sp], #4
     688:	0000e2ce 	.word	0x0000e2ce
     68c:	0000e3ac 	.word	0x0000e3ac
     690:	0000e29a 	.word	0x0000e29a
     694:	0000e35c 	.word	0x0000e35c

00000698 <TA_CreateEntryPoint>:
TA_CreateEntryPoint():
/home/test/devel/optee/optee_examples/aes/ta/aes_ta.c:365
     698:	f84d 7d04 	str.w	r7, [sp, #-4]!
     69c:	af00      	add	r7, sp, #0
/home/test/devel/optee/optee_examples/aes/ta/aes_ta.c:367
     69e:	f04f 0300 	mov.w	r3, #0
/home/test/devel/optee/optee_examples/aes/ta/aes_ta.c:368
     6a2:	4618      	mov	r0, r3
     6a4:	46bd      	mov	sp, r7
     6a6:	f85d 7b04 	ldr.w	r7, [sp], #4
     6aa:	4770      	bx	lr

000006ac <TA_DestroyEntryPoint>:
TA_DestroyEntryPoint():
/home/test/devel/optee/optee_examples/aes/ta/aes_ta.c:371
     6ac:	f84d 7d04 	str.w	r7, [sp, #-4]!
     6b0:	af00      	add	r7, sp, #0
/home/test/devel/optee/optee_examples/aes/ta/aes_ta.c:373
     6b2:	bf00      	nop
     6b4:	46bd      	mov	sp, r7
     6b6:	f85d 7b04 	ldr.w	r7, [sp], #4
     6ba:	4770      	bx	lr

000006bc <TA_OpenSessionEntryPoint>:
TA_OpenSessionEntryPoint():
/home/test/devel/optee/optee_examples/aes/ta/aes_ta.c:378
     6bc:	e96d 7e02 	strd	r7, lr, [sp, #-8]!
     6c0:	b088      	sub	sp, #32
     6c2:	af02      	add	r7, sp, #8
     6c4:	60f8      	str	r0, [r7, #12]
     6c6:	60b9      	str	r1, [r7, #8]
     6c8:	607a      	str	r2, [r7, #4]
/home/test/devel/optee/optee_examples/aes/ta/aes_ta.c:386
     6ca:	f04f 0100 	mov.w	r1, #0
     6ce:	f04f 0014 	mov.w	r0, #20
     6d2:	f000 fbeb 	bl	eac <TEE_Malloc>
     6d6:	6178      	str	r0, [r7, #20]
/home/test/devel/optee/optee_examples/aes/ta/aes_ta.c:387
     6d8:	697b      	ldr	r3, [r7, #20]
     6da:	2b00      	cmp	r3, #0
     6dc:	d104      	bne.n	6e8 <TA_OpenSessionEntryPoint+0x2c>
/home/test/devel/optee/optee_examples/aes/ta/aes_ta.c:388
     6de:	f04f 030c 	mov.w	r3, #12
     6e2:	f6cf 73ff 	movt	r3, #65535	; 0xffff
     6e6:	e01c      	b.n	722 <TA_OpenSessionEntryPoint+0x66>
/home/test/devel/optee/optee_examples/aes/ta/aes_ta.c:390
     6e8:	697b      	ldr	r3, [r7, #20]
     6ea:	f04f 0200 	mov.w	r2, #0
     6ee:	611a      	str	r2, [r3, #16]
/home/test/devel/optee/optee_examples/aes/ta/aes_ta.c:391
     6f0:	697b      	ldr	r3, [r7, #20]
     6f2:	f04f 0200 	mov.w	r2, #0
     6f6:	60da      	str	r2, [r3, #12]
/home/test/devel/optee/optee_examples/aes/ta/aes_ta.c:393
     6f8:	687b      	ldr	r3, [r7, #4]
     6fa:	697a      	ldr	r2, [r7, #20]
     6fc:	601a      	str	r2, [r3, #0]
/home/test/devel/optee/optee_examples/aes/ta/aes_ta.c:394
     6fe:	687b      	ldr	r3, [r7, #4]
     700:	681b      	ldr	r3, [r3, #0]
     702:	9301      	str	r3, [sp, #4]
     704:	4b09      	ldr	r3, [pc, #36]	; (72c <TA_OpenSessionEntryPoint+0x70>)
     706:	447b      	add	r3, pc
     708:	9300      	str	r3, [sp, #0]
     70a:	f04f 0301 	mov.w	r3, #1
     70e:	f04f 0203 	mov.w	r2, #3
     712:	f44f 71c5 	mov.w	r1, #394	; 0x18a
     716:	4806      	ldr	r0, [pc, #24]	; (730 <TA_OpenSessionEntryPoint+0x74>)
     718:	4478      	add	r0, pc
     71a:	f007 fca3 	bl	8064 <trace_printf>
/home/test/devel/optee/optee_examples/aes/ta/aes_ta.c:396
     71e:	f04f 0300 	mov.w	r3, #0
/home/test/devel/optee/optee_examples/aes/ta/aes_ta.c:397
     722:	4618      	mov	r0, r3
     724:	f107 0718 	add.w	r7, r7, #24
     728:	46bd      	mov	sp, r7
     72a:	bd80      	pop	{r7, pc}
     72c:	0000e1ca 	.word	0x0000e1ca
     730:	0000e280 	.word	0x0000e280

00000734 <TA_CloseSessionEntryPoint>:
TA_CloseSessionEntryPoint():
/home/test/devel/optee/optee_examples/aes/ta/aes_ta.c:400
     734:	e96d 7e02 	strd	r7, lr, [sp, #-8]!
     738:	b086      	sub	sp, #24
     73a:	af02      	add	r7, sp, #8
     73c:	6078      	str	r0, [r7, #4]
/home/test/devel/optee/optee_examples/aes/ta/aes_ta.c:404
     73e:	687b      	ldr	r3, [r7, #4]
     740:	9301      	str	r3, [sp, #4]
     742:	4b14      	ldr	r3, [pc, #80]	; (794 <TA_CloseSessionEntryPoint+0x60>)
     744:	447b      	add	r3, pc
     746:	9300      	str	r3, [sp, #0]
     748:	f04f 0301 	mov.w	r3, #1
     74c:	f04f 0203 	mov.w	r2, #3
     750:	f44f 71ca 	mov.w	r1, #404	; 0x194
     754:	4810      	ldr	r0, [pc, #64]	; (798 <TA_CloseSessionEntryPoint+0x64>)
     756:	4478      	add	r0, pc
     758:	f007 fc84 	bl	8064 <trace_printf>
/home/test/devel/optee/optee_examples/aes/ta/aes_ta.c:405
     75c:	687b      	ldr	r3, [r7, #4]
     75e:	60fb      	str	r3, [r7, #12]
/home/test/devel/optee/optee_examples/aes/ta/aes_ta.c:408
     760:	68fb      	ldr	r3, [r7, #12]
     762:	691b      	ldr	r3, [r3, #16]
     764:	2b00      	cmp	r3, #0
     766:	d004      	beq.n	772 <TA_CloseSessionEntryPoint+0x3e>
/home/test/devel/optee/optee_examples/aes/ta/aes_ta.c:409
     768:	68fb      	ldr	r3, [r7, #12]
     76a:	691b      	ldr	r3, [r3, #16]
     76c:	4618      	mov	r0, r3
     76e:	f009 fd22 	bl	a1b6 <TEE_FreeTransientObject>
/home/test/devel/optee/optee_examples/aes/ta/aes_ta.c:410
     772:	68fb      	ldr	r3, [r7, #12]
     774:	68db      	ldr	r3, [r3, #12]
     776:	2b00      	cmp	r3, #0
     778:	d004      	beq.n	784 <TA_CloseSessionEntryPoint+0x50>
/home/test/devel/optee/optee_examples/aes/ta/aes_ta.c:411
     77a:	68fb      	ldr	r3, [r7, #12]
     77c:	68db      	ldr	r3, [r3, #12]
     77e:	4618      	mov	r0, r3
     780:	f001 f898 	bl	18b4 <TEE_FreeOperation>
/home/test/devel/optee/optee_examples/aes/ta/aes_ta.c:412
     784:	68f8      	ldr	r0, [r7, #12]
     786:	f000 fbb1 	bl	eec <TEE_Free>
/home/test/devel/optee/optee_examples/aes/ta/aes_ta.c:413
     78a:	bf00      	nop
     78c:	f107 0710 	add.w	r7, r7, #16
     790:	46bd      	mov	sp, r7
     792:	bd80      	pop	{r7, pc}
     794:	0000e1a8 	.word	0x0000e1a8
     798:	0000e25e 	.word	0x0000e25e

0000079c <TA_InvokeCommandEntryPoint>:
TA_InvokeCommandEntryPoint():
/home/test/devel/optee/optee_examples/aes/ta/aes_ta.c:419
     79c:	e96d 7e02 	strd	r7, lr, [sp, #-8]!
     7a0:	b086      	sub	sp, #24
     7a2:	af02      	add	r7, sp, #8
     7a4:	60f8      	str	r0, [r7, #12]
     7a6:	60b9      	str	r1, [r7, #8]
     7a8:	607a      	str	r2, [r7, #4]
     7aa:	603b      	str	r3, [r7, #0]
/home/test/devel/optee/optee_examples/aes/ta/aes_ta.c:420
     7ac:	68bb      	ldr	r3, [r7, #8]
     7ae:	2b03      	cmp	r3, #3
     7b0:	d828      	bhi.n	804 <TA_InvokeCommandEntryPoint+0x68>
     7b2:	a202      	add	r2, pc, #8	; (adr r2, 7bc <TA_InvokeCommandEntryPoint+0x20>)
     7b4:	f852 3023 	ldr.w	r3, [r2, r3, lsl #2]
     7b8:	441a      	add	r2, r3
     7ba:	4710      	bx	r2
     7bc:	00000011 	.word	0x00000011
     7c0:	0000001f 	.word	0x0000001f
     7c4:	0000002d 	.word	0x0000002d
     7c8:	0000003b 	.word	0x0000003b
/home/test/devel/optee/optee_examples/aes/ta/aes_ta.c:422
     7cc:	683a      	ldr	r2, [r7, #0]
     7ce:	6879      	ldr	r1, [r7, #4]
     7d0:	68f8      	ldr	r0, [r7, #12]
     7d2:	f7ff fccf 	bl	174 <alloc_resources>
     7d6:	4603      	mov	r3, r0
     7d8:	e027      	b.n	82a <TA_InvokeCommandEntryPoint+0x8e>
/home/test/devel/optee/optee_examples/aes/ta/aes_ta.c:424
     7da:	683a      	ldr	r2, [r7, #0]
     7dc:	6879      	ldr	r1, [r7, #4]
     7de:	68f8      	ldr	r0, [r7, #12]
     7e0:	f7ff fdfe 	bl	3e0 <set_aes_key>
     7e4:	4603      	mov	r3, r0
     7e6:	e020      	b.n	82a <TA_InvokeCommandEntryPoint+0x8e>
/home/test/devel/optee/optee_examples/aes/ta/aes_ta.c:426
     7e8:	683a      	ldr	r2, [r7, #0]
     7ea:	6879      	ldr	r1, [r7, #4]
     7ec:	68f8      	ldr	r0, [r7, #12]
     7ee:	f7ff fea1 	bl	534 <reset_aes_iv>
     7f2:	4603      	mov	r3, r0
     7f4:	e019      	b.n	82a <TA_InvokeCommandEntryPoint+0x8e>
/home/test/devel/optee/optee_examples/aes/ta/aes_ta.c:428
     7f6:	683a      	ldr	r2, [r7, #0]
     7f8:	6879      	ldr	r1, [r7, #4]
     7fa:	68f8      	ldr	r0, [r7, #12]
     7fc:	f7ff fed6 	bl	5ac <cipher_buffer>
     800:	4603      	mov	r3, r0
     802:	e012      	b.n	82a <TA_InvokeCommandEntryPoint+0x8e>
/home/test/devel/optee/optee_examples/aes/ta/aes_ta.c:430
     804:	68bb      	ldr	r3, [r7, #8]
     806:	9301      	str	r3, [sp, #4]
     808:	4b0a      	ldr	r3, [pc, #40]	; (834 <TA_InvokeCommandEntryPoint+0x98>)
     80a:	447b      	add	r3, pc
     80c:	9300      	str	r3, [sp, #0]
     80e:	f04f 0301 	mov.w	r3, #1
     812:	f04f 0201 	mov.w	r2, #1
     816:	f44f 71d7 	mov.w	r1, #430	; 0x1ae
     81a:	4807      	ldr	r0, [pc, #28]	; (838 <TA_InvokeCommandEntryPoint+0x9c>)
     81c:	4478      	add	r0, pc
     81e:	f007 fc21 	bl	8064 <trace_printf>
/home/test/devel/optee/optee_examples/aes/ta/aes_ta.c:431
     822:	f04f 030a 	mov.w	r3, #10
     826:	f6cf 73ff 	movt	r3, #65535	; 0xffff
/home/test/devel/optee/optee_examples/aes/ta/aes_ta.c:433
     82a:	4618      	mov	r0, r3
     82c:	f107 0710 	add.w	r7, r7, #16
     830:	46bd      	mov	sp, r7
     832:	bd80      	pop	{r7, pc}
     834:	0000e0fe 	.word	0x0000e0fe
     838:	0000e1b4 	.word	0x0000e1b4

0000083c <__utee_from_param>:
__utee_from_param():
/home/test/devel/optee/optee_os/lib/libutee/tee_api.c:43
     83c:	e96d 4702 	strd	r4, r7, [sp, #-8]!
     840:	b086      	sub	sp, #24
     842:	af00      	add	r7, sp, #0
     844:	60f8      	str	r0, [r7, #12]
     846:	60b9      	str	r1, [r7, #8]
     848:	607a      	str	r2, [r7, #4]
/home/test/devel/optee/optee_os/lib/libutee/tee_api.c:46
     84a:	68bb      	ldr	r3, [r7, #8]
     84c:	f04f 0400 	mov.w	r4, #0
     850:	68fa      	ldr	r2, [r7, #12]
     852:	e9c2 3400 	strd	r3, r4, [r2]
/home/test/devel/optee/optee_os/lib/libutee/tee_api.c:47
     856:	f04f 0300 	mov.w	r3, #0
     85a:	617b      	str	r3, [r7, #20]
     85c:	e095      	b.n	98a <__utee_from_param+0x14e>
/home/test/devel/optee/optee_os/lib/libutee/tee_api.c:48
     85e:	697b      	ldr	r3, [r7, #20]
     860:	ea4f 0383 	mov.w	r3, r3, lsl #2
     864:	68ba      	ldr	r2, [r7, #8]
     866:	fa22 f303 	lsr.w	r3, r2, r3
     86a:	f003 030f 	and.w	r3, r3, #15
     86e:	f103 33ff 	add.w	r3, r3, #4294967295	; 0xffffffff
     872:	2b06      	cmp	r3, #6
     874:	d864      	bhi.n	940 <__utee_from_param+0x104>
     876:	a202      	add	r2, pc, #8	; (adr r2, 880 <__utee_from_param+0x44>)
     878:	f852 3023 	ldr.w	r3, [r2, r3, lsl #2]
     87c:	441a      	add	r2, r3
     87e:	4710      	bx	r2
     880:	0000001d 	.word	0x0000001d
     884:	0000001d 	.word	0x0000001d
     888:	0000001d 	.word	0x0000001d
     88c:	000000c1 	.word	0x000000c1
     890:	0000006f 	.word	0x0000006f
     894:	0000006f 	.word	0x0000006f
     898:	0000006f 	.word	0x0000006f
/home/test/devel/optee/optee_os/lib/libutee/tee_api.c:52
     89c:	697b      	ldr	r3, [r7, #20]
     89e:	ea4f 0243 	mov.w	r2, r3, lsl #1
     8a2:	697b      	ldr	r3, [r7, #20]
     8a4:	ea4f 03c3 	mov.w	r3, r3, lsl #3
     8a8:	6879      	ldr	r1, [r7, #4]
     8aa:	440b      	add	r3, r1
     8ac:	681b      	ldr	r3, [r3, #0]
     8ae:	f04f 0400 	mov.w	r4, #0
     8b2:	68f9      	ldr	r1, [r7, #12]
     8b4:	f102 0201 	add.w	r2, r2, #1
     8b8:	ea4f 02c2 	mov.w	r2, r2, lsl #3
     8bc:	440a      	add	r2, r1
     8be:	e9c2 3400 	strd	r3, r4, [r2]
/home/test/devel/optee/optee_os/lib/libutee/tee_api.c:53
     8c2:	697b      	ldr	r3, [r7, #20]
     8c4:	ea4f 0343 	mov.w	r3, r3, lsl #1
     8c8:	f103 0201 	add.w	r2, r3, #1
     8cc:	697b      	ldr	r3, [r7, #20]
     8ce:	ea4f 03c3 	mov.w	r3, r3, lsl #3
     8d2:	6879      	ldr	r1, [r7, #4]
     8d4:	440b      	add	r3, r1
     8d6:	685b      	ldr	r3, [r3, #4]
     8d8:	f04f 0400 	mov.w	r4, #0
     8dc:	68f9      	ldr	r1, [r7, #12]
     8de:	f102 0201 	add.w	r2, r2, #1
     8e2:	ea4f 02c2 	mov.w	r2, r2, lsl #3
     8e6:	440a      	add	r2, r1
     8e8:	e9c2 3400 	strd	r3, r4, [r2]
/home/test/devel/optee/optee_os/lib/libutee/tee_api.c:54
     8ec:	e049      	b.n	982 <__utee_from_param+0x146>
/home/test/devel/optee/optee_os/lib/libutee/tee_api.c:58
     8ee:	697b      	ldr	r3, [r7, #20]
     8f0:	ea4f 0243 	mov.w	r2, r3, lsl #1
     8f4:	697b      	ldr	r3, [r7, #20]
     8f6:	ea4f 03c3 	mov.w	r3, r3, lsl #3
     8fa:	6879      	ldr	r1, [r7, #4]
     8fc:	440b      	add	r3, r1
     8fe:	681b      	ldr	r3, [r3, #0]
     900:	f04f 0400 	mov.w	r4, #0
     904:	68f9      	ldr	r1, [r7, #12]
     906:	f102 0201 	add.w	r2, r2, #1
     90a:	ea4f 02c2 	mov.w	r2, r2, lsl #3
     90e:	440a      	add	r2, r1
     910:	e9c2 3400 	strd	r3, r4, [r2]
/home/test/devel/optee/optee_os/lib/libutee/tee_api.c:59
     914:	697b      	ldr	r3, [r7, #20]
     916:	ea4f 0343 	mov.w	r3, r3, lsl #1
     91a:	f103 0201 	add.w	r2, r3, #1
     91e:	697b      	ldr	r3, [r7, #20]
     920:	ea4f 03c3 	mov.w	r3, r3, lsl #3
     924:	6879      	ldr	r1, [r7, #4]
     926:	440b      	add	r3, r1
     928:	685b      	ldr	r3, [r3, #4]
     92a:	f04f 0400 	mov.w	r4, #0
     92e:	68f9      	ldr	r1, [r7, #12]
     930:	f102 0201 	add.w	r2, r2, #1
     934:	ea4f 02c2 	mov.w	r2, r2, lsl #3
     938:	440a      	add	r2, r1
     93a:	e9c2 3400 	strd	r3, r4, [r2]
/home/test/devel/optee/optee_os/lib/libutee/tee_api.c:60
     93e:	e020      	b.n	982 <__utee_from_param+0x146>
/home/test/devel/optee/optee_os/lib/libutee/tee_api.c:62
     940:	697b      	ldr	r3, [r7, #20]
     942:	ea4f 0343 	mov.w	r3, r3, lsl #1
     946:	68fa      	ldr	r2, [r7, #12]
     948:	f103 0301 	add.w	r3, r3, #1
     94c:	ea4f 03c3 	mov.w	r3, r3, lsl #3
     950:	441a      	add	r2, r3
     952:	f04f 0300 	mov.w	r3, #0
     956:	f04f 0400 	mov.w	r4, #0
     95a:	e9c2 3400 	strd	r3, r4, [r2]
/home/test/devel/optee/optee_os/lib/libutee/tee_api.c:63
     95e:	697b      	ldr	r3, [r7, #20]
     960:	ea4f 0343 	mov.w	r3, r3, lsl #1
     964:	f103 0301 	add.w	r3, r3, #1
     968:	68fa      	ldr	r2, [r7, #12]
     96a:	f103 0301 	add.w	r3, r3, #1
     96e:	ea4f 03c3 	mov.w	r3, r3, lsl #3
     972:	441a      	add	r2, r3
     974:	f04f 0300 	mov.w	r3, #0
     978:	f04f 0400 	mov.w	r4, #0
     97c:	e9c2 3400 	strd	r3, r4, [r2]
/home/test/devel/optee/optee_os/lib/libutee/tee_api.c:64
     980:	bf00      	nop
/home/test/devel/optee/optee_os/lib/libutee/tee_api.c:47 (discriminator 2)
     982:	697b      	ldr	r3, [r7, #20]
     984:	f103 0301 	add.w	r3, r3, #1
     988:	617b      	str	r3, [r7, #20]
/home/test/devel/optee/optee_os/lib/libutee/tee_api.c:47 (discriminator 1)
     98a:	697b      	ldr	r3, [r7, #20]
     98c:	2b03      	cmp	r3, #3
     98e:	f67f af66 	bls.w	85e <__utee_from_param+0x22>
/home/test/devel/optee/optee_os/lib/libutee/tee_api.c:67
     992:	bf00      	nop
     994:	f107 0718 	add.w	r7, r7, #24
     998:	46bd      	mov	sp, r7
     99a:	e9dd 4700 	ldrd	r4, r7, [sp]
     99e:	b002      	add	sp, #8
     9a0:	4770      	bx	lr

000009a2 <__utee_to_param>:
__utee_to_param():
/home/test/devel/optee/optee_os/lib/libutee/tee_api.c:71
     9a2:	e96d 4702 	strd	r4, r7, [sp, #-8]!
     9a6:	b088      	sub	sp, #32
     9a8:	af00      	add	r7, sp, #0
     9aa:	60f8      	str	r0, [r7, #12]
     9ac:	60b9      	str	r1, [r7, #8]
     9ae:	607a      	str	r2, [r7, #4]
/home/test/devel/optee/optee_os/lib/libutee/tee_api.c:73
     9b0:	687b      	ldr	r3, [r7, #4]
     9b2:	e9d3 3400 	ldrd	r3, r4, [r3]
     9b6:	61bb      	str	r3, [r7, #24]
/home/test/devel/optee/optee_os/lib/libutee/tee_api.c:75
     9b8:	f04f 0300 	mov.w	r3, #0
     9bc:	61fb      	str	r3, [r7, #28]
     9be:	e05c      	b.n	a7a <__utee_to_param+0xd8>
/home/test/devel/optee/optee_os/lib/libutee/tee_api.c:76
     9c0:	69fb      	ldr	r3, [r7, #28]
     9c2:	ea4f 0343 	mov.w	r3, r3, lsl #1
     9c6:	687a      	ldr	r2, [r7, #4]
     9c8:	f103 0301 	add.w	r3, r3, #1
     9cc:	ea4f 03c3 	mov.w	r3, r3, lsl #3
     9d0:	4413      	add	r3, r2
     9d2:	e9d3 3400 	ldrd	r3, r4, [r3]
     9d6:	617b      	str	r3, [r7, #20]
/home/test/devel/optee/optee_os/lib/libutee/tee_api.c:77
     9d8:	69fb      	ldr	r3, [r7, #28]
     9da:	ea4f 0343 	mov.w	r3, r3, lsl #1
     9de:	f103 0301 	add.w	r3, r3, #1
     9e2:	687a      	ldr	r2, [r7, #4]
     9e4:	f103 0301 	add.w	r3, r3, #1
     9e8:	ea4f 03c3 	mov.w	r3, r3, lsl #3
     9ec:	4413      	add	r3, r2
     9ee:	e9d3 3400 	ldrd	r3, r4, [r3]
     9f2:	613b      	str	r3, [r7, #16]
/home/test/devel/optee/optee_os/lib/libutee/tee_api.c:79
     9f4:	69fb      	ldr	r3, [r7, #28]
     9f6:	ea4f 0383 	mov.w	r3, r3, lsl #2
     9fa:	69ba      	ldr	r2, [r7, #24]
     9fc:	fa22 f303 	lsr.w	r3, r2, r3
     a00:	f003 030f 	and.w	r3, r3, #15
     a04:	f103 33ff 	add.w	r3, r3, #4294967295	; 0xffffffff
     a08:	2b06      	cmp	r3, #6
     a0a:	d831      	bhi.n	a70 <__utee_to_param+0xce>
     a0c:	a202      	add	r2, pc, #8	; (adr r2, a18 <__utee_to_param+0x76>)
     a0e:	f852 3023 	ldr.w	r3, [r2, r3, lsl #2]
     a12:	441a      	add	r2, r3
     a14:	4710      	bx	r2
     a16:	bf00      	nop
     a18:	0000001d 	.word	0x0000001d
     a1c:	0000001d 	.word	0x0000001d
     a20:	0000001d 	.word	0x0000001d
     a24:	00000059 	.word	0x00000059
     a28:	0000003b 	.word	0x0000003b
     a2c:	0000003b 	.word	0x0000003b
     a30:	0000003b 	.word	0x0000003b
/home/test/devel/optee/optee_os/lib/libutee/tee_api.c:83
     a34:	69fb      	ldr	r3, [r7, #28]
     a36:	ea4f 03c3 	mov.w	r3, r3, lsl #3
     a3a:	68fa      	ldr	r2, [r7, #12]
     a3c:	4413      	add	r3, r2
     a3e:	697a      	ldr	r2, [r7, #20]
     a40:	601a      	str	r2, [r3, #0]
/home/test/devel/optee/optee_os/lib/libutee/tee_api.c:84
     a42:	69fb      	ldr	r3, [r7, #28]
     a44:	ea4f 03c3 	mov.w	r3, r3, lsl #3
     a48:	68fa      	ldr	r2, [r7, #12]
     a4a:	4413      	add	r3, r2
     a4c:	693a      	ldr	r2, [r7, #16]
     a4e:	605a      	str	r2, [r3, #4]
/home/test/devel/optee/optee_os/lib/libutee/tee_api.c:85
     a50:	e00f      	b.n	a72 <__utee_to_param+0xd0>
/home/test/devel/optee/optee_os/lib/libutee/tee_api.c:89
     a52:	69fb      	ldr	r3, [r7, #28]
     a54:	ea4f 03c3 	mov.w	r3, r3, lsl #3
     a58:	68fa      	ldr	r2, [r7, #12]
     a5a:	4413      	add	r3, r2
     a5c:	697a      	ldr	r2, [r7, #20]
     a5e:	601a      	str	r2, [r3, #0]
/home/test/devel/optee/optee_os/lib/libutee/tee_api.c:90
     a60:	69fb      	ldr	r3, [r7, #28]
     a62:	ea4f 03c3 	mov.w	r3, r3, lsl #3
     a66:	68fa      	ldr	r2, [r7, #12]
     a68:	4413      	add	r3, r2
     a6a:	693a      	ldr	r2, [r7, #16]
     a6c:	605a      	str	r2, [r3, #4]
/home/test/devel/optee/optee_os/lib/libutee/tee_api.c:91
     a6e:	e000      	b.n	a72 <__utee_to_param+0xd0>
/home/test/devel/optee/optee_os/lib/libutee/tee_api.c:93
     a70:	bf00      	nop
/home/test/devel/optee/optee_os/lib/libutee/tee_api.c:75 (discriminator 2)
     a72:	69fb      	ldr	r3, [r7, #28]
     a74:	f103 0301 	add.w	r3, r3, #1
     a78:	61fb      	str	r3, [r7, #28]
/home/test/devel/optee/optee_os/lib/libutee/tee_api.c:75 (discriminator 1)
     a7a:	69fb      	ldr	r3, [r7, #28]
     a7c:	2b03      	cmp	r3, #3
     a7e:	d99f      	bls.n	9c0 <__utee_to_param+0x1e>
/home/test/devel/optee/optee_os/lib/libutee/tee_api.c:97
     a80:	68bb      	ldr	r3, [r7, #8]
     a82:	2b00      	cmp	r3, #0
     a84:	d002      	beq.n	a8c <__utee_to_param+0xea>
/home/test/devel/optee/optee_os/lib/libutee/tee_api.c:98
     a86:	68bb      	ldr	r3, [r7, #8]
     a88:	69ba      	ldr	r2, [r7, #24]
     a8a:	601a      	str	r2, [r3, #0]
/home/test/devel/optee/optee_os/lib/libutee/tee_api.c:99
     a8c:	bf00      	nop
     a8e:	f107 0720 	add.w	r7, r7, #32
     a92:	46bd      	mov	sp, r7
     a94:	e9dd 4700 	ldrd	r4, r7, [sp]
     a98:	b002      	add	sp, #8
     a9a:	4770      	bx	lr

00000a9c <TEE_OpenTASession>:
TEE_OpenTASession():
/home/test/devel/optee/optee_os/lib/libutee/tee_api.c:107
     a9c:	e96d 7e02 	strd	r7, lr, [sp, #-8]!
     aa0:	b09c      	sub	sp, #112	; 0x70
     aa2:	af02      	add	r7, sp, #8
     aa4:	60f8      	str	r0, [r7, #12]
     aa6:	60b9      	str	r1, [r7, #8]
     aa8:	607a      	str	r2, [r7, #4]
     aaa:	603b      	str	r3, [r7, #0]
/home/test/devel/optee/optee_os/lib/libutee/tee_api.c:112
     aac:	f107 0318 	add.w	r3, r7, #24
     ab0:	683a      	ldr	r2, [r7, #0]
     ab2:	6879      	ldr	r1, [r7, #4]
     ab4:	4618      	mov	r0, r3
     ab6:	f7ff fec1 	bl	83c <__utee_from_param>
/home/test/devel/optee/optee_os/lib/libutee/tee_api.c:113
     aba:	f107 0114 	add.w	r1, r7, #20
     abe:	f107 0218 	add.w	r2, r7, #24
     ac2:	6f7b      	ldr	r3, [r7, #116]	; 0x74
     ac4:	9300      	str	r3, [sp, #0]
     ac6:	460b      	mov	r3, r1
     ac8:	68b9      	ldr	r1, [r7, #8]
     aca:	68f8      	ldr	r0, [r7, #12]
     acc:	f003 ea36 	blx	3f3c <utee_open_ta_session>
     ad0:	6678      	str	r0, [r7, #100]	; 0x64
/home/test/devel/optee/optee_os/lib/libutee/tee_api.c:115
     ad2:	f107 0318 	add.w	r3, r7, #24
     ad6:	461a      	mov	r2, r3
     ad8:	f04f 0100 	mov.w	r1, #0
     adc:	6838      	ldr	r0, [r7, #0]
     ade:	f7ff ff60 	bl	9a2 <__utee_to_param>
/home/test/devel/optee/optee_os/lib/libutee/tee_api.c:121
     ae2:	6e7b      	ldr	r3, [r7, #100]	; 0x64
     ae4:	2b00      	cmp	r3, #0
     ae6:	d002      	beq.n	aee <TEE_OpenTASession+0x52>
/home/test/devel/optee/optee_os/lib/libutee/tee_api.c:122
     ae8:	f04f 0300 	mov.w	r3, #0
     aec:	617b      	str	r3, [r7, #20]
/home/test/devel/optee/optee_os/lib/libutee/tee_api.c:124
     aee:	697b      	ldr	r3, [r7, #20]
     af0:	461a      	mov	r2, r3
     af2:	6f3b      	ldr	r3, [r7, #112]	; 0x70
     af4:	601a      	str	r2, [r3, #0]
/home/test/devel/optee/optee_os/lib/libutee/tee_api.c:125
     af6:	6e7b      	ldr	r3, [r7, #100]	; 0x64
/home/test/devel/optee/optee_os/lib/libutee/tee_api.c:126
     af8:	4618      	mov	r0, r3
     afa:	f107 0768 	add.w	r7, r7, #104	; 0x68
     afe:	46bd      	mov	sp, r7
     b00:	bd80      	pop	{r7, pc}

00000b02 <TEE_CloseTASession>:
TEE_CloseTASession():
/home/test/devel/optee/optee_os/lib/libutee/tee_api.c:129
     b02:	e96d 7e02 	strd	r7, lr, [sp, #-8]!
     b06:	b084      	sub	sp, #16
     b08:	af00      	add	r7, sp, #0
     b0a:	6078      	str	r0, [r7, #4]
/home/test/devel/optee/optee_os/lib/libutee/tee_api.c:130
     b0c:	687b      	ldr	r3, [r7, #4]
     b0e:	2b00      	cmp	r3, #0
     b10:	d00a      	beq.n	b28 <TEE_CloseTASession+0x26>
/home/test/devel/optee/optee_os/lib/libutee/tee_api.c:131
     b12:	687b      	ldr	r3, [r7, #4]
     b14:	4618      	mov	r0, r3
     b16:	f003 ea1e 	blx	3f54 <utee_close_ta_session>
     b1a:	60f8      	str	r0, [r7, #12]
/home/test/devel/optee/optee_os/lib/libutee/tee_api.c:133
     b1c:	68fb      	ldr	r3, [r7, #12]
     b1e:	2b00      	cmp	r3, #0
     b20:	d002      	beq.n	b28 <TEE_CloseTASession+0x26>
/home/test/devel/optee/optee_os/lib/libutee/tee_api.c:134
     b22:	68f8      	ldr	r0, [r7, #12]
     b24:	f00a f906 	bl	ad34 <TEE_Panic>
/home/test/devel/optee/optee_os/lib/libutee/tee_api.c:136
     b28:	bf00      	nop
     b2a:	f107 0710 	add.w	r7, r7, #16
     b2e:	46bd      	mov	sp, r7
     b30:	bd80      	pop	{r7, pc}

00000b32 <TEE_InvokeTACommand>:
TEE_InvokeTACommand():
/home/test/devel/optee/optee_os/lib/libutee/tee_api.c:143
     b32:	e96d 7e02 	strd	r7, lr, [sp, #-8]!
     b36:	b09a      	sub	sp, #104	; 0x68
     b38:	af02      	add	r7, sp, #8
     b3a:	60f8      	str	r0, [r7, #12]
     b3c:	60b9      	str	r1, [r7, #8]
     b3e:	607a      	str	r2, [r7, #4]
     b40:	603b      	str	r3, [r7, #0]
/home/test/devel/optee/optee_os/lib/libutee/tee_api.c:148
     b42:	f107 0310 	add.w	r3, r7, #16
     b46:	6eba      	ldr	r2, [r7, #104]	; 0x68
     b48:	6839      	ldr	r1, [r7, #0]
     b4a:	4618      	mov	r0, r3
     b4c:	f7ff fe76 	bl	83c <__utee_from_param>
/home/test/devel/optee/optee_os/lib/libutee/tee_api.c:149
     b50:	68f8      	ldr	r0, [r7, #12]
     b52:	f107 0210 	add.w	r2, r7, #16
     b56:	f107 0358 	add.w	r3, r7, #88	; 0x58
     b5a:	9300      	str	r3, [sp, #0]
     b5c:	4613      	mov	r3, r2
     b5e:	687a      	ldr	r2, [r7, #4]
     b60:	68b9      	ldr	r1, [r7, #8]
     b62:	f003 ea02 	blx	3f68 <utee_invoke_ta_command>
     b66:	65f8      	str	r0, [r7, #92]	; 0x5c
/home/test/devel/optee/optee_os/lib/libutee/tee_api.c:152
     b68:	f107 0310 	add.w	r3, r7, #16
     b6c:	461a      	mov	r2, r3
     b6e:	f04f 0100 	mov.w	r1, #0
     b72:	6eb8      	ldr	r0, [r7, #104]	; 0x68
     b74:	f7ff ff15 	bl	9a2 <__utee_to_param>
/home/test/devel/optee/optee_os/lib/libutee/tee_api.c:154
     b78:	6efb      	ldr	r3, [r7, #108]	; 0x6c
     b7a:	2b00      	cmp	r3, #0
     b7c:	d002      	beq.n	b84 <TEE_InvokeTACommand+0x52>
/home/test/devel/optee/optee_os/lib/libutee/tee_api.c:155
     b7e:	6dba      	ldr	r2, [r7, #88]	; 0x58
     b80:	6efb      	ldr	r3, [r7, #108]	; 0x6c
     b82:	601a      	str	r2, [r3, #0]
/home/test/devel/optee/optee_os/lib/libutee/tee_api.c:157
     b84:	6dbb      	ldr	r3, [r7, #88]	; 0x58
     b86:	2b04      	cmp	r3, #4
     b88:	d101      	bne.n	b8e <TEE_InvokeTACommand+0x5c>
/home/test/devel/optee/optee_os/lib/libutee/tee_api.c:158
     b8a:	6dfb      	ldr	r3, [r7, #92]	; 0x5c
     b8c:	e014      	b.n	bb8 <TEE_InvokeTACommand+0x86>
/home/test/devel/optee/optee_os/lib/libutee/tee_api.c:160
     b8e:	6dfb      	ldr	r3, [r7, #92]	; 0x5c
     b90:	2b00      	cmp	r3, #0
     b92:	d010      	beq.n	bb6 <TEE_InvokeTACommand+0x84>
/home/test/devel/optee/optee_os/lib/libutee/tee_api.c:160 (discriminator 1)
     b94:	6dfa      	ldr	r2, [r7, #92]	; 0x5c
     b96:	f04f 030c 	mov.w	r3, #12
     b9a:	f6cf 73ff 	movt	r3, #65535	; 0xffff
     b9e:	429a      	cmp	r2, r3
     ba0:	d009      	beq.n	bb6 <TEE_InvokeTACommand+0x84>
/home/test/devel/optee/optee_os/lib/libutee/tee_api.c:161
     ba2:	6dfa      	ldr	r2, [r7, #92]	; 0x5c
     ba4:	f243 0324 	movw	r3, #12324	; 0x3024
     ba8:	f6cf 73ff 	movt	r3, #65535	; 0xffff
     bac:	429a      	cmp	r2, r3
     bae:	d002      	beq.n	bb6 <TEE_InvokeTACommand+0x84>
/home/test/devel/optee/optee_os/lib/libutee/tee_api.c:163
     bb0:	6df8      	ldr	r0, [r7, #92]	; 0x5c
     bb2:	f00a f8bf 	bl	ad34 <TEE_Panic>
/home/test/devel/optee/optee_os/lib/libutee/tee_api.c:165
     bb6:	6dfb      	ldr	r3, [r7, #92]	; 0x5c
/home/test/devel/optee/optee_os/lib/libutee/tee_api.c:166 (discriminator 1)
     bb8:	4618      	mov	r0, r3
     bba:	f107 0760 	add.w	r7, r7, #96	; 0x60
     bbe:	46bd      	mov	sp, r7
     bc0:	bd80      	pop	{r7, pc}

00000bc2 <TEE_GetCancellationFlag>:
TEE_GetCancellationFlag():
/home/test/devel/optee/optee_os/lib/libutee/tee_api.c:171
     bc2:	e96d 7e02 	strd	r7, lr, [sp, #-8]!
     bc6:	b082      	sub	sp, #8
     bc8:	af00      	add	r7, sp, #0
/home/test/devel/optee/optee_os/lib/libutee/tee_api.c:173
     bca:	463b      	mov	r3, r7
     bcc:	4618      	mov	r0, r3
     bce:	f003 e9d8 	blx	3f80 <utee_get_cancellation_flag>
     bd2:	6078      	str	r0, [r7, #4]
/home/test/devel/optee/optee_os/lib/libutee/tee_api.c:175
     bd4:	687b      	ldr	r3, [r7, #4]
     bd6:	2b00      	cmp	r3, #0
     bd8:	d002      	beq.n	be0 <TEE_GetCancellationFlag+0x1e>
/home/test/devel/optee/optee_os/lib/libutee/tee_api.c:176
     bda:	f04f 0300 	mov.w	r3, #0
     bde:	603b      	str	r3, [r7, #0]
/home/test/devel/optee/optee_os/lib/libutee/tee_api.c:177
     be0:	683b      	ldr	r3, [r7, #0]
     be2:	2b00      	cmp	r3, #0
     be4:	bf14      	ite	ne
     be6:	2301      	movne	r3, #1
     be8:	2300      	moveq	r3, #0
     bea:	b2db      	uxtb	r3, r3
/home/test/devel/optee/optee_os/lib/libutee/tee_api.c:178
     bec:	4618      	mov	r0, r3
     bee:	f107 0708 	add.w	r7, r7, #8
     bf2:	46bd      	mov	sp, r7
     bf4:	bd80      	pop	{r7, pc}

00000bf6 <TEE_UnmaskCancellation>:
TEE_UnmaskCancellation():
/home/test/devel/optee/optee_os/lib/libutee/tee_api.c:181
     bf6:	e96d 7e02 	strd	r7, lr, [sp, #-8]!
     bfa:	b082      	sub	sp, #8
     bfc:	af00      	add	r7, sp, #0
/home/test/devel/optee/optee_os/lib/libutee/tee_api.c:183
     bfe:	463b      	mov	r3, r7
     c00:	4618      	mov	r0, r3
     c02:	f003 e9d2 	blx	3fa8 <utee_unmask_cancellation>
     c06:	6078      	str	r0, [r7, #4]
/home/test/devel/optee/optee_os/lib/libutee/tee_api.c:185
     c08:	687b      	ldr	r3, [r7, #4]
     c0a:	2b00      	cmp	r3, #0
     c0c:	d002      	beq.n	c14 <TEE_UnmaskCancellation+0x1e>
/home/test/devel/optee/optee_os/lib/libutee/tee_api.c:186
     c0e:	6878      	ldr	r0, [r7, #4]
     c10:	f00a f890 	bl	ad34 <TEE_Panic>
/home/test/devel/optee/optee_os/lib/libutee/tee_api.c:187
     c14:	683b      	ldr	r3, [r7, #0]
     c16:	2b00      	cmp	r3, #0
     c18:	bf14      	ite	ne
     c1a:	2301      	movne	r3, #1
     c1c:	2300      	moveq	r3, #0
     c1e:	b2db      	uxtb	r3, r3
/home/test/devel/optee/optee_os/lib/libutee/tee_api.c:188
     c20:	4618      	mov	r0, r3
     c22:	f107 0708 	add.w	r7, r7, #8
     c26:	46bd      	mov	sp, r7
     c28:	bd80      	pop	{r7, pc}

00000c2a <TEE_MaskCancellation>:
TEE_MaskCancellation():
/home/test/devel/optee/optee_os/lib/libutee/tee_api.c:191
     c2a:	e96d 7e02 	strd	r7, lr, [sp, #-8]!
     c2e:	b082      	sub	sp, #8
     c30:	af00      	add	r7, sp, #0
/home/test/devel/optee/optee_os/lib/libutee/tee_api.c:193
     c32:	463b      	mov	r3, r7
     c34:	4618      	mov	r0, r3
     c36:	f003 e9c2 	blx	3fbc <utee_mask_cancellation>
     c3a:	6078      	str	r0, [r7, #4]
/home/test/devel/optee/optee_os/lib/libutee/tee_api.c:195
     c3c:	687b      	ldr	r3, [r7, #4]
     c3e:	2b00      	cmp	r3, #0
     c40:	d002      	beq.n	c48 <TEE_MaskCancellation+0x1e>
/home/test/devel/optee/optee_os/lib/libutee/tee_api.c:196
     c42:	6878      	ldr	r0, [r7, #4]
     c44:	f00a f876 	bl	ad34 <TEE_Panic>
/home/test/devel/optee/optee_os/lib/libutee/tee_api.c:197
     c48:	683b      	ldr	r3, [r7, #0]
     c4a:	2b00      	cmp	r3, #0
     c4c:	bf14      	ite	ne
     c4e:	2301      	movne	r3, #1
     c50:	2300      	moveq	r3, #0
     c52:	b2db      	uxtb	r3, r3
/home/test/devel/optee/optee_os/lib/libutee/tee_api.c:198
     c54:	4618      	mov	r0, r3
     c56:	f107 0708 	add.w	r7, r7, #8
     c5a:	46bd      	mov	sp, r7
     c5c:	bd80      	pop	{r7, pc}

00000c5e <TEE_CheckMemoryAccessRights>:
TEE_CheckMemoryAccessRights():
/home/test/devel/optee/optee_os/lib/libutee/tee_api.c:204
     c5e:	e96d 7e02 	strd	r7, lr, [sp, #-8]!
     c62:	b086      	sub	sp, #24
     c64:	af00      	add	r7, sp, #0
     c66:	60f8      	str	r0, [r7, #12]
     c68:	60b9      	str	r1, [r7, #8]
     c6a:	607a      	str	r2, [r7, #4]
/home/test/devel/optee/optee_os/lib/libutee/tee_api.c:207
     c6c:	687b      	ldr	r3, [r7, #4]
     c6e:	2b00      	cmp	r3, #0
     c70:	d102      	bne.n	c78 <TEE_CheckMemoryAccessRights+0x1a>
/home/test/devel/optee/optee_os/lib/libutee/tee_api.c:208
     c72:	f04f 0300 	mov.w	r3, #0
     c76:	e00e      	b.n	c96 <TEE_CheckMemoryAccessRights+0x38>
/home/test/devel/optee/optee_os/lib/libutee/tee_api.c:211
     c78:	687a      	ldr	r2, [r7, #4]
     c7a:	68b9      	ldr	r1, [r7, #8]
     c7c:	68f8      	ldr	r0, [r7, #12]
     c7e:	f003 e98a 	blx	3f94 <utee_check_access_rights>
     c82:	6178      	str	r0, [r7, #20]
/home/test/devel/optee/optee_os/lib/libutee/tee_api.c:212
     c84:	697b      	ldr	r3, [r7, #20]
     c86:	2b00      	cmp	r3, #0
     c88:	d103      	bne.n	c92 <TEE_CheckMemoryAccessRights+0x34>
/home/test/devel/optee/optee_os/lib/libutee/tee_api.c:220
     c8a:	f04f 0300 	mov.w	r3, #0
     c8e:	617b      	str	r3, [r7, #20]
     c90:	e000      	b.n	c94 <TEE_CheckMemoryAccessRights+0x36>
/home/test/devel/optee/optee_os/lib/libutee/tee_api.c:213
     c92:	bf00      	nop
/home/test/devel/optee/optee_os/lib/libutee/tee_api.c:222
     c94:	697b      	ldr	r3, [r7, #20]
/home/test/devel/optee/optee_os/lib/libutee/tee_api.c:223
     c96:	4618      	mov	r0, r3
     c98:	f107 0718 	add.w	r7, r7, #24
     c9c:	46bd      	mov	sp, r7
     c9e:	bd80      	pop	{r7, pc}

00000ca0 <TEE_SetInstanceData>:
TEE_SetInstanceData():
/home/test/devel/optee/optee_os/lib/libutee/tee_api.c:226
     ca0:	f84d 7d04 	str.w	r7, [sp, #-4]!
     ca4:	b083      	sub	sp, #12
     ca6:	af00      	add	r7, sp, #0
     ca8:	6078      	str	r0, [r7, #4]
/home/test/devel/optee/optee_os/lib/libutee/tee_api.c:227
     caa:	4b06      	ldr	r3, [pc, #24]	; (cc4 <TEE_SetInstanceData+0x24>)
     cac:	447b      	add	r3, pc
     cae:	461a      	mov	r2, r3
     cb0:	687b      	ldr	r3, [r7, #4]
     cb2:	6013      	str	r3, [r2, #0]
/home/test/devel/optee/optee_os/lib/libutee/tee_api.c:228
     cb4:	bf00      	nop
     cb6:	f107 070c 	add.w	r7, r7, #12
     cba:	46bd      	mov	sp, r7
     cbc:	f85d 7b04 	ldr.w	r7, [sp], #4
     cc0:	4770      	bx	lr
     cc2:	bf00      	nop
     cc4:	000193ec 	.word	0x000193ec

00000cc8 <TEE_GetInstanceData>:
TEE_GetInstanceData():
/home/test/devel/optee/optee_os/lib/libutee/tee_api.c:231
     cc8:	f84d 7d04 	str.w	r7, [sp, #-4]!
     ccc:	af00      	add	r7, sp, #0
/home/test/devel/optee/optee_os/lib/libutee/tee_api.c:232
     cce:	4b04      	ldr	r3, [pc, #16]	; (ce0 <TEE_GetInstanceData+0x18>)
     cd0:	447b      	add	r3, pc
     cd2:	681b      	ldr	r3, [r3, #0]
/home/test/devel/optee/optee_os/lib/libutee/tee_api.c:233
     cd4:	4618      	mov	r0, r3
     cd6:	46bd      	mov	sp, r7
     cd8:	f85d 7b04 	ldr.w	r7, [sp], #4
     cdc:	4770      	bx	lr
     cde:	bf00      	nop
     ce0:	000193c8 	.word	0x000193c8

00000ce4 <TEE_MemMove>:
TEE_MemMove():
/home/test/devel/optee/optee_os/lib/libutee/tee_api.c:236
     ce4:	e96d 7e02 	strd	r7, lr, [sp, #-8]!
     ce8:	b084      	sub	sp, #16
     cea:	af00      	add	r7, sp, #0
     cec:	60f8      	str	r0, [r7, #12]
     cee:	60b9      	str	r1, [r7, #8]
     cf0:	607a      	str	r2, [r7, #4]
/home/test/devel/optee/optee_os/lib/libutee/tee_api.c:237
     cf2:	687a      	ldr	r2, [r7, #4]
     cf4:	68b9      	ldr	r1, [r7, #8]
     cf6:	68f8      	ldr	r0, [r7, #12]
     cf8:	f00a f988 	bl	b00c <memmove>
     cfc:	4603      	mov	r3, r0
/home/test/devel/optee/optee_os/lib/libutee/tee_api.c:238
     cfe:	4618      	mov	r0, r3
     d00:	f107 0710 	add.w	r7, r7, #16
     d04:	46bd      	mov	sp, r7
     d06:	bd80      	pop	{r7, pc}

00000d08 <TEE_MemCompare>:
TEE_MemCompare():
/home/test/devel/optee/optee_os/lib/libutee/tee_api.c:241
     d08:	e96d 7e02 	strd	r7, lr, [sp, #-8]!
     d0c:	b084      	sub	sp, #16
     d0e:	af00      	add	r7, sp, #0
     d10:	60f8      	str	r0, [r7, #12]
     d12:	60b9      	str	r1, [r7, #8]
     d14:	607a      	str	r2, [r7, #4]
/home/test/devel/optee/optee_os/lib/libutee/tee_api.c:242
     d16:	687a      	ldr	r2, [r7, #4]
     d18:	68b9      	ldr	r1, [r7, #8]
     d1a:	68f8      	ldr	r0, [r7, #12]
     d1c:	f00a f8a1 	bl	ae62 <memcmp>
     d20:	4603      	mov	r3, r0
/home/test/devel/optee/optee_os/lib/libutee/tee_api.c:243
     d22:	4618      	mov	r0, r3
     d24:	f107 0710 	add.w	r7, r7, #16
     d28:	46bd      	mov	sp, r7
     d2a:	bd80      	pop	{r7, pc}

00000d2c <TEE_MemFill>:
TEE_MemFill():
/home/test/devel/optee/optee_os/lib/libutee/tee_api.c:246
     d2c:	e96d 7e02 	strd	r7, lr, [sp, #-8]!
     d30:	b084      	sub	sp, #16
     d32:	af00      	add	r7, sp, #0
     d34:	60f8      	str	r0, [r7, #12]
     d36:	60b9      	str	r1, [r7, #8]
     d38:	607a      	str	r2, [r7, #4]
/home/test/devel/optee/optee_os/lib/libutee/tee_api.c:247
     d3a:	68bb      	ldr	r3, [r7, #8]
     d3c:	687a      	ldr	r2, [r7, #4]
     d3e:	4619      	mov	r1, r3
     d40:	68f8      	ldr	r0, [r7, #12]
     d42:	f00a fa02 	bl	b14a <memset>
     d46:	4603      	mov	r3, r0
/home/test/devel/optee/optee_os/lib/libutee/tee_api.c:248
     d48:	4618      	mov	r0, r3
     d4a:	f107 0710 	add.w	r7, r7, #16
     d4e:	46bd      	mov	sp, r7
     d50:	bd80      	pop	{r7, pc}

00000d52 <TEE_GetSystemTime>:
TEE_GetSystemTime():
/home/test/devel/optee/optee_os/lib/libutee/tee_api.c:253
     d52:	e96d 7e02 	strd	r7, lr, [sp, #-8]!
     d56:	b084      	sub	sp, #16
     d58:	af00      	add	r7, sp, #0
     d5a:	6078      	str	r0, [r7, #4]
/home/test/devel/optee/optee_os/lib/libutee/tee_api.c:254
     d5c:	6879      	ldr	r1, [r7, #4]
     d5e:	f04f 0000 	mov.w	r0, #0
     d62:	f003 e940 	blx	3fe4 <utee_get_time>
     d66:	60f8      	str	r0, [r7, #12]
/home/test/devel/optee/optee_os/lib/libutee/tee_api.c:256
     d68:	68fb      	ldr	r3, [r7, #12]
     d6a:	2b00      	cmp	r3, #0
     d6c:	d002      	beq.n	d74 <TEE_GetSystemTime+0x22>
/home/test/devel/optee/optee_os/lib/libutee/tee_api.c:257
     d6e:	68f8      	ldr	r0, [r7, #12]
     d70:	f009 ffe0 	bl	ad34 <TEE_Panic>
/home/test/devel/optee/optee_os/lib/libutee/tee_api.c:258
     d74:	bf00      	nop
     d76:	f107 0710 	add.w	r7, r7, #16
     d7a:	46bd      	mov	sp, r7
     d7c:	bd80      	pop	{r7, pc}

00000d7e <TEE_Wait>:
TEE_Wait():
/home/test/devel/optee/optee_os/lib/libutee/tee_api.c:261
     d7e:	e96d 7e02 	strd	r7, lr, [sp, #-8]!
     d82:	b084      	sub	sp, #16
     d84:	af00      	add	r7, sp, #0
     d86:	6078      	str	r0, [r7, #4]
/home/test/devel/optee/optee_os/lib/libutee/tee_api.c:262
     d88:	6878      	ldr	r0, [r7, #4]
     d8a:	f003 e922 	blx	3fd0 <utee_wait>
     d8e:	60f8      	str	r0, [r7, #12]
/home/test/devel/optee/optee_os/lib/libutee/tee_api.c:264
     d90:	68fb      	ldr	r3, [r7, #12]
     d92:	2b00      	cmp	r3, #0
     d94:	d009      	beq.n	daa <TEE_Wait+0x2c>
/home/test/devel/optee/optee_os/lib/libutee/tee_api.c:264 (discriminator 1)
     d96:	68fa      	ldr	r2, [r7, #12]
     d98:	f04f 0302 	mov.w	r3, #2
     d9c:	f6cf 73ff 	movt	r3, #65535	; 0xffff
     da0:	429a      	cmp	r2, r3
     da2:	d002      	beq.n	daa <TEE_Wait+0x2c>
/home/test/devel/optee/optee_os/lib/libutee/tee_api.c:265
     da4:	68f8      	ldr	r0, [r7, #12]
     da6:	f009 ffc5 	bl	ad34 <TEE_Panic>
/home/test/devel/optee/optee_os/lib/libutee/tee_api.c:267
     daa:	68fb      	ldr	r3, [r7, #12]
/home/test/devel/optee/optee_os/lib/libutee/tee_api.c:268
     dac:	4618      	mov	r0, r3
     dae:	f107 0710 	add.w	r7, r7, #16
     db2:	46bd      	mov	sp, r7
     db4:	bd80      	pop	{r7, pc}

00000db6 <TEE_GetTAPersistentTime>:
TEE_GetTAPersistentTime():
/home/test/devel/optee/optee_os/lib/libutee/tee_api.c:271
     db6:	e96d 7e02 	strd	r7, lr, [sp, #-8]!
     dba:	b084      	sub	sp, #16
     dbc:	af00      	add	r7, sp, #0
     dbe:	6078      	str	r0, [r7, #4]
/home/test/devel/optee/optee_os/lib/libutee/tee_api.c:274
     dc0:	6879      	ldr	r1, [r7, #4]
     dc2:	f04f 0001 	mov.w	r0, #1
     dc6:	f003 e90e 	blx	3fe4 <utee_get_time>
     dca:	60f8      	str	r0, [r7, #12]
/home/test/devel/optee/optee_os/lib/libutee/tee_api.c:276
     dcc:	68fb      	ldr	r3, [r7, #12]
     dce:	2b00      	cmp	r3, #0
     dd0:	d00e      	beq.n	df0 <TEE_GetTAPersistentTime+0x3a>
/home/test/devel/optee/optee_os/lib/libutee/tee_api.c:276 (discriminator 1)
     dd2:	68fa      	ldr	r2, [r7, #12]
     dd4:	f243 030f 	movw	r3, #12303	; 0x300f
     dd8:	f6cf 73ff 	movt	r3, #65535	; 0xffff
     ddc:	429a      	cmp	r2, r3
     dde:	d007      	beq.n	df0 <TEE_GetTAPersistentTime+0x3a>
/home/test/devel/optee/optee_os/lib/libutee/tee_api.c:277
     de0:	687b      	ldr	r3, [r7, #4]
     de2:	f04f 0200 	mov.w	r2, #0
     de6:	601a      	str	r2, [r3, #0]
/home/test/devel/optee/optee_os/lib/libutee/tee_api.c:278
     de8:	687b      	ldr	r3, [r7, #4]
     dea:	f04f 0200 	mov.w	r2, #0
     dee:	605a      	str	r2, [r3, #4]
/home/test/devel/optee/optee_os/lib/libutee/tee_api.c:281
     df0:	68fb      	ldr	r3, [r7, #12]
     df2:	2b00      	cmp	r3, #0
     df4:	d01b      	beq.n	e2e <TEE_GetTAPersistentTime+0x78>
/home/test/devel/optee/optee_os/lib/libutee/tee_api.c:281 (discriminator 1)
     df6:	68fb      	ldr	r3, [r7, #12]
     df8:	f513 4f30 	cmn.w	r3, #45056	; 0xb000
     dfc:	d017      	beq.n	e2e <TEE_GetTAPersistentTime+0x78>
/home/test/devel/optee/optee_os/lib/libutee/tee_api.c:282
     dfe:	68fa      	ldr	r2, [r7, #12]
     e00:	f245 0301 	movw	r3, #20481	; 0x5001
     e04:	f6cf 73ff 	movt	r3, #65535	; 0xffff
     e08:	429a      	cmp	r2, r3
     e0a:	d010      	beq.n	e2e <TEE_GetTAPersistentTime+0x78>
/home/test/devel/optee/optee_os/lib/libutee/tee_api.c:283
     e0c:	68fa      	ldr	r2, [r7, #12]
     e0e:	f243 030f 	movw	r3, #12303	; 0x300f
     e12:	f6cf 73ff 	movt	r3, #65535	; 0xffff
     e16:	429a      	cmp	r2, r3
     e18:	d009      	beq.n	e2e <TEE_GetTAPersistentTime+0x78>
/home/test/devel/optee/optee_os/lib/libutee/tee_api.c:284
     e1a:	68fa      	ldr	r2, [r7, #12]
     e1c:	f04f 030c 	mov.w	r3, #12
     e20:	f6cf 73ff 	movt	r3, #65535	; 0xffff
     e24:	429a      	cmp	r2, r3
     e26:	d002      	beq.n	e2e <TEE_GetTAPersistentTime+0x78>
/home/test/devel/optee/optee_os/lib/libutee/tee_api.c:286
     e28:	68f8      	ldr	r0, [r7, #12]
     e2a:	f009 ff83 	bl	ad34 <TEE_Panic>
/home/test/devel/optee/optee_os/lib/libutee/tee_api.c:288
     e2e:	68fb      	ldr	r3, [r7, #12]
/home/test/devel/optee/optee_os/lib/libutee/tee_api.c:289
     e30:	4618      	mov	r0, r3
     e32:	f107 0710 	add.w	r7, r7, #16
     e36:	46bd      	mov	sp, r7
     e38:	bd80      	pop	{r7, pc}

00000e3a <TEE_SetTAPersistentTime>:
TEE_SetTAPersistentTime():
/home/test/devel/optee/optee_os/lib/libutee/tee_api.c:292
     e3a:	e96d 7e02 	strd	r7, lr, [sp, #-8]!
     e3e:	b084      	sub	sp, #16
     e40:	af00      	add	r7, sp, #0
     e42:	6078      	str	r0, [r7, #4]
/home/test/devel/optee/optee_os/lib/libutee/tee_api.c:295
     e44:	6878      	ldr	r0, [r7, #4]
     e46:	f003 e8d8 	blx	3ff8 <utee_set_ta_time>
     e4a:	60f8      	str	r0, [r7, #12]
/home/test/devel/optee/optee_os/lib/libutee/tee_api.c:297
     e4c:	68fb      	ldr	r3, [r7, #12]
     e4e:	2b00      	cmp	r3, #0
     e50:	d010      	beq.n	e74 <TEE_SetTAPersistentTime+0x3a>
/home/test/devel/optee/optee_os/lib/libutee/tee_api.c:297 (discriminator 1)
     e52:	68fa      	ldr	r2, [r7, #12]
     e54:	f04f 030c 	mov.w	r3, #12
     e58:	f6cf 73ff 	movt	r3, #65535	; 0xffff
     e5c:	429a      	cmp	r2, r3
     e5e:	d009      	beq.n	e74 <TEE_SetTAPersistentTime+0x3a>
/home/test/devel/optee/optee_os/lib/libutee/tee_api.c:298
     e60:	68fa      	ldr	r2, [r7, #12]
     e62:	f243 0341 	movw	r3, #12353	; 0x3041
     e66:	f6cf 73ff 	movt	r3, #65535	; 0xffff
     e6a:	429a      	cmp	r2, r3
     e6c:	d002      	beq.n	e74 <TEE_SetTAPersistentTime+0x3a>
/home/test/devel/optee/optee_os/lib/libutee/tee_api.c:300
     e6e:	68f8      	ldr	r0, [r7, #12]
     e70:	f009 ff60 	bl	ad34 <TEE_Panic>
/home/test/devel/optee/optee_os/lib/libutee/tee_api.c:302
     e74:	68fb      	ldr	r3, [r7, #12]
/home/test/devel/optee/optee_os/lib/libutee/tee_api.c:303
     e76:	4618      	mov	r0, r3
     e78:	f107 0710 	add.w	r7, r7, #16
     e7c:	46bd      	mov	sp, r7
     e7e:	bd80      	pop	{r7, pc}

00000e80 <TEE_GetREETime>:
TEE_GetREETime():
/home/test/devel/optee/optee_os/lib/libutee/tee_api.c:306
     e80:	e96d 7e02 	strd	r7, lr, [sp, #-8]!
     e84:	b084      	sub	sp, #16
     e86:	af00      	add	r7, sp, #0
     e88:	6078      	str	r0, [r7, #4]
/home/test/devel/optee/optee_os/lib/libutee/tee_api.c:307
     e8a:	6879      	ldr	r1, [r7, #4]
     e8c:	f04f 0002 	mov.w	r0, #2
     e90:	f003 e8a8 	blx	3fe4 <utee_get_time>
     e94:	60f8      	str	r0, [r7, #12]
/home/test/devel/optee/optee_os/lib/libutee/tee_api.c:309
     e96:	68fb      	ldr	r3, [r7, #12]
     e98:	2b00      	cmp	r3, #0
     e9a:	d002      	beq.n	ea2 <TEE_GetREETime+0x22>
/home/test/devel/optee/optee_os/lib/libutee/tee_api.c:310
     e9c:	68f8      	ldr	r0, [r7, #12]
     e9e:	f009 ff49 	bl	ad34 <TEE_Panic>
/home/test/devel/optee/optee_os/lib/libutee/tee_api.c:311
     ea2:	bf00      	nop
     ea4:	f107 0710 	add.w	r7, r7, #16
     ea8:	46bd      	mov	sp, r7
     eaa:	bd80      	pop	{r7, pc}

00000eac <TEE_Malloc>:
TEE_Malloc():
/home/test/devel/optee/optee_os/lib/libutee/tee_api.c:314
     eac:	e96d 7e02 	strd	r7, lr, [sp, #-8]!
     eb0:	b082      	sub	sp, #8
     eb2:	af00      	add	r7, sp, #0
     eb4:	6078      	str	r0, [r7, #4]
     eb6:	6039      	str	r1, [r7, #0]
/home/test/devel/optee/optee_os/lib/libutee/tee_api.c:315
     eb8:	6839      	ldr	r1, [r7, #0]
     eba:	6878      	ldr	r0, [r7, #4]
     ebc:	f003 fcb4 	bl	4828 <tee_user_mem_alloc>
     ec0:	4603      	mov	r3, r0
/home/test/devel/optee/optee_os/lib/libutee/tee_api.c:316
     ec2:	4618      	mov	r0, r3
     ec4:	f107 0708 	add.w	r7, r7, #8
     ec8:	46bd      	mov	sp, r7
     eca:	bd80      	pop	{r7, pc}

00000ecc <TEE_Realloc>:
TEE_Realloc():
/home/test/devel/optee/optee_os/lib/libutee/tee_api.c:319
     ecc:	e96d 7e02 	strd	r7, lr, [sp, #-8]!
     ed0:	b082      	sub	sp, #8
     ed2:	af00      	add	r7, sp, #0
     ed4:	6078      	str	r0, [r7, #4]
     ed6:	6039      	str	r1, [r7, #0]
/home/test/devel/optee/optee_os/lib/libutee/tee_api.c:324
     ed8:	6839      	ldr	r1, [r7, #0]
     eda:	6878      	ldr	r0, [r7, #4]
     edc:	f003 fd48 	bl	4970 <tee_user_mem_realloc>
     ee0:	4603      	mov	r3, r0
/home/test/devel/optee/optee_os/lib/libutee/tee_api.c:325
     ee2:	4618      	mov	r0, r3
     ee4:	f107 0708 	add.w	r7, r7, #8
     ee8:	46bd      	mov	sp, r7
     eea:	bd80      	pop	{r7, pc}

00000eec <TEE_Free>:
TEE_Free():
/home/test/devel/optee/optee_os/lib/libutee/tee_api.c:328
     eec:	e96d 7e02 	strd	r7, lr, [sp, #-8]!
     ef0:	b082      	sub	sp, #8
     ef2:	af00      	add	r7, sp, #0
     ef4:	6078      	str	r0, [r7, #4]
/home/test/devel/optee/optee_os/lib/libutee/tee_api.c:329
     ef6:	6878      	ldr	r0, [r7, #4]
     ef8:	f003 fd90 	bl	4a1c <tee_user_mem_free>
/home/test/devel/optee/optee_os/lib/libutee/tee_api.c:330
     efc:	bf00      	nop
     efe:	f107 0708 	add.w	r7, r7, #8
     f02:	46bd      	mov	sp, r7
     f04:	bd80      	pop	{r7, pc}

00000f06 <TEE_CacheClean>:
TEE_CacheClean():
/home/test/devel/optee/optee_os/lib/libutee/tee_api.c:334
     f06:	e96d 7e02 	strd	r7, lr, [sp, #-8]!
     f0a:	b082      	sub	sp, #8
     f0c:	af00      	add	r7, sp, #0
     f0e:	6078      	str	r0, [r7, #4]
     f10:	6039      	str	r1, [r7, #0]
/home/test/devel/optee/optee_os/lib/libutee/tee_api.c:335
     f12:	f04f 0200 	mov.w	r2, #0
     f16:	6839      	ldr	r1, [r7, #0]
     f18:	6878      	ldr	r0, [r7, #4]
     f1a:	f003 eaba 	blx	4490 <utee_cache_operation>
     f1e:	4603      	mov	r3, r0
/home/test/devel/optee/optee_os/lib/libutee/tee_api.c:336
     f20:	4618      	mov	r0, r3
     f22:	f107 0708 	add.w	r7, r7, #8
     f26:	46bd      	mov	sp, r7
     f28:	bd80      	pop	{r7, pc}

00000f2a <TEE_CacheFlush>:
TEE_CacheFlush():
/home/test/devel/optee/optee_os/lib/libutee/tee_api.c:338
     f2a:	e96d 7e02 	strd	r7, lr, [sp, #-8]!
     f2e:	b082      	sub	sp, #8
     f30:	af00      	add	r7, sp, #0
     f32:	6078      	str	r0, [r7, #4]
     f34:	6039      	str	r1, [r7, #0]
/home/test/devel/optee/optee_os/lib/libutee/tee_api.c:339
     f36:	f04f 0201 	mov.w	r2, #1
     f3a:	6839      	ldr	r1, [r7, #0]
     f3c:	6878      	ldr	r0, [r7, #4]
     f3e:	f003 eaa8 	blx	4490 <utee_cache_operation>
     f42:	4603      	mov	r3, r0
/home/test/devel/optee/optee_os/lib/libutee/tee_api.c:340
     f44:	4618      	mov	r0, r3
     f46:	f107 0708 	add.w	r7, r7, #8
     f4a:	46bd      	mov	sp, r7
     f4c:	bd80      	pop	{r7, pc}

00000f4e <TEE_CacheInvalidate>:
TEE_CacheInvalidate():
/home/test/devel/optee/optee_os/lib/libutee/tee_api.c:343
     f4e:	e96d 7e02 	strd	r7, lr, [sp, #-8]!
     f52:	b082      	sub	sp, #8
     f54:	af00      	add	r7, sp, #0
     f56:	6078      	str	r0, [r7, #4]
     f58:	6039      	str	r1, [r7, #0]
/home/test/devel/optee/optee_os/lib/libutee/tee_api.c:344
     f5a:	f04f 0202 	mov.w	r2, #2
     f5e:	6839      	ldr	r1, [r7, #0]
     f60:	6878      	ldr	r0, [r7, #4]
     f62:	f003 ea96 	blx	4490 <utee_cache_operation>
     f66:	4603      	mov	r3, r0
/home/test/devel/optee/optee_os/lib/libutee/tee_api.c:345
     f68:	4618      	mov	r0, r3
     f6a:	f107 0708 	add.w	r7, r7, #8
     f6e:	46bd      	mov	sp, r7
     f70:	bd80      	pop	{r7, pc}
     f72:	bf00      	nop

00000f74 <TEE_AllocateOperation>:
TEE_AllocateOperation():
/home/test/devel/optee/optee_os/lib/libutee/tee_api_operations.c:60
     f74:	e96d 7e02 	strd	r7, lr, [sp, #-8]!
     f78:	b090      	sub	sp, #64	; 0x40
     f7a:	af02      	add	r7, sp, #8
     f7c:	60f8      	str	r0, [r7, #12]
     f7e:	60b9      	str	r1, [r7, #8]
     f80:	607a      	str	r2, [r7, #4]
     f82:	603b      	str	r3, [r7, #0]
/home/test/devel/optee/optee_os/lib/libutee/tee_api_operations.c:62
     f84:	f04f 0300 	mov.w	r3, #0
     f88:	61bb      	str	r3, [r7, #24]
/home/test/devel/optee/optee_os/lib/libutee/tee_api_operations.c:63
     f8a:	f04f 0300 	mov.w	r3, #0
     f8e:	633b      	str	r3, [r7, #48]	; 0x30
/home/test/devel/optee/optee_os/lib/libutee/tee_api_operations.c:64
     f90:	f04f 0301 	mov.w	r3, #1
     f94:	62fb      	str	r3, [r7, #44]	; 0x2c
/home/test/devel/optee/optee_os/lib/libutee/tee_api_operations.c:66
     f96:	f04f 0300 	mov.w	r3, #0
     f9a:	f887 3027 	strb.w	r3, [r7, #39]	; 0x27
/home/test/devel/optee/optee_os/lib/libutee/tee_api_operations.c:67
     f9e:	f04f 0300 	mov.w	r3, #0
     fa2:	f887 3026 	strb.w	r3, [r7, #38]	; 0x26
/home/test/devel/optee/optee_os/lib/libutee/tee_api_operations.c:69
     fa6:	68fb      	ldr	r3, [r7, #12]
     fa8:	2b00      	cmp	r3, #0
     faa:	d103      	bne.n	fb4 <TEE_AllocateOperation+0x40>
/home/test/devel/optee/optee_os/lib/libutee/tee_api_operations.c:70
     fac:	f04f 0000 	mov.w	r0, #0
     fb0:	f009 fec0 	bl	ad34 <TEE_Panic>
/home/test/devel/optee/optee_os/lib/libutee/tee_api_operations.c:72
     fb4:	68ba      	ldr	r2, [r7, #8]
     fb6:	f44f 6382 	mov.w	r3, #1040	; 0x410
     fba:	f2c1 0300 	movt	r3, #4096	; 0x1000
     fbe:	429a      	cmp	r2, r3
     fc0:	d102      	bne.n	fc8 <TEE_AllocateOperation+0x54>
/home/test/devel/optee/optee_os/lib/libutee/tee_api_operations.c:73
     fc2:	f44f 2300 	mov.w	r3, #524288	; 0x80000
     fc6:	633b      	str	r3, [r7, #48]	; 0x30
/home/test/devel/optee/optee_os/lib/libutee/tee_api_operations.c:76
     fc8:	68bb      	ldr	r3, [r7, #8]
     fca:	f244 1231 	movw	r2, #16689	; 0x4131
     fce:	f2c7 0200 	movt	r2, #28672	; 0x7000
     fd2:	4293      	cmp	r3, r2
     fd4:	f000 8084 	beq.w	10e0 <TEE_AllocateOperation+0x16c>
     fd8:	f244 1231 	movw	r2, #16689	; 0x4131
     fdc:	f2c7 0200 	movt	r2, #28672	; 0x7000
     fe0:	4293      	cmp	r3, r2
     fe2:	d82b      	bhi.n	103c <TEE_AllocateOperation+0xc8>
     fe4:	f242 1231 	movw	r2, #8497	; 0x2131
     fe8:	f2c7 0200 	movt	r2, #28672	; 0x7000
     fec:	4293      	cmp	r3, r2
     fee:	d051      	beq.n	1094 <TEE_AllocateOperation+0x120>
     ff0:	f242 1231 	movw	r2, #8497	; 0x2131
     ff4:	f2c7 0200 	movt	r2, #28672	; 0x7000
     ff8:	4293      	cmp	r3, r2
     ffa:	d80c      	bhi.n	1016 <TEE_AllocateOperation+0xa2>
     ffc:	f241 0241 	movw	r2, #4161	; 0x1041
    1000:	f2c7 0200 	movt	r2, #28672	; 0x7000
    1004:	4293      	cmp	r3, r2
    1006:	d078      	beq.n	10fa <TEE_AllocateOperation+0x186>
    1008:	f242 0241 	movw	r2, #8257	; 0x2041
    100c:	f2c7 0200 	movt	r2, #28672	; 0x7000
    1010:	4293      	cmp	r3, r2
    1012:	d07a      	beq.n	110a <TEE_AllocateOperation+0x196>
/home/test/devel/optee/optee_os/lib/libutee/tee_api_operations.c:127
    1014:	e0ac      	b.n	1170 <TEE_AllocateOperation+0x1fc>
/home/test/devel/optee/optee_os/lib/libutee/tee_api_operations.c:76
    1016:	f243 1231 	movw	r2, #12593	; 0x3131
    101a:	f2c7 0200 	movt	r2, #28672	; 0x7000
    101e:	4293      	cmp	r3, r2
    1020:	d055      	beq.n	10ce <TEE_AllocateOperation+0x15a>
    1022:	f244 0241 	movw	r2, #16449	; 0x4041
    1026:	f2c7 0200 	movt	r2, #28672	; 0x7000
    102a:	4293      	cmp	r3, r2
    102c:	d07e      	beq.n	112c <TEE_AllocateOperation+0x1b8>
    102e:	f243 0241 	movw	r2, #12353	; 0x3041
    1032:	f2c7 0200 	movt	r2, #28672	; 0x7000
    1036:	4293      	cmp	r3, r2
    1038:	d06f      	beq.n	111a <TEE_AllocateOperation+0x1a6>
/home/test/devel/optee/optee_os/lib/libutee/tee_api_operations.c:127
    103a:	e099      	b.n	1170 <TEE_AllocateOperation+0x1fc>
/home/test/devel/optee/optee_os/lib/libutee/tee_api_operations.c:76
    103c:	f242 0242 	movw	r2, #8258	; 0x2042
    1040:	f2c8 0200 	movt	r2, #32768	; 0x8000
    1044:	4293      	cmp	r3, r2
    1046:	d060      	beq.n	110a <TEE_AllocateOperation+0x196>
    1048:	f242 0242 	movw	r2, #8258	; 0x2042
    104c:	f2c8 0200 	movt	r2, #32768	; 0x8000
    1050:	4293      	cmp	r3, r2
    1052:	d80c      	bhi.n	106e <TEE_AllocateOperation+0xfa>
    1054:	f245 0241 	movw	r2, #20545	; 0x5041
    1058:	f2c7 0200 	movt	r2, #28672	; 0x7000
    105c:	4293      	cmp	r3, r2
    105e:	d06e      	beq.n	113e <TEE_AllocateOperation+0x1ca>
    1060:	f241 0242 	movw	r2, #4162	; 0x1042
    1064:	f2c8 0200 	movt	r2, #32768	; 0x8000
    1068:	4293      	cmp	r3, r2
    106a:	d046      	beq.n	10fa <TEE_AllocateOperation+0x186>
/home/test/devel/optee/optee_os/lib/libutee/tee_api_operations.c:127
    106c:	e080      	b.n	1170 <TEE_AllocateOperation+0x1fc>
/home/test/devel/optee/optee_os/lib/libutee/tee_api_operations.c:76
    106e:	f244 0242 	movw	r2, #16450	; 0x4042
    1072:	f2c8 0200 	movt	r2, #32768	; 0x8000
    1076:	4293      	cmp	r3, r2
    1078:	d058      	beq.n	112c <TEE_AllocateOperation+0x1b8>
    107a:	f245 0242 	movw	r2, #20546	; 0x5042
    107e:	f2c8 0200 	movt	r2, #32768	; 0x8000
    1082:	4293      	cmp	r3, r2
    1084:	d05b      	beq.n	113e <TEE_AllocateOperation+0x1ca>
    1086:	f243 0242 	movw	r2, #12354	; 0x3042
    108a:	f2c8 0200 	movt	r2, #32768	; 0x8000
    108e:	4293      	cmp	r3, r2
    1090:	d043      	beq.n	111a <TEE_AllocateOperation+0x1a6>
/home/test/devel/optee/optee_os/lib/libutee/tee_api_operations.c:127
    1092:	e06d      	b.n	1170 <TEE_AllocateOperation+0x1fc>
/home/test/devel/optee/optee_os/lib/libutee/tee_api_operations.c:78
    1094:	683b      	ldr	r3, [r7, #0]
    1096:	f5b3 7f00 	cmp.w	r3, #512	; 0x200
    109a:	d205      	bcs.n	10a8 <TEE_AllocateOperation+0x134>
/home/test/devel/optee/optee_os/lib/libutee/tee_api_operations.c:79
    109c:	f04f 030a 	mov.w	r3, #10
    10a0:	f6cf 73ff 	movt	r3, #65535	; 0xffff
    10a4:	f000 bc01 	b.w	18aa <TEE_AllocateOperation+0x936>
/home/test/devel/optee/optee_os/lib/libutee/tee_api_operations.c:80
    10a8:	683b      	ldr	r3, [r7, #0]
    10aa:	f5b3 6f80 	cmp.w	r3, #1024	; 0x400
    10ae:	d904      	bls.n	10ba <TEE_AllocateOperation+0x146>
/home/test/devel/optee/optee_os/lib/libutee/tee_api_operations.c:81
    10b0:	f04f 030a 	mov.w	r3, #10
    10b4:	f6cf 73ff 	movt	r3, #65535	; 0xffff
    10b8:	e3f7      	b.n	18aa <TEE_AllocateOperation+0x936>
/home/test/devel/optee/optee_os/lib/libutee/tee_api_operations.c:82
    10ba:	683b      	ldr	r3, [r7, #0]
    10bc:	f003 033f 	and.w	r3, r3, #63	; 0x3f
    10c0:	2b00      	cmp	r3, #0
    10c2:	d046      	beq.n	1152 <TEE_AllocateOperation+0x1de>
/home/test/devel/optee/optee_os/lib/libutee/tee_api_operations.c:83
    10c4:	f04f 030a 	mov.w	r3, #10
    10c8:	f6cf 73ff 	movt	r3, #65535	; 0xffff
    10cc:	e3ed      	b.n	18aa <TEE_AllocateOperation+0x936>
/home/test/devel/optee/optee_os/lib/libutee/tee_api_operations.c:87
    10ce:	683b      	ldr	r3, [r7, #0]
    10d0:	f5b3 6f00 	cmp.w	r3, #2048	; 0x800
    10d4:	d03f      	beq.n	1156 <TEE_AllocateOperation+0x1e2>
/home/test/devel/optee/optee_os/lib/libutee/tee_api_operations.c:88
    10d6:	f04f 030a 	mov.w	r3, #10
    10da:	f6cf 73ff 	movt	r3, #65535	; 0xffff
    10de:	e3e4      	b.n	18aa <TEE_AllocateOperation+0x936>
/home/test/devel/optee/optee_os/lib/libutee/tee_api_operations.c:92
    10e0:	683b      	ldr	r3, [r7, #0]
    10e2:	f5b3 6f00 	cmp.w	r3, #2048	; 0x800
    10e6:	d038      	beq.n	115a <TEE_AllocateOperation+0x1e6>
/home/test/devel/optee/optee_os/lib/libutee/tee_api_operations.c:92 (discriminator 1)
    10e8:	683b      	ldr	r3, [r7, #0]
    10ea:	f5b3 6f40 	cmp.w	r3, #3072	; 0xc00
    10ee:	d034      	beq.n	115a <TEE_AllocateOperation+0x1e6>
/home/test/devel/optee/optee_os/lib/libutee/tee_api_operations.c:93
    10f0:	f04f 030a 	mov.w	r3, #10
    10f4:	f6cf 73ff 	movt	r3, #65535	; 0xffff
    10f8:	e3d7      	b.n	18aa <TEE_AllocateOperation+0x936>
/home/test/devel/optee/optee_os/lib/libutee/tee_api_operations.c:98
    10fa:	683b      	ldr	r3, [r7, #0]
    10fc:	2bc0      	cmp	r3, #192	; 0xc0
    10fe:	d02e      	beq.n	115e <TEE_AllocateOperation+0x1ea>
/home/test/devel/optee/optee_os/lib/libutee/tee_api_operations.c:99
    1100:	f04f 030a 	mov.w	r3, #10
    1104:	f6cf 73ff 	movt	r3, #65535	; 0xffff
    1108:	e3cf      	b.n	18aa <TEE_AllocateOperation+0x936>
/home/test/devel/optee/optee_os/lib/libutee/tee_api_operations.c:104
    110a:	683b      	ldr	r3, [r7, #0]
    110c:	2be0      	cmp	r3, #224	; 0xe0
    110e:	d028      	beq.n	1162 <TEE_AllocateOperation+0x1ee>
/home/test/devel/optee/optee_os/lib/libutee/tee_api_operations.c:105
    1110:	f04f 030a 	mov.w	r3, #10
    1114:	f6cf 73ff 	movt	r3, #65535	; 0xffff
    1118:	e3c7      	b.n	18aa <TEE_AllocateOperation+0x936>
/home/test/devel/optee/optee_os/lib/libutee/tee_api_operations.c:110
    111a:	683b      	ldr	r3, [r7, #0]
    111c:	f5b3 7f80 	cmp.w	r3, #256	; 0x100
    1120:	d021      	beq.n	1166 <TEE_AllocateOperation+0x1f2>
/home/test/devel/optee/optee_os/lib/libutee/tee_api_operations.c:111
    1122:	f04f 030a 	mov.w	r3, #10
    1126:	f6cf 73ff 	movt	r3, #65535	; 0xffff
    112a:	e3be      	b.n	18aa <TEE_AllocateOperation+0x936>
/home/test/devel/optee/optee_os/lib/libutee/tee_api_operations.c:116
    112c:	683b      	ldr	r3, [r7, #0]
    112e:	f5b3 7fc0 	cmp.w	r3, #384	; 0x180
    1132:	d01a      	beq.n	116a <TEE_AllocateOperation+0x1f6>
/home/test/devel/optee/optee_os/lib/libutee/tee_api_operations.c:117
    1134:	f04f 030a 	mov.w	r3, #10
    1138:	f6cf 73ff 	movt	r3, #65535	; 0xffff
    113c:	e3b5      	b.n	18aa <TEE_AllocateOperation+0x936>
/home/test/devel/optee/optee_os/lib/libutee/tee_api_operations.c:122
    113e:	683b      	ldr	r3, [r7, #0]
    1140:	f240 2209 	movw	r2, #521	; 0x209
    1144:	4293      	cmp	r3, r2
    1146:	d012      	beq.n	116e <TEE_AllocateOperation+0x1fa>
/home/test/devel/optee/optee_os/lib/libutee/tee_api_operations.c:123
    1148:	f04f 030a 	mov.w	r3, #10
    114c:	f6cf 73ff 	movt	r3, #65535	; 0xffff
    1150:	e3ab      	b.n	18aa <TEE_AllocateOperation+0x936>
/home/test/devel/optee/optee_os/lib/libutee/tee_api_operations.c:84
    1152:	bf00      	nop
    1154:	e00c      	b.n	1170 <TEE_AllocateOperation+0x1fc>
/home/test/devel/optee/optee_os/lib/libutee/tee_api_operations.c:89
    1156:	bf00      	nop
    1158:	e00a      	b.n	1170 <TEE_AllocateOperation+0x1fc>
/home/test/devel/optee/optee_os/lib/libutee/tee_api_operations.c:94
    115a:	bf00      	nop
    115c:	e008      	b.n	1170 <TEE_AllocateOperation+0x1fc>
/home/test/devel/optee/optee_os/lib/libutee/tee_api_operations.c:100
    115e:	bf00      	nop
    1160:	e006      	b.n	1170 <TEE_AllocateOperation+0x1fc>
/home/test/devel/optee/optee_os/lib/libutee/tee_api_operations.c:106
    1162:	bf00      	nop
    1164:	e004      	b.n	1170 <TEE_AllocateOperation+0x1fc>
/home/test/devel/optee/optee_os/lib/libutee/tee_api_operations.c:112
    1166:	bf00      	nop
    1168:	e002      	b.n	1170 <TEE_AllocateOperation+0x1fc>
/home/test/devel/optee/optee_os/lib/libutee/tee_api_operations.c:118
    116a:	bf00      	nop
    116c:	e000      	b.n	1170 <TEE_AllocateOperation+0x1fc>
/home/test/devel/optee/optee_os/lib/libutee/tee_api_operations.c:124
    116e:	bf00      	nop
/home/test/devel/optee/optee_os/lib/libutee/tee_api_operations.c:131
    1170:	68bb      	ldr	r3, [r7, #8]
    1172:	f242 1231 	movw	r2, #8497	; 0x2131
    1176:	f2c7 0200 	movt	r2, #28672	; 0x7000
    117a:	4293      	cmp	r3, r2
    117c:	f000 822c 	beq.w	15d8 <TEE_AllocateOperation+0x664>
    1180:	f242 1231 	movw	r2, #8497	; 0x2131
    1184:	f2c7 0200 	movt	r2, #28672	; 0x7000
    1188:	4293      	cmp	r3, r2
    118a:	f200 80fe 	bhi.w	138a <TEE_AllocateOperation+0x416>
    118e:	f240 5211 	movw	r2, #1297	; 0x511
    1192:	f2c3 0200 	movt	r2, #12288	; 0x3000
    1196:	4293      	cmp	r3, r2
    1198:	d86d      	bhi.n	1276 <TEE_AllocateOperation+0x302>
    119a:	f44f 62a2 	mov.w	r2, #1296	; 0x510
    119e:	f2c3 0200 	movt	r2, #12288	; 0x3000
    11a2:	4293      	cmp	r3, r2
    11a4:	f080 827d 	bcs.w	16a2 <TEE_AllocateOperation+0x72e>
    11a8:	f44f 7204 	mov.w	r2, #528	; 0x210
    11ac:	f2c1 0200 	movt	r2, #4096	; 0x1000
    11b0:	4293      	cmp	r3, r2
    11b2:	f000 81fe 	beq.w	15b2 <TEE_AllocateOperation+0x63e>
    11b6:	f44f 7204 	mov.w	r2, #528	; 0x210
    11ba:	f2c1 0200 	movt	r2, #4096	; 0x1000
    11be:	4293      	cmp	r3, r2
    11c0:	d82a      	bhi.n	1218 <TEE_AllocateOperation+0x2a4>
    11c2:	f04f 0213 	mov.w	r2, #19
    11c6:	f2c1 0200 	movt	r2, #4096	; 0x1000
    11ca:	4293      	cmp	r3, r2
    11cc:	f000 81e6 	beq.w	159c <TEE_AllocateOperation+0x628>
    11d0:	f04f 0213 	mov.w	r2, #19
    11d4:	f2c1 0200 	movt	r2, #4096	; 0x1000
    11d8:	4293      	cmp	r3, r2
    11da:	d807      	bhi.n	11ec <TEE_AllocateOperation+0x278>
    11dc:	f103 4370 	add.w	r3, r3, #4026531840	; 0xf0000000
    11e0:	f1a3 0310 	sub.w	r3, r3, #16
    11e4:	2b01      	cmp	r3, #1
    11e6:	f200 8268 	bhi.w	16ba <TEE_AllocateOperation+0x746>
    11ea:	e1d7      	b.n	159c <TEE_AllocateOperation+0x628>
    11ec:	f44f 7288 	mov.w	r2, #272	; 0x110
    11f0:	f2c1 0200 	movt	r2, #4096	; 0x1000
    11f4:	4293      	cmp	r3, r2
    11f6:	f0c0 8260 	bcc.w	16ba <TEE_AllocateOperation+0x746>
    11fa:	f240 1211 	movw	r2, #273	; 0x111
    11fe:	f2c1 0200 	movt	r2, #4096	; 0x1000
    1202:	4293      	cmp	r3, r2
    1204:	f240 81ca 	bls.w	159c <TEE_AllocateOperation+0x628>
    1208:	f240 1213 	movw	r2, #275	; 0x113
    120c:	f2c1 0200 	movt	r2, #4096	; 0x1000
    1210:	4293      	cmp	r3, r2
    1212:	f000 81c3 	beq.w	159c <TEE_AllocateOperation+0x628>
    1216:	e250      	b.n	16ba <TEE_AllocateOperation+0x746>
    1218:	f04f 0206 	mov.w	r2, #6
    121c:	f2c3 0200 	movt	r2, #12288	; 0x3000
    1220:	4293      	cmp	r3, r2
    1222:	d812      	bhi.n	124a <TEE_AllocateOperation+0x2d6>
    1224:	f1b3 5f40 	cmp.w	r3, #805306368	; 0x30000000
    1228:	f200 823b 	bhi.w	16a2 <TEE_AllocateOperation+0x72e>
    122c:	f44f 7244 	mov.w	r2, #784	; 0x310
    1230:	f2c1 0200 	movt	r2, #4096	; 0x1000
    1234:	4293      	cmp	r3, r2
    1236:	f000 81ad 	beq.w	1594 <TEE_AllocateOperation+0x620>
    123a:	f44f 6282 	mov.w	r2, #1040	; 0x410
    123e:	f2c1 0200 	movt	r2, #4096	; 0x1000
    1242:	4293      	cmp	r3, r2
    1244:	f000 81a6 	beq.w	1594 <TEE_AllocateOperation+0x620>
    1248:	e237      	b.n	16ba <TEE_AllocateOperation+0x746>
    124a:	f44f 7288 	mov.w	r2, #272	; 0x110
    124e:	f2c3 0200 	movt	r2, #12288	; 0x3000
    1252:	4293      	cmp	r3, r2
    1254:	f0c0 8231 	bcc.w	16ba <TEE_AllocateOperation+0x746>
    1258:	f240 1211 	movw	r2, #273	; 0x111
    125c:	f2c3 0200 	movt	r2, #12288	; 0x3000
    1260:	4293      	cmp	r3, r2
    1262:	f240 821e 	bls.w	16a2 <TEE_AllocateOperation+0x72e>
    1266:	f240 1213 	movw	r2, #275	; 0x113
    126a:	f2c3 0200 	movt	r2, #12288	; 0x3000
    126e:	4293      	cmp	r3, r2
    1270:	f000 8217 	beq.w	16a2 <TEE_AllocateOperation+0x72e>
    1274:	e221      	b.n	16ba <TEE_AllocateOperation+0x746>
    1276:	f44f 7298 	mov.w	r2, #304	; 0x130
    127a:	f2c6 0200 	movt	r2, #24576	; 0x6000
    127e:	4293      	cmp	r3, r2
    1280:	f000 81c1 	beq.w	1606 <TEE_AllocateOperation+0x692>
    1284:	f44f 7298 	mov.w	r2, #304	; 0x130
    1288:	f2c6 0200 	movt	r2, #24576	; 0x6000
    128c:	4293      	cmp	r3, r2
    128e:	d835      	bhi.n	12fc <TEE_AllocateOperation+0x388>
    1290:	f44f 6201 	mov.w	r2, #2064	; 0x810
    1294:	f2c4 0200 	movt	r2, #16384	; 0x4000
    1298:	4293      	cmp	r3, r2
    129a:	f000 818a 	beq.w	15b2 <TEE_AllocateOperation+0x63e>
    129e:	f44f 6201 	mov.w	r2, #2064	; 0x810
    12a2:	f2c4 0200 	movt	r2, #16384	; 0x4000
    12a6:	4293      	cmp	r3, r2
    12a8:	d815      	bhi.n	12d6 <TEE_AllocateOperation+0x362>
    12aa:	f44f 62c2 	mov.w	r2, #1552	; 0x610
    12ae:	f2c3 0200 	movt	r2, #12288	; 0x3000
    12b2:	4293      	cmp	r3, r2
    12b4:	f000 81f5 	beq.w	16a2 <TEE_AllocateOperation+0x72e>
    12b8:	f44f 62e2 	mov.w	r2, #1808	; 0x710
    12bc:	f2c4 0200 	movt	r2, #16384	; 0x4000
    12c0:	4293      	cmp	r3, r2
    12c2:	f000 816b 	beq.w	159c <TEE_AllocateOperation+0x628>
    12c6:	f240 5213 	movw	r2, #1299	; 0x513
    12ca:	f2c3 0200 	movt	r2, #12288	; 0x3000
    12ce:	4293      	cmp	r3, r2
    12d0:	f000 81e7 	beq.w	16a2 <TEE_AllocateOperation+0x72e>
    12d4:	e1f1      	b.n	16ba <TEE_AllocateOperation+0x746>
    12d6:	f1b3 4fa0 	cmp.w	r3, #1342177280	; 0x50000000
    12da:	f240 81ee 	bls.w	16ba <TEE_AllocateOperation+0x746>
    12de:	f04f 0206 	mov.w	r2, #6
    12e2:	f2c5 0200 	movt	r2, #20480	; 0x5000
    12e6:	4293      	cmp	r3, r2
    12e8:	f240 81cb 	bls.w	1682 <TEE_AllocateOperation+0x70e>
    12ec:	f04f 0230 	mov.w	r2, #48	; 0x30
    12f0:	f2c6 0200 	movt	r2, #24576	; 0x6000
    12f4:	4293      	cmp	r3, r2
    12f6:	f000 819d 	beq.w	1634 <TEE_AllocateOperation+0x6c0>
    12fa:	e1de      	b.n	16ba <TEE_AllocateOperation+0x746>
    12fc:	f44f 720c 	mov.w	r2, #560	; 0x230
    1300:	f2c6 0251 	movt	r2, #24657	; 0x6051
    1304:	4293      	cmp	r3, r2
    1306:	f000 817e 	beq.w	1606 <TEE_AllocateOperation+0x692>
    130a:	f44f 720c 	mov.w	r2, #560	; 0x230
    130e:	f2c6 0251 	movt	r2, #24657	; 0x6051
    1312:	4293      	cmp	r3, r2
    1314:	d815      	bhi.n	1342 <TEE_AllocateOperation+0x3ce>
    1316:	f44f 720c 	mov.w	r2, #560	; 0x230
    131a:	f2c6 0231 	movt	r2, #24625	; 0x6031
    131e:	4293      	cmp	r3, r2
    1320:	f000 8171 	beq.w	1606 <TEE_AllocateOperation+0x692>
    1324:	f44f 720c 	mov.w	r2, #560	; 0x230
    1328:	f2c6 0241 	movt	r2, #24641	; 0x6041
    132c:	4293      	cmp	r3, r2
    132e:	f000 816a 	beq.w	1606 <TEE_AllocateOperation+0x692>
    1332:	f44f 720c 	mov.w	r2, #560	; 0x230
    1336:	f2c6 0221 	movt	r2, #24609	; 0x6021
    133a:	4293      	cmp	r3, r2
    133c:	f000 8163 	beq.w	1606 <TEE_AllocateOperation+0x692>
    1340:	e1bb      	b.n	16ba <TEE_AllocateOperation+0x746>
    1342:	f241 0241 	movw	r2, #4161	; 0x1041
    1346:	f2c7 0200 	movt	r2, #28672	; 0x7000
    134a:	4293      	cmp	r3, r2
    134c:	f000 8144 	beq.w	15d8 <TEE_AllocateOperation+0x664>
    1350:	f241 0241 	movw	r2, #4161	; 0x1041
    1354:	f2c7 0200 	movt	r2, #28672	; 0x7000
    1358:	4293      	cmp	r3, r2
    135a:	d807      	bhi.n	136c <TEE_AllocateOperation+0x3f8>
    135c:	f44f 720c 	mov.w	r2, #560	; 0x230
    1360:	f2c6 0261 	movt	r2, #24673	; 0x6061
    1364:	4293      	cmp	r3, r2
    1366:	f000 814e 	beq.w	1606 <TEE_AllocateOperation+0x692>
    136a:	e1a6      	b.n	16ba <TEE_AllocateOperation+0x746>
    136c:	f641 0230 	movw	r2, #6192	; 0x1830
    1370:	f2c7 0200 	movt	r2, #28672	; 0x7000
    1374:	4293      	cmp	r3, r2
    1376:	f000 812f 	beq.w	15d8 <TEE_AllocateOperation+0x664>
    137a:	f242 0241 	movw	r2, #8257	; 0x2041
    137e:	f2c7 0200 	movt	r2, #28672	; 0x7000
    1382:	4293      	cmp	r3, r2
    1384:	f000 8128 	beq.w	15d8 <TEE_AllocateOperation+0x664>
    1388:	e197      	b.n	16ba <TEE_AllocateOperation+0x746>
    138a:	f04f 0232 	mov.w	r2, #50	; 0x32
    138e:	f2c8 0200 	movt	r2, #32768	; 0x8000
    1392:	4293      	cmp	r3, r2
    1394:	f000 8165 	beq.w	1662 <TEE_AllocateOperation+0x6ee>
    1398:	f04f 0232 	mov.w	r2, #50	; 0x32
    139c:	f2c8 0200 	movt	r2, #32768	; 0x8000
    13a0:	4293      	cmp	r3, r2
    13a2:	d87e      	bhi.n	14a2 <TEE_AllocateOperation+0x52e>
    13a4:	f245 0241 	movw	r2, #20545	; 0x5041
    13a8:	f2c7 0200 	movt	r2, #28672	; 0x7000
    13ac:	4293      	cmp	r3, r2
    13ae:	f000 8113 	beq.w	15d8 <TEE_AllocateOperation+0x664>
    13b2:	f245 0241 	movw	r2, #20545	; 0x5041
    13b6:	f2c7 0200 	movt	r2, #28672	; 0x7000
    13ba:	4293      	cmp	r3, r2
    13bc:	d838      	bhi.n	1430 <TEE_AllocateOperation+0x4bc>
    13be:	f643 0230 	movw	r2, #14384	; 0x3830
    13c2:	f2c7 0200 	movt	r2, #28672	; 0x7000
    13c6:	4293      	cmp	r3, r2
    13c8:	f000 8106 	beq.w	15d8 <TEE_AllocateOperation+0x664>
    13cc:	f643 0230 	movw	r2, #14384	; 0x3830
    13d0:	f2c7 0200 	movt	r2, #28672	; 0x7000
    13d4:	4293      	cmp	r3, r2
    13d6:	d815      	bhi.n	1404 <TEE_AllocateOperation+0x490>
    13d8:	f243 0241 	movw	r2, #12353	; 0x3041
    13dc:	f2c7 0200 	movt	r2, #28672	; 0x7000
    13e0:	4293      	cmp	r3, r2
    13e2:	f000 80f9 	beq.w	15d8 <TEE_AllocateOperation+0x664>
    13e6:	f243 1231 	movw	r2, #12593	; 0x3131
    13ea:	f2c7 0200 	movt	r2, #28672	; 0x7000
    13ee:	4293      	cmp	r3, r2
    13f0:	f000 80f2 	beq.w	15d8 <TEE_AllocateOperation+0x664>
    13f4:	f642 0230 	movw	r2, #10288	; 0x2830
    13f8:	f2c7 0200 	movt	r2, #28672	; 0x7000
    13fc:	4293      	cmp	r3, r2
    13fe:	f000 80eb 	beq.w	15d8 <TEE_AllocateOperation+0x664>
    1402:	e15a      	b.n	16ba <TEE_AllocateOperation+0x746>
    1404:	f244 1231 	movw	r2, #16689	; 0x4131
    1408:	f2c7 0200 	movt	r2, #28672	; 0x7000
    140c:	4293      	cmp	r3, r2
    140e:	f000 80e3 	beq.w	15d8 <TEE_AllocateOperation+0x664>
    1412:	f644 0230 	movw	r2, #18480	; 0x4830
    1416:	f2c7 0200 	movt	r2, #28672	; 0x7000
    141a:	4293      	cmp	r3, r2
    141c:	f000 80dc 	beq.w	15d8 <TEE_AllocateOperation+0x664>
    1420:	f244 0241 	movw	r2, #16449	; 0x4041
    1424:	f2c7 0200 	movt	r2, #28672	; 0x7000
    1428:	4293      	cmp	r3, r2
    142a:	f000 80d5 	beq.w	15d8 <TEE_AllocateOperation+0x664>
    142e:	e144      	b.n	16ba <TEE_AllocateOperation+0x746>
    1430:	f643 1230 	movw	r2, #14640	; 0x3930
    1434:	f2c7 0231 	movt	r2, #28721	; 0x7031
    1438:	4293      	cmp	r3, r2
    143a:	f000 80cd 	beq.w	15d8 <TEE_AllocateOperation+0x664>
    143e:	f643 1230 	movw	r2, #14640	; 0x3930
    1442:	f2c7 0231 	movt	r2, #28721	; 0x7031
    1446:	4293      	cmp	r3, r2
    1448:	d815      	bhi.n	1476 <TEE_AllocateOperation+0x502>
    144a:	f646 0230 	movw	r2, #26672	; 0x6830
    144e:	f2c7 0200 	movt	r2, #28672	; 0x7000
    1452:	4293      	cmp	r3, r2
    1454:	f000 80c0 	beq.w	15d8 <TEE_AllocateOperation+0x664>
    1458:	f642 1230 	movw	r2, #10544	; 0x2930
    145c:	f2c7 0221 	movt	r2, #28705	; 0x7021
    1460:	4293      	cmp	r3, r2
    1462:	f000 80b9 	beq.w	15d8 <TEE_AllocateOperation+0x664>
    1466:	f645 0230 	movw	r2, #22576	; 0x5830
    146a:	f2c7 0200 	movt	r2, #28672	; 0x7000
    146e:	4293      	cmp	r3, r2
    1470:	f000 80b2 	beq.w	15d8 <TEE_AllocateOperation+0x664>
    1474:	e121      	b.n	16ba <TEE_AllocateOperation+0x746>
    1476:	f645 1230 	movw	r2, #22832	; 0x5930
    147a:	f2c7 0251 	movt	r2, #28753	; 0x7051
    147e:	4293      	cmp	r3, r2
    1480:	f000 80aa 	beq.w	15d8 <TEE_AllocateOperation+0x664>
    1484:	f646 1230 	movw	r2, #26928	; 0x6930
    1488:	f2c7 0261 	movt	r2, #28769	; 0x7061
    148c:	4293      	cmp	r3, r2
    148e:	f000 80a3 	beq.w	15d8 <TEE_AllocateOperation+0x664>
    1492:	f644 1230 	movw	r2, #18736	; 0x4930
    1496:	f2c7 0241 	movt	r2, #28737	; 0x7041
    149a:	4293      	cmp	r3, r2
    149c:	f000 809c 	beq.w	15d8 <TEE_AllocateOperation+0x664>
    14a0:	e10b      	b.n	16ba <TEE_AllocateOperation+0x746>
    14a2:	f243 02c1 	movw	r2, #12481	; 0x30c1
    14a6:	f2c8 0200 	movt	r2, #32768	; 0x8000
    14aa:	4293      	cmp	r3, r2
    14ac:	d838      	bhi.n	1520 <TEE_AllocateOperation+0x5ac>
    14ae:	f44f 5243 	mov.w	r2, #12480	; 0x30c0
    14b2:	f2c8 0200 	movt	r2, #32768	; 0x8000
    14b6:	4293      	cmp	r3, r2
    14b8:	f080 80d3 	bcs.w	1662 <TEE_AllocateOperation+0x6ee>
    14bc:	f242 0242 	movw	r2, #8258	; 0x2042
    14c0:	f2c8 0200 	movt	r2, #32768	; 0x8000
    14c4:	4293      	cmp	r3, r2
    14c6:	f000 80cc 	beq.w	1662 <TEE_AllocateOperation+0x6ee>
    14ca:	f242 0242 	movw	r2, #8258	; 0x2042
    14ce:	f2c8 0200 	movt	r2, #32768	; 0x8000
    14d2:	4293      	cmp	r3, r2
    14d4:	d80e      	bhi.n	14f4 <TEE_AllocateOperation+0x580>
    14d6:	f241 0242 	movw	r2, #4162	; 0x1042
    14da:	f2c8 0200 	movt	r2, #32768	; 0x8000
    14de:	4293      	cmp	r3, r2
    14e0:	f000 80bf 	beq.w	1662 <TEE_AllocateOperation+0x6ee>
    14e4:	f44f 5286 	mov.w	r2, #4288	; 0x10c0
    14e8:	f2c8 0200 	movt	r2, #32768	; 0x8000
    14ec:	4293      	cmp	r3, r2
    14ee:	f000 80b8 	beq.w	1662 <TEE_AllocateOperation+0x6ee>
    14f2:	e0e2      	b.n	16ba <TEE_AllocateOperation+0x746>
    14f4:	f44f 5203 	mov.w	r2, #8384	; 0x20c0
    14f8:	f2c8 0200 	movt	r2, #32768	; 0x8000
    14fc:	4293      	cmp	r3, r2
    14fe:	f0c0 80dc 	bcc.w	16ba <TEE_AllocateOperation+0x746>
    1502:	f242 02c2 	movw	r2, #8386	; 0x20c2
    1506:	f2c8 0200 	movt	r2, #32768	; 0x8000
    150a:	4293      	cmp	r3, r2
    150c:	f240 80a9 	bls.w	1662 <TEE_AllocateOperation+0x6ee>
    1510:	f243 0242 	movw	r2, #12354	; 0x3042
    1514:	f2c8 0200 	movt	r2, #32768	; 0x8000
    1518:	4293      	cmp	r3, r2
    151a:	f000 80a2 	beq.w	1662 <TEE_AllocateOperation+0x6ee>
    151e:	e0cc      	b.n	16ba <TEE_AllocateOperation+0x746>
    1520:	f245 0242 	movw	r2, #20546	; 0x5042
    1524:	f2c8 0200 	movt	r2, #32768	; 0x8000
    1528:	4293      	cmp	r3, r2
    152a:	f000 809a 	beq.w	1662 <TEE_AllocateOperation+0x6ee>
    152e:	f245 0242 	movw	r2, #20546	; 0x5042
    1532:	f2c8 0200 	movt	r2, #32768	; 0x8000
    1536:	4293      	cmp	r3, r2
    1538:	d816      	bhi.n	1568 <TEE_AllocateOperation+0x5f4>
    153a:	f244 0242 	movw	r2, #16450	; 0x4042
    153e:	f2c8 0200 	movt	r2, #32768	; 0x8000
    1542:	4293      	cmp	r3, r2
    1544:	f000 808d 	beq.w	1662 <TEE_AllocateOperation+0x6ee>
    1548:	f244 0242 	movw	r2, #16450	; 0x4042
    154c:	f2c8 0200 	movt	r2, #32768	; 0x8000
    1550:	4293      	cmp	r3, r2
    1552:	f0c0 80b2 	bcc.w	16ba <TEE_AllocateOperation+0x746>
    1556:	f64b 7240 	movw	r2, #48960	; 0xbf40
    155a:	f6c7 72ff 	movt	r2, #32767	; 0x7fff
    155e:	441a      	add	r2, r3
    1560:	2a01      	cmp	r2, #1
    1562:	f200 80aa 	bhi.w	16ba <TEE_AllocateOperation+0x746>
    1566:	e07c      	b.n	1662 <TEE_AllocateOperation+0x6ee>
    1568:	f245 02c0 	movw	r2, #20672	; 0x50c0
    156c:	f2c8 0200 	movt	r2, #32768	; 0x8000
    1570:	4293      	cmp	r3, r2
    1572:	f0c0 80a2 	bcc.w	16ba <TEE_AllocateOperation+0x746>
    1576:	f245 02c1 	movw	r2, #20673	; 0x50c1
    157a:	f2c8 0200 	movt	r2, #32768	; 0x8000
    157e:	4293      	cmp	r3, r2
    1580:	d96f      	bls.n	1662 <TEE_AllocateOperation+0x6ee>
    1582:	f649 7240 	movw	r2, #40768	; 0x9f40
    1586:	f6c7 72ff 	movt	r2, #32767	; 0x7fff
    158a:	441a      	add	r2, r3
    158c:	2a01      	cmp	r2, #1
    158e:	f200 8094 	bhi.w	16ba <TEE_AllocateOperation+0x746>
    1592:	e066      	b.n	1662 <TEE_AllocateOperation+0x6ee>
/home/test/devel/optee/optee_os/lib/libutee/tee_api_operations.c:134
    1594:	f04f 0301 	mov.w	r3, #1
    1598:	f887 3026 	strb.w	r3, [r7, #38]	; 0x26
/home/test/devel/optee/optee_os/lib/libutee/tee_api_operations.c:143
    159c:	68bb      	ldr	r3, [r7, #8]
    159e:	b2db      	uxtb	r3, r3
    15a0:	2b10      	cmp	r3, #16
    15a2:	d103      	bne.n	15ac <TEE_AllocateOperation+0x638>
/home/test/devel/optee/optee_os/lib/libutee/tee_api_operations.c:144
    15a4:	f04f 0310 	mov.w	r3, #16
    15a8:	62fb      	str	r3, [r7, #44]	; 0x2c
    15aa:	e002      	b.n	15b2 <TEE_AllocateOperation+0x63e>
/home/test/devel/optee/optee_os/lib/libutee/tee_api_operations.c:146
    15ac:	f04f 0308 	mov.w	r3, #8
    15b0:	62fb      	str	r3, [r7, #44]	; 0x2c
/home/test/devel/optee/optee_os/lib/libutee/tee_api_operations.c:150
    15b2:	687b      	ldr	r3, [r7, #4]
    15b4:	2b00      	cmp	r3, #0
    15b6:	d103      	bne.n	15c0 <TEE_AllocateOperation+0x64c>
/home/test/devel/optee/optee_os/lib/libutee/tee_api_operations.c:151
    15b8:	f04f 0302 	mov.w	r3, #2
    15bc:	62bb      	str	r3, [r7, #40]	; 0x28
/home/test/devel/optee/optee_os/lib/libutee/tee_api_operations.c:156
    15be:	e081      	b.n	16c4 <TEE_AllocateOperation+0x750>
/home/test/devel/optee/optee_os/lib/libutee/tee_api_operations.c:152
    15c0:	687b      	ldr	r3, [r7, #4]
    15c2:	2b01      	cmp	r3, #1
    15c4:	d103      	bne.n	15ce <TEE_AllocateOperation+0x65a>
/home/test/devel/optee/optee_os/lib/libutee/tee_api_operations.c:153
    15c6:	f04f 0304 	mov.w	r3, #4
    15ca:	62bb      	str	r3, [r7, #40]	; 0x28
/home/test/devel/optee/optee_os/lib/libutee/tee_api_operations.c:156
    15cc:	e07a      	b.n	16c4 <TEE_AllocateOperation+0x750>
/home/test/devel/optee/optee_os/lib/libutee/tee_api_operations.c:155
    15ce:	f04f 030a 	mov.w	r3, #10
    15d2:	f6cf 73ff 	movt	r3, #65535	; 0xffff
    15d6:	e168      	b.n	18aa <TEE_AllocateOperation+0x936>
/home/test/devel/optee/optee_os/lib/libutee/tee_api_operations.c:177
    15d8:	687b      	ldr	r3, [r7, #4]
    15da:	2b02      	cmp	r3, #2
    15dc:	d107      	bne.n	15ee <TEE_AllocateOperation+0x67a>
/home/test/devel/optee/optee_os/lib/libutee/tee_api_operations.c:178
    15de:	f04f 0301 	mov.w	r3, #1
    15e2:	f887 3027 	strb.w	r3, [r7, #39]	; 0x27
/home/test/devel/optee/optee_os/lib/libutee/tee_api_operations.c:179
    15e6:	f04f 0310 	mov.w	r3, #16
    15ea:	62bb      	str	r3, [r7, #40]	; 0x28
/home/test/devel/optee/optee_os/lib/libutee/tee_api_operations.c:185
    15ec:	e06a      	b.n	16c4 <TEE_AllocateOperation+0x750>
/home/test/devel/optee/optee_os/lib/libutee/tee_api_operations.c:180
    15ee:	687b      	ldr	r3, [r7, #4]
    15f0:	2b03      	cmp	r3, #3
    15f2:	d103      	bne.n	15fc <TEE_AllocateOperation+0x688>
/home/test/devel/optee/optee_os/lib/libutee/tee_api_operations.c:181
    15f4:	f04f 0320 	mov.w	r3, #32
    15f8:	62bb      	str	r3, [r7, #40]	; 0x28
/home/test/devel/optee/optee_os/lib/libutee/tee_api_operations.c:185
    15fa:	e063      	b.n	16c4 <TEE_AllocateOperation+0x750>
/home/test/devel/optee/optee_os/lib/libutee/tee_api_operations.c:183
    15fc:	f04f 030a 	mov.w	r3, #10
    1600:	f6cf 73ff 	movt	r3, #65535	; 0xffff
    1604:	e151      	b.n	18aa <TEE_AllocateOperation+0x936>
/home/test/devel/optee/optee_os/lib/libutee/tee_api_operations.c:193
    1606:	687b      	ldr	r3, [r7, #4]
    1608:	2b00      	cmp	r3, #0
    160a:	d103      	bne.n	1614 <TEE_AllocateOperation+0x6a0>
/home/test/devel/optee/optee_os/lib/libutee/tee_api_operations.c:194
    160c:	f04f 0302 	mov.w	r3, #2
    1610:	62bb      	str	r3, [r7, #40]	; 0x28
/home/test/devel/optee/optee_os/lib/libutee/tee_api_operations.c:201
    1612:	e057      	b.n	16c4 <TEE_AllocateOperation+0x750>
/home/test/devel/optee/optee_os/lib/libutee/tee_api_operations.c:195
    1614:	687b      	ldr	r3, [r7, #4]
    1616:	2b01      	cmp	r3, #1
    1618:	d107      	bne.n	162a <TEE_AllocateOperation+0x6b6>
/home/test/devel/optee/optee_os/lib/libutee/tee_api_operations.c:196
    161a:	f04f 0301 	mov.w	r3, #1
    161e:	f887 3027 	strb.w	r3, [r7, #39]	; 0x27
/home/test/devel/optee/optee_os/lib/libutee/tee_api_operations.c:197
    1622:	f04f 0304 	mov.w	r3, #4
    1626:	62bb      	str	r3, [r7, #40]	; 0x28
/home/test/devel/optee/optee_os/lib/libutee/tee_api_operations.c:201
    1628:	e04c      	b.n	16c4 <TEE_AllocateOperation+0x750>
/home/test/devel/optee/optee_os/lib/libutee/tee_api_operations.c:199
    162a:	f04f 030a 	mov.w	r3, #10
    162e:	f6cf 73ff 	movt	r3, #65535	; 0xffff
    1632:	e13a      	b.n	18aa <TEE_AllocateOperation+0x936>
/home/test/devel/optee/optee_os/lib/libutee/tee_api_operations.c:204
    1634:	687b      	ldr	r3, [r7, #4]
    1636:	2b00      	cmp	r3, #0
    1638:	d103      	bne.n	1642 <TEE_AllocateOperation+0x6ce>
/home/test/devel/optee/optee_os/lib/libutee/tee_api_operations.c:205
    163a:	f04f 0322 	mov.w	r3, #34	; 0x22
    163e:	62bb      	str	r3, [r7, #40]	; 0x28
/home/test/devel/optee/optee_os/lib/libutee/tee_api_operations.c:212
    1640:	e040      	b.n	16c4 <TEE_AllocateOperation+0x750>
/home/test/devel/optee/optee_os/lib/libutee/tee_api_operations.c:206
    1642:	687b      	ldr	r3, [r7, #4]
    1644:	2b01      	cmp	r3, #1
    1646:	d107      	bne.n	1658 <TEE_AllocateOperation+0x6e4>
/home/test/devel/optee/optee_os/lib/libutee/tee_api_operations.c:207
    1648:	f04f 0301 	mov.w	r3, #1
    164c:	f887 3027 	strb.w	r3, [r7, #39]	; 0x27
/home/test/devel/optee/optee_os/lib/libutee/tee_api_operations.c:208
    1650:	f04f 0314 	mov.w	r3, #20
    1654:	62bb      	str	r3, [r7, #40]	; 0x28
/home/test/devel/optee/optee_os/lib/libutee/tee_api_operations.c:212
    1656:	e035      	b.n	16c4 <TEE_AllocateOperation+0x750>
/home/test/devel/optee/optee_os/lib/libutee/tee_api_operations.c:210
    1658:	f04f 030a 	mov.w	r3, #10
    165c:	f6cf 73ff 	movt	r3, #65535	; 0xffff
    1660:	e123      	b.n	18aa <TEE_AllocateOperation+0x936>
/home/test/devel/optee/optee_os/lib/libutee/tee_api_operations.c:232
    1662:	687b      	ldr	r3, [r7, #4]
    1664:	2b06      	cmp	r3, #6
    1666:	d004      	beq.n	1672 <TEE_AllocateOperation+0x6fe>
/home/test/devel/optee/optee_os/lib/libutee/tee_api_operations.c:233
    1668:	f04f 030a 	mov.w	r3, #10
    166c:	f6cf 73ff 	movt	r3, #65535	; 0xffff
    1670:	e11b      	b.n	18aa <TEE_AllocateOperation+0x936>
/home/test/devel/optee/optee_os/lib/libutee/tee_api_operations.c:234
    1672:	f04f 0301 	mov.w	r3, #1
    1676:	f887 3027 	strb.w	r3, [r7, #39]	; 0x27
/home/test/devel/optee/optee_os/lib/libutee/tee_api_operations.c:235
    167a:	f04f 0340 	mov.w	r3, #64	; 0x40
    167e:	62bb      	str	r3, [r7, #40]	; 0x28
/home/test/devel/optee/optee_os/lib/libutee/tee_api_operations.c:236
    1680:	e020      	b.n	16c4 <TEE_AllocateOperation+0x750>
/home/test/devel/optee/optee_os/lib/libutee/tee_api_operations.c:244
    1682:	687b      	ldr	r3, [r7, #4]
    1684:	2b05      	cmp	r3, #5
    1686:	d004      	beq.n	1692 <TEE_AllocateOperation+0x71e>
/home/test/devel/optee/optee_os/lib/libutee/tee_api_operations.c:245
    1688:	f04f 030a 	mov.w	r3, #10
    168c:	f6cf 73ff 	movt	r3, #65535	; 0xffff
    1690:	e10b      	b.n	18aa <TEE_AllocateOperation+0x936>
/home/test/devel/optee/optee_os/lib/libutee/tee_api_operations.c:247
    1692:	6b3b      	ldr	r3, [r7, #48]	; 0x30
    1694:	f443 2380 	orr.w	r3, r3, #262144	; 0x40000
    1698:	633b      	str	r3, [r7, #48]	; 0x30
/home/test/devel/optee/optee_os/lib/libutee/tee_api_operations.c:248
    169a:	f04f 0300 	mov.w	r3, #0
    169e:	62bb      	str	r3, [r7, #40]	; 0x28
/home/test/devel/optee/optee_os/lib/libutee/tee_api_operations.c:249
    16a0:	e010      	b.n	16c4 <TEE_AllocateOperation+0x750>
/home/test/devel/optee/optee_os/lib/libutee/tee_api_operations.c:264
    16a2:	687b      	ldr	r3, [r7, #4]
    16a4:	2b04      	cmp	r3, #4
    16a6:	d004      	beq.n	16b2 <TEE_AllocateOperation+0x73e>
/home/test/devel/optee/optee_os/lib/libutee/tee_api_operations.c:265
    16a8:	f04f 030a 	mov.w	r3, #10
    16ac:	f6cf 73ff 	movt	r3, #65535	; 0xffff
    16b0:	e0fb      	b.n	18aa <TEE_AllocateOperation+0x936>
/home/test/devel/optee/optee_os/lib/libutee/tee_api_operations.c:266
    16b2:	f04f 0308 	mov.w	r3, #8
    16b6:	62bb      	str	r3, [r7, #40]	; 0x28
/home/test/devel/optee/optee_os/lib/libutee/tee_api_operations.c:267
    16b8:	e004      	b.n	16c4 <TEE_AllocateOperation+0x750>
/home/test/devel/optee/optee_os/lib/libutee/tee_api_operations.c:270
    16ba:	f04f 030a 	mov.w	r3, #10
    16be:	f6cf 73ff 	movt	r3, #65535	; 0xffff
    16c2:	e0f2      	b.n	18aa <TEE_AllocateOperation+0x936>
/home/test/devel/optee/optee_os/lib/libutee/tee_api_operations.c:273
    16c4:	f04f 0100 	mov.w	r1, #0
    16c8:	f04f 0044 	mov.w	r0, #68	; 0x44
    16cc:	f7ff fbee 	bl	eac <TEE_Malloc>
    16d0:	61b8      	str	r0, [r7, #24]
/home/test/devel/optee/optee_os/lib/libutee/tee_api_operations.c:274
    16d2:	69bb      	ldr	r3, [r7, #24]
    16d4:	2b00      	cmp	r3, #0
    16d6:	d104      	bne.n	16e2 <TEE_AllocateOperation+0x76e>
/home/test/devel/optee/optee_os/lib/libutee/tee_api_operations.c:275
    16d8:	f04f 030c 	mov.w	r3, #12
    16dc:	f6cf 73ff 	movt	r3, #65535	; 0xffff
    16e0:	e0e3      	b.n	18aa <TEE_AllocateOperation+0x936>
/home/test/devel/optee/optee_os/lib/libutee/tee_api_operations.c:277
    16e2:	69bb      	ldr	r3, [r7, #24]
    16e4:	68ba      	ldr	r2, [r7, #8]
    16e6:	601a      	str	r2, [r3, #0]
/home/test/devel/optee/optee_os/lib/libutee/tee_api_operations.c:278
    16e8:	68bb      	ldr	r3, [r7, #8]
    16ea:	ea4f 7213 	mov.w	r2, r3, lsr #28
    16ee:	69bb      	ldr	r3, [r7, #24]
    16f0:	605a      	str	r2, [r3, #4]
/home/test/devel/optee/optee_os/lib/libutee/tee_api_operations.c:279
    16f2:	69bb      	ldr	r3, [r7, #24]
    16f4:	687a      	ldr	r2, [r7, #4]
    16f6:	609a      	str	r2, [r3, #8]
/home/test/devel/optee/optee_os/lib/libutee/tee_api_operations.c:280
    16f8:	69bb      	ldr	r3, [r7, #24]
    16fa:	683a      	ldr	r2, [r7, #0]
    16fc:	611a      	str	r2, [r3, #16]
/home/test/devel/optee/optee_os/lib/libutee/tee_api_operations.c:281
    16fe:	69bb      	ldr	r3, [r7, #24]
    1700:	6aba      	ldr	r2, [r7, #40]	; 0x28
    1702:	619a      	str	r2, [r3, #24]
/home/test/devel/optee/optee_os/lib/libutee/tee_api_operations.c:282
    1704:	69bb      	ldr	r3, [r7, #24]
    1706:	6b3a      	ldr	r2, [r7, #48]	; 0x30
    1708:	61da      	str	r2, [r3, #28]
/home/test/devel/optee/optee_os/lib/libutee/tee_api_operations.c:284
    170a:	6afb      	ldr	r3, [r7, #44]	; 0x2c
    170c:	2b01      	cmp	r3, #1
    170e:	d91b      	bls.n	1748 <TEE_AllocateOperation+0x7d4>
/home/test/devel/optee/optee_os/lib/libutee/tee_api_operations.c:285
    1710:	6afb      	ldr	r3, [r7, #44]	; 0x2c
    1712:	623b      	str	r3, [r7, #32]
/home/test/devel/optee/optee_os/lib/libutee/tee_api_operations.c:287
    1714:	f897 3026 	ldrb.w	r3, [r7, #38]	; 0x26
    1718:	2b00      	cmp	r3, #0
    171a:	d003      	beq.n	1724 <TEE_AllocateOperation+0x7b0>
/home/test/devel/optee/optee_os/lib/libutee/tee_api_operations.c:288
    171c:	6a3b      	ldr	r3, [r7, #32]
    171e:	ea4f 0343 	mov.w	r3, r3, lsl #1
    1722:	623b      	str	r3, [r7, #32]
/home/test/devel/optee/optee_os/lib/libutee/tee_api_operations.c:290
    1724:	f04f 4100 	mov.w	r1, #2147483648	; 0x80000000
    1728:	6a38      	ldr	r0, [r7, #32]
    172a:	f7ff fbbf 	bl	eac <TEE_Malloc>
    172e:	4602      	mov	r2, r0
    1730:	69bb      	ldr	r3, [r7, #24]
    1732:	62da      	str	r2, [r3, #44]	; 0x2c
/home/test/devel/optee/optee_os/lib/libutee/tee_api_operations.c:292
    1734:	69bb      	ldr	r3, [r7, #24]
    1736:	6adb      	ldr	r3, [r3, #44]	; 0x2c
    1738:	2b00      	cmp	r3, #0
    173a:	d105      	bne.n	1748 <TEE_AllocateOperation+0x7d4>
/home/test/devel/optee/optee_os/lib/libutee/tee_api_operations.c:293
    173c:	f04f 030c 	mov.w	r3, #12
    1740:	f6cf 73ff 	movt	r3, #65535	; 0xffff
    1744:	637b      	str	r3, [r7, #52]	; 0x34
/home/test/devel/optee/optee_os/lib/libutee/tee_api_operations.c:294
    1746:	e07e      	b.n	1846 <TEE_AllocateOperation+0x8d2>
/home/test/devel/optee/optee_os/lib/libutee/tee_api_operations.c:297
    1748:	69bb      	ldr	r3, [r7, #24]
    174a:	6afa      	ldr	r2, [r7, #44]	; 0x2c
    174c:	635a      	str	r2, [r3, #52]	; 0x34
/home/test/devel/optee/optee_os/lib/libutee/tee_api_operations.c:298
    174e:	69bb      	ldr	r3, [r7, #24]
    1750:	f897 2026 	ldrb.w	r2, [r7, #38]	; 0x26
    1754:	f883 2030 	strb.w	r2, [r3, #48]	; 0x30
/home/test/devel/optee/optee_os/lib/libutee/tee_api_operations.c:300
    1758:	68bb      	ldr	r3, [r7, #8]
    175a:	ea4f 7313 	mov.w	r3, r3, lsr #28
    175e:	2b05      	cmp	r3, #5
    1760:	d037      	beq.n	17d2 <TEE_AllocateOperation+0x85e>
/home/test/devel/optee/optee_os/lib/libutee/tee_api_operations.c:301
    1762:	683b      	ldr	r3, [r7, #0]
    1764:	61fb      	str	r3, [r7, #28]
/home/test/devel/optee/optee_os/lib/libutee/tee_api_operations.c:302
    1766:	68bb      	ldr	r3, [r7, #8]
    1768:	b2da      	uxtb	r2, r3
    176a:	f897 3027 	ldrb.w	r3, [r7, #39]	; 0x27
    176e:	2b00      	cmp	r3, #0
    1770:	d002      	beq.n	1778 <TEE_AllocateOperation+0x804>
/home/test/devel/optee/optee_os/lib/libutee/tee_api_operations.c:302 (discriminator 1)
    1772:	f04f 4321 	mov.w	r3, #2701131776	; 0xa1000000
    1776:	e001      	b.n	177c <TEE_AllocateOperation+0x808>
/home/test/devel/optee/optee_os/lib/libutee/tee_api_operations.c:302 (discriminator 2)
    1778:	f04f 4320 	mov.w	r3, #2684354560	; 0xa0000000
/home/test/devel/optee/optee_os/lib/libutee/tee_api_operations.c:302 (discriminator 4)
    177c:	ea43 0302 	orr.w	r3, r3, r2
    1780:	617b      	str	r3, [r7, #20]
/home/test/devel/optee/optee_os/lib/libutee/tee_api_operations.c:309 (discriminator 4)
    1782:	69bb      	ldr	r3, [r7, #24]
    1784:	69db      	ldr	r3, [r3, #28]
    1786:	f403 2300 	and.w	r3, r3, #524288	; 0x80000
    178a:	2b00      	cmp	r3, #0
    178c:	d003      	beq.n	1796 <TEE_AllocateOperation+0x822>
/home/test/devel/optee/optee_os/lib/libutee/tee_api_operations.c:310
    178e:	69fb      	ldr	r3, [r7, #28]
    1790:	ea4f 0353 	mov.w	r3, r3, lsr #1
    1794:	61fb      	str	r3, [r7, #28]
/home/test/devel/optee/optee_os/lib/libutee/tee_api_operations.c:312
    1796:	69bb      	ldr	r3, [r7, #24]
    1798:	f103 0320 	add.w	r3, r3, #32
    179c:	461a      	mov	r2, r3
    179e:	69f9      	ldr	r1, [r7, #28]
    17a0:	6978      	ldr	r0, [r7, #20]
    17a2:	f008 fcd8 	bl	a156 <TEE_AllocateTransientObject>
    17a6:	6378      	str	r0, [r7, #52]	; 0x34
/home/test/devel/optee/optee_os/lib/libutee/tee_api_operations.c:313
    17a8:	6b7b      	ldr	r3, [r7, #52]	; 0x34
    17aa:	2b00      	cmp	r3, #0
    17ac:	d144      	bne.n	1838 <TEE_AllocateOperation+0x8c4>
/home/test/devel/optee/optee_os/lib/libutee/tee_api_operations.c:316
    17ae:	69bb      	ldr	r3, [r7, #24]
    17b0:	69db      	ldr	r3, [r3, #28]
    17b2:	f403 2300 	and.w	r3, r3, #524288	; 0x80000
    17b6:	2b00      	cmp	r3, #0
    17b8:	d00b      	beq.n	17d2 <TEE_AllocateOperation+0x85e>
/home/test/devel/optee/optee_os/lib/libutee/tee_api_operations.c:317
    17ba:	69bb      	ldr	r3, [r7, #24]
    17bc:	f103 0324 	add.w	r3, r3, #36	; 0x24
    17c0:	461a      	mov	r2, r3
    17c2:	69f9      	ldr	r1, [r7, #28]
    17c4:	6978      	ldr	r0, [r7, #20]
    17c6:	f008 fcc6 	bl	a156 <TEE_AllocateTransientObject>
    17ca:	6378      	str	r0, [r7, #52]	; 0x34
/home/test/devel/optee/optee_os/lib/libutee/tee_api_operations.c:319
    17cc:	6b7b      	ldr	r3, [r7, #52]	; 0x34
    17ce:	2b00      	cmp	r3, #0
    17d0:	d134      	bne.n	183c <TEE_AllocateOperation+0x8c8>
/home/test/devel/optee/optee_os/lib/libutee/tee_api_operations.c:324
    17d2:	69bb      	ldr	r3, [r7, #24]
    17d4:	6a1b      	ldr	r3, [r3, #32]
    17d6:	461a      	mov	r2, r3
/home/test/devel/optee/optee_os/lib/libutee/tee_api_operations.c:325
    17d8:	69bb      	ldr	r3, [r7, #24]
    17da:	6a5b      	ldr	r3, [r3, #36]	; 0x24
/home/test/devel/optee/optee_os/lib/libutee/tee_api_operations.c:324
    17dc:	4619      	mov	r1, r3
    17de:	69bb      	ldr	r3, [r7, #24]
    17e0:	f103 033c 	add.w	r3, r3, #60	; 0x3c
    17e4:	9300      	str	r3, [sp, #0]
    17e6:	460b      	mov	r3, r1
    17e8:	6879      	ldr	r1, [r7, #4]
    17ea:	68b8      	ldr	r0, [r7, #8]
    17ec:	f002 ec0e 	blx	400c <utee_cryp_state_alloc>
    17f0:	6378      	str	r0, [r7, #52]	; 0x34
/home/test/devel/optee/optee_os/lib/libutee/tee_api_operations.c:326
    17f2:	6b7b      	ldr	r3, [r7, #52]	; 0x34
    17f4:	2b00      	cmp	r3, #0
    17f6:	d123      	bne.n	1840 <TEE_AllocateOperation+0x8cc>
/home/test/devel/optee/optee_os/lib/libutee/tee_api_operations.c:334
    17f8:	68bb      	ldr	r3, [r7, #8]
    17fa:	ea4f 7313 	mov.w	r3, r3, lsr #28
    17fe:	2b05      	cmp	r3, #5
    1800:	d112      	bne.n	1828 <TEE_AllocateOperation+0x8b4>
/home/test/devel/optee/optee_os/lib/libutee/tee_api_operations.c:335
    1802:	69bb      	ldr	r3, [r7, #24]
    1804:	6bdb      	ldr	r3, [r3, #60]	; 0x3c
    1806:	f04f 0200 	mov.w	r2, #0
    180a:	f04f 0100 	mov.w	r1, #0
    180e:	4618      	mov	r0, r3
    1810:	f002 ec1c 	blx	404c <utee_hash_init>
    1814:	6378      	str	r0, [r7, #52]	; 0x34
/home/test/devel/optee/optee_os/lib/libutee/tee_api_operations.c:336
    1816:	6b7b      	ldr	r3, [r7, #52]	; 0x34
    1818:	2b00      	cmp	r3, #0
    181a:	d113      	bne.n	1844 <TEE_AllocateOperation+0x8d0>
/home/test/devel/optee/optee_os/lib/libutee/tee_api_operations.c:339
    181c:	69bb      	ldr	r3, [r7, #24]
    181e:	69db      	ldr	r3, [r3, #28]
    1820:	f443 3200 	orr.w	r2, r3, #131072	; 0x20000
    1824:	69bb      	ldr	r3, [r7, #24]
    1826:	61da      	str	r2, [r3, #28]
/home/test/devel/optee/optee_os/lib/libutee/tee_api_operations.c:342
    1828:	69bb      	ldr	r3, [r7, #24]
    182a:	f04f 0200 	mov.w	r2, #0
    182e:	629a      	str	r2, [r3, #40]	; 0x28
/home/test/devel/optee/optee_os/lib/libutee/tee_api_operations.c:344
    1830:	68fb      	ldr	r3, [r7, #12]
    1832:	69ba      	ldr	r2, [r7, #24]
    1834:	601a      	str	r2, [r3, #0]
    1836:	e006      	b.n	1846 <TEE_AllocateOperation+0x8d2>
/home/test/devel/optee/optee_os/lib/libutee/tee_api_operations.c:314
    1838:	bf00      	nop
    183a:	e004      	b.n	1846 <TEE_AllocateOperation+0x8d2>
/home/test/devel/optee/optee_os/lib/libutee/tee_api_operations.c:320
    183c:	bf00      	nop
    183e:	e002      	b.n	1846 <TEE_AllocateOperation+0x8d2>
/home/test/devel/optee/optee_os/lib/libutee/tee_api_operations.c:327
    1840:	bf00      	nop
    1842:	e000      	b.n	1846 <TEE_AllocateOperation+0x8d2>
/home/test/devel/optee/optee_os/lib/libutee/tee_api_operations.c:337
    1844:	bf00      	nop
/home/test/devel/optee/optee_os/lib/libutee/tee_api_operations.c:347
    1846:	6b7b      	ldr	r3, [r7, #52]	; 0x34
    1848:	2b00      	cmp	r3, #0
    184a:	d02d      	beq.n	18a8 <TEE_AllocateOperation+0x934>
/home/test/devel/optee/optee_os/lib/libutee/tee_api_operations.c:348
    184c:	6b7a      	ldr	r2, [r7, #52]	; 0x34
    184e:	f04f 030c 	mov.w	r3, #12
    1852:	f6cf 73ff 	movt	r3, #65535	; 0xffff
    1856:	429a      	cmp	r2, r3
    1858:	d009      	beq.n	186e <TEE_AllocateOperation+0x8fa>
/home/test/devel/optee/optee_os/lib/libutee/tee_api_operations.c:348 (discriminator 1)
    185a:	6b7a      	ldr	r2, [r7, #52]	; 0x34
    185c:	f04f 030a 	mov.w	r3, #10
    1860:	f6cf 73ff 	movt	r3, #65535	; 0xffff
    1864:	429a      	cmp	r2, r3
    1866:	d002      	beq.n	186e <TEE_AllocateOperation+0x8fa>
/home/test/devel/optee/optee_os/lib/libutee/tee_api_operations.c:350
    1868:	6b78      	ldr	r0, [r7, #52]	; 0x34
    186a:	f009 fa63 	bl	ad34 <TEE_Panic>
/home/test/devel/optee/optee_os/lib/libutee/tee_api_operations.c:351
    186e:	69bb      	ldr	r3, [r7, #24]
    1870:	2b00      	cmp	r3, #0
    1872:	d019      	beq.n	18a8 <TEE_AllocateOperation+0x934>
/home/test/devel/optee/optee_os/lib/libutee/tee_api_operations.c:352
    1874:	69bb      	ldr	r3, [r7, #24]
    1876:	6bdb      	ldr	r3, [r3, #60]	; 0x3c
    1878:	2b00      	cmp	r3, #0
    187a:	d003      	beq.n	1884 <TEE_AllocateOperation+0x910>
/home/test/devel/optee/optee_os/lib/libutee/tee_api_operations.c:353
    187c:	69b8      	ldr	r0, [r7, #24]
    187e:	f000 f819 	bl	18b4 <TEE_FreeOperation>
    1882:	e011      	b.n	18a8 <TEE_AllocateOperation+0x934>
/home/test/devel/optee/optee_os/lib/libutee/tee_api_operations.c:355
    1884:	69bb      	ldr	r3, [r7, #24]
    1886:	6adb      	ldr	r3, [r3, #44]	; 0x2c
    1888:	4618      	mov	r0, r3
    188a:	f7ff fb2f 	bl	eec <TEE_Free>
/home/test/devel/optee/optee_os/lib/libutee/tee_api_operations.c:356
    188e:	69bb      	ldr	r3, [r7, #24]
    1890:	6a1b      	ldr	r3, [r3, #32]
    1892:	4618      	mov	r0, r3
    1894:	f008 fc8f 	bl	a1b6 <TEE_FreeTransientObject>
/home/test/devel/optee/optee_os/lib/libutee/tee_api_operations.c:357
    1898:	69bb      	ldr	r3, [r7, #24]
    189a:	6a5b      	ldr	r3, [r3, #36]	; 0x24
    189c:	4618      	mov	r0, r3
    189e:	f008 fc8a 	bl	a1b6 <TEE_FreeTransientObject>
/home/test/devel/optee/optee_os/lib/libutee/tee_api_operations.c:358
    18a2:	69b8      	ldr	r0, [r7, #24]
    18a4:	f7ff fb22 	bl	eec <TEE_Free>
/home/test/devel/optee/optee_os/lib/libutee/tee_api_operations.c:363
    18a8:	6b7b      	ldr	r3, [r7, #52]	; 0x34
/home/test/devel/optee/optee_os/lib/libutee/tee_api_operations.c:364
    18aa:	4618      	mov	r0, r3
    18ac:	f107 0738 	add.w	r7, r7, #56	; 0x38
    18b0:	46bd      	mov	sp, r7
    18b2:	bd80      	pop	{r7, pc}

000018b4 <TEE_FreeOperation>:
TEE_FreeOperation():
/home/test/devel/optee/optee_os/lib/libutee/tee_api_operations.c:367
    18b4:	e96d 7e02 	strd	r7, lr, [sp, #-8]!
    18b8:	b084      	sub	sp, #16
    18ba:	af00      	add	r7, sp, #0
    18bc:	6078      	str	r0, [r7, #4]
/home/test/devel/optee/optee_os/lib/libutee/tee_api_operations.c:370
    18be:	687b      	ldr	r3, [r7, #4]
    18c0:	2b00      	cmp	r3, #0
    18c2:	d103      	bne.n	18cc <TEE_FreeOperation+0x18>
/home/test/devel/optee/optee_os/lib/libutee/tee_api_operations.c:371
    18c4:	f04f 0000 	mov.w	r0, #0
    18c8:	f009 fa34 	bl	ad34 <TEE_Panic>
/home/test/devel/optee/optee_os/lib/libutee/tee_api_operations.c:378
    18cc:	687b      	ldr	r3, [r7, #4]
    18ce:	6bdb      	ldr	r3, [r3, #60]	; 0x3c
    18d0:	4618      	mov	r0, r3
    18d2:	f002 ebb2 	blx	4038 <utee_cryp_state_free>
    18d6:	60f8      	str	r0, [r7, #12]
/home/test/devel/optee/optee_os/lib/libutee/tee_api_operations.c:379
    18d8:	68fb      	ldr	r3, [r7, #12]
    18da:	2b00      	cmp	r3, #0
    18dc:	d002      	beq.n	18e4 <TEE_FreeOperation+0x30>
/home/test/devel/optee/optee_os/lib/libutee/tee_api_operations.c:380
    18de:	68f8      	ldr	r0, [r7, #12]
    18e0:	f009 fa28 	bl	ad34 <TEE_Panic>
/home/test/devel/optee/optee_os/lib/libutee/tee_api_operations.c:382
    18e4:	687b      	ldr	r3, [r7, #4]
    18e6:	6adb      	ldr	r3, [r3, #44]	; 0x2c
    18e8:	4618      	mov	r0, r3
    18ea:	f7ff faff 	bl	eec <TEE_Free>
/home/test/devel/optee/optee_os/lib/libutee/tee_api_operations.c:383
    18ee:	6878      	ldr	r0, [r7, #4]
    18f0:	f7ff fafc 	bl	eec <TEE_Free>
/home/test/devel/optee/optee_os/lib/libutee/tee_api_operations.c:384
    18f4:	bf00      	nop
    18f6:	f107 0710 	add.w	r7, r7, #16
    18fa:	46bd      	mov	sp, r7
    18fc:	bd80      	pop	{r7, pc}

000018fe <TEE_GetOperationInfo>:
TEE_GetOperationInfo():
/home/test/devel/optee/optee_os/lib/libutee/tee_api_operations.c:388
    18fe:	e96d 7e02 	strd	r7, lr, [sp, #-8]!
    1902:	b082      	sub	sp, #8
    1904:	af00      	add	r7, sp, #0
    1906:	6078      	str	r0, [r7, #4]
    1908:	6039      	str	r1, [r7, #0]
/home/test/devel/optee/optee_os/lib/libutee/tee_api_operations.c:389
    190a:	687b      	ldr	r3, [r7, #4]
    190c:	2b00      	cmp	r3, #0
    190e:	d103      	bne.n	1918 <TEE_GetOperationInfo+0x1a>
/home/test/devel/optee/optee_os/lib/libutee/tee_api_operations.c:390
    1910:	f04f 0000 	mov.w	r0, #0
    1914:	f009 fa0e 	bl	ad34 <TEE_Panic>
/home/test/devel/optee/optee_os/lib/libutee/tee_api_operations.c:392
    1918:	683b      	ldr	r3, [r7, #0]
    191a:	2b00      	cmp	r3, #0
    191c:	d103      	bne.n	1926 <TEE_GetOperationInfo+0x28>
/home/test/devel/optee/optee_os/lib/libutee/tee_api_operations.c:393
    191e:	f04f 0000 	mov.w	r0, #0
    1922:	f009 fa07 	bl	ad34 <TEE_Panic>
/home/test/devel/optee/optee_os/lib/libutee/tee_api_operations.c:395
    1926:	683b      	ldr	r3, [r7, #0]
    1928:	687a      	ldr	r2, [r7, #4]
    192a:	e9d2 0100 	ldrd	r0, r1, [r2]
    192e:	e9c3 0100 	strd	r0, r1, [r3]
    1932:	e9d2 0102 	ldrd	r0, r1, [r2, #8]
    1936:	e9c3 0102 	strd	r0, r1, [r3, #8]
    193a:	e9d2 0104 	ldrd	r0, r1, [r2, #16]
    193e:	e9c3 0104 	strd	r0, r1, [r3, #16]
    1942:	e9d2 1206 	ldrd	r1, r2, [r2, #24]
    1946:	e9c3 1206 	strd	r1, r2, [r3, #24]
/home/test/devel/optee/optee_os/lib/libutee/tee_api_operations.c:396
    194a:	bf00      	nop
    194c:	f107 0708 	add.w	r7, r7, #8
    1950:	46bd      	mov	sp, r7
    1952:	bd80      	pop	{r7, pc}

00001954 <TEE_GetOperationInfoMultiple>:
TEE_GetOperationInfoMultiple():
/home/test/devel/optee/optee_os/lib/libutee/tee_api_operations.c:401
    1954:	e96d 7e02 	strd	r7, lr, [sp, #-8]!
    1958:	b096      	sub	sp, #88	; 0x58
    195a:	af00      	add	r7, sp, #0
    195c:	60f8      	str	r0, [r7, #12]
    195e:	60b9      	str	r1, [r7, #8]
    1960:	607a      	str	r2, [r7, #4]
/home/test/devel/optee/optee_os/lib/libutee/tee_api_operations.c:402
    1962:	f04f 0300 	mov.w	r3, #0
    1966:	657b      	str	r3, [r7, #84]	; 0x54
/home/test/devel/optee/optee_os/lib/libutee/tee_api_operations.c:408
    1968:	68fb      	ldr	r3, [r7, #12]
    196a:	2b00      	cmp	r3, #0
    196c:	d105      	bne.n	197a <TEE_GetOperationInfoMultiple+0x26>
/home/test/devel/optee/optee_os/lib/libutee/tee_api_operations.c:409
    196e:	f04f 0306 	mov.w	r3, #6
    1972:	f6cf 73ff 	movt	r3, #65535	; 0xffff
    1976:	657b      	str	r3, [r7, #84]	; 0x54
/home/test/devel/optee/optee_os/lib/libutee/tee_api_operations.c:410
    1978:	e0a9      	b.n	1ace <TEE_GetOperationInfoMultiple+0x17a>
/home/test/devel/optee/optee_os/lib/libutee/tee_api_operations.c:413
    197a:	68bb      	ldr	r3, [r7, #8]
    197c:	2b00      	cmp	r3, #0
    197e:	d105      	bne.n	198c <TEE_GetOperationInfoMultiple+0x38>
/home/test/devel/optee/optee_os/lib/libutee/tee_api_operations.c:414
    1980:	f04f 0306 	mov.w	r3, #6
    1984:	f6cf 73ff 	movt	r3, #65535	; 0xffff
    1988:	657b      	str	r3, [r7, #84]	; 0x54
/home/test/devel/optee/optee_os/lib/libutee/tee_api_operations.c:415
    198a:	e0a0      	b.n	1ace <TEE_GetOperationInfoMultiple+0x17a>
/home/test/devel/optee/optee_os/lib/libutee/tee_api_operations.c:418
    198c:	687b      	ldr	r3, [r7, #4]
    198e:	2b00      	cmp	r3, #0
    1990:	d105      	bne.n	199e <TEE_GetOperationInfoMultiple+0x4a>
/home/test/devel/optee/optee_os/lib/libutee/tee_api_operations.c:419
    1992:	f04f 0306 	mov.w	r3, #6
    1996:	f6cf 73ff 	movt	r3, #65535	; 0xffff
    199a:	657b      	str	r3, [r7, #84]	; 0x54
/home/test/devel/optee/optee_os/lib/libutee/tee_api_operations.c:420
    199c:	e097      	b.n	1ace <TEE_GetOperationInfoMultiple+0x17a>
/home/test/devel/optee/optee_os/lib/libutee/tee_api_operations.c:423
    199e:	687b      	ldr	r3, [r7, #4]
    19a0:	681b      	ldr	r3, [r3, #0]
    19a2:	f1a3 0320 	sub.w	r3, r3, #32
    19a6:	ea4f 03d3 	mov.w	r3, r3, lsr #3
    19aa:	64fb      	str	r3, [r7, #76]	; 0x4c
/home/test/devel/optee/optee_os/lib/libutee/tee_api_operations.c:426
    19ac:	6cfb      	ldr	r3, [r7, #76]	; 0x4c
    19ae:	2b02      	cmp	r3, #2
    19b0:	d905      	bls.n	19be <TEE_GetOperationInfoMultiple+0x6a>
/home/test/devel/optee/optee_os/lib/libutee/tee_api_operations.c:427
    19b2:	f04f 0306 	mov.w	r3, #6
    19b6:	f6cf 73ff 	movt	r3, #65535	; 0xffff
    19ba:	657b      	str	r3, [r7, #84]	; 0x54
/home/test/devel/optee/optee_os/lib/libutee/tee_api_operations.c:428
    19bc:	e087      	b.n	1ace <TEE_GetOperationInfoMultiple+0x17a>
/home/test/devel/optee/optee_os/lib/libutee/tee_api_operations.c:432
    19be:	68fb      	ldr	r3, [r7, #12]
    19c0:	69db      	ldr	r3, [r3, #28]
    19c2:	f403 2300 	and.w	r3, r3, #524288	; 0x80000
    19c6:	2b00      	cmp	r3, #0
    19c8:	d008      	beq.n	19dc <TEE_GetOperationInfoMultiple+0x88>
/home/test/devel/optee/optee_os/lib/libutee/tee_api_operations.c:433
    19ca:	6cfb      	ldr	r3, [r7, #76]	; 0x4c
    19cc:	2b02      	cmp	r3, #2
    19ce:	d005      	beq.n	19dc <TEE_GetOperationInfoMultiple+0x88>
/home/test/devel/optee/optee_os/lib/libutee/tee_api_operations.c:435
    19d0:	f04f 0310 	mov.w	r3, #16
    19d4:	f6cf 73ff 	movt	r3, #65535	; 0xffff
    19d8:	657b      	str	r3, [r7, #84]	; 0x54
/home/test/devel/optee/optee_os/lib/libutee/tee_api_operations.c:436
    19da:	e078      	b.n	1ace <TEE_GetOperationInfoMultiple+0x17a>
/home/test/devel/optee/optee_os/lib/libutee/tee_api_operations.c:440
    19dc:	f04f 0300 	mov.w	r3, #0
    19e0:	653b      	str	r3, [r7, #80]	; 0x50
    19e2:	e015      	b.n	1a10 <TEE_GetOperationInfoMultiple+0xbc>
/home/test/devel/optee/optee_os/lib/libutee/tee_api_operations.c:441 (discriminator 3)
    19e4:	68bb      	ldr	r3, [r7, #8]
    19e6:	6d3a      	ldr	r2, [r7, #80]	; 0x50
    19e8:	f102 0204 	add.w	r2, r2, #4
    19ec:	f04f 0100 	mov.w	r1, #0
    19f0:	f843 1032 	str.w	r1, [r3, r2, lsl #3]
/home/test/devel/optee/optee_os/lib/libutee/tee_api_operations.c:442 (discriminator 3)
    19f4:	68ba      	ldr	r2, [r7, #8]
    19f6:	6d3b      	ldr	r3, [r7, #80]	; 0x50
    19f8:	f103 0304 	add.w	r3, r3, #4
    19fc:	ea4f 03c3 	mov.w	r3, r3, lsl #3
    1a00:	4413      	add	r3, r2
    1a02:	f04f 0200 	mov.w	r2, #0
    1a06:	605a      	str	r2, [r3, #4]
/home/test/devel/optee/optee_os/lib/libutee/tee_api_operations.c:440 (discriminator 3)
    1a08:	6d3b      	ldr	r3, [r7, #80]	; 0x50
    1a0a:	f103 0301 	add.w	r3, r3, #1
    1a0e:	653b      	str	r3, [r7, #80]	; 0x50
/home/test/devel/optee/optee_os/lib/libutee/tee_api_operations.c:440 (discriminator 1)
    1a10:	6d3a      	ldr	r2, [r7, #80]	; 0x50
    1a12:	6cfb      	ldr	r3, [r7, #76]	; 0x4c
    1a14:	429a      	cmp	r2, r3
    1a16:	d3e5      	bcc.n	19e4 <TEE_GetOperationInfoMultiple+0x90>
/home/test/devel/optee/optee_os/lib/libutee/tee_api_operations.c:445
    1a18:	6cfb      	ldr	r3, [r7, #76]	; 0x4c
    1a1a:	2b02      	cmp	r3, #2
    1a1c:	d112      	bne.n	1a44 <TEE_GetOperationInfoMultiple+0xf0>
/home/test/devel/optee/optee_os/lib/libutee/tee_api_operations.c:446
    1a1e:	68fb      	ldr	r3, [r7, #12]
    1a20:	6a5b      	ldr	r3, [r3, #36]	; 0x24
    1a22:	f107 0214 	add.w	r2, r7, #20
    1a26:	4611      	mov	r1, r2
    1a28:	4618      	mov	r0, r3
    1a2a:	f008 fa39 	bl	9ea0 <TEE_GetObjectInfo1>
    1a2e:	6578      	str	r0, [r7, #84]	; 0x54
/home/test/devel/optee/optee_os/lib/libutee/tee_api_operations.c:448
    1a30:	6d7b      	ldr	r3, [r7, #84]	; 0x54
    1a32:	2b00      	cmp	r3, #0
    1a34:	d148      	bne.n	1ac8 <TEE_GetOperationInfoMultiple+0x174>
/home/test/devel/optee/optee_os/lib/libutee/tee_api_operations.c:452
    1a36:	69ba      	ldr	r2, [r7, #24]
/home/test/devel/optee/optee_os/lib/libutee/tee_api_operations.c:451
    1a38:	68bb      	ldr	r3, [r7, #8]
    1a3a:	629a      	str	r2, [r3, #40]	; 0x28
/home/test/devel/optee/optee_os/lib/libutee/tee_api_operations.c:454
    1a3c:	68fb      	ldr	r3, [r7, #12]
    1a3e:	699a      	ldr	r2, [r3, #24]
/home/test/devel/optee/optee_os/lib/libutee/tee_api_operations.c:453
    1a40:	68bb      	ldr	r3, [r7, #8]
    1a42:	62da      	str	r2, [r3, #44]	; 0x2c
/home/test/devel/optee/optee_os/lib/libutee/tee_api_operations.c:457
    1a44:	6cfb      	ldr	r3, [r7, #76]	; 0x4c
    1a46:	2b00      	cmp	r3, #0
    1a48:	d01e      	beq.n	1a88 <TEE_GetOperationInfoMultiple+0x134>
/home/test/devel/optee/optee_os/lib/libutee/tee_api_operations.c:458
    1a4a:	68fb      	ldr	r3, [r7, #12]
    1a4c:	6a1b      	ldr	r3, [r3, #32]
    1a4e:	f107 0230 	add.w	r2, r7, #48	; 0x30
    1a52:	4611      	mov	r1, r2
    1a54:	4618      	mov	r0, r3
    1a56:	f008 fa23 	bl	9ea0 <TEE_GetObjectInfo1>
    1a5a:	6578      	str	r0, [r7, #84]	; 0x54
/home/test/devel/optee/optee_os/lib/libutee/tee_api_operations.c:460
    1a5c:	6d7b      	ldr	r3, [r7, #84]	; 0x54
    1a5e:	2b00      	cmp	r3, #0
    1a60:	d00b      	beq.n	1a7a <TEE_GetOperationInfoMultiple+0x126>
/home/test/devel/optee/optee_os/lib/libutee/tee_api_operations.c:461
    1a62:	6cfb      	ldr	r3, [r7, #76]	; 0x4c
    1a64:	2b02      	cmp	r3, #2
    1a66:	d131      	bne.n	1acc <TEE_GetOperationInfoMultiple+0x178>
/home/test/devel/optee/optee_os/lib/libutee/tee_api_operations.c:463
    1a68:	68bb      	ldr	r3, [r7, #8]
    1a6a:	f04f 0200 	mov.w	r2, #0
    1a6e:	629a      	str	r2, [r3, #40]	; 0x28
/home/test/devel/optee/optee_os/lib/libutee/tee_api_operations.c:465
    1a70:	68bb      	ldr	r3, [r7, #8]
    1a72:	f04f 0200 	mov.w	r2, #0
    1a76:	62da      	str	r2, [r3, #44]	; 0x2c
/home/test/devel/optee/optee_os/lib/libutee/tee_api_operations.c:467
    1a78:	e028      	b.n	1acc <TEE_GetOperationInfoMultiple+0x178>
/home/test/devel/optee/optee_os/lib/libutee/tee_api_operations.c:471
    1a7a:	6b7a      	ldr	r2, [r7, #52]	; 0x34
/home/test/devel/optee/optee_os/lib/libutee/tee_api_operations.c:470
    1a7c:	68bb      	ldr	r3, [r7, #8]
    1a7e:	621a      	str	r2, [r3, #32]
/home/test/devel/optee/optee_os/lib/libutee/tee_api_operations.c:473
    1a80:	68fb      	ldr	r3, [r7, #12]
    1a82:	699a      	ldr	r2, [r3, #24]
/home/test/devel/optee/optee_os/lib/libutee/tee_api_operations.c:472
    1a84:	68bb      	ldr	r3, [r7, #8]
    1a86:	625a      	str	r2, [r3, #36]	; 0x24
/home/test/devel/optee/optee_os/lib/libutee/tee_api_operations.c:477
    1a88:	68fb      	ldr	r3, [r7, #12]
    1a8a:	681a      	ldr	r2, [r3, #0]
    1a8c:	68bb      	ldr	r3, [r7, #8]
    1a8e:	601a      	str	r2, [r3, #0]
/home/test/devel/optee/optee_os/lib/libutee/tee_api_operations.c:478
    1a90:	68fb      	ldr	r3, [r7, #12]
    1a92:	685a      	ldr	r2, [r3, #4]
    1a94:	68bb      	ldr	r3, [r7, #8]
    1a96:	605a      	str	r2, [r3, #4]
/home/test/devel/optee/optee_os/lib/libutee/tee_api_operations.c:479
    1a98:	68fb      	ldr	r3, [r7, #12]
    1a9a:	689a      	ldr	r2, [r3, #8]
    1a9c:	68bb      	ldr	r3, [r7, #8]
    1a9e:	609a      	str	r2, [r3, #8]
/home/test/devel/optee/optee_os/lib/libutee/tee_api_operations.c:480
    1aa0:	68fb      	ldr	r3, [r7, #12]
    1aa2:	68da      	ldr	r2, [r3, #12]
    1aa4:	68bb      	ldr	r3, [r7, #8]
    1aa6:	60da      	str	r2, [r3, #12]
/home/test/devel/optee/optee_os/lib/libutee/tee_api_operations.c:481
    1aa8:	68fb      	ldr	r3, [r7, #12]
    1aaa:	691a      	ldr	r2, [r3, #16]
    1aac:	68bb      	ldr	r3, [r7, #8]
    1aae:	611a      	str	r2, [r3, #16]
/home/test/devel/optee/optee_os/lib/libutee/tee_api_operations.c:482
    1ab0:	68fb      	ldr	r3, [r7, #12]
    1ab2:	69da      	ldr	r2, [r3, #28]
    1ab4:	68bb      	ldr	r3, [r7, #8]
    1ab6:	615a      	str	r2, [r3, #20]
/home/test/devel/optee/optee_os/lib/libutee/tee_api_operations.c:483
    1ab8:	68fb      	ldr	r3, [r7, #12]
    1aba:	6a9a      	ldr	r2, [r3, #40]	; 0x28
    1abc:	68bb      	ldr	r3, [r7, #8]
    1abe:	619a      	str	r2, [r3, #24]
/home/test/devel/optee/optee_os/lib/libutee/tee_api_operations.c:484
    1ac0:	68bb      	ldr	r3, [r7, #8]
    1ac2:	6cfa      	ldr	r2, [r7, #76]	; 0x4c
    1ac4:	61da      	str	r2, [r3, #28]
    1ac6:	e002      	b.n	1ace <TEE_GetOperationInfoMultiple+0x17a>
/home/test/devel/optee/optee_os/lib/libutee/tee_api_operations.c:449
    1ac8:	bf00      	nop
    1aca:	e000      	b.n	1ace <TEE_GetOperationInfoMultiple+0x17a>
/home/test/devel/optee/optee_os/lib/libutee/tee_api_operations.c:467
    1acc:	bf00      	nop
/home/test/devel/optee/optee_os/lib/libutee/tee_api_operations.c:487
    1ace:	6d7b      	ldr	r3, [r7, #84]	; 0x54
    1ad0:	2b00      	cmp	r3, #0
    1ad2:	d009      	beq.n	1ae8 <TEE_GetOperationInfoMultiple+0x194>
/home/test/devel/optee/optee_os/lib/libutee/tee_api_operations.c:487 (discriminator 1)
    1ad4:	6d7a      	ldr	r2, [r7, #84]	; 0x54
    1ad6:	f04f 0310 	mov.w	r3, #16
    1ada:	f6cf 73ff 	movt	r3, #65535	; 0xffff
    1ade:	429a      	cmp	r2, r3
    1ae0:	d002      	beq.n	1ae8 <TEE_GetOperationInfoMultiple+0x194>
/home/test/devel/optee/optee_os/lib/libutee/tee_api_operations.c:489
    1ae2:	6d78      	ldr	r0, [r7, #84]	; 0x54
    1ae4:	f009 f926 	bl	ad34 <TEE_Panic>
/home/test/devel/optee/optee_os/lib/libutee/tee_api_operations.c:491
    1ae8:	6d7b      	ldr	r3, [r7, #84]	; 0x54
/home/test/devel/optee/optee_os/lib/libutee/tee_api_operations.c:492
    1aea:	4618      	mov	r0, r3
    1aec:	f107 0758 	add.w	r7, r7, #88	; 0x58
    1af0:	46bd      	mov	sp, r7
    1af2:	bd80      	pop	{r7, pc}

00001af4 <TEE_ResetOperation>:
TEE_ResetOperation():
/home/test/devel/optee/optee_os/lib/libutee/tee_api_operations.c:495
    1af4:	e96d 7e02 	strd	r7, lr, [sp, #-8]!
    1af8:	b084      	sub	sp, #16
    1afa:	af00      	add	r7, sp, #0
    1afc:	6078      	str	r0, [r7, #4]
/home/test/devel/optee/optee_os/lib/libutee/tee_api_operations.c:498
    1afe:	687b      	ldr	r3, [r7, #4]
    1b00:	2b00      	cmp	r3, #0
    1b02:	d103      	bne.n	1b0c <TEE_ResetOperation+0x18>
/home/test/devel/optee/optee_os/lib/libutee/tee_api_operations.c:499
    1b04:	f04f 0000 	mov.w	r0, #0
    1b08:	f009 f914 	bl	ad34 <TEE_Panic>
/home/test/devel/optee/optee_os/lib/libutee/tee_api_operations.c:501
    1b0c:	687b      	ldr	r3, [r7, #4]
    1b0e:	69db      	ldr	r3, [r3, #28]
    1b10:	f403 2380 	and.w	r3, r3, #262144	; 0x40000
    1b14:	2b00      	cmp	r3, #0
    1b16:	d103      	bne.n	1b20 <TEE_ResetOperation+0x2c>
/home/test/devel/optee/optee_os/lib/libutee/tee_api_operations.c:502
    1b18:	f04f 0000 	mov.w	r0, #0
    1b1c:	f009 f90a 	bl	ad34 <TEE_Panic>
/home/test/devel/optee/optee_os/lib/libutee/tee_api_operations.c:504
    1b20:	687b      	ldr	r3, [r7, #4]
    1b22:	f04f 0200 	mov.w	r2, #0
    1b26:	629a      	str	r2, [r3, #40]	; 0x28
/home/test/devel/optee/optee_os/lib/libutee/tee_api_operations.c:506
    1b28:	687b      	ldr	r3, [r7, #4]
    1b2a:	685b      	ldr	r3, [r3, #4]
    1b2c:	2b05      	cmp	r3, #5
    1b2e:	d116      	bne.n	1b5e <TEE_ResetOperation+0x6a>
/home/test/devel/optee/optee_os/lib/libutee/tee_api_operations.c:507
    1b30:	687b      	ldr	r3, [r7, #4]
    1b32:	6bdb      	ldr	r3, [r3, #60]	; 0x3c
    1b34:	f04f 0200 	mov.w	r2, #0
    1b38:	f04f 0100 	mov.w	r1, #0
    1b3c:	4618      	mov	r0, r3
    1b3e:	f002 ea86 	blx	404c <utee_hash_init>
    1b42:	60f8      	str	r0, [r7, #12]
/home/test/devel/optee/optee_os/lib/libutee/tee_api_operations.c:508
    1b44:	68fb      	ldr	r3, [r7, #12]
    1b46:	2b00      	cmp	r3, #0
    1b48:	d002      	beq.n	1b50 <TEE_ResetOperation+0x5c>
/home/test/devel/optee/optee_os/lib/libutee/tee_api_operations.c:509
    1b4a:	68f8      	ldr	r0, [r7, #12]
    1b4c:	f009 f8f2 	bl	ad34 <TEE_Panic>
/home/test/devel/optee/optee_os/lib/libutee/tee_api_operations.c:510
    1b50:	687b      	ldr	r3, [r7, #4]
    1b52:	69db      	ldr	r3, [r3, #28]
    1b54:	f443 3200 	orr.w	r2, r3, #131072	; 0x20000
    1b58:	687b      	ldr	r3, [r7, #4]
    1b5a:	61da      	str	r2, [r3, #28]
/home/test/devel/optee/optee_os/lib/libutee/tee_api_operations.c:514
    1b5c:	e005      	b.n	1b6a <TEE_ResetOperation+0x76>
/home/test/devel/optee/optee_os/lib/libutee/tee_api_operations.c:512
    1b5e:	687b      	ldr	r3, [r7, #4]
    1b60:	69db      	ldr	r3, [r3, #28]
    1b62:	f423 3200 	bic.w	r2, r3, #131072	; 0x20000
    1b66:	687b      	ldr	r3, [r7, #4]
    1b68:	61da      	str	r2, [r3, #28]
/home/test/devel/optee/optee_os/lib/libutee/tee_api_operations.c:514
    1b6a:	bf00      	nop
    1b6c:	f107 0710 	add.w	r7, r7, #16
    1b70:	46bd      	mov	sp, r7
    1b72:	bd80      	pop	{r7, pc}

00001b74 <TEE_SetOperationKey>:
TEE_SetOperationKey():
/home/test/devel/optee/optee_os/lib/libutee/tee_api_operations.c:518
    1b74:	e96d 7e02 	strd	r7, lr, [sp, #-8]!
    1b78:	b08c      	sub	sp, #48	; 0x30
    1b7a:	af00      	add	r7, sp, #0
    1b7c:	6078      	str	r0, [r7, #4]
    1b7e:	6039      	str	r1, [r7, #0]
/home/test/devel/optee/optee_os/lib/libutee/tee_api_operations.c:520
    1b80:	f04f 0300 	mov.w	r3, #0
    1b84:	62bb      	str	r3, [r7, #40]	; 0x28
/home/test/devel/optee/optee_os/lib/libutee/tee_api_operations.c:523
    1b86:	687b      	ldr	r3, [r7, #4]
    1b88:	2b00      	cmp	r3, #0
    1b8a:	d105      	bne.n	1b98 <TEE_SetOperationKey+0x24>
/home/test/devel/optee/optee_os/lib/libutee/tee_api_operations.c:524
    1b8c:	f04f 0306 	mov.w	r3, #6
    1b90:	f6cf 73ff 	movt	r3, #65535	; 0xffff
    1b94:	62fb      	str	r3, [r7, #44]	; 0x2c
/home/test/devel/optee/optee_os/lib/libutee/tee_api_operations.c:525
    1b96:	e075      	b.n	1c84 <TEE_SetOperationKey+0x110>
/home/test/devel/optee/optee_os/lib/libutee/tee_api_operations.c:528
    1b98:	687b      	ldr	r3, [r7, #4]
    1b9a:	6a9b      	ldr	r3, [r3, #40]	; 0x28
    1b9c:	2b00      	cmp	r3, #0
    1b9e:	d005      	beq.n	1bac <TEE_SetOperationKey+0x38>
/home/test/devel/optee/optee_os/lib/libutee/tee_api_operations.c:529
    1ba0:	f04f 0306 	mov.w	r3, #6
    1ba4:	f6cf 73ff 	movt	r3, #65535	; 0xffff
    1ba8:	62fb      	str	r3, [r7, #44]	; 0x2c
/home/test/devel/optee/optee_os/lib/libutee/tee_api_operations.c:530
    1baa:	e06b      	b.n	1c84 <TEE_SetOperationKey+0x110>
/home/test/devel/optee/optee_os/lib/libutee/tee_api_operations.c:533
    1bac:	683b      	ldr	r3, [r7, #0]
    1bae:	2b00      	cmp	r3, #0
    1bb0:	d10a      	bne.n	1bc8 <TEE_SetOperationKey+0x54>
/home/test/devel/optee/optee_os/lib/libutee/tee_api_operations.c:535
    1bb2:	687b      	ldr	r3, [r7, #4]
    1bb4:	6a1b      	ldr	r3, [r3, #32]
    1bb6:	4618      	mov	r0, r3
    1bb8:	f008 fb2d 	bl	a216 <TEE_ResetTransientObject>
/home/test/devel/optee/optee_os/lib/libutee/tee_api_operations.c:536
    1bbc:	f04f 0306 	mov.w	r3, #6
    1bc0:	f6cf 73ff 	movt	r3, #65535	; 0xffff
    1bc4:	62fb      	str	r3, [r7, #44]	; 0x2c
/home/test/devel/optee/optee_os/lib/libutee/tee_api_operations.c:537
    1bc6:	e05d      	b.n	1c84 <TEE_SetOperationKey+0x110>
/home/test/devel/optee/optee_os/lib/libutee/tee_api_operations.c:541
    1bc8:	687b      	ldr	r3, [r7, #4]
    1bca:	685b      	ldr	r3, [r3, #4]
    1bcc:	2b05      	cmp	r3, #5
    1bce:	d105      	bne.n	1bdc <TEE_SetOperationKey+0x68>
/home/test/devel/optee/optee_os/lib/libutee/tee_api_operations.c:542
    1bd0:	f04f 0306 	mov.w	r3, #6
    1bd4:	f6cf 73ff 	movt	r3, #65535	; 0xffff
    1bd8:	62fb      	str	r3, [r7, #44]	; 0x2c
/home/test/devel/optee/optee_os/lib/libutee/tee_api_operations.c:543
    1bda:	e053      	b.n	1c84 <TEE_SetOperationKey+0x110>
/home/test/devel/optee/optee_os/lib/libutee/tee_api_operations.c:547
    1bdc:	687b      	ldr	r3, [r7, #4]
    1bde:	69db      	ldr	r3, [r3, #28]
    1be0:	f403 2300 	and.w	r3, r3, #524288	; 0x80000
    1be4:	2b00      	cmp	r3, #0
    1be6:	d005      	beq.n	1bf4 <TEE_SetOperationKey+0x80>
/home/test/devel/optee/optee_os/lib/libutee/tee_api_operations.c:549
    1be8:	f04f 0306 	mov.w	r3, #6
    1bec:	f6cf 73ff 	movt	r3, #65535	; 0xffff
    1bf0:	62fb      	str	r3, [r7, #44]	; 0x2c
/home/test/devel/optee/optee_os/lib/libutee/tee_api_operations.c:550
    1bf2:	e047      	b.n	1c84 <TEE_SetOperationKey+0x110>
/home/test/devel/optee/optee_os/lib/libutee/tee_api_operations.c:553
    1bf4:	f107 030c 	add.w	r3, r7, #12
    1bf8:	4619      	mov	r1, r3
    1bfa:	6838      	ldr	r0, [r7, #0]
    1bfc:	f008 f950 	bl	9ea0 <TEE_GetObjectInfo1>
    1c00:	62f8      	str	r0, [r7, #44]	; 0x2c
/home/test/devel/optee/optee_os/lib/libutee/tee_api_operations.c:555
    1c02:	6afb      	ldr	r3, [r7, #44]	; 0x2c
    1c04:	2b00      	cmp	r3, #0
    1c06:	d13a      	bne.n	1c7e <TEE_SetOperationKey+0x10a>
/home/test/devel/optee/optee_os/lib/libutee/tee_api_operations.c:559
    1c08:	69ba      	ldr	r2, [r7, #24]
    1c0a:	687b      	ldr	r3, [r7, #4]
    1c0c:	699b      	ldr	r3, [r3, #24]
    1c0e:	ea02 0203 	and.w	r2, r2, r3
/home/test/devel/optee/optee_os/lib/libutee/tee_api_operations.c:560
    1c12:	687b      	ldr	r3, [r7, #4]
    1c14:	699b      	ldr	r3, [r3, #24]
/home/test/devel/optee/optee_os/lib/libutee/tee_api_operations.c:559
    1c16:	429a      	cmp	r2, r3
    1c18:	d005      	beq.n	1c26 <TEE_SetOperationKey+0xb2>
/home/test/devel/optee/optee_os/lib/libutee/tee_api_operations.c:561
    1c1a:	f04f 0306 	mov.w	r3, #6
    1c1e:	f6cf 73ff 	movt	r3, #65535	; 0xffff
    1c22:	62fb      	str	r3, [r7, #44]	; 0x2c
/home/test/devel/optee/optee_os/lib/libutee/tee_api_operations.c:562
    1c24:	e02e      	b.n	1c84 <TEE_SetOperationKey+0x110>
/home/test/devel/optee/optee_os/lib/libutee/tee_api_operations.c:565
    1c26:	687b      	ldr	r3, [r7, #4]
    1c28:	691a      	ldr	r2, [r3, #16]
    1c2a:	693b      	ldr	r3, [r7, #16]
    1c2c:	429a      	cmp	r2, r3
    1c2e:	d205      	bcs.n	1c3c <TEE_SetOperationKey+0xc8>
/home/test/devel/optee/optee_os/lib/libutee/tee_api_operations.c:566
    1c30:	f04f 0306 	mov.w	r3, #6
    1c34:	f6cf 73ff 	movt	r3, #65535	; 0xffff
    1c38:	62fb      	str	r3, [r7, #44]	; 0x2c
/home/test/devel/optee/optee_os/lib/libutee/tee_api_operations.c:567
    1c3a:	e023      	b.n	1c84 <TEE_SetOperationKey+0x110>
/home/test/devel/optee/optee_os/lib/libutee/tee_api_operations.c:570
    1c3c:	693b      	ldr	r3, [r7, #16]
    1c3e:	62bb      	str	r3, [r7, #40]	; 0x28
/home/test/devel/optee/optee_os/lib/libutee/tee_api_operations.c:572
    1c40:	687b      	ldr	r3, [r7, #4]
    1c42:	6a1b      	ldr	r3, [r3, #32]
    1c44:	4618      	mov	r0, r3
    1c46:	f008 fae6 	bl	a216 <TEE_ResetTransientObject>
/home/test/devel/optee/optee_os/lib/libutee/tee_api_operations.c:573
    1c4a:	687b      	ldr	r3, [r7, #4]
    1c4c:	69db      	ldr	r3, [r3, #28]
    1c4e:	f423 2280 	bic.w	r2, r3, #262144	; 0x40000
    1c52:	687b      	ldr	r3, [r7, #4]
    1c54:	61da      	str	r2, [r3, #28]
/home/test/devel/optee/optee_os/lib/libutee/tee_api_operations.c:575
    1c56:	687b      	ldr	r3, [r7, #4]
    1c58:	6a1b      	ldr	r3, [r3, #32]
    1c5a:	6839      	ldr	r1, [r7, #0]
    1c5c:	4618      	mov	r0, r3
    1c5e:	f008 fc13 	bl	a488 <TEE_CopyObjectAttributes1>
    1c62:	62f8      	str	r0, [r7, #44]	; 0x2c
/home/test/devel/optee/optee_os/lib/libutee/tee_api_operations.c:576
    1c64:	6afb      	ldr	r3, [r7, #44]	; 0x2c
    1c66:	2b00      	cmp	r3, #0
    1c68:	d10b      	bne.n	1c82 <TEE_SetOperationKey+0x10e>
/home/test/devel/optee/optee_os/lib/libutee/tee_api_operations.c:579
    1c6a:	687b      	ldr	r3, [r7, #4]
    1c6c:	69db      	ldr	r3, [r3, #28]
    1c6e:	f443 2280 	orr.w	r2, r3, #262144	; 0x40000
    1c72:	687b      	ldr	r3, [r7, #4]
    1c74:	61da      	str	r2, [r3, #28]
/home/test/devel/optee/optee_os/lib/libutee/tee_api_operations.c:581
    1c76:	687b      	ldr	r3, [r7, #4]
    1c78:	6aba      	ldr	r2, [r7, #40]	; 0x28
    1c7a:	615a      	str	r2, [r3, #20]
    1c7c:	e002      	b.n	1c84 <TEE_SetOperationKey+0x110>
/home/test/devel/optee/optee_os/lib/libutee/tee_api_operations.c:556
    1c7e:	bf00      	nop
    1c80:	e000      	b.n	1c84 <TEE_SetOperationKey+0x110>
/home/test/devel/optee/optee_os/lib/libutee/tee_api_operations.c:577
    1c82:	bf00      	nop
/home/test/devel/optee/optee_os/lib/libutee/tee_api_operations.c:584
    1c84:	6afb      	ldr	r3, [r7, #44]	; 0x2c
    1c86:	2b00      	cmp	r3, #0
    1c88:	d010      	beq.n	1cac <TEE_SetOperationKey+0x138>
/home/test/devel/optee/optee_os/lib/libutee/tee_api_operations.c:584 (discriminator 1)
    1c8a:	6afa      	ldr	r2, [r7, #44]	; 0x2c
    1c8c:	f04f 0301 	mov.w	r3, #1
    1c90:	f2cf 0310 	movt	r3, #61456	; 0xf010
    1c94:	429a      	cmp	r2, r3
    1c96:	d009      	beq.n	1cac <TEE_SetOperationKey+0x138>
/home/test/devel/optee/optee_os/lib/libutee/tee_api_operations.c:585
    1c98:	6afa      	ldr	r2, [r7, #44]	; 0x2c
    1c9a:	f04f 0303 	mov.w	r3, #3
    1c9e:	f2cf 0310 	movt	r3, #61456	; 0xf010
    1ca2:	429a      	cmp	r2, r3
    1ca4:	d002      	beq.n	1cac <TEE_SetOperationKey+0x138>
/home/test/devel/optee/optee_os/lib/libutee/tee_api_operations.c:587
    1ca6:	6af8      	ldr	r0, [r7, #44]	; 0x2c
    1ca8:	f009 f844 	bl	ad34 <TEE_Panic>
/home/test/devel/optee/optee_os/lib/libutee/tee_api_operations.c:589
    1cac:	6afb      	ldr	r3, [r7, #44]	; 0x2c
/home/test/devel/optee/optee_os/lib/libutee/tee_api_operations.c:590
    1cae:	4618      	mov	r0, r3
    1cb0:	f107 0730 	add.w	r7, r7, #48	; 0x30
    1cb4:	46bd      	mov	sp, r7
    1cb6:	bd80      	pop	{r7, pc}

00001cb8 <TEE_SetOperationKey2>:
TEE_SetOperationKey2():
/home/test/devel/optee/optee_os/lib/libutee/tee_api_operations.c:594
    1cb8:	e96d 7e02 	strd	r7, lr, [sp, #-8]!
    1cbc:	b094      	sub	sp, #80	; 0x50
    1cbe:	af00      	add	r7, sp, #0
    1cc0:	60f8      	str	r0, [r7, #12]
    1cc2:	60b9      	str	r1, [r7, #8]
    1cc4:	607a      	str	r2, [r7, #4]
/home/test/devel/optee/optee_os/lib/libutee/tee_api_operations.c:596
    1cc6:	f04f 0300 	mov.w	r3, #0
    1cca:	64bb      	str	r3, [r7, #72]	; 0x48
/home/test/devel/optee/optee_os/lib/libutee/tee_api_operations.c:600
    1ccc:	68fb      	ldr	r3, [r7, #12]
    1cce:	2b00      	cmp	r3, #0
    1cd0:	d105      	bne.n	1cde <TEE_SetOperationKey2+0x26>
/home/test/devel/optee/optee_os/lib/libutee/tee_api_operations.c:601
    1cd2:	f04f 0306 	mov.w	r3, #6
    1cd6:	f6cf 73ff 	movt	r3, #65535	; 0xffff
    1cda:	64fb      	str	r3, [r7, #76]	; 0x4c
/home/test/devel/optee/optee_os/lib/libutee/tee_api_operations.c:602
    1cdc:	e0dc      	b.n	1e98 <TEE_SetOperationKey2+0x1e0>
/home/test/devel/optee/optee_os/lib/libutee/tee_api_operations.c:605
    1cde:	68fb      	ldr	r3, [r7, #12]
    1ce0:	6a9b      	ldr	r3, [r3, #40]	; 0x28
    1ce2:	2b00      	cmp	r3, #0
    1ce4:	d005      	beq.n	1cf2 <TEE_SetOperationKey2+0x3a>
/home/test/devel/optee/optee_os/lib/libutee/tee_api_operations.c:606
    1ce6:	f04f 0306 	mov.w	r3, #6
    1cea:	f6cf 73ff 	movt	r3, #65535	; 0xffff
    1cee:	64fb      	str	r3, [r7, #76]	; 0x4c
/home/test/devel/optee/optee_os/lib/libutee/tee_api_operations.c:607
    1cf0:	e0d2      	b.n	1e98 <TEE_SetOperationKey2+0x1e0>
/home/test/devel/optee/optee_os/lib/libutee/tee_api_operations.c:614
    1cf2:	68bb      	ldr	r3, [r7, #8]
    1cf4:	2b00      	cmp	r3, #0
    1cf6:	d002      	beq.n	1cfe <TEE_SetOperationKey2+0x46>
/home/test/devel/optee/optee_os/lib/libutee/tee_api_operations.c:614 (discriminator 1)
    1cf8:	687b      	ldr	r3, [r7, #4]
    1cfa:	2b00      	cmp	r3, #0
    1cfc:	d115      	bne.n	1d2a <TEE_SetOperationKey2+0x72>
/home/test/devel/optee/optee_os/lib/libutee/tee_api_operations.c:616
    1cfe:	68bb      	ldr	r3, [r7, #8]
    1d00:	2b00      	cmp	r3, #0
    1d02:	d104      	bne.n	1d0e <TEE_SetOperationKey2+0x56>
/home/test/devel/optee/optee_os/lib/libutee/tee_api_operations.c:617
    1d04:	68fb      	ldr	r3, [r7, #12]
    1d06:	6a1b      	ldr	r3, [r3, #32]
    1d08:	4618      	mov	r0, r3
    1d0a:	f008 fa84 	bl	a216 <TEE_ResetTransientObject>
/home/test/devel/optee/optee_os/lib/libutee/tee_api_operations.c:619
    1d0e:	687b      	ldr	r3, [r7, #4]
    1d10:	2b00      	cmp	r3, #0
    1d12:	d104      	bne.n	1d1e <TEE_SetOperationKey2+0x66>
/home/test/devel/optee/optee_os/lib/libutee/tee_api_operations.c:620
    1d14:	68fb      	ldr	r3, [r7, #12]
    1d16:	6a5b      	ldr	r3, [r3, #36]	; 0x24
    1d18:	4618      	mov	r0, r3
    1d1a:	f008 fa7c 	bl	a216 <TEE_ResetTransientObject>
/home/test/devel/optee/optee_os/lib/libutee/tee_api_operations.c:621
    1d1e:	f04f 0306 	mov.w	r3, #6
    1d22:	f6cf 73ff 	movt	r3, #65535	; 0xffff
    1d26:	64fb      	str	r3, [r7, #76]	; 0x4c
/home/test/devel/optee/optee_os/lib/libutee/tee_api_operations.c:622
    1d28:	e0b6      	b.n	1e98 <TEE_SetOperationKey2+0x1e0>
/home/test/devel/optee/optee_os/lib/libutee/tee_api_operations.c:626
    1d2a:	68fb      	ldr	r3, [r7, #12]
    1d2c:	685b      	ldr	r3, [r3, #4]
    1d2e:	2b05      	cmp	r3, #5
    1d30:	d105      	bne.n	1d3e <TEE_SetOperationKey2+0x86>
/home/test/devel/optee/optee_os/lib/libutee/tee_api_operations.c:627
    1d32:	f04f 0306 	mov.w	r3, #6
    1d36:	f6cf 73ff 	movt	r3, #65535	; 0xffff
    1d3a:	64fb      	str	r3, [r7, #76]	; 0x4c
/home/test/devel/optee/optee_os/lib/libutee/tee_api_operations.c:628
    1d3c:	e0ac      	b.n	1e98 <TEE_SetOperationKey2+0x1e0>
/home/test/devel/optee/optee_os/lib/libutee/tee_api_operations.c:632
    1d3e:	68fb      	ldr	r3, [r7, #12]
    1d40:	69db      	ldr	r3, [r3, #28]
    1d42:	f403 2300 	and.w	r3, r3, #524288	; 0x80000
    1d46:	2b00      	cmp	r3, #0
    1d48:	d105      	bne.n	1d56 <TEE_SetOperationKey2+0x9e>
/home/test/devel/optee/optee_os/lib/libutee/tee_api_operations.c:634
    1d4a:	f04f 0306 	mov.w	r3, #6
    1d4e:	f6cf 73ff 	movt	r3, #65535	; 0xffff
    1d52:	64fb      	str	r3, [r7, #76]	; 0x4c
/home/test/devel/optee/optee_os/lib/libutee/tee_api_operations.c:635
    1d54:	e0a0      	b.n	1e98 <TEE_SetOperationKey2+0x1e0>
/home/test/devel/optee/optee_os/lib/libutee/tee_api_operations.c:638
    1d56:	f107 032c 	add.w	r3, r7, #44	; 0x2c
    1d5a:	4619      	mov	r1, r3
    1d5c:	68b8      	ldr	r0, [r7, #8]
    1d5e:	f008 f89f 	bl	9ea0 <TEE_GetObjectInfo1>
    1d62:	64f8      	str	r0, [r7, #76]	; 0x4c
/home/test/devel/optee/optee_os/lib/libutee/tee_api_operations.c:640
    1d64:	6cfb      	ldr	r3, [r7, #76]	; 0x4c
    1d66:	2b00      	cmp	r3, #0
    1d68:	f040 808f 	bne.w	1e8a <TEE_SetOperationKey2+0x1d2>
/home/test/devel/optee/optee_os/lib/libutee/tee_api_operations.c:644
    1d6c:	6bba      	ldr	r2, [r7, #56]	; 0x38
    1d6e:	68fb      	ldr	r3, [r7, #12]
    1d70:	699b      	ldr	r3, [r3, #24]
    1d72:	ea02 0203 	and.w	r2, r2, r3
/home/test/devel/optee/optee_os/lib/libutee/tee_api_operations.c:645
    1d76:	68fb      	ldr	r3, [r7, #12]
    1d78:	699b      	ldr	r3, [r3, #24]
/home/test/devel/optee/optee_os/lib/libutee/tee_api_operations.c:644
    1d7a:	429a      	cmp	r2, r3
    1d7c:	d005      	beq.n	1d8a <TEE_SetOperationKey2+0xd2>
/home/test/devel/optee/optee_os/lib/libutee/tee_api_operations.c:646
    1d7e:	f04f 0306 	mov.w	r3, #6
    1d82:	f6cf 73ff 	movt	r3, #65535	; 0xffff
    1d86:	64fb      	str	r3, [r7, #76]	; 0x4c
/home/test/devel/optee/optee_os/lib/libutee/tee_api_operations.c:647
    1d88:	e086      	b.n	1e98 <TEE_SetOperationKey2+0x1e0>
/home/test/devel/optee/optee_os/lib/libutee/tee_api_operations.c:650
    1d8a:	f107 0310 	add.w	r3, r7, #16
    1d8e:	4619      	mov	r1, r3
    1d90:	6878      	ldr	r0, [r7, #4]
    1d92:	f008 f885 	bl	9ea0 <TEE_GetObjectInfo1>
    1d96:	64f8      	str	r0, [r7, #76]	; 0x4c
/home/test/devel/optee/optee_os/lib/libutee/tee_api_operations.c:652
    1d98:	6cfb      	ldr	r3, [r7, #76]	; 0x4c
    1d9a:	2b00      	cmp	r3, #0
    1d9c:	d00c      	beq.n	1db8 <TEE_SetOperationKey2+0x100>
/home/test/devel/optee/optee_os/lib/libutee/tee_api_operations.c:653
    1d9e:	6cfa      	ldr	r2, [r7, #76]	; 0x4c
    1da0:	f04f 0301 	mov.w	r3, #1
    1da4:	f2cf 0310 	movt	r3, #61456	; 0xf010
    1da8:	429a      	cmp	r2, r3
    1daa:	d170      	bne.n	1e8e <TEE_SetOperationKey2+0x1d6>
/home/test/devel/optee/optee_os/lib/libutee/tee_api_operations.c:654
    1dac:	f04f 0302 	mov.w	r3, #2
    1db0:	f2cf 0310 	movt	r3, #61456	; 0xf010
    1db4:	64fb      	str	r3, [r7, #76]	; 0x4c
/home/test/devel/optee/optee_os/lib/libutee/tee_api_operations.c:655
    1db6:	e06a      	b.n	1e8e <TEE_SetOperationKey2+0x1d6>
/home/test/devel/optee/optee_os/lib/libutee/tee_api_operations.c:659
    1db8:	69fa      	ldr	r2, [r7, #28]
    1dba:	68fb      	ldr	r3, [r7, #12]
    1dbc:	699b      	ldr	r3, [r3, #24]
    1dbe:	ea02 0203 	and.w	r2, r2, r3
/home/test/devel/optee/optee_os/lib/libutee/tee_api_operations.c:660
    1dc2:	68fb      	ldr	r3, [r7, #12]
    1dc4:	699b      	ldr	r3, [r3, #24]
/home/test/devel/optee/optee_os/lib/libutee/tee_api_operations.c:659
    1dc6:	429a      	cmp	r2, r3
    1dc8:	d005      	beq.n	1dd6 <TEE_SetOperationKey2+0x11e>
/home/test/devel/optee/optee_os/lib/libutee/tee_api_operations.c:661
    1dca:	f04f 0306 	mov.w	r3, #6
    1dce:	f6cf 73ff 	movt	r3, #65535	; 0xffff
    1dd2:	64fb      	str	r3, [r7, #76]	; 0x4c
/home/test/devel/optee/optee_os/lib/libutee/tee_api_operations.c:662
    1dd4:	e060      	b.n	1e98 <TEE_SetOperationKey2+0x1e0>
/home/test/devel/optee/optee_os/lib/libutee/tee_api_operations.c:669
    1dd6:	68fb      	ldr	r3, [r7, #12]
    1dd8:	681a      	ldr	r2, [r3, #0]
    1dda:	f44f 6382 	mov.w	r3, #1040	; 0x410
    1dde:	f2c1 0300 	movt	r3, #4096	; 0x1000
    1de2:	429a      	cmp	r2, r3
    1de4:	d109      	bne.n	1dfa <TEE_SetOperationKey2+0x142>
/home/test/devel/optee/optee_os/lib/libutee/tee_api_operations.c:670 (discriminator 1)
    1de6:	6b3a      	ldr	r2, [r7, #48]	; 0x30
    1de8:	697b      	ldr	r3, [r7, #20]
/home/test/devel/optee/optee_os/lib/libutee/tee_api_operations.c:669 (discriminator 1)
    1dea:	429a      	cmp	r2, r3
    1dec:	d005      	beq.n	1dfa <TEE_SetOperationKey2+0x142>
/home/test/devel/optee/optee_os/lib/libutee/tee_api_operations.c:671
    1dee:	f04f 0306 	mov.w	r3, #6
    1df2:	f6cf 73ff 	movt	r3, #65535	; 0xffff
    1df6:	64fb      	str	r3, [r7, #76]	; 0x4c
/home/test/devel/optee/optee_os/lib/libutee/tee_api_operations.c:672
    1df8:	e04e      	b.n	1e98 <TEE_SetOperationKey2+0x1e0>
/home/test/devel/optee/optee_os/lib/libutee/tee_api_operations.c:676
    1dfa:	68fb      	ldr	r3, [r7, #12]
    1dfc:	691a      	ldr	r2, [r3, #16]
    1dfe:	6b3b      	ldr	r3, [r7, #48]	; 0x30
    1e00:	429a      	cmp	r2, r3
    1e02:	d205      	bcs.n	1e10 <TEE_SetOperationKey2+0x158>
/home/test/devel/optee/optee_os/lib/libutee/tee_api_operations.c:677
    1e04:	f04f 0306 	mov.w	r3, #6
    1e08:	f6cf 73ff 	movt	r3, #65535	; 0xffff
    1e0c:	64fb      	str	r3, [r7, #76]	; 0x4c
/home/test/devel/optee/optee_os/lib/libutee/tee_api_operations.c:678
    1e0e:	e043      	b.n	1e98 <TEE_SetOperationKey2+0x1e0>
/home/test/devel/optee/optee_os/lib/libutee/tee_api_operations.c:685
    1e10:	6b3b      	ldr	r3, [r7, #48]	; 0x30
    1e12:	64bb      	str	r3, [r7, #72]	; 0x48
/home/test/devel/optee/optee_os/lib/libutee/tee_api_operations.c:687
    1e14:	68fb      	ldr	r3, [r7, #12]
    1e16:	6a1b      	ldr	r3, [r3, #32]
    1e18:	4618      	mov	r0, r3
    1e1a:	f008 f9fc 	bl	a216 <TEE_ResetTransientObject>
/home/test/devel/optee/optee_os/lib/libutee/tee_api_operations.c:688
    1e1e:	68fb      	ldr	r3, [r7, #12]
    1e20:	6a5b      	ldr	r3, [r3, #36]	; 0x24
    1e22:	4618      	mov	r0, r3
    1e24:	f008 f9f7 	bl	a216 <TEE_ResetTransientObject>
/home/test/devel/optee/optee_os/lib/libutee/tee_api_operations.c:689
    1e28:	68fb      	ldr	r3, [r7, #12]
    1e2a:	69db      	ldr	r3, [r3, #28]
    1e2c:	f423 2280 	bic.w	r2, r3, #262144	; 0x40000
    1e30:	68fb      	ldr	r3, [r7, #12]
    1e32:	61da      	str	r2, [r3, #28]
/home/test/devel/optee/optee_os/lib/libutee/tee_api_operations.c:691
    1e34:	68fb      	ldr	r3, [r7, #12]
    1e36:	6a1b      	ldr	r3, [r3, #32]
    1e38:	68b9      	ldr	r1, [r7, #8]
    1e3a:	4618      	mov	r0, r3
    1e3c:	f008 fb24 	bl	a488 <TEE_CopyObjectAttributes1>
    1e40:	64f8      	str	r0, [r7, #76]	; 0x4c
/home/test/devel/optee/optee_os/lib/libutee/tee_api_operations.c:692
    1e42:	6cfb      	ldr	r3, [r7, #76]	; 0x4c
    1e44:	2b00      	cmp	r3, #0
    1e46:	d124      	bne.n	1e92 <TEE_SetOperationKey2+0x1da>
/home/test/devel/optee/optee_os/lib/libutee/tee_api_operations.c:695
    1e48:	68fb      	ldr	r3, [r7, #12]
    1e4a:	6a5b      	ldr	r3, [r3, #36]	; 0x24
    1e4c:	6879      	ldr	r1, [r7, #4]
    1e4e:	4618      	mov	r0, r3
    1e50:	f008 fb1a 	bl	a488 <TEE_CopyObjectAttributes1>
    1e54:	64f8      	str	r0, [r7, #76]	; 0x4c
/home/test/devel/optee/optee_os/lib/libutee/tee_api_operations.c:696
    1e56:	6cfb      	ldr	r3, [r7, #76]	; 0x4c
    1e58:	2b00      	cmp	r3, #0
    1e5a:	d00c      	beq.n	1e76 <TEE_SetOperationKey2+0x1be>
/home/test/devel/optee/optee_os/lib/libutee/tee_api_operations.c:697
    1e5c:	6cfa      	ldr	r2, [r7, #76]	; 0x4c
    1e5e:	f04f 0301 	mov.w	r3, #1
    1e62:	f2cf 0310 	movt	r3, #61456	; 0xf010
    1e66:	429a      	cmp	r2, r3
    1e68:	d115      	bne.n	1e96 <TEE_SetOperationKey2+0x1de>
/home/test/devel/optee/optee_os/lib/libutee/tee_api_operations.c:698
    1e6a:	f04f 0302 	mov.w	r3, #2
    1e6e:	f2cf 0310 	movt	r3, #61456	; 0xf010
    1e72:	64fb      	str	r3, [r7, #76]	; 0x4c
/home/test/devel/optee/optee_os/lib/libutee/tee_api_operations.c:699
    1e74:	e00f      	b.n	1e96 <TEE_SetOperationKey2+0x1de>
/home/test/devel/optee/optee_os/lib/libutee/tee_api_operations.c:702
    1e76:	68fb      	ldr	r3, [r7, #12]
    1e78:	69db      	ldr	r3, [r3, #28]
    1e7a:	f443 2280 	orr.w	r2, r3, #262144	; 0x40000
    1e7e:	68fb      	ldr	r3, [r7, #12]
    1e80:	61da      	str	r2, [r3, #28]
/home/test/devel/optee/optee_os/lib/libutee/tee_api_operations.c:704
    1e82:	68fb      	ldr	r3, [r7, #12]
    1e84:	6cba      	ldr	r2, [r7, #72]	; 0x48
    1e86:	615a      	str	r2, [r3, #20]
    1e88:	e006      	b.n	1e98 <TEE_SetOperationKey2+0x1e0>
/home/test/devel/optee/optee_os/lib/libutee/tee_api_operations.c:641
    1e8a:	bf00      	nop
    1e8c:	e004      	b.n	1e98 <TEE_SetOperationKey2+0x1e0>
/home/test/devel/optee/optee_os/lib/libutee/tee_api_operations.c:655
    1e8e:	bf00      	nop
    1e90:	e002      	b.n	1e98 <TEE_SetOperationKey2+0x1e0>
/home/test/devel/optee/optee_os/lib/libutee/tee_api_operations.c:693
    1e92:	bf00      	nop
    1e94:	e000      	b.n	1e98 <TEE_SetOperationKey2+0x1e0>
/home/test/devel/optee/optee_os/lib/libutee/tee_api_operations.c:699
    1e96:	bf00      	nop
/home/test/devel/optee/optee_os/lib/libutee/tee_api_operations.c:707
    1e98:	6cfb      	ldr	r3, [r7, #76]	; 0x4c
    1e9a:	2b00      	cmp	r3, #0
    1e9c:	d01e      	beq.n	1edc <TEE_SetOperationKey2+0x224>
/home/test/devel/optee/optee_os/lib/libutee/tee_api_operations.c:707 (discriminator 1)
    1e9e:	6cfa      	ldr	r2, [r7, #76]	; 0x4c
    1ea0:	f04f 0301 	mov.w	r3, #1
    1ea4:	f2cf 0310 	movt	r3, #61456	; 0xf010
    1ea8:	429a      	cmp	r2, r3
    1eaa:	d017      	beq.n	1edc <TEE_SetOperationKey2+0x224>
/home/test/devel/optee/optee_os/lib/libutee/tee_api_operations.c:708
    1eac:	6cfa      	ldr	r2, [r7, #76]	; 0x4c
    1eae:	f04f 0302 	mov.w	r3, #2
    1eb2:	f2cf 0310 	movt	r3, #61456	; 0xf010
    1eb6:	429a      	cmp	r2, r3
    1eb8:	d010      	beq.n	1edc <TEE_SetOperationKey2+0x224>
/home/test/devel/optee/optee_os/lib/libutee/tee_api_operations.c:709
    1eba:	6cfa      	ldr	r2, [r7, #76]	; 0x4c
    1ebc:	f04f 0303 	mov.w	r3, #3
    1ec0:	f2cf 0310 	movt	r3, #61456	; 0xf010
    1ec4:	429a      	cmp	r2, r3
    1ec6:	d009      	beq.n	1edc <TEE_SetOperationKey2+0x224>
/home/test/devel/optee/optee_os/lib/libutee/tee_api_operations.c:710
    1ec8:	6cfa      	ldr	r2, [r7, #76]	; 0x4c
    1eca:	f04f 0304 	mov.w	r3, #4
    1ece:	f2cf 0310 	movt	r3, #61456	; 0xf010
    1ed2:	429a      	cmp	r2, r3
    1ed4:	d002      	beq.n	1edc <TEE_SetOperationKey2+0x224>
/home/test/devel/optee/optee_os/lib/libutee/tee_api_operations.c:712
    1ed6:	6cf8      	ldr	r0, [r7, #76]	; 0x4c
    1ed8:	f008 ff2c 	bl	ad34 <TEE_Panic>
/home/test/devel/optee/optee_os/lib/libutee/tee_api_operations.c:714
    1edc:	6cfb      	ldr	r3, [r7, #76]	; 0x4c
/home/test/devel/optee/optee_os/lib/libutee/tee_api_operations.c:715
    1ede:	4618      	mov	r0, r3
    1ee0:	f107 0750 	add.w	r7, r7, #80	; 0x50
    1ee4:	46bd      	mov	sp, r7
    1ee6:	bd80      	pop	{r7, pc}

00001ee8 <TEE_CopyOperation>:
TEE_CopyOperation():
/home/test/devel/optee/optee_os/lib/libutee/tee_api_operations.c:718
    1ee8:	e96d 7e02 	strd	r7, lr, [sp, #-8]!
    1eec:	b086      	sub	sp, #24
    1eee:	af00      	add	r7, sp, #0
    1ef0:	6078      	str	r0, [r7, #4]
    1ef2:	6039      	str	r1, [r7, #0]
/home/test/devel/optee/optee_os/lib/libutee/tee_api_operations.c:721
    1ef4:	687b      	ldr	r3, [r7, #4]
    1ef6:	2b00      	cmp	r3, #0
    1ef8:	d002      	beq.n	1f00 <TEE_CopyOperation+0x18>
/home/test/devel/optee/optee_os/lib/libutee/tee_api_operations.c:721 (discriminator 1)
    1efa:	683b      	ldr	r3, [r7, #0]
    1efc:	2b00      	cmp	r3, #0
    1efe:	d103      	bne.n	1f08 <TEE_CopyOperation+0x20>
/home/test/devel/optee/optee_os/lib/libutee/tee_api_operations.c:722
    1f00:	f04f 0000 	mov.w	r0, #0
    1f04:	f008 ff16 	bl	ad34 <TEE_Panic>
/home/test/devel/optee/optee_os/lib/libutee/tee_api_operations.c:723
    1f08:	687b      	ldr	r3, [r7, #4]
    1f0a:	681a      	ldr	r2, [r3, #0]
    1f0c:	683b      	ldr	r3, [r7, #0]
    1f0e:	681b      	ldr	r3, [r3, #0]
    1f10:	429a      	cmp	r2, r3
    1f12:	d003      	beq.n	1f1c <TEE_CopyOperation+0x34>
/home/test/devel/optee/optee_os/lib/libutee/tee_api_operations.c:724
    1f14:	f04f 0000 	mov.w	r0, #0
    1f18:	f008 ff0c 	bl	ad34 <TEE_Panic>
/home/test/devel/optee/optee_os/lib/libutee/tee_api_operations.c:725
    1f1c:	683b      	ldr	r3, [r7, #0]
    1f1e:	685b      	ldr	r3, [r3, #4]
    1f20:	2b05      	cmp	r3, #5
    1f22:	d021      	beq.n	1f68 <TEE_CopyOperation+0x80>
/home/test/devel/optee/optee_os/lib/libutee/tee_api_operations.c:726
    1f24:	f04f 0300 	mov.w	r3, #0
    1f28:	617b      	str	r3, [r7, #20]
/home/test/devel/optee/optee_os/lib/libutee/tee_api_operations.c:727
    1f2a:	f04f 0300 	mov.w	r3, #0
    1f2e:	613b      	str	r3, [r7, #16]
/home/test/devel/optee/optee_os/lib/libutee/tee_api_operations.c:729
    1f30:	683b      	ldr	r3, [r7, #0]
    1f32:	69db      	ldr	r3, [r3, #28]
    1f34:	f403 2380 	and.w	r3, r3, #262144	; 0x40000
    1f38:	2b00      	cmp	r3, #0
    1f3a:	d005      	beq.n	1f48 <TEE_CopyOperation+0x60>
/home/test/devel/optee/optee_os/lib/libutee/tee_api_operations.c:730
    1f3c:	683b      	ldr	r3, [r7, #0]
    1f3e:	6a1b      	ldr	r3, [r3, #32]
    1f40:	617b      	str	r3, [r7, #20]
/home/test/devel/optee/optee_os/lib/libutee/tee_api_operations.c:731
    1f42:	683b      	ldr	r3, [r7, #0]
    1f44:	6a5b      	ldr	r3, [r3, #36]	; 0x24
    1f46:	613b      	str	r3, [r7, #16]
/home/test/devel/optee/optee_os/lib/libutee/tee_api_operations.c:734
    1f48:	683b      	ldr	r3, [r7, #0]
    1f4a:	69db      	ldr	r3, [r3, #28]
    1f4c:	f403 2300 	and.w	r3, r3, #524288	; 0x80000
    1f50:	2b00      	cmp	r3, #0
    1f52:	d104      	bne.n	1f5e <TEE_CopyOperation+0x76>
/home/test/devel/optee/optee_os/lib/libutee/tee_api_operations.c:736
    1f54:	6979      	ldr	r1, [r7, #20]
    1f56:	6878      	ldr	r0, [r7, #4]
    1f58:	f7ff fe0c 	bl	1b74 <TEE_SetOperationKey>
    1f5c:	e004      	b.n	1f68 <TEE_CopyOperation+0x80>
/home/test/devel/optee/optee_os/lib/libutee/tee_api_operations.c:738
    1f5e:	693a      	ldr	r2, [r7, #16]
    1f60:	6979      	ldr	r1, [r7, #20]
    1f62:	6878      	ldr	r0, [r7, #4]
    1f64:	f7ff fea8 	bl	1cb8 <TEE_SetOperationKey2>
/home/test/devel/optee/optee_os/lib/libutee/tee_api_operations.c:741
    1f68:	683b      	ldr	r3, [r7, #0]
    1f6a:	69da      	ldr	r2, [r3, #28]
    1f6c:	687b      	ldr	r3, [r7, #4]
    1f6e:	61da      	str	r2, [r3, #28]
/home/test/devel/optee/optee_os/lib/libutee/tee_api_operations.c:742
    1f70:	683b      	ldr	r3, [r7, #0]
    1f72:	695a      	ldr	r2, [r3, #20]
    1f74:	687b      	ldr	r3, [r7, #4]
    1f76:	615a      	str	r2, [r3, #20]
/home/test/devel/optee/optee_os/lib/libutee/tee_api_operations.c:743
    1f78:	683b      	ldr	r3, [r7, #0]
    1f7a:	6a9a      	ldr	r2, [r3, #40]	; 0x28
    1f7c:	687b      	ldr	r3, [r7, #4]
    1f7e:	629a      	str	r2, [r3, #40]	; 0x28
/home/test/devel/optee/optee_os/lib/libutee/tee_api_operations.c:745
    1f80:	687b      	ldr	r3, [r7, #4]
    1f82:	f893 2030 	ldrb.w	r2, [r3, #48]	; 0x30
    1f86:	683b      	ldr	r3, [r7, #0]
    1f88:	f893 3030 	ldrb.w	r3, [r3, #48]	; 0x30
    1f8c:	429a      	cmp	r2, r3
    1f8e:	d105      	bne.n	1f9c <TEE_CopyOperation+0xb4>
/home/test/devel/optee/optee_os/lib/libutee/tee_api_operations.c:746 (discriminator 1)
    1f90:	687b      	ldr	r3, [r7, #4]
    1f92:	6b5a      	ldr	r2, [r3, #52]	; 0x34
    1f94:	683b      	ldr	r3, [r7, #0]
    1f96:	6b5b      	ldr	r3, [r3, #52]	; 0x34
/home/test/devel/optee/optee_os/lib/libutee/tee_api_operations.c:745 (discriminator 1)
    1f98:	429a      	cmp	r2, r3
    1f9a:	d003      	beq.n	1fa4 <TEE_CopyOperation+0xbc>
/home/test/devel/optee/optee_os/lib/libutee/tee_api_operations.c:747
    1f9c:	f04f 0000 	mov.w	r0, #0
    1fa0:	f008 fec8 	bl	ad34 <TEE_Panic>
/home/test/devel/optee/optee_os/lib/libutee/tee_api_operations.c:749
    1fa4:	687b      	ldr	r3, [r7, #4]
    1fa6:	6adb      	ldr	r3, [r3, #44]	; 0x2c
    1fa8:	2b00      	cmp	r3, #0
    1faa:	d015      	beq.n	1fd8 <TEE_CopyOperation+0xf0>
/home/test/devel/optee/optee_os/lib/libutee/tee_api_operations.c:750
    1fac:	683b      	ldr	r3, [r7, #0]
    1fae:	6adb      	ldr	r3, [r3, #44]	; 0x2c
    1fb0:	2b00      	cmp	r3, #0
    1fb2:	d103      	bne.n	1fbc <TEE_CopyOperation+0xd4>
/home/test/devel/optee/optee_os/lib/libutee/tee_api_operations.c:751
    1fb4:	f04f 0000 	mov.w	r0, #0
    1fb8:	f008 febc 	bl	ad34 <TEE_Panic>
/home/test/devel/optee/optee_os/lib/libutee/tee_api_operations.c:753
    1fbc:	687b      	ldr	r3, [r7, #4]
    1fbe:	6ad8      	ldr	r0, [r3, #44]	; 0x2c
    1fc0:	683b      	ldr	r3, [r7, #0]
    1fc2:	6ad9      	ldr	r1, [r3, #44]	; 0x2c
    1fc4:	683b      	ldr	r3, [r7, #0]
    1fc6:	6b9b      	ldr	r3, [r3, #56]	; 0x38
    1fc8:	461a      	mov	r2, r3
    1fca:	f008 ffa6 	bl	af1a <memcpy>
/home/test/devel/optee/optee_os/lib/libutee/tee_api_operations.c:754
    1fce:	683b      	ldr	r3, [r7, #0]
    1fd0:	6b9a      	ldr	r2, [r3, #56]	; 0x38
    1fd2:	687b      	ldr	r3, [r7, #4]
    1fd4:	639a      	str	r2, [r3, #56]	; 0x38
    1fd6:	e007      	b.n	1fe8 <TEE_CopyOperation+0x100>
/home/test/devel/optee/optee_os/lib/libutee/tee_api_operations.c:755
    1fd8:	683b      	ldr	r3, [r7, #0]
    1fda:	6adb      	ldr	r3, [r3, #44]	; 0x2c
    1fdc:	2b00      	cmp	r3, #0
    1fde:	d003      	beq.n	1fe8 <TEE_CopyOperation+0x100>
/home/test/devel/optee/optee_os/lib/libutee/tee_api_operations.c:756
    1fe0:	f04f 0000 	mov.w	r0, #0
    1fe4:	f008 fea6 	bl	ad34 <TEE_Panic>
/home/test/devel/optee/optee_os/lib/libutee/tee_api_operations.c:759
    1fe8:	687b      	ldr	r3, [r7, #4]
    1fea:	6bda      	ldr	r2, [r3, #60]	; 0x3c
    1fec:	683b      	ldr	r3, [r7, #0]
    1fee:	6bdb      	ldr	r3, [r3, #60]	; 0x3c
    1ff0:	4619      	mov	r1, r3
    1ff2:	4610      	mov	r0, r2
    1ff4:	f002 e816 	blx	4024 <utee_cryp_state_copy>
    1ff8:	60f8      	str	r0, [r7, #12]
/home/test/devel/optee/optee_os/lib/libutee/tee_api_operations.c:760
    1ffa:	68fb      	ldr	r3, [r7, #12]
    1ffc:	2b00      	cmp	r3, #0
    1ffe:	d002      	beq.n	2006 <TEE_CopyOperation+0x11e>
/home/test/devel/optee/optee_os/lib/libutee/tee_api_operations.c:761
    2000:	68f8      	ldr	r0, [r7, #12]
    2002:	f008 fe97 	bl	ad34 <TEE_Panic>
/home/test/devel/optee/optee_os/lib/libutee/tee_api_operations.c:762
    2006:	bf00      	nop
    2008:	f107 0718 	add.w	r7, r7, #24
    200c:	46bd      	mov	sp, r7
    200e:	bd80      	pop	{r7, pc}

00002010 <init_hash_operation>:
init_hash_operation():
/home/test/devel/optee/optee_os/lib/libutee/tee_api_operations.c:768
    2010:	e96d 7e02 	strd	r7, lr, [sp, #-8]!
    2014:	b086      	sub	sp, #24
    2016:	af00      	add	r7, sp, #0
    2018:	60f8      	str	r0, [r7, #12]
    201a:	60b9      	str	r1, [r7, #8]
    201c:	607a      	str	r2, [r7, #4]
/home/test/devel/optee/optee_os/lib/libutee/tee_api_operations.c:775
    201e:	68fb      	ldr	r3, [r7, #12]
    2020:	6bdb      	ldr	r3, [r3, #60]	; 0x3c
    2022:	687a      	ldr	r2, [r7, #4]
    2024:	68b9      	ldr	r1, [r7, #8]
    2026:	4618      	mov	r0, r3
    2028:	f002 e810 	blx	404c <utee_hash_init>
    202c:	6178      	str	r0, [r7, #20]
/home/test/devel/optee/optee_os/lib/libutee/tee_api_operations.c:776
    202e:	697b      	ldr	r3, [r7, #20]
    2030:	2b00      	cmp	r3, #0
    2032:	d002      	beq.n	203a <init_hash_operation+0x2a>
/home/test/devel/optee/optee_os/lib/libutee/tee_api_operations.c:777
    2034:	6978      	ldr	r0, [r7, #20]
    2036:	f008 fe7d 	bl	ad34 <TEE_Panic>
/home/test/devel/optee/optee_os/lib/libutee/tee_api_operations.c:778
    203a:	68fb      	ldr	r3, [r7, #12]
    203c:	f04f 0200 	mov.w	r2, #0
    2040:	639a      	str	r2, [r3, #56]	; 0x38
/home/test/devel/optee/optee_os/lib/libutee/tee_api_operations.c:779
    2042:	68fb      	ldr	r3, [r7, #12]
    2044:	69db      	ldr	r3, [r3, #28]
    2046:	f443 3200 	orr.w	r2, r3, #131072	; 0x20000
    204a:	68fb      	ldr	r3, [r7, #12]
    204c:	61da      	str	r2, [r3, #28]
/home/test/devel/optee/optee_os/lib/libutee/tee_api_operations.c:780
    204e:	bf00      	nop
    2050:	f107 0718 	add.w	r7, r7, #24
    2054:	46bd      	mov	sp, r7
    2056:	bd80      	pop	{r7, pc}

00002058 <TEE_DigestUpdate>:
TEE_DigestUpdate():
/home/test/devel/optee/optee_os/lib/libutee/tee_api_operations.c:784
    2058:	e96d 7e02 	strd	r7, lr, [sp, #-8]!
    205c:	b086      	sub	sp, #24
    205e:	af00      	add	r7, sp, #0
    2060:	60f8      	str	r0, [r7, #12]
    2062:	60b9      	str	r1, [r7, #8]
    2064:	607a      	str	r2, [r7, #4]
/home/test/devel/optee/optee_os/lib/libutee/tee_api_operations.c:785
    2066:	f04f 0300 	mov.w	r3, #0
    206a:	f6cf 73ff 	movt	r3, #65535	; 0xffff
    206e:	617b      	str	r3, [r7, #20]
/home/test/devel/optee/optee_os/lib/libutee/tee_api_operations.c:787
    2070:	68fb      	ldr	r3, [r7, #12]
    2072:	2b00      	cmp	r3, #0
    2074:	d003      	beq.n	207e <TEE_DigestUpdate+0x26>
/home/test/devel/optee/optee_os/lib/libutee/tee_api_operations.c:788 (discriminator 1)
    2076:	68fb      	ldr	r3, [r7, #12]
    2078:	685b      	ldr	r3, [r3, #4]
/home/test/devel/optee/optee_os/lib/libutee/tee_api_operations.c:787 (discriminator 1)
    207a:	2b05      	cmp	r3, #5
    207c:	d003      	beq.n	2086 <TEE_DigestUpdate+0x2e>
/home/test/devel/optee/optee_os/lib/libutee/tee_api_operations.c:789
    207e:	f04f 0000 	mov.w	r0, #0
    2082:	f008 fe57 	bl	ad34 <TEE_Panic>
/home/test/devel/optee/optee_os/lib/libutee/tee_api_operations.c:791
    2086:	68fb      	ldr	r3, [r7, #12]
    2088:	f04f 0201 	mov.w	r2, #1
    208c:	629a      	str	r2, [r3, #40]	; 0x28
/home/test/devel/optee/optee_os/lib/libutee/tee_api_operations.c:793
    208e:	68fb      	ldr	r3, [r7, #12]
    2090:	6bdb      	ldr	r3, [r3, #60]	; 0x3c
    2092:	687a      	ldr	r2, [r7, #4]
    2094:	68b9      	ldr	r1, [r7, #8]
    2096:	4618      	mov	r0, r3
    2098:	f001 efe2 	blx	4060 <utee_hash_update>
    209c:	6178      	str	r0, [r7, #20]
/home/test/devel/optee/optee_os/lib/libutee/tee_api_operations.c:794
    209e:	697b      	ldr	r3, [r7, #20]
    20a0:	2b00      	cmp	r3, #0
    20a2:	d002      	beq.n	20aa <TEE_DigestUpdate+0x52>
/home/test/devel/optee/optee_os/lib/libutee/tee_api_operations.c:795
    20a4:	6978      	ldr	r0, [r7, #20]
    20a6:	f008 fe45 	bl	ad34 <TEE_Panic>
/home/test/devel/optee/optee_os/lib/libutee/tee_api_operations.c:796
    20aa:	bf00      	nop
    20ac:	f107 0718 	add.w	r7, r7, #24
    20b0:	46bd      	mov	sp, r7
    20b2:	bd80      	pop	{r7, pc}

000020b4 <TEE_DigestDoFinal>:
TEE_DigestDoFinal():
/home/test/devel/optee/optee_os/lib/libutee/tee_api_operations.c:800
    20b4:	f84d 4d0c 	str.w	r4, [sp, #-12]!
    20b8:	e9cd 7e01 	strd	r7, lr, [sp, #4]
    20bc:	b08b      	sub	sp, #44	; 0x2c
    20be:	af02      	add	r7, sp, #8
    20c0:	60f8      	str	r0, [r7, #12]
    20c2:	60b9      	str	r1, [r7, #8]
    20c4:	607a      	str	r2, [r7, #4]
    20c6:	603b      	str	r3, [r7, #0]
/home/test/devel/optee/optee_os/lib/libutee/tee_api_operations.c:804
    20c8:	68fb      	ldr	r3, [r7, #12]
    20ca:	2b00      	cmp	r3, #0
    20cc:	d00f      	beq.n	20ee <TEE_DigestDoFinal+0x3a>
/home/test/devel/optee/optee_os/lib/libutee/tee_api_operations.c:804 (discriminator 1)
    20ce:	68bb      	ldr	r3, [r7, #8]
    20d0:	2b00      	cmp	r3, #0
    20d2:	d102      	bne.n	20da <TEE_DigestDoFinal+0x26>
/home/test/devel/optee/optee_os/lib/libutee/tee_api_operations.c:805
    20d4:	687b      	ldr	r3, [r7, #4]
    20d6:	2b00      	cmp	r3, #0
    20d8:	d109      	bne.n	20ee <TEE_DigestDoFinal+0x3a>
/home/test/devel/optee/optee_os/lib/libutee/tee_api_operations.c:805 (discriminator 1)
    20da:	683b      	ldr	r3, [r7, #0]
    20dc:	2b00      	cmp	r3, #0
    20de:	d006      	beq.n	20ee <TEE_DigestDoFinal+0x3a>
/home/test/devel/optee/optee_os/lib/libutee/tee_api_operations.c:806
    20e0:	6b3b      	ldr	r3, [r7, #48]	; 0x30
    20e2:	2b00      	cmp	r3, #0
    20e4:	d003      	beq.n	20ee <TEE_DigestDoFinal+0x3a>
/home/test/devel/optee/optee_os/lib/libutee/tee_api_operations.c:808
    20e6:	68fb      	ldr	r3, [r7, #12]
    20e8:	685b      	ldr	r3, [r3, #4]
/home/test/devel/optee/optee_os/lib/libutee/tee_api_operations.c:807
    20ea:	2b05      	cmp	r3, #5
    20ec:	d005      	beq.n	20fa <TEE_DigestDoFinal+0x46>
/home/test/devel/optee/optee_os/lib/libutee/tee_api_operations.c:809
    20ee:	f04f 0306 	mov.w	r3, #6
    20f2:	f6cf 73ff 	movt	r3, #65535	; 0xffff
    20f6:	61fb      	str	r3, [r7, #28]
/home/test/devel/optee/optee_os/lib/libutee/tee_api_operations.c:810
    20f8:	e025      	b.n	2146 <TEE_DigestDoFinal+0x92>
/home/test/devel/optee/optee_os/lib/libutee/tee_api_operations.c:813
    20fa:	6b3b      	ldr	r3, [r7, #48]	; 0x30
    20fc:	681b      	ldr	r3, [r3, #0]
    20fe:	f04f 0400 	mov.w	r4, #0
    2102:	e9c7 3404 	strd	r3, r4, [r7, #16]
/home/test/devel/optee/optee_os/lib/libutee/tee_api_operations.c:814
    2106:	68fb      	ldr	r3, [r7, #12]
    2108:	6bd8      	ldr	r0, [r3, #60]	; 0x3c
    210a:	f107 0310 	add.w	r3, r7, #16
    210e:	9300      	str	r3, [sp, #0]
    2110:	683b      	ldr	r3, [r7, #0]
    2112:	687a      	ldr	r2, [r7, #4]
    2114:	68b9      	ldr	r1, [r7, #8]
    2116:	f001 efae 	blx	4074 <utee_hash_final>
    211a:	61f8      	str	r0, [r7, #28]
/home/test/devel/optee/optee_os/lib/libutee/tee_api_operations.c:815
    211c:	e9d7 3404 	ldrd	r3, r4, [r7, #16]
    2120:	461a      	mov	r2, r3
    2122:	6b3b      	ldr	r3, [r7, #48]	; 0x30
    2124:	601a      	str	r2, [r3, #0]
/home/test/devel/optee/optee_os/lib/libutee/tee_api_operations.c:816
    2126:	69fb      	ldr	r3, [r7, #28]
    2128:	2b00      	cmp	r3, #0
    212a:	d10b      	bne.n	2144 <TEE_DigestDoFinal+0x90>
/home/test/devel/optee/optee_os/lib/libutee/tee_api_operations.c:820
    212c:	f04f 0200 	mov.w	r2, #0
    2130:	f04f 0100 	mov.w	r1, #0
    2134:	68f8      	ldr	r0, [r7, #12]
    2136:	f7ff ff6b 	bl	2010 <init_hash_operation>
/home/test/devel/optee/optee_os/lib/libutee/tee_api_operations.c:822
    213a:	68fb      	ldr	r3, [r7, #12]
    213c:	f04f 0200 	mov.w	r2, #0
    2140:	629a      	str	r2, [r3, #40]	; 0x28
    2142:	e000      	b.n	2146 <TEE_DigestDoFinal+0x92>
/home/test/devel/optee/optee_os/lib/libutee/tee_api_operations.c:817
    2144:	bf00      	nop
/home/test/devel/optee/optee_os/lib/libutee/tee_api_operations.c:825
    2146:	69fb      	ldr	r3, [r7, #28]
    2148:	2b00      	cmp	r3, #0
    214a:	d009      	beq.n	2160 <TEE_DigestDoFinal+0xac>
/home/test/devel/optee/optee_os/lib/libutee/tee_api_operations.c:825 (discriminator 1)
    214c:	69fa      	ldr	r2, [r7, #28]
    214e:	f04f 0310 	mov.w	r3, #16
    2152:	f6cf 73ff 	movt	r3, #65535	; 0xffff
    2156:	429a      	cmp	r2, r3
    2158:	d002      	beq.n	2160 <TEE_DigestDoFinal+0xac>
/home/test/devel/optee/optee_os/lib/libutee/tee_api_operations.c:827
    215a:	69f8      	ldr	r0, [r7, #28]
    215c:	f008 fdea 	bl	ad34 <TEE_Panic>
/home/test/devel/optee/optee_os/lib/libutee/tee_api_operations.c:829
    2160:	69fb      	ldr	r3, [r7, #28]
/home/test/devel/optee/optee_os/lib/libutee/tee_api_operations.c:830
    2162:	4618      	mov	r0, r3
    2164:	f107 0724 	add.w	r7, r7, #36	; 0x24
    2168:	46bd      	mov	sp, r7
    216a:	e9dd 4700 	ldrd	r4, r7, [sp]
    216e:	b002      	add	sp, #8
    2170:	f85d fb04 	ldr.w	pc, [sp], #4

00002174 <TEE_CipherInit>:
TEE_CipherInit():
/home/test/devel/optee/optee_os/lib/libutee/tee_api_operations.c:836
    2174:	e96d 7e02 	strd	r7, lr, [sp, #-8]!
    2178:	b086      	sub	sp, #24
    217a:	af00      	add	r7, sp, #0
    217c:	60f8      	str	r0, [r7, #12]
    217e:	60b9      	str	r1, [r7, #8]
    2180:	607a      	str	r2, [r7, #4]
/home/test/devel/optee/optee_os/lib/libutee/tee_api_operations.c:839
    2182:	68fb      	ldr	r3, [r7, #12]
    2184:	2b00      	cmp	r3, #0
    2186:	d103      	bne.n	2190 <TEE_CipherInit+0x1c>
/home/test/devel/optee/optee_os/lib/libutee/tee_api_operations.c:840
    2188:	f04f 0000 	mov.w	r0, #0
    218c:	f008 fdd2 	bl	ad34 <TEE_Panic>
/home/test/devel/optee/optee_os/lib/libutee/tee_api_operations.c:842
    2190:	68fb      	ldr	r3, [r7, #12]
    2192:	685b      	ldr	r3, [r3, #4]
    2194:	2b01      	cmp	r3, #1
    2196:	d003      	beq.n	21a0 <TEE_CipherInit+0x2c>
/home/test/devel/optee/optee_os/lib/libutee/tee_api_operations.c:843
    2198:	f04f 0000 	mov.w	r0, #0
    219c:	f008 fdca 	bl	ad34 <TEE_Panic>
/home/test/devel/optee/optee_os/lib/libutee/tee_api_operations.c:845
    21a0:	68fb      	ldr	r3, [r7, #12]
    21a2:	69db      	ldr	r3, [r3, #28]
    21a4:	f403 2380 	and.w	r3, r3, #262144	; 0x40000
    21a8:	2b00      	cmp	r3, #0
    21aa:	d003      	beq.n	21b4 <TEE_CipherInit+0x40>
/home/test/devel/optee/optee_os/lib/libutee/tee_api_operations.c:846 (discriminator 1)
    21ac:	68fb      	ldr	r3, [r7, #12]
    21ae:	6a1b      	ldr	r3, [r3, #32]
/home/test/devel/optee/optee_os/lib/libutee/tee_api_operations.c:845 (discriminator 1)
    21b0:	2b00      	cmp	r3, #0
    21b2:	d103      	bne.n	21bc <TEE_CipherInit+0x48>
/home/test/devel/optee/optee_os/lib/libutee/tee_api_operations.c:847
    21b4:	f04f 0000 	mov.w	r0, #0
    21b8:	f008 fdbc 	bl	ad34 <TEE_Panic>
/home/test/devel/optee/optee_os/lib/libutee/tee_api_operations.c:849
    21bc:	68fb      	ldr	r3, [r7, #12]
    21be:	6a9b      	ldr	r3, [r3, #40]	; 0x28
    21c0:	2b00      	cmp	r3, #0
    21c2:	d002      	beq.n	21ca <TEE_CipherInit+0x56>
/home/test/devel/optee/optee_os/lib/libutee/tee_api_operations.c:850
    21c4:	68f8      	ldr	r0, [r7, #12]
    21c6:	f7ff fc95 	bl	1af4 <TEE_ResetOperation>
/home/test/devel/optee/optee_os/lib/libutee/tee_api_operations.c:852
    21ca:	68fb      	ldr	r3, [r7, #12]
    21cc:	f04f 0201 	mov.w	r2, #1
    21d0:	629a      	str	r2, [r3, #40]	; 0x28
/home/test/devel/optee/optee_os/lib/libutee/tee_api_operations.c:854
    21d2:	68fb      	ldr	r3, [r7, #12]
    21d4:	6bdb      	ldr	r3, [r3, #60]	; 0x3c
    21d6:	687a      	ldr	r2, [r7, #4]
    21d8:	68b9      	ldr	r1, [r7, #8]
    21da:	4618      	mov	r0, r3
    21dc:	f001 ef56 	blx	408c <utee_cipher_init>
    21e0:	6178      	str	r0, [r7, #20]
/home/test/devel/optee/optee_os/lib/libutee/tee_api_operations.c:855
    21e2:	697b      	ldr	r3, [r7, #20]
    21e4:	2b00      	cmp	r3, #0
    21e6:	d002      	beq.n	21ee <TEE_CipherInit+0x7a>
/home/test/devel/optee/optee_os/lib/libutee/tee_api_operations.c:856
    21e8:	6978      	ldr	r0, [r7, #20]
    21ea:	f008 fda3 	bl	ad34 <TEE_Panic>
/home/test/devel/optee/optee_os/lib/libutee/tee_api_operations.c:858
    21ee:	68fb      	ldr	r3, [r7, #12]
    21f0:	f04f 0200 	mov.w	r2, #0
    21f4:	639a      	str	r2, [r3, #56]	; 0x38
/home/test/devel/optee/optee_os/lib/libutee/tee_api_operations.c:859
    21f6:	68fb      	ldr	r3, [r7, #12]
    21f8:	69db      	ldr	r3, [r3, #28]
    21fa:	f443 3200 	orr.w	r2, r3, #131072	; 0x20000
    21fe:	68fb      	ldr	r3, [r7, #12]
    2200:	61da      	str	r2, [r3, #28]
/home/test/devel/optee/optee_os/lib/libutee/tee_api_operations.c:860
    2202:	bf00      	nop
    2204:	f107 0718 	add.w	r7, r7, #24
    2208:	46bd      	mov	sp, r7
    220a:	bd80      	pop	{r7, pc}

0000220c <tee_buffer_update>:
tee_buffer_update():
/home/test/devel/optee/optee_os/lib/libutee/tee_api_operations.c:868
    220c:	f84d 4d0c 	str.w	r4, [sp, #-12]!
    2210:	e9cd 7e01 	strd	r7, lr, [sp, #4]
    2214:	b099      	sub	sp, #100	; 0x64
    2216:	af02      	add	r7, sp, #8
    2218:	60f8      	str	r0, [r7, #12]
    221a:	60b9      	str	r1, [r7, #8]
    221c:	607a      	str	r2, [r7, #4]
    221e:	603b      	str	r3, [r7, #0]
/home/test/devel/optee/optee_os/lib/libutee/tee_api_operations.c:870
    2220:	687b      	ldr	r3, [r7, #4]
    2222:	657b      	str	r3, [r7, #84]	; 0x54
/home/test/devel/optee/optee_os/lib/libutee/tee_api_operations.c:871
    2224:	683b      	ldr	r3, [r7, #0]
    2226:	653b      	str	r3, [r7, #80]	; 0x50
/home/test/devel/optee/optee_os/lib/libutee/tee_api_operations.c:872
    2228:	6ebb      	ldr	r3, [r7, #104]	; 0x68
    222a:	64fb      	str	r3, [r7, #76]	; 0x4c
/home/test/devel/optee/optee_os/lib/libutee/tee_api_operations.c:873
    222c:	6efb      	ldr	r3, [r7, #108]	; 0x6c
    222e:	e9d3 3400 	ldrd	r3, r4, [r3]
    2232:	64bb      	str	r3, [r7, #72]	; 0x48
/home/test/devel/optee/optee_os/lib/libutee/tee_api_operations.c:874
    2234:	f04f 0300 	mov.w	r3, #0
    2238:	647b      	str	r3, [r7, #68]	; 0x44
/home/test/devel/optee/optee_os/lib/libutee/tee_api_operations.c:880
    223a:	6d7b      	ldr	r3, [r7, #84]	; 0x54
    223c:	2b00      	cmp	r3, #0
    223e:	d108      	bne.n	2252 <tee_buffer_update+0x46>
/home/test/devel/optee/optee_os/lib/libutee/tee_api_operations.c:881
    2240:	6d3b      	ldr	r3, [r7, #80]	; 0x50
    2242:	2b00      	cmp	r3, #0
    2244:	f000 8156 	beq.w	24f4 <tee_buffer_update+0x2e8>
/home/test/devel/optee/optee_os/lib/libutee/tee_api_operations.c:882
    2248:	f04f 0000 	mov.w	r0, #0
    224c:	f008 fd72 	bl	ad34 <TEE_Panic>
/home/test/devel/optee/optee_os/lib/libutee/tee_api_operations.c:883
    2250:	e150      	b.n	24f4 <tee_buffer_update+0x2e8>
/home/test/devel/optee/optee_os/lib/libutee/tee_api_operations.c:886
    2252:	68fb      	ldr	r3, [r7, #12]
    2254:	f893 3030 	ldrb.w	r3, [r3, #48]	; 0x30
    2258:	2b00      	cmp	r3, #0
    225a:	d008      	beq.n	226e <tee_buffer_update+0x62>
/home/test/devel/optee/optee_os/lib/libutee/tee_api_operations.c:887
    225c:	68fb      	ldr	r3, [r7, #12]
    225e:	6b5b      	ldr	r3, [r3, #52]	; 0x34
    2260:	ea4f 0343 	mov.w	r3, r3, lsl #1
    2264:	63fb      	str	r3, [r7, #60]	; 0x3c
/home/test/devel/optee/optee_os/lib/libutee/tee_api_operations.c:888
    2266:	f04f 0301 	mov.w	r3, #1
    226a:	63bb      	str	r3, [r7, #56]	; 0x38
    226c:	e005      	b.n	227a <tee_buffer_update+0x6e>
/home/test/devel/optee/optee_os/lib/libutee/tee_api_operations.c:890
    226e:	68fb      	ldr	r3, [r7, #12]
    2270:	6b5b      	ldr	r3, [r3, #52]	; 0x34
    2272:	63fb      	str	r3, [r7, #60]	; 0x3c
/home/test/devel/optee/optee_os/lib/libutee/tee_api_operations.c:891
    2274:	f04f 0300 	mov.w	r3, #0
    2278:	63bb      	str	r3, [r7, #56]	; 0x38
/home/test/devel/optee/optee_os/lib/libutee/tee_api_operations.c:894
    227a:	68fb      	ldr	r3, [r7, #12]
    227c:	6b9b      	ldr	r3, [r3, #56]	; 0x38
    227e:	2b00      	cmp	r3, #0
    2280:	d049      	beq.n	2316 <tee_buffer_update+0x10a>
/home/test/devel/optee/optee_os/lib/libutee/tee_api_operations.c:896
    2282:	68fb      	ldr	r3, [r7, #12]
    2284:	6b9a      	ldr	r2, [r3, #56]	; 0x38
    2286:	68fb      	ldr	r3, [r7, #12]
    2288:	6b5b      	ldr	r3, [r3, #52]	; 0x34
    228a:	429a      	cmp	r2, r3
    228c:	d20f      	bcs.n	22ae <tee_buffer_update+0xa2>
/home/test/devel/optee/optee_os/lib/libutee/tee_api_operations.c:897
    228e:	6d3b      	ldr	r3, [r7, #80]	; 0x50
    2290:	637b      	str	r3, [r7, #52]	; 0x34
    2292:	68fb      	ldr	r3, [r7, #12]
    2294:	6b5a      	ldr	r2, [r3, #52]	; 0x34
    2296:	68fb      	ldr	r3, [r7, #12]
    2298:	6b9b      	ldr	r3, [r3, #56]	; 0x38
    229a:	eba2 0303 	sub.w	r3, r2, r3
    229e:	633b      	str	r3, [r7, #48]	; 0x30
    22a0:	6b3a      	ldr	r2, [r7, #48]	; 0x30
    22a2:	6b7b      	ldr	r3, [r7, #52]	; 0x34
    22a4:	4293      	cmp	r3, r2
    22a6:	bf28      	it	cs
    22a8:	4613      	movcs	r3, r2
    22aa:	643b      	str	r3, [r7, #64]	; 0x40
    22ac:	e00d      	b.n	22ca <tee_buffer_update+0xbe>
/home/test/devel/optee/optee_os/lib/libutee/tee_api_operations.c:899
    22ae:	6d3b      	ldr	r3, [r7, #80]	; 0x50
    22b0:	62fb      	str	r3, [r7, #44]	; 0x2c
    22b2:	68fb      	ldr	r3, [r7, #12]
    22b4:	6b9b      	ldr	r3, [r3, #56]	; 0x38
    22b6:	6bfa      	ldr	r2, [r7, #60]	; 0x3c
    22b8:	eba2 0303 	sub.w	r3, r2, r3
    22bc:	62bb      	str	r3, [r7, #40]	; 0x28
    22be:	6aba      	ldr	r2, [r7, #40]	; 0x28
    22c0:	6afb      	ldr	r3, [r7, #44]	; 0x2c
    22c2:	4293      	cmp	r3, r2
    22c4:	bf28      	it	cs
    22c6:	4613      	movcs	r3, r2
    22c8:	643b      	str	r3, [r7, #64]	; 0x40
/home/test/devel/optee/optee_os/lib/libutee/tee_api_operations.c:900
    22ca:	68fb      	ldr	r3, [r7, #12]
    22cc:	6ada      	ldr	r2, [r3, #44]	; 0x2c
    22ce:	68fb      	ldr	r3, [r7, #12]
    22d0:	6b9b      	ldr	r3, [r3, #56]	; 0x38
    22d2:	4413      	add	r3, r2
    22d4:	6c3a      	ldr	r2, [r7, #64]	; 0x40
    22d6:	6d79      	ldr	r1, [r7, #84]	; 0x54
    22d8:	4618      	mov	r0, r3
    22da:	f008 fe1e 	bl	af1a <memcpy>
/home/test/devel/optee/optee_os/lib/libutee/tee_api_operations.c:901
    22de:	68fb      	ldr	r3, [r7, #12]
    22e0:	6b9a      	ldr	r2, [r3, #56]	; 0x38
    22e2:	6c3b      	ldr	r3, [r7, #64]	; 0x40
    22e4:	441a      	add	r2, r3
    22e6:	68fb      	ldr	r3, [r7, #12]
    22e8:	639a      	str	r2, [r3, #56]	; 0x38
/home/test/devel/optee/optee_os/lib/libutee/tee_api_operations.c:902
    22ea:	6d7a      	ldr	r2, [r7, #84]	; 0x54
    22ec:	6c3b      	ldr	r3, [r7, #64]	; 0x40
    22ee:	4413      	add	r3, r2
    22f0:	657b      	str	r3, [r7, #84]	; 0x54
/home/test/devel/optee/optee_os/lib/libutee/tee_api_operations.c:903
    22f2:	6d3a      	ldr	r2, [r7, #80]	; 0x50
    22f4:	6c3b      	ldr	r3, [r7, #64]	; 0x40
    22f6:	eba2 0303 	sub.w	r3, r2, r3
    22fa:	653b      	str	r3, [r7, #80]	; 0x50
/home/test/devel/optee/optee_os/lib/libutee/tee_api_operations.c:904
    22fc:	68fb      	ldr	r3, [r7, #12]
    22fe:	6b9b      	ldr	r3, [r3, #56]	; 0x38
    2300:	68fa      	ldr	r2, [r7, #12]
    2302:	6b52      	ldr	r2, [r2, #52]	; 0x34
    2304:	fbb3 f1f2 	udiv	r1, r3, r2
    2308:	fb02 f201 	mul.w	r2, r2, r1
    230c:	eba3 0302 	sub.w	r3, r3, r2
    2310:	2b00      	cmp	r3, #0
    2312:	f040 80f1 	bne.w	24f8 <tee_buffer_update+0x2ec>
/home/test/devel/optee/optee_os/lib/libutee/tee_api_operations.c:909
    2316:	68fb      	ldr	r3, [r7, #12]
    2318:	6b9b      	ldr	r3, [r3, #56]	; 0x38
    231a:	2b00      	cmp	r3, #0
    231c:	d07a      	beq.n	2414 <tee_buffer_update+0x208>
/home/test/devel/optee/optee_os/lib/libutee/tee_api_operations.c:910 (discriminator 1)
    231e:	68fb      	ldr	r3, [r7, #12]
    2320:	6b9a      	ldr	r2, [r3, #56]	; 0x38
    2322:	6d3b      	ldr	r3, [r7, #80]	; 0x50
    2324:	441a      	add	r2, r3
    2326:	6bf9      	ldr	r1, [r7, #60]	; 0x3c
    2328:	6bbb      	ldr	r3, [r7, #56]	; 0x38
    232a:	440b      	add	r3, r1
/home/test/devel/optee/optee_os/lib/libutee/tee_api_operations.c:909 (discriminator 1)
    232c:	429a      	cmp	r2, r3
    232e:	d371      	bcc.n	2414 <tee_buffer_update+0x208>
/home/test/devel/optee/optee_os/lib/libutee/tee_api_operations.c:911
    2330:	68fb      	ldr	r3, [r7, #12]
    2332:	6b9a      	ldr	r2, [r3, #56]	; 0x38
    2334:	6d3b      	ldr	r3, [r7, #80]	; 0x50
    2336:	441a      	add	r2, r3
    2338:	6bfb      	ldr	r3, [r7, #60]	; 0x3c
    233a:	eba2 0203 	sub.w	r2, r2, r3
    233e:	68fb      	ldr	r3, [r7, #12]
    2340:	6b5b      	ldr	r3, [r3, #52]	; 0x34
    2342:	4413      	add	r3, r2
    2344:	f103 32ff 	add.w	r2, r3, #4294967295	; 0xffffffff
    2348:	68fb      	ldr	r3, [r7, #12]
    234a:	6b5b      	ldr	r3, [r3, #52]	; 0x34
    234c:	f1c3 0300 	rsb	r3, r3, #0
    2350:	ea03 0302 	and.w	r3, r3, r2
    2354:	643b      	str	r3, [r7, #64]	; 0x40
/home/test/devel/optee/optee_os/lib/libutee/tee_api_operations.c:913
    2356:	68fb      	ldr	r3, [r7, #12]
    2358:	6b9b      	ldr	r3, [r3, #56]	; 0x38
    235a:	627b      	str	r3, [r7, #36]	; 0x24
    235c:	6c3b      	ldr	r3, [r7, #64]	; 0x40
    235e:	623b      	str	r3, [r7, #32]
    2360:	6a3a      	ldr	r2, [r7, #32]
    2362:	6a7b      	ldr	r3, [r7, #36]	; 0x24
    2364:	4293      	cmp	r3, r2
    2366:	bf28      	it	cs
    2368:	4613      	movcs	r3, r2
    236a:	643b      	str	r3, [r7, #64]	; 0x40
/home/test/devel/optee/optee_os/lib/libutee/tee_api_operations.c:914
    236c:	6cbb      	ldr	r3, [r7, #72]	; 0x48
    236e:	f04f 0400 	mov.w	r4, #0
    2372:	e9c7 3404 	strd	r3, r4, [r7, #16]
/home/test/devel/optee/optee_os/lib/libutee/tee_api_operations.c:915
    2376:	68fb      	ldr	r3, [r7, #12]
    2378:	6bd8      	ldr	r0, [r3, #60]	; 0x3c
    237a:	68fb      	ldr	r3, [r7, #12]
    237c:	6ad9      	ldr	r1, [r3, #44]	; 0x2c
    237e:	f107 0310 	add.w	r3, r7, #16
    2382:	9300      	str	r3, [sp, #0]
    2384:	68bc      	ldr	r4, [r7, #8]
    2386:	6cfb      	ldr	r3, [r7, #76]	; 0x4c
    2388:	6c3a      	ldr	r2, [r7, #64]	; 0x40
    238a:	47a0      	blx	r4
    238c:	61f8      	str	r0, [r7, #28]
/home/test/devel/optee/optee_os/lib/libutee/tee_api_operations.c:916
    238e:	69fb      	ldr	r3, [r7, #28]
    2390:	2b00      	cmp	r3, #0
    2392:	d002      	beq.n	239a <tee_buffer_update+0x18e>
/home/test/devel/optee/optee_os/lib/libutee/tee_api_operations.c:917
    2394:	69f8      	ldr	r0, [r7, #28]
    2396:	f008 fccd 	bl	ad34 <TEE_Panic>
/home/test/devel/optee/optee_os/lib/libutee/tee_api_operations.c:918
    239a:	e9d7 3404 	ldrd	r3, r4, [r7, #16]
    239e:	461a      	mov	r2, r3
    23a0:	6cfb      	ldr	r3, [r7, #76]	; 0x4c
    23a2:	4413      	add	r3, r2
    23a4:	64fb      	str	r3, [r7, #76]	; 0x4c
/home/test/devel/optee/optee_os/lib/libutee/tee_api_operations.c:919
    23a6:	e9d7 3404 	ldrd	r3, r4, [r7, #16]
    23aa:	461a      	mov	r2, r3
    23ac:	6cbb      	ldr	r3, [r7, #72]	; 0x48
    23ae:	eba3 0302 	sub.w	r3, r3, r2
    23b2:	64bb      	str	r3, [r7, #72]	; 0x48
/home/test/devel/optee/optee_os/lib/libutee/tee_api_operations.c:920
    23b4:	e9d7 3404 	ldrd	r3, r4, [r7, #16]
    23b8:	461a      	mov	r2, r3
    23ba:	6c7b      	ldr	r3, [r7, #68]	; 0x44
    23bc:	4413      	add	r3, r2
    23be:	647b      	str	r3, [r7, #68]	; 0x44
/home/test/devel/optee/optee_os/lib/libutee/tee_api_operations.c:921
    23c0:	68fb      	ldr	r3, [r7, #12]
    23c2:	6b9a      	ldr	r2, [r3, #56]	; 0x38
    23c4:	6c3b      	ldr	r3, [r7, #64]	; 0x40
    23c6:	eba2 0203 	sub.w	r2, r2, r3
    23ca:	68fb      	ldr	r3, [r7, #12]
    23cc:	639a      	str	r2, [r3, #56]	; 0x38
/home/test/devel/optee/optee_os/lib/libutee/tee_api_operations.c:922
    23ce:	68fb      	ldr	r3, [r7, #12]
    23d0:	6b9b      	ldr	r3, [r3, #56]	; 0x38
    23d2:	2b00      	cmp	r3, #0
    23d4:	d01e      	beq.n	2414 <tee_buffer_update+0x208>
/home/test/devel/optee/optee_os/lib/libutee/tee_api_operations.c:926
    23d6:	68fb      	ldr	r3, [r7, #12]
    23d8:	6ad8      	ldr	r0, [r3, #44]	; 0x2c
    23da:	68fb      	ldr	r3, [r7, #12]
    23dc:	6ada      	ldr	r2, [r3, #44]	; 0x2c
    23de:	6c3b      	ldr	r3, [r7, #64]	; 0x40
    23e0:	eb02 0103 	add.w	r1, r2, r3
    23e4:	6bfa      	ldr	r2, [r7, #60]	; 0x3c
    23e6:	6c3b      	ldr	r3, [r7, #64]	; 0x40
    23e8:	eba2 0303 	sub.w	r3, r2, r3
    23ec:	461a      	mov	r2, r3
    23ee:	f008 fd94 	bl	af1a <memcpy>
/home/test/devel/optee/optee_os/lib/libutee/tee_api_operations.c:927
    23f2:	68fb      	ldr	r3, [r7, #12]
    23f4:	6ada      	ldr	r2, [r3, #44]	; 0x2c
    23f6:	68fb      	ldr	r3, [r7, #12]
    23f8:	6b9b      	ldr	r3, [r3, #56]	; 0x38
    23fa:	4413      	add	r3, r2
    23fc:	6d3a      	ldr	r2, [r7, #80]	; 0x50
    23fe:	6d79      	ldr	r1, [r7, #84]	; 0x54
    2400:	4618      	mov	r0, r3
    2402:	f008 fd8a 	bl	af1a <memcpy>
/home/test/devel/optee/optee_os/lib/libutee/tee_api_operations.c:928
    2406:	68fb      	ldr	r3, [r7, #12]
    2408:	6b9a      	ldr	r2, [r3, #56]	; 0x38
    240a:	6d3b      	ldr	r3, [r7, #80]	; 0x50
    240c:	441a      	add	r2, r3
    240e:	68fb      	ldr	r3, [r7, #12]
    2410:	639a      	str	r2, [r3, #56]	; 0x38
/home/test/devel/optee/optee_os/lib/libutee/tee_api_operations.c:929
    2412:	e072      	b.n	24fa <tee_buffer_update+0x2ee>
/home/test/devel/optee/optee_os/lib/libutee/tee_api_operations.c:933
    2414:	6bfa      	ldr	r2, [r7, #60]	; 0x3c
    2416:	6bbb      	ldr	r3, [r7, #56]	; 0x38
    2418:	441a      	add	r2, r3
    241a:	6d3b      	ldr	r3, [r7, #80]	; 0x50
    241c:	429a      	cmp	r2, r3
    241e:	d858      	bhi.n	24d2 <tee_buffer_update+0x2c6>
/home/test/devel/optee/optee_os/lib/libutee/tee_api_operations.c:935
    2420:	68fb      	ldr	r3, [r7, #12]
    2422:	681a      	ldr	r2, [r3, #0]
    2424:	f44f 7344 	mov.w	r3, #784	; 0x310
    2428:	f2c1 0300 	movt	r3, #4096	; 0x1000
    242c:	429a      	cmp	r2, r3
    242e:	d110      	bne.n	2452 <tee_buffer_update+0x246>
/home/test/devel/optee/optee_os/lib/libutee/tee_api_operations.c:936
    2430:	6d3a      	ldr	r2, [r7, #80]	; 0x50
    2432:	6bfb      	ldr	r3, [r7, #60]	; 0x3c
    2434:	eba2 0203 	sub.w	r2, r2, r3
    2438:	68fb      	ldr	r3, [r7, #12]
    243a:	6b5b      	ldr	r3, [r3, #52]	; 0x34
    243c:	4413      	add	r3, r2
    243e:	f103 32ff 	add.w	r2, r3, #4294967295	; 0xffffffff
    2442:	68fb      	ldr	r3, [r7, #12]
    2444:	6b5b      	ldr	r3, [r3, #52]	; 0x34
    2446:	f1c3 0300 	rsb	r3, r3, #0
    244a:	ea03 0302 	and.w	r3, r3, r2
    244e:	643b      	str	r3, [r7, #64]	; 0x40
    2450:	e00d      	b.n	246e <tee_buffer_update+0x262>
/home/test/devel/optee/optee_os/lib/libutee/tee_api_operations.c:938
    2452:	6d3a      	ldr	r2, [r7, #80]	; 0x50
    2454:	6bfb      	ldr	r3, [r7, #60]	; 0x3c
    2456:	eba2 0203 	sub.w	r2, r2, r3
    245a:	68fb      	ldr	r3, [r7, #12]
    245c:	6b5b      	ldr	r3, [r3, #52]	; 0x34
    245e:	441a      	add	r2, r3
    2460:	68fb      	ldr	r3, [r7, #12]
    2462:	6b5b      	ldr	r3, [r3, #52]	; 0x34
    2464:	f1c3 0300 	rsb	r3, r3, #0
    2468:	ea03 0302 	and.w	r3, r3, r2
    246c:	643b      	str	r3, [r7, #64]	; 0x40
/home/test/devel/optee/optee_os/lib/libutee/tee_api_operations.c:940
    246e:	6cbb      	ldr	r3, [r7, #72]	; 0x48
    2470:	f04f 0400 	mov.w	r4, #0
    2474:	e9c7 3404 	strd	r3, r4, [r7, #16]
/home/test/devel/optee/optee_os/lib/libutee/tee_api_operations.c:941
    2478:	68fb      	ldr	r3, [r7, #12]
    247a:	6bd8      	ldr	r0, [r3, #60]	; 0x3c
    247c:	f107 0310 	add.w	r3, r7, #16
    2480:	9300      	str	r3, [sp, #0]
    2482:	68bc      	ldr	r4, [r7, #8]
    2484:	6cfb      	ldr	r3, [r7, #76]	; 0x4c
    2486:	6c3a      	ldr	r2, [r7, #64]	; 0x40
    2488:	6d79      	ldr	r1, [r7, #84]	; 0x54
    248a:	47a0      	blx	r4
    248c:	61f8      	str	r0, [r7, #28]
/home/test/devel/optee/optee_os/lib/libutee/tee_api_operations.c:942
    248e:	69fb      	ldr	r3, [r7, #28]
    2490:	2b00      	cmp	r3, #0
    2492:	d002      	beq.n	249a <tee_buffer_update+0x28e>
/home/test/devel/optee/optee_os/lib/libutee/tee_api_operations.c:943
    2494:	69f8      	ldr	r0, [r7, #28]
    2496:	f008 fc4d 	bl	ad34 <TEE_Panic>
/home/test/devel/optee/optee_os/lib/libutee/tee_api_operations.c:944
    249a:	6d7a      	ldr	r2, [r7, #84]	; 0x54
    249c:	6c3b      	ldr	r3, [r7, #64]	; 0x40
    249e:	4413      	add	r3, r2
    24a0:	657b      	str	r3, [r7, #84]	; 0x54
/home/test/devel/optee/optee_os/lib/libutee/tee_api_operations.c:945
    24a2:	6d3a      	ldr	r2, [r7, #80]	; 0x50
    24a4:	6c3b      	ldr	r3, [r7, #64]	; 0x40
    24a6:	eba2 0303 	sub.w	r3, r2, r3
    24aa:	653b      	str	r3, [r7, #80]	; 0x50
/home/test/devel/optee/optee_os/lib/libutee/tee_api_operations.c:946
    24ac:	e9d7 3404 	ldrd	r3, r4, [r7, #16]
    24b0:	461a      	mov	r2, r3
    24b2:	6cfb      	ldr	r3, [r7, #76]	; 0x4c
    24b4:	4413      	add	r3, r2
    24b6:	64fb      	str	r3, [r7, #76]	; 0x4c
/home/test/devel/optee/optee_os/lib/libutee/tee_api_operations.c:947
    24b8:	e9d7 3404 	ldrd	r3, r4, [r7, #16]
    24bc:	461a      	mov	r2, r3
    24be:	6cbb      	ldr	r3, [r7, #72]	; 0x48
    24c0:	eba3 0302 	sub.w	r3, r3, r2
    24c4:	64bb      	str	r3, [r7, #72]	; 0x48
/home/test/devel/optee/optee_os/lib/libutee/tee_api_operations.c:948
    24c6:	e9d7 3404 	ldrd	r3, r4, [r7, #16]
    24ca:	461a      	mov	r2, r3
    24cc:	6c7b      	ldr	r3, [r7, #68]	; 0x44
    24ce:	4413      	add	r3, r2
    24d0:	647b      	str	r3, [r7, #68]	; 0x44
/home/test/devel/optee/optee_os/lib/libutee/tee_api_operations.c:952
    24d2:	68fb      	ldr	r3, [r7, #12]
    24d4:	6ada      	ldr	r2, [r3, #44]	; 0x2c
    24d6:	68fb      	ldr	r3, [r7, #12]
    24d8:	6b9b      	ldr	r3, [r3, #56]	; 0x38
    24da:	4413      	add	r3, r2
    24dc:	6d3a      	ldr	r2, [r7, #80]	; 0x50
    24de:	6d79      	ldr	r1, [r7, #84]	; 0x54
    24e0:	4618      	mov	r0, r3
    24e2:	f008 fd1a 	bl	af1a <memcpy>
/home/test/devel/optee/optee_os/lib/libutee/tee_api_operations.c:953
    24e6:	68fb      	ldr	r3, [r7, #12]
    24e8:	6b9a      	ldr	r2, [r3, #56]	; 0x38
    24ea:	6d3b      	ldr	r3, [r7, #80]	; 0x50
    24ec:	441a      	add	r2, r3
    24ee:	68fb      	ldr	r3, [r7, #12]
    24f0:	639a      	str	r2, [r3, #56]	; 0x38
    24f2:	e002      	b.n	24fa <tee_buffer_update+0x2ee>
/home/test/devel/optee/optee_os/lib/libutee/tee_api_operations.c:883
    24f4:	bf00      	nop
    24f6:	e000      	b.n	24fa <tee_buffer_update+0x2ee>
/home/test/devel/optee/optee_os/lib/libutee/tee_api_operations.c:905
    24f8:	bf00      	nop
/home/test/devel/optee/optee_os/lib/libutee/tee_api_operations.c:956
    24fa:	6c7b      	ldr	r3, [r7, #68]	; 0x44
    24fc:	f04f 0400 	mov.w	r4, #0
    2500:	6efa      	ldr	r2, [r7, #108]	; 0x6c
    2502:	e9c2 3400 	strd	r3, r4, [r2]
/home/test/devel/optee/optee_os/lib/libutee/tee_api_operations.c:957
    2506:	f04f 0300 	mov.w	r3, #0
/home/test/devel/optee/optee_os/lib/libutee/tee_api_operations.c:958
    250a:	4618      	mov	r0, r3
    250c:	f107 075c 	add.w	r7, r7, #92	; 0x5c
    2510:	46bd      	mov	sp, r7
    2512:	e9dd 4700 	ldrd	r4, r7, [sp]
    2516:	b002      	add	sp, #8
    2518:	f85d fb04 	ldr.w	pc, [sp], #4

0000251c <TEE_CipherUpdate>:
TEE_CipherUpdate():
/home/test/devel/optee/optee_os/lib/libutee/tee_api_operations.c:962
    251c:	f84d 4d0c 	str.w	r4, [sp, #-12]!
    2520:	e9cd 7e01 	strd	r7, lr, [sp, #4]
    2524:	b08b      	sub	sp, #44	; 0x2c
    2526:	af02      	add	r7, sp, #8
    2528:	60f8      	str	r0, [r7, #12]
    252a:	60b9      	str	r1, [r7, #8]
    252c:	607a      	str	r2, [r7, #4]
    252e:	603b      	str	r3, [r7, #0]
    2530:	4867      	ldr	r0, [pc, #412]	; (26d0 <TEE_CipherUpdate+0x1b4>)
    2532:	4478      	add	r0, pc
/home/test/devel/optee/optee_os/lib/libutee/tee_api_operations.c:967
    2534:	68fb      	ldr	r3, [r7, #12]
    2536:	2b00      	cmp	r3, #0
    2538:	d00f      	beq.n	255a <TEE_CipherUpdate+0x3e>
/home/test/devel/optee/optee_os/lib/libutee/tee_api_operations.c:967 (discriminator 1)
    253a:	68bb      	ldr	r3, [r7, #8]
    253c:	2b00      	cmp	r3, #0
    253e:	d102      	bne.n	2546 <TEE_CipherUpdate+0x2a>
/home/test/devel/optee/optee_os/lib/libutee/tee_api_operations.c:968
    2540:	687b      	ldr	r3, [r7, #4]
    2542:	2b00      	cmp	r3, #0
    2544:	d109      	bne.n	255a <TEE_CipherUpdate+0x3e>
/home/test/devel/optee/optee_os/lib/libutee/tee_api_operations.c:968 (discriminator 1)
    2546:	6b3b      	ldr	r3, [r7, #48]	; 0x30
    2548:	2b00      	cmp	r3, #0
    254a:	d006      	beq.n	255a <TEE_CipherUpdate+0x3e>
/home/test/devel/optee/optee_os/lib/libutee/tee_api_operations.c:969
    254c:	683b      	ldr	r3, [r7, #0]
    254e:	2b00      	cmp	r3, #0
    2550:	d109      	bne.n	2566 <TEE_CipherUpdate+0x4a>
/home/test/devel/optee/optee_os/lib/libutee/tee_api_operations.c:970
    2552:	6b3b      	ldr	r3, [r7, #48]	; 0x30
    2554:	681b      	ldr	r3, [r3, #0]
    2556:	2b00      	cmp	r3, #0
    2558:	d005      	beq.n	2566 <TEE_CipherUpdate+0x4a>
/home/test/devel/optee/optee_os/lib/libutee/tee_api_operations.c:971
    255a:	f04f 0306 	mov.w	r3, #6
    255e:	f6cf 73ff 	movt	r3, #65535	; 0xffff
    2562:	61fb      	str	r3, [r7, #28]
/home/test/devel/optee/optee_os/lib/libutee/tee_api_operations.c:972
    2564:	e09c      	b.n	26a0 <TEE_CipherUpdate+0x184>
/home/test/devel/optee/optee_os/lib/libutee/tee_api_operations.c:975
    2566:	68fb      	ldr	r3, [r7, #12]
    2568:	685b      	ldr	r3, [r3, #4]
    256a:	2b01      	cmp	r3, #1
    256c:	d005      	beq.n	257a <TEE_CipherUpdate+0x5e>
/home/test/devel/optee/optee_os/lib/libutee/tee_api_operations.c:976
    256e:	f04f 0306 	mov.w	r3, #6
    2572:	f6cf 73ff 	movt	r3, #65535	; 0xffff
    2576:	61fb      	str	r3, [r7, #28]
/home/test/devel/optee/optee_os/lib/libutee/tee_api_operations.c:977
    2578:	e092      	b.n	26a0 <TEE_CipherUpdate+0x184>
/home/test/devel/optee/optee_os/lib/libutee/tee_api_operations.c:980
    257a:	68fb      	ldr	r3, [r7, #12]
    257c:	69db      	ldr	r3, [r3, #28]
    257e:	f403 3300 	and.w	r3, r3, #131072	; 0x20000
    2582:	2b00      	cmp	r3, #0
    2584:	d105      	bne.n	2592 <TEE_CipherUpdate+0x76>
/home/test/devel/optee/optee_os/lib/libutee/tee_api_operations.c:981
    2586:	f04f 0306 	mov.w	r3, #6
    258a:	f6cf 73ff 	movt	r3, #65535	; 0xffff
    258e:	61fb      	str	r3, [r7, #28]
/home/test/devel/optee/optee_os/lib/libutee/tee_api_operations.c:982
    2590:	e086      	b.n	26a0 <TEE_CipherUpdate+0x184>
/home/test/devel/optee/optee_os/lib/libutee/tee_api_operations.c:985
    2592:	68fb      	ldr	r3, [r7, #12]
    2594:	6a9b      	ldr	r3, [r3, #40]	; 0x28
    2596:	2b01      	cmp	r3, #1
    2598:	d005      	beq.n	25a6 <TEE_CipherUpdate+0x8a>
/home/test/devel/optee/optee_os/lib/libutee/tee_api_operations.c:986
    259a:	f04f 0306 	mov.w	r3, #6
    259e:	f6cf 73ff 	movt	r3, #65535	; 0xffff
    25a2:	61fb      	str	r3, [r7, #28]
/home/test/devel/optee/optee_os/lib/libutee/tee_api_operations.c:987
    25a4:	e07c      	b.n	26a0 <TEE_CipherUpdate+0x184>
/home/test/devel/optee/optee_os/lib/libutee/tee_api_operations.c:990
    25a6:	68bb      	ldr	r3, [r7, #8]
    25a8:	2b00      	cmp	r3, #0
    25aa:	d10a      	bne.n	25c2 <TEE_CipherUpdate+0xa6>
/home/test/devel/optee/optee_os/lib/libutee/tee_api_operations.c:990 (discriminator 1)
    25ac:	687b      	ldr	r3, [r7, #4]
    25ae:	2b00      	cmp	r3, #0
    25b0:	d107      	bne.n	25c2 <TEE_CipherUpdate+0xa6>
/home/test/devel/optee/optee_os/lib/libutee/tee_api_operations.c:991
    25b2:	6b3b      	ldr	r3, [r7, #48]	; 0x30
    25b4:	f04f 0200 	mov.w	r2, #0
    25b8:	601a      	str	r2, [r3, #0]
/home/test/devel/optee/optee_os/lib/libutee/tee_api_operations.c:992
    25ba:	f04f 0300 	mov.w	r3, #0
    25be:	61fb      	str	r3, [r7, #28]
/home/test/devel/optee/optee_os/lib/libutee/tee_api_operations.c:993
    25c0:	e06e      	b.n	26a0 <TEE_CipherUpdate+0x184>
/home/test/devel/optee/optee_os/lib/libutee/tee_api_operations.c:997
    25c2:	68fb      	ldr	r3, [r7, #12]
    25c4:	6b5b      	ldr	r3, [r3, #52]	; 0x34
    25c6:	2b01      	cmp	r3, #1
    25c8:	d90d      	bls.n	25e6 <TEE_CipherUpdate+0xca>
/home/test/devel/optee/optee_os/lib/libutee/tee_api_operations.c:998
    25ca:	68fb      	ldr	r3, [r7, #12]
    25cc:	6b9a      	ldr	r2, [r3, #56]	; 0x38
    25ce:	687b      	ldr	r3, [r7, #4]
    25d0:	441a      	add	r2, r3
/home/test/devel/optee/optee_os/lib/libutee/tee_api_operations.c:999
    25d2:	68fb      	ldr	r3, [r7, #12]
    25d4:	6b5b      	ldr	r3, [r3, #52]	; 0x34
/home/test/devel/optee/optee_os/lib/libutee/tee_api_operations.c:998
    25d6:	fbb2 f3f3 	udiv	r3, r2, r3
/home/test/devel/optee/optee_os/lib/libutee/tee_api_operations.c:999
    25da:	68fa      	ldr	r2, [r7, #12]
    25dc:	6b52      	ldr	r2, [r2, #52]	; 0x34
/home/test/devel/optee/optee_os/lib/libutee/tee_api_operations.c:998
    25de:	fb02 f303 	mul.w	r3, r2, r3
    25e2:	61bb      	str	r3, [r7, #24]
    25e4:	e001      	b.n	25ea <TEE_CipherUpdate+0xce>
/home/test/devel/optee/optee_os/lib/libutee/tee_api_operations.c:1001
    25e6:	687b      	ldr	r3, [r7, #4]
    25e8:	61bb      	str	r3, [r7, #24]
/home/test/devel/optee/optee_os/lib/libutee/tee_api_operations.c:1003
    25ea:	68fb      	ldr	r3, [r7, #12]
    25ec:	f893 3030 	ldrb.w	r3, [r3, #48]	; 0x30
    25f0:	2b00      	cmp	r3, #0
    25f2:	d012      	beq.n	261a <TEE_CipherUpdate+0xfe>
/home/test/devel/optee/optee_os/lib/libutee/tee_api_operations.c:1004
    25f4:	68fb      	ldr	r3, [r7, #12]
    25f6:	6b5b      	ldr	r3, [r3, #52]	; 0x34
    25f8:	ea4f 0243 	mov.w	r2, r3, lsl #1
    25fc:	69bb      	ldr	r3, [r7, #24]
    25fe:	429a      	cmp	r2, r3
    2600:	d208      	bcs.n	2614 <TEE_CipherUpdate+0xf8>
/home/test/devel/optee/optee_os/lib/libutee/tee_api_operations.c:1005
    2602:	68fb      	ldr	r3, [r7, #12]
    2604:	6b5b      	ldr	r3, [r3, #52]	; 0x34
    2606:	ea4f 0343 	mov.w	r3, r3, lsl #1
    260a:	69ba      	ldr	r2, [r7, #24]
    260c:	eba2 0303 	sub.w	r3, r2, r3
    2610:	61bb      	str	r3, [r7, #24]
    2612:	e002      	b.n	261a <TEE_CipherUpdate+0xfe>
/home/test/devel/optee/optee_os/lib/libutee/tee_api_operations.c:1007
    2614:	f04f 0300 	mov.w	r3, #0
    2618:	61bb      	str	r3, [r7, #24]
/home/test/devel/optee/optee_os/lib/libutee/tee_api_operations.c:1014
    261a:	6b3b      	ldr	r3, [r7, #48]	; 0x30
    261c:	681a      	ldr	r2, [r3, #0]
    261e:	69bb      	ldr	r3, [r7, #24]
    2620:	429a      	cmp	r2, r3
    2622:	d208      	bcs.n	2636 <TEE_CipherUpdate+0x11a>
/home/test/devel/optee/optee_os/lib/libutee/tee_api_operations.c:1015
    2624:	6b3b      	ldr	r3, [r7, #48]	; 0x30
    2626:	69ba      	ldr	r2, [r7, #24]
    2628:	601a      	str	r2, [r3, #0]
/home/test/devel/optee/optee_os/lib/libutee/tee_api_operations.c:1016
    262a:	f04f 0310 	mov.w	r3, #16
    262e:	f6cf 73ff 	movt	r3, #65535	; 0xffff
    2632:	61fb      	str	r3, [r7, #28]
/home/test/devel/optee/optee_os/lib/libutee/tee_api_operations.c:1017
    2634:	e034      	b.n	26a0 <TEE_CipherUpdate+0x184>
/home/test/devel/optee/optee_os/lib/libutee/tee_api_operations.c:1020
    2636:	6b3b      	ldr	r3, [r7, #48]	; 0x30
    2638:	681b      	ldr	r3, [r3, #0]
    263a:	f04f 0400 	mov.w	r4, #0
    263e:	e9c7 3404 	strd	r3, r4, [r7, #16]
/home/test/devel/optee/optee_os/lib/libutee/tee_api_operations.c:1021
    2642:	68fb      	ldr	r3, [r7, #12]
    2644:	6b5b      	ldr	r3, [r3, #52]	; 0x34
    2646:	2b01      	cmp	r3, #1
    2648:	d90d      	bls.n	2666 <TEE_CipherUpdate+0x14a>
/home/test/devel/optee/optee_os/lib/libutee/tee_api_operations.c:1022
    264a:	f107 0310 	add.w	r3, r7, #16
