
8aaaf200-2450-11e4-abe2-0002a5d5c51b.elf:     file format elf32-littlearm
8aaaf200-2450-11e4-abe2-0002a5d5c51b.elf
architecture: arm, flags 0x00000150:
HAS_SYMS, DYNAMIC, D_PAGED
start address 0x00000020

Program Header:
0x70000001 off    0x00020ba4 vaddr 0x00010ba4 paddr 0x00010ba4 align 2**2
         filesz 0x00000a48 memsz 0x00000a48 flags r--
    LOAD off    0x00010000 vaddr 0x00000000 paddr 0x00000000 align 2**16
         filesz 0x0000e538 memsz 0x0000e538 flags r-x
    LOAD off    0x0001e538 vaddr 0x0000e538 paddr 0x0000e538 align 2**16
         filesz 0x00003430 memsz 0x00003430 flags r--
    LOAD off    0x00022000 vaddr 0x00012000 paddr 0x00012000 align 2**16
         filesz 0x0000009c memsz 0x0000ac28 flags rw-
 DYNAMIC off    0x00021738 vaddr 0x00011738 paddr 0x00011738 align 2**2
         filesz 0x00000080 memsz 0x00000080 flags rw-

Dynamic Section:
  HASH                 0x00011920
  STRTAB               0x00011888
  SYMTAB               0x000117b8
  STRSZ                0x00000096
  SYMENT               0x00000010
  DEBUG                0x00000000
  REL                  0x00011620
  RELSZ                0x00000118
  RELENT               0x00000008
  FLAGS_1              0x08000000
  RELCOUNT             0x00000019
private flags = 5000400: [Version5 EABI] [hard-float ABI]

Sections:
Idx Name          Size      VMA       LMA       File off  Algn
  0 .ta_head      00000020  00000000  00000000  00010000  2**3
                  CONTENTS, ALLOC, LOAD, DATA
  1 .text         0000e518  00000020  00000020  00010020  2**2
                  CONTENTS, ALLOC, LOAD, READONLY, CODE
  2 .rodata       0000187c  0000e538  0000e538  0001e538  2**2
                  CONTENTS, ALLOC, LOAD, READONLY, DATA
  3 .ARM.extab    00000dcc  0000fdb4  0000fdb4  0001fdb4  2**2
                  CONTENTS, ALLOC, LOAD, READONLY, DATA
  4 .ARM.extab.text.utee_panic 0000000c  00010b80  00010b80  00020b80  2**2
                  CONTENTS, ALLOC, LOAD, READONLY, DATA
  5 .ARM.extab.text.__aeabi_ldivmod 0000000c  00010b8c  00010b8c  00020b8c  2**2
                  CONTENTS, ALLOC, LOAD, READONLY, DATA
  6 .ARM.extab.text.__aeabi_uldivmod 0000000c  00010b98  00010b98  00020b98  2**2
                  CONTENTS, ALLOC, LOAD, READONLY, DATA
  7 .ARM.exidx    00000a48  00010ba4  00010ba4  00020ba4  2**2
                  CONTENTS, ALLOC, LOAD, READONLY, DATA
  8 .got          00000034  000115ec  000115ec  000215ec  2**2
                  CONTENTS, ALLOC, LOAD, DATA
  9 .dynsym       000000d0  000117b8  000117b8  000217b8  2**2
                  CONTENTS, ALLOC, LOAD, READONLY, DATA
 10 .rel.got      00000050  000116e8  000116e8  000216e8  2**2
                  CONTENTS, ALLOC, LOAD, READONLY, DATA
 11 .dynamic      00000080  00011738  00011738  00021738  2**2
                  CONTENTS, ALLOC, LOAD, DATA
 12 .dynstr       00000096  00011888  00011888  00021888  2**0
                  CONTENTS, ALLOC, LOAD, READONLY, DATA
 13 .hash         00000048  00011920  00011920  00021920  2**2
                  CONTENTS, ALLOC, LOAD, READONLY, DATA
 14 .data         0000009c  00012000  00012000  00022000  2**2
                  CONTENTS, ALLOC, LOAD, DATA
 15 .bss          0000ab8c  0001209c  0001209c  0002209c  2**2
                  ALLOC
 16 .debug_info   0000c474  00000000  00000000  0002209c  2**0
                  CONTENTS, READONLY, DEBUGGING
 17 .debug_abbrev 00003524  00000000  00000000  0002e510  2**0
                  CONTENTS, READONLY, DEBUGGING
 18 .debug_aranges 000007e0  00000000  00000000  00031a38  2**3
                  CONTENTS, READONLY, DEBUGGING
 19 .debug_macro  00005cd8  00000000  00000000  00032218  2**0
                  CONTENTS, READONLY, DEBUGGING
 20 .debug_line   00007880  00000000  00000000  00037ef0  2**0
                  CONTENTS, READONLY, DEBUGGING
 21 .debug_str    00011568  00000000  00000000  0003f770  2**0
                  CONTENTS, READONLY, DEBUGGING
 22 .comment      0000002d  00000000  00000000  00050cd8  2**0
                  CONTENTS, READONLY
 23 .ARM.attributes 00000038  00000000  00000000  00050d05  2**0
                  CONTENTS, READONLY
 24 .debug_frame  000034ac  00000000  00000000  00050d40  2**2
                  CONTENTS, READONLY, DEBUGGING
 25 .rel.dyn      000000c8  00011620  00011620  00021620  2**2
                  CONTENTS, ALLOC, LOAD, READONLY, DATA
 26 .debug_ranges 00000288  00000000  00000000  000541f0  2**3
                  CONTENTS, READONLY, DEBUGGING
SYMBOL TABLE:
00000000 l    d  .ta_head	00000000 .ta_head
00000020 l    d  .text	00000000 .text
0000e538 l    d  .rodata	00000000 .rodata
0000fdb4 l    d  .ARM.extab	00000000 .ARM.extab
00010b80 l    d  .ARM.extab.text.utee_panic	00000000 .ARM.extab.text.utee_panic
00010b8c l    d  .ARM.extab.text.__aeabi_ldivmod	00000000 .ARM.extab.text.__aeabi_ldivmod
00010b98 l    d  .ARM.extab.text.__aeabi_uldivmod	00000000 .ARM.extab.text.__aeabi_uldivmod
00010ba4 l    d  .ARM.exidx	00000000 .ARM.exidx
000115ec l    d  .got	00000000 .got
000116e8 l    d  .rel.got	00000000 .rel.got
00011738 l    d  .dynamic	00000000 .dynamic
000117b8 l    d  .dynsym	00000000 .dynsym
00011888 l    d  .dynstr	00000000 .dynstr
00011920 l    d  .hash	00000000 .hash
00012000 l    d  .data	00000000 .data
0001209c l    d  .bss	00000000 .bss
00000000 l    d  .debug_info	00000000 .debug_info
00000000 l    d  .debug_abbrev	00000000 .debug_abbrev
00000000 l    d  .debug_aranges	00000000 .debug_aranges
00000000 l    d  .debug_macro	00000000 .debug_macro
00000000 l    d  .debug_line	00000000 .debug_line
00000000 l    d  .debug_str	00000000 .debug_str
00000000 l    d  .comment	00000000 .comment
00000000 l    d  .ARM.attributes	00000000 .ARM.attributes
00000000 l    d  .debug_frame	00000000 .debug_frame
00011620 l    d  .rel.dyn	00000000 .rel.dyn
00000000 l    d  .debug_ranges	00000000 .debug_ranges
00000000 l    df *ABS*	00000000 user_ta_header.c
0000e780 l     O .rodata	00000001 __compound_literal.0
0000e781 l     O .rodata	00000001 __compound_literal.1
0000e782 l     O .rodata	00000001 __compound_literal.2
0000e784 l     O .rodata	00000004 __compound_literal.3
0000e788 l     O .rodata	00000004 __compound_literal.4
0000e78c l     O .rodata	00000004 __compound_literal.5
00000000 l    df *ABS*	00000000 sha.c
0000e594 l     O .rodata	00000014 __func__.6151
0000e5a8 l     O .rodata	00000015 __func__.6155
0000e5c0 l     O .rodata	00000019 __func__.6162
0000e5dc l     O .rodata	0000001a __func__.6166
00000114 l     F .text	000000b0 inc_value
0000e5f8 l     O .rodata	0000000a __func__.6172
00000000 l    df *ABS*	00000000 sha_handle.c
0000e710 l     O .rodata	0000000c __func__.6121
000002f8 l     F .text	000001f0 l_CryptoTaHash_sha
0000e71c l     O .rodata	00000013 __func__.6136
000004e8 l     F .text	00000040 l_CryptoTaOther_Random
0000e730 l     O .rodata	00000017 __func__.6149
0000e748 l     O .rodata	00000015 __func__.6160
0000e760 l     O .rodata	00000018 __func__.6168
00000000 l    df *ABS*	00000000 tee_api_operations.c
000016c0 l     F .text	00000048 init_hash_operation
000018bc l     F .text	00000310 tee_buffer_update
00000000 l    df *ABS*	00000000 user_ta_entry.c
00003140 l     F .text	00000010 __utee_gprof_init
00003150 l     F .text	00000010 __utee_gprof_fini
00012074 l     O .data	00000008 ta_sessions
0001a0c0 l     O .bss	00000001 init_done
00003160 l     F .text	00000054 init_instance
000031b4 l     F .text	00000014 uninit_instance
000031c8 l     F .text	00000058 ta_header_save_params
00003220 l     F .text	00000044 ta_header_get_session
00003264 l     F .text	000000c0 ta_header_add_session
00003324 l     F .text	000000a8 ta_header_remove_session
000033cc l     F .text	0000008e entry_open_session
0000345a l     F .text	00000040 entry_close_session
0000349a l     F .text	00000070 entry_invoke_command
00000000 l    df *ABS*	00000000 utee_syscalls_a32.o
00000000 l    df *ABS*	00000000 gprof_a32.o
00000000 l    df *ABS*	00000000 tee_api_arith.c
0001a0c4 l     O .bss	00001b00 mempool_u32
0001207c l     O .data	00000004 mempool
00003b60 l     F .text	00000028 TEE_BigInt_Panic
00000000 l    df *ABS*	00000000 tee_api.c
0000e8dc l     O .rodata	00000004 DEFAULT_TEE_MALLOC_HINT
0001bbc4 l     O .bss	00000004 tee_api_instance_data
00000000 l    df *ABS*	00000000 tee_user_mem.c
0000e8e0 l     O .rodata	00000004 DEFAULT_TEE_MALLOC_HINT
00012080 l     O .data	00000004 ARTIST
0000e8e4 l     O .rodata	00000004 CANARY_LINE_SIZE
00004c7c l     F .text	0000001e buf_addr
00004c9a l     F .text	00000028 buf_size
00004cc2 l     F .text	0000001e elem_addr
00004ce0 l     F .text	00000048 is_buffer_valid
00004d28 l     F .text	00000068 print_buf
0001bbc8 l     O .bss	00000004 heap_level
0001bbcc l     O .bss	00000008 global_stats
00004d90 l     F .text	00000060 heap_inc
00004df0 l     F .text	00000064 heap_dec
00004e54 l     F .text	00000064 check_elem_end
0000e9e4 l     O .rodata	0000000f __func__.6246
00004eb8 l     F .text	000000dc check_elem
0000e9f4 l     O .rodata	0000000b __func__.6251
00004f94 l     F .text	00000060 is_mem_coherent
0000ea00 l     O .rodata	00000010 __func__.6256
0000ea10 l     O .rodata	00000013 __func__.6271
0000ea24 l     O .rodata	00000012 __func__.6288
0000ea38 l     O .rodata	00000018 __func__.6296
0000538c l     F .text	00000068 tee_user_mem_status
0000ea50 l     O .rodata	00000014 __func__.6301
00000000 l    df *ABS*	00000000 trace_ext.c
00000000 l    df *ABS*	00000000 assert.c
00000000 l    df *ABS*	00000000 bget_malloc.c
0000559c l     F .text	00000014 malloc_lock
000055b0 l     F .text	00000018 malloc_unlock
000055c8 l     F .text	0000001a tag_asan_free
000055e2 l     F .text	0000001a tag_asan_alloced
000055fc l     F .text	00000024 memset_unchecked
0001208c l     O .data	00000010 freelist
0001bbd4 l     O .bss	00000004 totalloc
0001bbd8 l     O .bss	00000004 numget
0001bbdc l     O .bss	00000004 numrel
0000ee94 l     O .rodata	00000005 __func__.5667
0000ee9c l     O .rodata	00000006 __func__.5681
0000eea4 l     O .rodata	00000006 __func__.5689
0000eeac l     O .rodata	00000005 __func__.5696
0000eeb4 l     O .rodata	00000006 __func__.5704
0000eebc l     O .rodata	00000007 __func__.5713
0001bbe0 l     O .bss	00000004 malloc_pool
0001bbe4 l     O .bss	00000004 malloc_pool_len
0001bbe8 l     O .bss	00000038 mstats
00005ef8 l     F .text	0000009c raw_malloc_return_hook
00006038 l     F .text	00000010 raw_malloc_validate_pools
00006048 l     F .text	00000030 bpool_foreach_iterator_init
00006078 l     F .text	000000d8 bpool_foreach_pool
0000eec4 l     O .rodata	00000013 __func__.5752
00006150 l     F .text	00000080 bpool_foreach
000061d0 l     F .text	0000005e raw_malloc
0000622e l     F .text	00000024 raw_free
00006252 l     F .text	00000070 raw_calloc
000062c2 l     F .text	00000060 raw_realloc
00006322 l     F .text	0000015e create_free_block
0000eed8 l     O .rodata	00000012 __func__.5799
00006480 l     F .text	0000015c brel_before
0000eeec l     O .rodata	0000000c __func__.5808
000065dc l     F .text	00000220 brel_after
0000eef8 l     O .rodata	0000000b __func__.5818
000067fc l     F .text	00000148 raw_memalign
0000ef04 l     O .rodata	0000000d __func__.5832
00006944 l     F .text	0000005c bget_buf_size
0000ef14 l     O .rodata	0000000e __func__.5838
00006a2e l     F .text	00000028 realloc_unlocked
00006aba l     F .text	00000026 get_payload_start_size
0000ef24 l     O .rodata	00000010 __func__.5884
00000000 l    df *ABS*	00000000 snprintk.c
0000ef34 l     O .rodata	00000011 hexdigits
0000ef48 l     O .rodata	00000011 HEXDIGITS
00006f3c l     F .text	00000df4 kprintf
00006e9e l     F .text	0000009e uuid2str
00000000 l    df *ABS*	00000000 trace.c
00007d9c l     F .text	00000054 trace_level_to_string
0000efd8 l     O .rodata	00000005 lvl_strs.5538
00007df0 l     F .text	0000005c print_thread_id
00000000 l    df *ABS*	00000000 arm32_aeabi_ldivmod_a32.o
00000000 l    df *ABS*	00000000 mpa_misc.c
00000000 l    df *ABS*	00000000 mpa_montgomery.c
00000000 l    df *ABS*	00000000 mpa_primetest.c
0000fc48 l     O .rodata	000000b8 const_small_prime_factors
0000fd00 l     O .rodata	00000010 const_miller_rabin_proof_limit
0000fd10 l     O .rodata	0000000c const_two
00008908 l     F .text	0000009a is_small_prime
000089a2 l     F .text	00000062 has_small_factors
00008a04 l     F .text	000002c4 primality_test_miller_rabin
000088ce l     F .text	0000003a check_table
0000fd1c l     O .rodata	0000001c proof_a.5919
00000000 l    df *ABS*	00000000 mpa_random.c
0001bc20 l     O .bss	00000004 get_rng_array
00008cf0 l     F .text	00000034 get_random_byte
00000000 l    df *ABS*	00000000 mpa_expmod.c
00000000 l    df *ABS*	00000000 mpa_io.c
0000905c l     F .text	00000042 __mpa_isspace
0000909e l     F .text	00000084 __mpa_is_char_in_base
00009122 l     F .text	00000058 __mpa_digit_value
0000917a l     F .text	00000022 __mpa_digitstr_to_binary_wsize_base_16
0000919c l     F .text	00000050 __mpa_nibble_to_char
000091ec l     F .text	00000066 __mpa_word_to_hexstr
00009252 l     F .text	00000128 __mpa_mpanum_to_hexstr
0000937a l     F .text	00000050 __mpa_count_leading_zero_bits
000093ca l     F .text	00000064 __mpa_size_in_base_255
0000fd9c l     O .rodata	0000000c __func__.5993
0001bc24 l     O .bss	00001002 buf.5979
0000fda8 l     O .rodata	0000000c __func__.6007
00009804 l     F .text	00000064 set_word
00009954 l     F .text	00000044 get_word
00000000 l    df *ABS*	00000000 tee_api_panic.c
00000000 l    df *ABS*	00000000 tee_api_objects.c
00000000 l    df *ABS*	00000000 utee_misc.c
00000000 l    df *ABS*	00000000 snprintf.c
00000000 l    df *ABS*	00000000 memcmp.c
00000000 l    df *ABS*	00000000 memcpy.c
00000000 l    df *ABS*	00000000 memmove.c
00000000 l    df *ABS*	00000000 memset.c
00000000 l    df *ABS*	00000000 strlen.c
00000000 l    df *ABS*	00000000 buf_compare_ct.c
00000000 l    df *ABS*	00000000 aeabi_unwind.c
00000000 l    df *ABS*	00000000 memchr.c
00000000 l    df *ABS*	00000000 arm32_aeabi_ldivmod.c
0000b2b0 l     F .text	000000ee division_lqr
0000b39e l     F .text	0000006a ul_div_qr
00000000 l    df *ABS*	00000000 mpa_conv.c
00000000 l    df *ABS*	00000000 mpa_div.c
0000b6a6 l     F .text	000000d8 __mpa_soft_div
0000b7d6 l     F .text	0000061a __mpa_div_q_r_internal
00000000 l    df *ABS*	00000000 mpa_gcd.c
0000c142 l     F .text	000000f4 __mpa_divby2
0000c236 l     F .text	000002c8 __mpa_egcd
0000c4fe l     F .text	0000015a __mpa_gcd
00000000 l    df *ABS*	00000000 mpa_mem_static.c
00000000 l    df *ABS*	00000000 mpa_mul.c
00000000 l    df *ABS*	00000000 mpa_shift.c
00000000 l    df *ABS*	00000000 mpa_addsub.c
00000000 l    df *ABS*	00000000 mpa_cmp.c
00000000 l    df *ABS*	00000000 mpa_init.c
00000000 l    df *ABS*	00000000 mpa_modulus.c
00000000 l    df *ABS*	00000000 
00011738 l     O *ABS*	00000000 _DYNAMIC
000115ec l     O *ABS*	00000000 _GLOBAL_OFFSET_TABLE_
00003b14 g     F .text	00000018 utee_se_channel_transmit
00005508 g     F .text	00000038 putchar
0000e24c g     F .text	0000004c mpa_init_static
0000a078 g     F .text	0000012e TEE_PopulateTransientObject
000081b4 g     F .text	00000048 mpa_copy
0000441c g     F .text	0000004c TEE_BigIntConvertToFMM
0000427c g     F .text	00000024 TEE_BigIntSquareMod
00003e5c g     F .text	0000002a TEE_BigIntShiftRight
0000b5ac g     F .text	00000096 mpa_get_S32
0000822e g     F .text	00000080 mpa_highest_bit_index
00003904 g     F .text	00000018 utee_storage_obj_create
0000b47a g     F .text	000000e6 __l_divmod
00003ad8 g     F .text	00000014 utee_se_session_close
00003584 g     F .text	00000014 utee_return
00001708 g     F .text	0000005c TEE_DigestUpdate
00003a34 g     F .text	00000014 utee_se_service_get_readers
00004bd4 g     F .text	00000020 TEE_Realloc
0000bdf0 g     F .text	00000132 __mpa_div_q_r_internal_word
0000513c g     F .text	000000ac tee_user_mem_realloc
00001368 g     F .text	00000230 TEE_SetOperationKey2
0000db08 g     F .text	00000202 mpa_sub
00005468 g     F .text	00000068 printf
000051e8 g     F .text	00000110 tee_user_mem_free
00003598 g     F .text	00000014 utee_log
0000f00c g     O .rodata	00000004 NR_STORED_PRIMES
0000a1a6 g     F .text	0000004c TEE_InitRefAttribute
0000483a g     F .text	00000090 TEE_InvokeTACommand
00008318 g     F .text	00000032 mpa_can_hold
0000cc84 g     F .text	000000ae __mpa_abs_mul_word
00002580 g     F .text	000001fc TEE_AEEncryptFinal
0000882c g     F .text	0000004c mpa_montgomery_mul
00006dfe g     F .text	0000002e vsnprintk
0000834a g     F .text	0000002a mpa_parity
0000adf4 g     F .text	0000013e memmove
0000d5e4 g     F .text	00000064 __mpa_full_adder_ackum
0000abe0 g     F .text	0000003c snprintf
00003e38 g     F .text	00000024 TEE_BigIntCmpS32
0000a1f2 g     F .text	0000004c TEE_InitValueAttribute
0000b16c g     F .text	00000010 __aeabi_unwind_cpp_pr0
00003ed8 g     F .text	00000038 TEE_BigIntAdd
000035d8 g     F .text	00000014 utee_get_property_name_to_index
0000e77c g     O .rodata	00000004 ta_heap_size
0000f008 g     O .rodata	00000004 MAX_TABULATED_PRIME
0000a018 g     F .text	00000060 TEE_ResetTransientObject
0000ab4a g     F .text	0000001c utee_malloc
000036bc g     F .text	00000018 utee_cryp_state_alloc
0000388c g     F .text	00000018 utee_authenc_enc_final
0000cbfc g     F .text	00000088 __mpa_mul_add_word_cum
00001824 g     F .text	00000098 TEE_CipherInit
00003f48 g     F .text	00000026 TEE_BigIntNeg
0000c06c g     F .text	000000d6 mpa_div
00000020 g       .text	00000000 __text_start
0000a7c4 g     F .text	0000005a TEE_StartPersistentObjectEnumerator
0000effc g     O .rodata	0000000c const_one
00006d06 g     F .text	000000c2 malloc_buffer_overlaps_heap
0000e0f4 g     F .text	00000026 __mpa_abs_less_than
0000413c g     F .text	00000084 TEE_BigIntSubMod
0000229c g     F .text	000000e6 TEE_AEInit
00008d24 g     F .text	0000013c mpa_get_random
0000abc0 g     F .text	00000020 get_rng_array
00007e4c g     F .text	0000029c trace_printf
00003a0c g     F .text	00000014 utee_se_service_open
0000ad02 g     F .text	000000f2 memcpy
000036e8 g     F .text	00000014 utee_cryp_state_free
00008180 g     F .text	00000034 mpa_wipe
00004468 g     F .text	00000090 TEE_BigIntConvertFromFMM
00009ac4 g     F .text	0000001a TEE_Panic
00003b00 g     F .text	00000014 utee_se_channel_get_select_resp
00008120 g     F .text	00000018 __aeabi_uldivmod
00001598 g     F .text	00000128 TEE_CopyOperation
000054d0 g     F .text	00000038 puts
000044f8 g     F .text	0000004c TEE_BigIntComputeFMM
0000b642 g     F .text	00000032 mpa_set_word
00005ff4 g     F .text	00000044 malloc_get_stats
0000d112 g     F .text	00000228 mpa_shift_left
00003768 g     F .text	00000018 utee_cipher_final
0000ce3e g     F .text	000000c4 mpa_mul
00004b88 g     F .text	0000002c TEE_GetREETime
0000a700 g     F .text	00000060 TEE_AllocatePersistentObjectEnumerator
00012004 g     O .data	0000006c ta_props
00002960 g     F .text	00000196 TEE_AsymmetricEncrypt
000069a0 g     F .text	00000032 malloc
000037d0 g     F .text	00000014 utee_cryp_obj_close
00003a70 g     F .text	00000014 utee_se_reader_open_session
0000ac1c g     F .text	0000002e vsnprintf
0000a342 g     F .text	000000f0 TEE_GenerateKey
00012000 g     O .data	00000004 trace_level
0000ab36 g     F .text	00000014 utee_get_ta_exec_id
00003e10 g     F .text	00000028 TEE_BigIntCmp
0000ab66 g     F .text	00000020 utee_realloc
0000e878 g     O .rodata	00000004 ta_num_props
0000591c g     F .text	00000094 bgetr
00003874 g     F .text	00000018 utee_authenc_update_payload
00001bcc g     F .text	000001bc TEE_CipherUpdate
00003d2e g     F .text	0000006a TEE_BigIntConvertToOctetString
00001004 g     F .text	000001a0 TEE_GetOperationInfoMultiple
00003b40 g     F .text	00000014 utee_cache_operation
00003848 g     F .text	00000018 utee_authenc_init
00003e86 g     F .text	0000002e TEE_BigIntGetBit
0000e778 g     O .rodata	00000003 trace_ext_prefix
0000d648 g     F .text	00000114 __mpa_abs_add
00005888 g     F .text	00000094 bgetz
000049d0 g     F .text	0000001c TEE_GetInstanceData
00004a86 g     F .text	00000038 TEE_Wait
000039bc g     F .text	00000014 utee_storage_obj_write
0000caf2 g     F .text	00000090 mpa_free_static_temp_var
00008878 g     F .text	00000056 mpa_is_prob_prime
0000b18c g     F .text	00000010 __aeabi_unwind_cpp_pr2
00003b2c g     F .text	00000014 utee_se_channel_close
0000cf02 g     F .text	000000aa mpa_mul_word
00004c32 g     F .text	00000024 TEE_CacheFlush
00000054 g     F .text	00000030 TA_DestroyEntryPoint
00005540 g     F .text	00000048 _assert_log
00003c9a g     F .text	0000002e TEE_BigIntFMMContextSizeInU32
000021c2 g     F .text	000000da TEE_MACCompareFinal
0000a66c g     F .text	00000094 TEE_RenamePersistentObject
00001764 g     F .text	000000c0 TEE_DigestDoFinal
0000bf22 g     F .text	0000014a __mpa_div_q_r
00003b88 g     F .text	00000044 _TEE_MathAPI_Init
00003994 g     F .text	00000014 utee_storage_next_enum
0001209c g     O .bss	00008000 ta_heap
000042a0 g     F .text	00000068 TEE_BigIntInvMod
000000dc g     F .text	00000038 TA_CloseSessionEntryPoint
00002af6 g     F .text	00000196 TEE_AsymmetricDecrypt
0000a432 g     F .text	000000c6 TEE_OpenPersistentObject
000035ac g     F .text	00000014 __utee_panic
000036d4 g     F .text	00000014 utee_cryp_state_copy
000001c4 g     F .text	00000080 TA_InvokeCommandEntryPoint
00009868 g     F .text	000000ec mpa_set_oct_str
00003ac0 g     F .text	00000018 utee_se_session_open_channel
0000cfac g     F .text	000000b2 __mpa_shift_words_left
000037bc g     F .text	00000014 utee_cryp_obj_alloc
000036a8 g     F .text	00000014 utee_set_ta_time
000037a8 g     F .text	00000014 utee_cryp_obj_get_attr
0000a23e g     F .text	0000004c TEE_CopyObjectAttributes
000084c0 g     F .text	0000011a __mpa_montgomery_sub_ack
000069f8 g     F .text	00000036 calloc
00004bb4 g     F .text	00000020 TEE_Malloc
0000366c g     F .text	00000014 utee_mask_cancellation
000037e4 g     F .text	00000014 utee_cryp_obj_reset
00004966 g     F .text	00000042 TEE_CheckMemoryAccessRights
0001cc28 g       .bss	00000000 __gprof_buf_end
0000b408 g     F .text	00000072 __ul_divmod
0000dd0a g     F .text	0000002a mpa_neg
0000f010 g     O .rodata	00000c38 PRIME_TABLE
0000a8d8 g     F .text	00000088 TEE_ReadObjectData
00009d86 g     F .text	000000c2 TEE_GetObjectBufferAttribute
00000084 g     F .text	00000058 TA_OpenSessionEntryPoint
0000c658 g     F .text	000000ec mpa_gcd
000081fc g     F .text	00000032 mpa_abs
00003980 g     F .text	00000014 utee_storage_start_enum
00000f64 g     F .text	0000004a TEE_FreeOperation
00009442 g     F .text	00000332 mpa_set_str
00003930 g     F .text	00000014 utee_storage_obj_rename
0001a09c g     O .bss	00000004 ta_param_types
00009ade g     F .text	00000156 __utee_from_attr
000043d0 g     F .text	0000004c TEE_BigIntIsProbablePrime
0000a622 g     F .text	0000004a TEE_CloseAndDeletePersistentObject1
0000cacc g     F .text	00000026 mpa_alloc_static_temp_var
00008cc8 g     F .text	00000028 mpa_set_random_generator
000035c0 g     F .text	00000018 utee_get_property
0000277c g     F .text	000001e4 TEE_AEDecryptFinal
00003bcc g     F .text	0000001e TEE_BigIntInit
000049ec g     F .text	00000024 TEE_MemMove
00003cc8 g     F .text	00000066 TEE_BigIntConvertFromOctetString
00012070 g     O .data	00000004 _ref__utee_mcount
00001fd8 g     F .text	00000072 TEE_MACInit
00002c8c g     F .text	00000180 TEE_AsymmetricSignDigest
0000b19c g     F .text	00000114 memchr
000048fe g     F .text	00000034 TEE_UnmaskCancellation
00009c34 g     F .text	0000006e TEE_GetObjectInfo
0000e400 g     F .text	00000050 mpa_mul_mod
0000391c g     F .text	00000014 utee_storage_obj_del
000023fc g     F .text	00000184 TEE_AEUpdate
000039e4 g     F .text	00000014 utee_storage_obj_seek
00009fb8 g     F .text	00000060 TEE_FreeTransientObject
0000870a g     F .text	00000122 mpa_compute_fmm_context
00003710 g     F .text	00000014 utee_hash_update
0000c91e g     F .text	00000048 mpa_init_scratch_mem_sync
00003b54  w    F .text	0000000c __utee_mcount
00000fae g     F .text	00000056 TEE_GetOperationInfo
0000403c g     F .text	0000007c TEE_BigIntMod
00003aec g     F .text	00000014 utee_se_channel_select_next
00003604 g     F .text	00000014 utee_close_ta_session
00003fdc g     F .text	00000060 TEE_BigIntDiv
00005f94 g     F .text	00000060 malloc_reset_stats
00003750 g     F .text	00000018 utee_cipher_update
00009d3a g     F .text	0000004c TEE_RestrictObjectUsage1
00003aac g     F .text	00000014 utee_se_session_get_atr
00006a56 g     F .text	0000002e realloc
0000d75c g     F .text	000000e6 __mpa_abs_add_ackum
000038d4 g     F .text	00000018 utee_asymm_verify
00003f6e g     F .text	0000003a TEE_BigIntMul
000011a4 g     F .text	00000080 TEE_ResetOperation
0000b674 g     F .text	00000032 mpa_get_word
000005c0 g     F .text	00000064 g_CryptoTaHandle_Random
00004a34 g     F .text	00000026 TEE_MemFill
0000ac4a g     F .text	000000b8 memcmp
00006ae0 g     F .text	00000188 malloc_add_pool
0000204a g     F .text	00000082 TEE_MACUpdate
00007d78 g     F .text	00000024 trace_get_level
00003834 g     F .text	00000014 utee_cryp_random_number_generate
00009cee g     F .text	0000004c TEE_RestrictObjectUsage
00003c74 g     F .text	00000026 TEE_BigIntFMMSizeInU32
00003bea g     F .text	00000040 TEE_BigIntInitFMM
000038bc g     F .text	00000018 utee_asymm_operate
00009f26 g     F .text	00000032 TEE_CloseObject
0000350a g     F .text	00000066 __utee_entry
00000528 g     F .text	00000098 g_CryptoTaHandle_Sha
0000e538 g       .text	00000000 __text_end
00004308 g     F .text	0000007c TEE_BigIntRelativePrime
00008e60 g     F .text	0000006c mpa_get_random_digits
00005d10 g     F .text	00000124 bpool
0000b560 g     F .text	0000004c mpa_set_S32
0000e298 g     F .text	0000009c mpa_init_static_fmm_context
000048ca g     F .text	00000034 TEE_GetCancellationFlag
00003a20 g     F .text	00000014 utee_se_service_close
00004ff4 g     F .text	00000148 tee_user_mem_alloc
00012084 g     O .data	00000008 user_mem_head
00004b42 g     F .text	00000046 TEE_SetTAPersistentTime
0000dd34 g     F .text	0000014a mpa_add_word
00003a48 g     F .text	00000014 utee_se_reader_get_prop
0000af32 g     F .text	0000011c memset
00004abe g     F .text	00000084 TEE_GetTAPersistentTime
000080e8 g     F .text	0000001e dhex_dump
0000a4f8 g     F .text	000000f8 TEE_CreatePersistentObject
00004932 g     F .text	00000034 TEE_MaskCancellation
0000d57c g     F .text	00000068 __mpa_full_sub
000039a8 g     F .text	00000014 utee_storage_obj_read
00002382 g     F .text	0000007a TEE_AEUpdateAAD
0000a9de g     F .text	0000006c TEE_TruncateObjectData
0000ab86 g     F .text	00000020 utee_calloc
000037f8 g     F .text	00000014 utee_cryp_obj_populate
0000e11a g     F .text	0000008a mpa_cmp
0000e450 g     F .text	000000e8 mpa_inv_mod
0000de7e g     F .text	0000014e mpa_sub_word
0000cb82 g     F .text	0000007a __mpa_mul_add_word
0000d92e g     F .text	000001da mpa_add
00008ecc g     F .text	00000190 mpa_exp_mod
00009ca2 g     F .text	0000004c TEE_GetObjectInfo1
0000d05e g     F .text	000000b4 __mpa_shift_words_right
00007d30 g     F .text	00000048 trace_set_level
00003a98 g     F .text	00000014 utee_se_session_is_closed
00003780 g     F .text	00000014 utee_cryp_obj_get_info
00009e48 g     F .text	000000de TEE_GetObjectValueAttribute
00001224 g     F .text	00000144 TEE_SetOperationKey
00003944 g     F .text	00000014 utee_storage_alloc_enum
0000396c g     F .text	00000014 utee_storage_reset_enum
000039d0 g     F .text	00000014 utee_storage_obj_trunc
0000e334 g     F .text	0000002c mpa_mod
0000e0ca g     F .text	0000002a __mpa_abs_greater_than
00003dba g     F .text	00000056 TEE_BigIntConvertToS32
00003f10 g     F .text	00000038 TEE_BigIntSub
00003630 g     F .text	00000014 utee_get_cancellation_flag
000036fc g     F .text	00000014 utee_hash_init
00009ab0 g     F .text	00000014 tahead_get_trace_level
00004544 g     F .text	00000166 __utee_from_param
0000aa4a g     F .text	000000ec TEE_SeekObjectData
0000efec g     O .rodata	00000010 Const_1_LShift_Base
000046aa g     F .text	000000fa __utee_to_param
00006a84 g     F .text	00000036 memalign
00001d88 g     F .text	00000250 TEE_CipherDoFinal
00003d98 g     F .text	00000022 TEE_BigIntConvertFromS32
0000e3b0 g     F .text	00000050 mpa_sub_mod
00003794 g     F .text	00000014 utee_cryp_obj_restrict_usage
00006c68 g     F .text	0000009e malloc_buffer_is_within_alloced
0000380c g     F .text	00000014 utee_cryp_obj_copy
0000d33a g     F .text	000001de mpa_shift_right
00003c2a g     F .text	0000004a TEE_BigIntInitFMMContext
00003820 g     F .text	00000014 utee_cryp_derive_key
000085da g     F .text	00000130 __mpa_montgomery_mul
00009998 g     F .text	00000116 mpa_get_oct_str
0000e1a4 g     F .text	000000a8 mpa_cmp_short
000038a4 g     F .text	00000018 utee_authenc_dec_final
0000a960 g     F .text	0000007e TEE_WriteObjectData
0000a792 g     F .text	00000032 TEE_ResetPersistentObjectEnumerator
0000dfcc g     F .text	000000fe __mpa_abs_cmp
00003fa8 g     F .text	00000034 TEE_BigIntSquare
00000020 g     F .text	00000034 TA_CreateEntryPoint
00006dc8 g     F .text	00000036 snprintk
00003eb4 g     F .text	00000024 TEE_BigIntGetBitCount
000041c0 g     F .text	000000bc TEE_BigIntMulMod
00002f74 g     F .text	000001a0 TEE_DeriveKey
0001a0a0 g     O .bss	00000020 ta_params
0000cd32 g     F .text	0000010c __mpa_abs_mul
00005620 g     F .text	00000268 bget
00009f58 g     F .text	00000060 TEE_AllocateTransientObject
00004bf4 g     F .text	0000001a TEE_Free
00003a5c g     F .text	00000014 utee_se_reader_get_name
00004c56 g     F .text	00000024 TEE_CacheInvalidate
0000373c g     F .text	00000014 utee_cipher_init
00005588 g     F .text	00000014 _assert_break
000040b8 g     F .text	00000084 TEE_BigIntAddMod
00003958 g     F .text	00000014 utee_storage_free_enum
00003860 g     F .text	00000014 utee_authenc_update_aad
000082ae g     F .text	0000006a mpa_get_bit
00000624 g     F .text	00000940 TEE_AllocateOperation
0000c966 g     F .text	00000032 mpa_init_scratch_mem
00003114 g     F .text	0000002c TEE_GenerateRandom
00004a10 g     F .text	00000024 TEE_MemCompare
00006e2c g     F .text	00000072 __vsnprintf
0000a760 g     F .text	00000032 TEE_FreePersistentObjectEnumerator
000047a4 g     F .text	00000066 TEE_OpenTASession
00003570 g     F .text	00000014 utee_panic
00005430 g     F .text	00000024 trace_ext_puts
000053f4 g     F .text	0000003c tee_user_mem_garbage
00005454 g     F .text	00000014 trace_ext_get_thread_id
0000a5f0 g     F .text	00000032 TEE_CloseAndDeletePersistentObject
00004c0e g     F .text	00000024 TEE_CacheClean
000035ec g     F .text	00000018 utee_open_ta_session
0000b0d8 g     F .text	00000094 buf_compare_ct
0000b77e g     F .text	00000058 __mpa_div_dword
00008138 g     F .text	00000048 __mpa_set_unused_digits_to_zero
0000efe0 g     O .rodata	0000000c const_largest_deci_base
0000942e g     F .text	00000014 mpa_get_str_size
00005318 g     F .text	00000074 tee_user_mem_check_heap
0000a28a g     F .text	000000b8 TEE_CopyObjectAttributes1
00003724 g     F .text	00000018 utee_hash_final
0000b04e g     F .text	0000008a strlen
00004384 g     F .text	0000004c TEE_BigIntComputeExtendedGcd
0000b17c g     F .text	00000010 __aeabi_unwind_cpp_pr1
0000c744 g     F .text	000001da mpa_extended_gcd
0000e360 g     F .text	00000050 mpa_add_mod
000038ec g     F .text	00000018 utee_storage_obj_open
00003618 g     F .text	00000018 utee_invoke_ta_command
00009774 g     F .text	00000090 mpa_get_str
00003680 g     F .text	00000014 utee_wait
0000aba6 g     F .text	0000001a utee_free
000052f8 g     F .text	00000020 tee_user_mem_mark_heap
00004a5a g     F .text	0000002c TEE_GetSystemTime
00000000 g     O .ta_head	00000020 ta_head
000059b0 g     F .text	00000360 brel
0000c998 g     F .text	00000134 mpa_alloc_static_temp_var_size
00003694 g     F .text	00000014 utee_get_time
0000838c g     F .text	00000134 __mpa_montgomery_mul_add
00000244 g     F .text	000000b4 g_TA_printf
000049a8 g     F .text	00000028 TEE_SetInstanceData
00003658 g     F .text	00000014 utee_unmask_cancellation
00008108 g     F .text	00000018 __aeabi_ldivmod
00003644 g     F .text	00000014 utee_check_access_rights
00003a84 g     F .text	00000014 utee_se_reader_close_sessions
0000a81e g     F .text	000000ba TEE_GetNextPersistentObject
000039f8 g     F .text	00000014 utee_cryp_obj_generate_key
0000480a g     F .text	00000030 TEE_CloseTASession
00008374 g     F .text	00000018 mpa_constant_one
00002e0c g     F .text	00000168 TEE_AsymmetricVerifyDigest
0000d518 g     F .text	00000064 __mpa_full_adder
0000d842 g     F .text	000000ec __mpa_abs_sub
0001cc28 g       .bss	00000000 __gprof_buf_start
000069d2 g     F .text	00000026 free
00005e34 g     F .text	000000c4 bstats
000020cc g     F .text	000000f6 TEE_MACComputeFinal



Disassembly of section .text:

00000020 <TA_CreateEntryPoint>:
TA_CreateEntryPoint():
/home/test/devel/optee/tpm/sha/ta/sha.c:42
      20:	e96d 7e02 	strd	r7, lr, [sp, #-8]!
      24:	b082      	sub	sp, #8
      26:	af02      	add	r7, sp, #8
/home/test/devel/optee/tpm/sha/ta/sha.c:43
      28:	4b08      	ldr	r3, [pc, #32]	; (4c <TA_CreateEntryPoint+0x2c>)
      2a:	447b      	add	r3, pc
      2c:	9300      	str	r3, [sp, #0]
      2e:	f04f 0301 	mov.w	r3, #1
      32:	f04f 0203 	mov.w	r2, #3
      36:	f04f 012b 	mov.w	r1, #43	; 0x2b
      3a:	4805      	ldr	r0, [pc, #20]	; (50 <TA_CreateEntryPoint+0x30>)
      3c:	4478      	add	r0, pc
      3e:	f007 ff05 	bl	7e4c <trace_printf>
/home/test/devel/optee/tpm/sha/ta/sha.c:44
      42:	f04f 0300 	mov.w	r3, #0
/home/test/devel/optee/tpm/sha/ta/sha.c:45
      46:	4618      	mov	r0, r3
      48:	46bd      	mov	sp, r7
      4a:	bd80      	pop	{r7, pc}
      4c:	0000e50a 	.word	0x0000e50a
      50:	0000e554 	.word	0x0000e554

00000054 <TA_DestroyEntryPoint>:
TA_DestroyEntryPoint():
/home/test/devel/optee/tpm/sha/ta/sha.c:52
      54:	e96d 7e02 	strd	r7, lr, [sp, #-8]!
      58:	b082      	sub	sp, #8
      5a:	af02      	add	r7, sp, #8
/home/test/devel/optee/tpm/sha/ta/sha.c:53
      5c:	4b07      	ldr	r3, [pc, #28]	; (7c <TA_DestroyEntryPoint+0x28>)
      5e:	447b      	add	r3, pc
      60:	9300      	str	r3, [sp, #0]
      62:	f04f 0301 	mov.w	r3, #1
      66:	f04f 0203 	mov.w	r2, #3
      6a:	f04f 0135 	mov.w	r1, #53	; 0x35
      6e:	4804      	ldr	r0, [pc, #16]	; (80 <TA_DestroyEntryPoint+0x2c>)
      70:	4478      	add	r0, pc
      72:	f007 feeb 	bl	7e4c <trace_printf>
/home/test/devel/optee/tpm/sha/ta/sha.c:54
      76:	bf00      	nop
      78:	46bd      	mov	sp, r7
      7a:	bd80      	pop	{r7, pc}
      7c:	0000e4d6 	.word	0x0000e4d6
      80:	0000e534 	.word	0x0000e534

00000084 <TA_OpenSessionEntryPoint>:
TA_OpenSessionEntryPoint():
/home/test/devel/optee/tpm/sha/ta/sha.c:65
      84:	e96d 7e02 	strd	r7, lr, [sp, #-8]!
      88:	b088      	sub	sp, #32
      8a:	af02      	add	r7, sp, #8
      8c:	60f8      	str	r0, [r7, #12]
      8e:	60b9      	str	r1, [r7, #8]
      90:	607a      	str	r2, [r7, #4]
/home/test/devel/optee/tpm/sha/ta/sha.c:66
      92:	f04f 0300 	mov.w	r3, #0
      96:	617b      	str	r3, [r7, #20]
/home/test/devel/optee/tpm/sha/ta/sha.c:70
      98:	68fa      	ldr	r2, [r7, #12]
      9a:	697b      	ldr	r3, [r7, #20]
      9c:	429a      	cmp	r2, r3
      9e:	d004      	beq.n	aa <TA_OpenSessionEntryPoint+0x26>
/home/test/devel/optee/tpm/sha/ta/sha.c:71
      a0:	f04f 0306 	mov.w	r3, #6
      a4:	f6cf 73ff 	movt	r3, #65535	; 0xffff
      a8:	e00e      	b.n	c8 <TA_OpenSessionEntryPoint+0x44>
/home/test/devel/optee/tpm/sha/ta/sha.c:81
      aa:	4b0a      	ldr	r3, [pc, #40]	; (d4 <TA_OpenSessionEntryPoint+0x50>)
      ac:	447b      	add	r3, pc
      ae:	9300      	str	r3, [sp, #0]
      b0:	f04f 0301 	mov.w	r3, #1
      b4:	f04f 0203 	mov.w	r2, #3
      b8:	f04f 0151 	mov.w	r1, #81	; 0x51
      bc:	4806      	ldr	r0, [pc, #24]	; (d8 <TA_OpenSessionEntryPoint+0x54>)
      be:	4478      	add	r0, pc
      c0:	f007 fec4 	bl	7e4c <trace_printf>
/home/test/devel/optee/tpm/sha/ta/sha.c:84
      c4:	f04f 0300 	mov.w	r3, #0
/home/test/devel/optee/tpm/sha/ta/sha.c:85
      c8:	4618      	mov	r0, r3
      ca:	f107 0718 	add.w	r7, r7, #24
      ce:	46bd      	mov	sp, r7
      d0:	bd80      	pop	{r7, pc}
      d2:	bf00      	nop
      d4:	0000e498 	.word	0x0000e498
      d8:	0000e4fe 	.word	0x0000e4fe

000000dc <TA_CloseSessionEntryPoint>:
TA_CloseSessionEntryPoint():
/home/test/devel/optee/tpm/sha/ta/sha.c:92
      dc:	e96d 7e02 	strd	r7, lr, [sp, #-8]!
      e0:	b084      	sub	sp, #16
      e2:	af02      	add	r7, sp, #8
      e4:	6078      	str	r0, [r7, #4]
/home/test/devel/optee/tpm/sha/ta/sha.c:94
      e6:	4b09      	ldr	r3, [pc, #36]	; (10c <TA_CloseSessionEntryPoint+0x30>)
      e8:	447b      	add	r3, pc
      ea:	9300      	str	r3, [sp, #0]
      ec:	f04f 0301 	mov.w	r3, #1
      f0:	f04f 0203 	mov.w	r2, #3
      f4:	f04f 015e 	mov.w	r1, #94	; 0x5e
      f8:	4805      	ldr	r0, [pc, #20]	; (110 <TA_CloseSessionEntryPoint+0x34>)
      fa:	4478      	add	r0, pc
      fc:	f007 fea6 	bl	7e4c <trace_printf>
/home/test/devel/optee/tpm/sha/ta/sha.c:95
     100:	bf00      	nop
     102:	f107 0708 	add.w	r7, r7, #8
     106:	46bd      	mov	sp, r7
     108:	bd80      	pop	{r7, pc}
     10a:	bf00      	nop
     10c:	0000e46c 	.word	0x0000e46c
     110:	0000e4de 	.word	0x0000e4de

00000114 <inc_value>:
inc_value():
/home/test/devel/optee/tpm/sha/ta/sha.c:99
     114:	e96d 7e02 	strd	r7, lr, [sp, #-8]!
     118:	b086      	sub	sp, #24
     11a:	af02      	add	r7, sp, #8
     11c:	6078      	str	r0, [r7, #4]
     11e:	6039      	str	r1, [r7, #0]
/home/test/devel/optee/tpm/sha/ta/sha.c:100
     120:	f04f 0303 	mov.w	r3, #3
     124:	60fb      	str	r3, [r7, #12]
/home/test/devel/optee/tpm/sha/ta/sha.c:105
     126:	4b21      	ldr	r3, [pc, #132]	; (1ac <inc_value+0x98>)
     128:	447b      	add	r3, pc
     12a:	9300      	str	r3, [sp, #0]
     12c:	f04f 0301 	mov.w	r3, #1
     130:	f04f 0203 	mov.w	r2, #3
     134:	f04f 0169 	mov.w	r1, #105	; 0x69
     138:	481d      	ldr	r0, [pc, #116]	; (1b0 <inc_value+0x9c>)
     13a:	4478      	add	r0, pc
     13c:	f007 fe86 	bl	7e4c <trace_printf>
/home/test/devel/optee/tpm/sha/ta/sha.c:106
     140:	687a      	ldr	r2, [r7, #4]
     142:	68fb      	ldr	r3, [r7, #12]
     144:	429a      	cmp	r2, r3
     146:	d004      	beq.n	152 <inc_value+0x3e>
/home/test/devel/optee/tpm/sha/ta/sha.c:107
     148:	f04f 0306 	mov.w	r3, #6
     14c:	f6cf 73ff 	movt	r3, #65535	; 0xffff
     150:	e027      	b.n	1a2 <inc_value+0x8e>
/home/test/devel/optee/tpm/sha/ta/sha.c:109
     152:	683b      	ldr	r3, [r7, #0]
     154:	681b      	ldr	r3, [r3, #0]
     156:	9301      	str	r3, [sp, #4]
     158:	4b16      	ldr	r3, [pc, #88]	; (1b4 <inc_value+0xa0>)
     15a:	447b      	add	r3, pc
     15c:	9300      	str	r3, [sp, #0]
     15e:	f04f 0301 	mov.w	r3, #1
     162:	f04f 0203 	mov.w	r2, #3
     166:	f04f 016d 	mov.w	r1, #109	; 0x6d
     16a:	4813      	ldr	r0, [pc, #76]	; (1b8 <inc_value+0xa4>)
     16c:	4478      	add	r0, pc
     16e:	f007 fe6d 	bl	7e4c <trace_printf>
/home/test/devel/optee/tpm/sha/ta/sha.c:110
     172:	683b      	ldr	r3, [r7, #0]
     174:	681b      	ldr	r3, [r3, #0]
     176:	f103 0201 	add.w	r2, r3, #1
     17a:	683b      	ldr	r3, [r7, #0]
     17c:	601a      	str	r2, [r3, #0]
/home/test/devel/optee/tpm/sha/ta/sha.c:111
     17e:	683b      	ldr	r3, [r7, #0]
     180:	681b      	ldr	r3, [r3, #0]
     182:	9301      	str	r3, [sp, #4]
     184:	4b0d      	ldr	r3, [pc, #52]	; (1bc <inc_value+0xa8>)
     186:	447b      	add	r3, pc
     188:	9300      	str	r3, [sp, #0]
     18a:	f04f 0301 	mov.w	r3, #1
     18e:	f04f 0203 	mov.w	r2, #3
     192:	f04f 016f 	mov.w	r1, #111	; 0x6f
     196:	480a      	ldr	r0, [pc, #40]	; (1c0 <inc_value+0xac>)
     198:	4478      	add	r0, pc
     19a:	f007 fe57 	bl	7e4c <trace_printf>
/home/test/devel/optee/tpm/sha/ta/sha.c:112
     19e:	f04f 0300 	mov.w	r3, #0
/home/test/devel/optee/tpm/sha/ta/sha.c:113
     1a2:	4618      	mov	r0, r3
     1a4:	f107 0710 	add.w	r7, r7, #16
     1a8:	46bd      	mov	sp, r7
     1aa:	bd80      	pop	{r7, pc}
     1ac:	0000e40c 	.word	0x0000e40c
     1b0:	0000e4ba 	.word	0x0000e4ba
     1b4:	0000e406 	.word	0x0000e406
     1b8:	0000e488 	.word	0x0000e488
     1bc:	0000e3f2 	.word	0x0000e3f2
     1c0:	0000e45c 	.word	0x0000e45c

000001c4 <TA_InvokeCommandEntryPoint>:
TA_InvokeCommandEntryPoint():
/home/test/devel/optee/tpm/sha/ta/sha.c:123
     1c4:	e96d 7e02 	strd	r7, lr, [sp, #-8]!
     1c8:	b086      	sub	sp, #24
     1ca:	af00      	add	r7, sp, #0
     1cc:	60f8      	str	r0, [r7, #12]
     1ce:	60b9      	str	r1, [r7, #8]
     1d0:	607a      	str	r2, [r7, #4]
     1d2:	603b      	str	r3, [r7, #0]
/home/test/devel/optee/tpm/sha/ta/sha.c:124
     1d4:	f04f 0300 	mov.w	r3, #0
     1d8:	617b      	str	r3, [r7, #20]
/home/test/devel/optee/tpm/sha/ta/sha.c:125
     1da:	f04f 33ff 	mov.w	r3, #4294967295	; 0xffffffff
     1de:	613b      	str	r3, [r7, #16]
/home/test/devel/optee/tpm/sha/ta/sha.c:128
     1e0:	68bb      	ldr	r3, [r7, #8]
     1e2:	2b01      	cmp	r3, #1
     1e4:	d00a      	beq.n	1fc <TA_InvokeCommandEntryPoint+0x38>
     1e6:	2b01      	cmp	r3, #1
     1e8:	d302      	bcc.n	1f0 <TA_InvokeCommandEntryPoint+0x2c>
     1ea:	2b02      	cmp	r3, #2
     1ec:	d00c      	beq.n	208 <TA_InvokeCommandEntryPoint+0x44>
     1ee:	e011      	b.n	214 <TA_InvokeCommandEntryPoint+0x50>
/home/test/devel/optee/tpm/sha/ta/sha.c:131
     1f0:	6839      	ldr	r1, [r7, #0]
     1f2:	6878      	ldr	r0, [r7, #4]
     1f4:	f7ff ff8e 	bl	114 <inc_value>
     1f8:	4603      	mov	r3, r0
     1fa:	e01e      	b.n	23a <TA_InvokeCommandEntryPoint+0x76>
/home/test/devel/optee/tpm/sha/ta/sha.c:133
     1fc:	6839      	ldr	r1, [r7, #0]
     1fe:	6878      	ldr	r0, [r7, #4]
     200:	f000 f992 	bl	528 <g_CryptoTaHandle_Sha>
     204:	6138      	str	r0, [r7, #16]
/home/test/devel/optee/tpm/sha/ta/sha.c:134
     206:	e00a      	b.n	21e <TA_InvokeCommandEntryPoint+0x5a>
/home/test/devel/optee/tpm/sha/ta/sha.c:136
     208:	6839      	ldr	r1, [r7, #0]
     20a:	6878      	ldr	r0, [r7, #4]
     20c:	f000 f9d8 	bl	5c0 <g_CryptoTaHandle_Random>
     210:	6138      	str	r0, [r7, #16]
/home/test/devel/optee/tpm/sha/ta/sha.c:137
     212:	e004      	b.n	21e <TA_InvokeCommandEntryPoint+0x5a>
/home/test/devel/optee/tpm/sha/ta/sha.c:139
     214:	f04f 0306 	mov.w	r3, #6
     218:	f6cf 73ff 	movt	r3, #65535	; 0xffff
     21c:	e00d      	b.n	23a <TA_InvokeCommandEntryPoint+0x76>
/home/test/devel/optee/tpm/sha/ta/sha.c:141
     21e:	693b      	ldr	r3, [r7, #16]
     220:	f1b3 3fff 	cmp.w	r3, #4294967295	; 0xffffffff
     224:	d105      	bne.n	232 <TA_InvokeCommandEntryPoint+0x6e>
/home/test/devel/optee/tpm/sha/ta/sha.c:143
     226:	f04f 0306 	mov.w	r3, #6
     22a:	f6cf 73ff 	movt	r3, #65535	; 0xffff
     22e:	617b      	str	r3, [r7, #20]
     230:	e002      	b.n	238 <TA_InvokeCommandEntryPoint+0x74>
/home/test/devel/optee/tpm/sha/ta/sha.c:147
     232:	f04f 0300 	mov.w	r3, #0
     236:	617b      	str	r3, [r7, #20]
/home/test/devel/optee/tpm/sha/ta/sha.c:150
     238:	697b      	ldr	r3, [r7, #20]
/home/test/devel/optee/tpm/sha/ta/sha.c:151
     23a:	4618      	mov	r0, r3
     23c:	f107 0718 	add.w	r7, r7, #24
     240:	46bd      	mov	sp, r7
     242:	bd80      	pop	{r7, pc}

00000244 <g_TA_printf>:
g_TA_printf():
/home/test/devel/optee/tpm/sha/ta/sha_handle.c:94
     244:	e96d 7e02 	strd	r7, lr, [sp, #-8]!
     248:	b086      	sub	sp, #24
     24a:	af02      	add	r7, sp, #8
     24c:	6078      	str	r0, [r7, #4]
     24e:	6039      	str	r1, [r7, #0]
/home/test/devel/optee/tpm/sha/ta/sha_handle.c:95
     250:	f04f 0300 	mov.w	r3, #0
     254:	60fb      	str	r3, [r7, #12]
/home/test/devel/optee/tpm/sha/ta/sha_handle.c:96
     256:	f04f 0300 	mov.w	r3, #0
     25a:	60fb      	str	r3, [r7, #12]
     25c:	e02a      	b.n	2b4 <g_TA_printf+0x70>
/home/test/devel/optee/tpm/sha/ta/sha_handle.c:98
     25e:	68fb      	ldr	r3, [r7, #12]
     260:	2b0e      	cmp	r3, #14
     262:	d911      	bls.n	288 <g_TA_printf+0x44>
/home/test/devel/optee/tpm/sha/ta/sha_handle.c:102
     264:	68fb      	ldr	r3, [r7, #12]
     266:	f003 030f 	and.w	r3, r3, #15
     26a:	2b00      	cmp	r3, #0
     26c:	d10c      	bne.n	288 <g_TA_printf+0x44>
/home/test/devel/optee/tpm/sha/ta/sha_handle.c:104
     26e:	4b1c      	ldr	r3, [pc, #112]	; (2e0 <g_TA_printf+0x9c>)
     270:	447b      	add	r3, pc
     272:	9300      	str	r3, [sp, #0]
     274:	f04f 0301 	mov.w	r3, #1
     278:	f04f 0203 	mov.w	r2, #3
     27c:	f04f 0168 	mov.w	r1, #104	; 0x68
     280:	4818      	ldr	r0, [pc, #96]	; (2e4 <g_TA_printf+0xa0>)
     282:	4478      	add	r0, pc
     284:	f007 fde2 	bl	7e4c <trace_printf>
/home/test/devel/optee/tpm/sha/ta/sha_handle.c:110 (discriminator 2)
     288:	687a      	ldr	r2, [r7, #4]
     28a:	68fb      	ldr	r3, [r7, #12]
     28c:	4413      	add	r3, r2
     28e:	781b      	ldrb	r3, [r3, #0]
     290:	9301      	str	r3, [sp, #4]
     292:	4b15      	ldr	r3, [pc, #84]	; (2e8 <g_TA_printf+0xa4>)
     294:	447b      	add	r3, pc
     296:	9300      	str	r3, [sp, #0]
     298:	f04f 0301 	mov.w	r3, #1
     29c:	f04f 0203 	mov.w	r2, #3
     2a0:	f04f 016e 	mov.w	r1, #110	; 0x6e
     2a4:	4811      	ldr	r0, [pc, #68]	; (2ec <g_TA_printf+0xa8>)
     2a6:	4478      	add	r0, pc
     2a8:	f007 fdd0 	bl	7e4c <trace_printf>
/home/test/devel/optee/tpm/sha/ta/sha_handle.c:96 (discriminator 2)
     2ac:	68fb      	ldr	r3, [r7, #12]
     2ae:	f103 0301 	add.w	r3, r3, #1
     2b2:	60fb      	str	r3, [r7, #12]
/home/test/devel/optee/tpm/sha/ta/sha_handle.c:96 (discriminator 1)
     2b4:	68fa      	ldr	r2, [r7, #12]
     2b6:	683b      	ldr	r3, [r7, #0]
     2b8:	429a      	cmp	r2, r3
     2ba:	d3d0      	bcc.n	25e <g_TA_printf+0x1a>
/home/test/devel/optee/tpm/sha/ta/sha_handle.c:112
     2bc:	4b0c      	ldr	r3, [pc, #48]	; (2f0 <g_TA_printf+0xac>)
     2be:	447b      	add	r3, pc
     2c0:	9300      	str	r3, [sp, #0]
     2c2:	f04f 0301 	mov.w	r3, #1
     2c6:	f04f 0203 	mov.w	r2, #3
     2ca:	f04f 0170 	mov.w	r1, #112	; 0x70
     2ce:	4809      	ldr	r0, [pc, #36]	; (2f4 <g_TA_printf+0xb0>)
     2d0:	4478      	add	r0, pc
     2d2:	f007 fdbb 	bl	7e4c <trace_printf>
/home/test/devel/optee/tpm/sha/ta/sha_handle.c:113
     2d6:	bf00      	nop
     2d8:	f107 0710 	add.w	r7, r7, #16
     2dc:	46bd      	mov	sp, r7
     2de:	bd80      	pop	{r7, pc}
     2e0:	0000e390 	.word	0x0000e390
     2e4:	0000e48a 	.word	0x0000e48a
     2e8:	0000e370 	.word	0x0000e370
     2ec:	0000e466 	.word	0x0000e466
     2f0:	0000e352 	.word	0x0000e352
     2f4:	0000e43c 	.word	0x0000e43c

000002f8 <l_CryptoTaHash_sha>:
l_CryptoTaHash_sha():
/home/test/devel/optee/tpm/sha/ta/sha_handle.c:129
     2f8:	e96d 7e02 	strd	r7, lr, [sp, #-8]!
     2fc:	b08c      	sub	sp, #48	; 0x30
     2fe:	af04      	add	r7, sp, #16
     300:	60f8      	str	r0, [r7, #12]
     302:	60b9      	str	r1, [r7, #8]
     304:	607a      	str	r2, [r7, #4]
     306:	603b      	str	r3, [r7, #0]
/home/test/devel/optee/tpm/sha/ta/sha_handle.c:133
     308:	f04f 0300 	mov.w	r3, #0
     30c:	61bb      	str	r3, [r7, #24]
/home/test/devel/optee/tpm/sha/ta/sha_handle.c:135
     30e:	683b      	ldr	r3, [r7, #0]
     310:	9302      	str	r3, [sp, #8]
     312:	687b      	ldr	r3, [r7, #4]
     314:	9301      	str	r3, [sp, #4]
     316:	4b66      	ldr	r3, [pc, #408]	; (4b0 <l_CryptoTaHash_sha+0x1b8>)
     318:	447b      	add	r3, pc
     31a:	9300      	str	r3, [sp, #0]
     31c:	f04f 0301 	mov.w	r3, #1
     320:	f04f 0203 	mov.w	r2, #3
     324:	f04f 0187 	mov.w	r1, #135	; 0x87
     328:	4862      	ldr	r0, [pc, #392]	; (4b4 <l_CryptoTaHash_sha+0x1bc>)
     32a:	4478      	add	r0, pc
     32c:	f007 fd8e 	bl	7e4c <trace_printf>
/home/test/devel/optee/tpm/sha/ta/sha_handle.c:139
     330:	68fb      	ldr	r3, [r7, #12]
     332:	f103 33ff 	add.w	r3, r3, #4294967295	; 0xffffffff
     336:	2b04      	cmp	r3, #4
     338:	d833      	bhi.n	3a2 <l_CryptoTaHash_sha+0xaa>
     33a:	a202      	add	r2, pc, #8	; (adr r2, 344 <l_CryptoTaHash_sha+0x4c>)
     33c:	f852 3023 	ldr.w	r3, [r2, r3, lsl #2]
     340:	441a      	add	r2, r3
     342:	4710      	bx	r2
     344:	00000015 	.word	0x00000015
     348:	0000005f 	.word	0x0000005f
     34c:	0000003b 	.word	0x0000003b
     350:	00000047 	.word	0x00000047
     354:	00000053 	.word	0x00000053
/home/test/devel/optee/tpm/sha/ta/sha_handle.c:142
     358:	4b57      	ldr	r3, [pc, #348]	; (4b8 <l_CryptoTaHash_sha+0x1c0>)
     35a:	447b      	add	r3, pc
     35c:	9300      	str	r3, [sp, #0]
     35e:	f04f 0301 	mov.w	r3, #1
     362:	f04f 0203 	mov.w	r2, #3
     366:	f04f 018e 	mov.w	r1, #142	; 0x8e
     36a:	4854      	ldr	r0, [pc, #336]	; (4bc <l_CryptoTaHash_sha+0x1c4>)
     36c:	4478      	add	r0, pc
     36e:	f007 fd6d 	bl	7e4c <trace_printf>
/home/test/devel/optee/tpm/sha/ta/sha_handle.c:143
     372:	f04f 0302 	mov.w	r3, #2
     376:	f2c5 0300 	movt	r3, #20480	; 0x5000
     37a:	61fb      	str	r3, [r7, #28]
/home/test/devel/optee/tpm/sha/ta/sha_handle.c:144
     37c:	e018      	b.n	3b0 <l_CryptoTaHash_sha+0xb8>
/home/test/devel/optee/tpm/sha/ta/sha_handle.c:146
     37e:	f04f 0304 	mov.w	r3, #4
     382:	f2c5 0300 	movt	r3, #20480	; 0x5000
     386:	61fb      	str	r3, [r7, #28]
/home/test/devel/optee/tpm/sha/ta/sha_handle.c:147
     388:	e012      	b.n	3b0 <l_CryptoTaHash_sha+0xb8>
/home/test/devel/optee/tpm/sha/ta/sha_handle.c:149
     38a:	f04f 0305 	mov.w	r3, #5
     38e:	f2c5 0300 	movt	r3, #20480	; 0x5000
     392:	61fb      	str	r3, [r7, #28]
/home/test/devel/optee/tpm/sha/ta/sha_handle.c:150
     394:	e00c      	b.n	3b0 <l_CryptoTaHash_sha+0xb8>
/home/test/devel/optee/tpm/sha/ta/sha_handle.c:152
     396:	f04f 0306 	mov.w	r3, #6
     39a:	f2c5 0300 	movt	r3, #20480	; 0x5000
     39e:	61fb      	str	r3, [r7, #28]
/home/test/devel/optee/tpm/sha/ta/sha_handle.c:153
     3a0:	e006      	b.n	3b0 <l_CryptoTaHash_sha+0xb8>
/home/test/devel/optee/tpm/sha/ta/sha_handle.c:155
     3a2:	f04f 33ff 	mov.w	r3, #4294967295	; 0xffffffff
     3a6:	61fb      	str	r3, [r7, #28]
/home/test/devel/optee/tpm/sha/ta/sha_handle.c:156
     3a8:	f04f 33ff 	mov.w	r3, #4294967295	; 0xffffffff
     3ac:	61bb      	str	r3, [r7, #24]
/home/test/devel/optee/tpm/sha/ta/sha_handle.c:157
     3ae:	e078      	b.n	4a2 <l_CryptoTaHash_sha+0x1aa>
/home/test/devel/optee/tpm/sha/ta/sha_handle.c:163
     3b0:	f107 0010 	add.w	r0, r7, #16
     3b4:	f04f 0300 	mov.w	r3, #0
     3b8:	f04f 0205 	mov.w	r2, #5
     3bc:	69f9      	ldr	r1, [r7, #28]
     3be:	f000 f931 	bl	624 <TEE_AllocateOperation>
     3c2:	6178      	str	r0, [r7, #20]
/home/test/devel/optee/tpm/sha/ta/sha_handle.c:164
     3c4:	697b      	ldr	r3, [r7, #20]
     3c6:	2b00      	cmp	r3, #0
     3c8:	d010      	beq.n	3ec <l_CryptoTaHash_sha+0xf4>
/home/test/devel/optee/tpm/sha/ta/sha_handle.c:166
     3ca:	4b3d      	ldr	r3, [pc, #244]	; (4c0 <l_CryptoTaHash_sha+0x1c8>)
     3cc:	447b      	add	r3, pc
     3ce:	9300      	str	r3, [sp, #0]
     3d0:	f04f 0301 	mov.w	r3, #1
     3d4:	f04f 0203 	mov.w	r2, #3
     3d8:	f04f 01a6 	mov.w	r1, #166	; 0xa6
     3dc:	4839      	ldr	r0, [pc, #228]	; (4c4 <l_CryptoTaHash_sha+0x1cc>)
     3de:	4478      	add	r0, pc
     3e0:	f007 fd34 	bl	7e4c <trace_printf>
/home/test/devel/optee/tpm/sha/ta/sha_handle.c:167
     3e4:	f04f 33ff 	mov.w	r3, #4294967295	; 0xffffffff
     3e8:	61bb      	str	r3, [r7, #24]
/home/test/devel/optee/tpm/sha/ta/sha_handle.c:168
     3ea:	e05a      	b.n	4a2 <l_CryptoTaHash_sha+0x1aa>
/home/test/devel/optee/tpm/sha/ta/sha_handle.c:171
     3ec:	693b      	ldr	r3, [r7, #16]
     3ee:	687a      	ldr	r2, [r7, #4]
     3f0:	68b9      	ldr	r1, [r7, #8]
     3f2:	4618      	mov	r0, r3
     3f4:	f001 f988 	bl	1708 <TEE_DigestUpdate>
/home/test/devel/optee/tpm/sha/ta/sha_handle.c:174
     3f8:	6938      	ldr	r0, [r7, #16]
     3fa:	6abb      	ldr	r3, [r7, #40]	; 0x28
     3fc:	9300      	str	r3, [sp, #0]
     3fe:	683b      	ldr	r3, [r7, #0]
     400:	f04f 0200 	mov.w	r2, #0
     404:	f04f 0100 	mov.w	r1, #0
     408:	f001 f9ac 	bl	1764 <TEE_DigestDoFinal>
     40c:	6178      	str	r0, [r7, #20]
/home/test/devel/optee/tpm/sha/ta/sha_handle.c:175
     40e:	6abb      	ldr	r3, [r7, #40]	; 0x28
     410:	681b      	ldr	r3, [r3, #0]
     412:	9301      	str	r3, [sp, #4]
     414:	4b2c      	ldr	r3, [pc, #176]	; (4c8 <l_CryptoTaHash_sha+0x1d0>)
     416:	447b      	add	r3, pc
     418:	9300      	str	r3, [sp, #0]
     41a:	f04f 0301 	mov.w	r3, #1
     41e:	f04f 0203 	mov.w	r2, #3
     422:	f04f 01af 	mov.w	r1, #175	; 0xaf
     426:	4829      	ldr	r0, [pc, #164]	; (4cc <l_CryptoTaHash_sha+0x1d4>)
     428:	4478      	add	r0, pc
     42a:	f007 fd0f 	bl	7e4c <trace_printf>
/home/test/devel/optee/tpm/sha/ta/sha_handle.c:176
     42e:	697b      	ldr	r3, [r7, #20]
     430:	9301      	str	r3, [sp, #4]
     432:	4b27      	ldr	r3, [pc, #156]	; (4d0 <l_CryptoTaHash_sha+0x1d8>)
     434:	447b      	add	r3, pc
     436:	9300      	str	r3, [sp, #0]
     438:	f04f 0301 	mov.w	r3, #1
     43c:	f04f 0203 	mov.w	r2, #3
     440:	f04f 01b0 	mov.w	r1, #176	; 0xb0
     444:	4823      	ldr	r0, [pc, #140]	; (4d4 <l_CryptoTaHash_sha+0x1dc>)
     446:	4478      	add	r0, pc
     448:	f007 fd00 	bl	7e4c <trace_printf>
/home/test/devel/optee/tpm/sha/ta/sha_handle.c:178
     44c:	697b      	ldr	r3, [r7, #20]
     44e:	2b00      	cmp	r3, #0
     450:	d010      	beq.n	474 <l_CryptoTaHash_sha+0x17c>
/home/test/devel/optee/tpm/sha/ta/sha_handle.c:180
     452:	4b21      	ldr	r3, [pc, #132]	; (4d8 <l_CryptoTaHash_sha+0x1e0>)
     454:	447b      	add	r3, pc
     456:	9300      	str	r3, [sp, #0]
     458:	f04f 0301 	mov.w	r3, #1
     45c:	f04f 0203 	mov.w	r2, #3
     460:	f04f 01b4 	mov.w	r1, #180	; 0xb4
     464:	481d      	ldr	r0, [pc, #116]	; (4dc <l_CryptoTaHash_sha+0x1e4>)
     466:	4478      	add	r0, pc
     468:	f007 fcf0 	bl	7e4c <trace_printf>
/home/test/devel/optee/tpm/sha/ta/sha_handle.c:181
     46c:	f04f 33ff 	mov.w	r3, #4294967295	; 0xffffffff
     470:	61bb      	str	r3, [r7, #24]
/home/test/devel/optee/tpm/sha/ta/sha_handle.c:182
     472:	e012      	b.n	49a <l_CryptoTaHash_sha+0x1a2>
/home/test/devel/optee/tpm/sha/ta/sha_handle.c:185
     474:	4b1a      	ldr	r3, [pc, #104]	; (4e0 <l_CryptoTaHash_sha+0x1e8>)
     476:	447b      	add	r3, pc
     478:	9300      	str	r3, [sp, #0]
     47a:	f04f 0301 	mov.w	r3, #1
     47e:	f04f 0203 	mov.w	r2, #3
     482:	f04f 01b9 	mov.w	r1, #185	; 0xb9
     486:	4817      	ldr	r0, [pc, #92]	; (4e4 <l_CryptoTaHash_sha+0x1ec>)
     488:	4478      	add	r0, pc
     48a:	f007 fcdf 	bl	7e4c <trace_printf>
/home/test/devel/optee/tpm/sha/ta/sha_handle.c:186
     48e:	6abb      	ldr	r3, [r7, #40]	; 0x28
     490:	681b      	ldr	r3, [r3, #0]
     492:	4619      	mov	r1, r3
     494:	6838      	ldr	r0, [r7, #0]
     496:	f7ff fed5 	bl	244 <g_TA_printf>
/home/test/devel/optee/tpm/sha/ta/sha_handle.c:190
     49a:	693b      	ldr	r3, [r7, #16]
     49c:	4618      	mov	r0, r3
     49e:	f000 fd61 	bl	f64 <TEE_FreeOperation>
/home/test/devel/optee/tpm/sha/ta/sha_handle.c:192
     4a2:	69bb      	ldr	r3, [r7, #24]
/home/test/devel/optee/tpm/sha/ta/sha_handle.c:193
     4a4:	4618      	mov	r0, r3
     4a6:	f107 0720 	add.w	r7, r7, #32
     4aa:	46bd      	mov	sp, r7
     4ac:	bd80      	pop	{r7, pc}
     4ae:	bf00      	nop
     4b0:	0000e2fc 	.word	0x0000e2fc
     4b4:	0000e3ee 	.word	0x0000e3ee
     4b8:	0000e2e6 	.word	0x0000e2e6
     4bc:	0000e3ac 	.word	0x0000e3ac
     4c0:	0000e28c 	.word	0x0000e28c
     4c4:	0000e33a 	.word	0x0000e33a
     4c8:	0000e266 	.word	0x0000e266
     4cc:	0000e2f0 	.word	0x0000e2f0
     4d0:	0000e264 	.word	0x0000e264
     4d4:	0000e2d2 	.word	0x0000e2d2
     4d8:	0000e260 	.word	0x0000e260
     4dc:	0000e2b2 	.word	0x0000e2b2
     4e0:	0000e262 	.word	0x0000e262
     4e4:	0000e290 	.word	0x0000e290

000004e8 <l_CryptoTaOther_Random>:
l_CryptoTaOther_Random():
/home/test/devel/optee/tpm/sha/ta/sha_handle.c:196
     4e8:	e96d 7e02 	strd	r7, lr, [sp, #-8]!
     4ec:	b084      	sub	sp, #16
     4ee:	af02      	add	r7, sp, #8
     4f0:	6078      	str	r0, [r7, #4]
     4f2:	6039      	str	r1, [r7, #0]
/home/test/devel/optee/tpm/sha/ta/sha_handle.c:197
     4f4:	4b0a      	ldr	r3, [pc, #40]	; (520 <l_CryptoTaOther_Random+0x38>)
     4f6:	447b      	add	r3, pc
     4f8:	9300      	str	r3, [sp, #0]
     4fa:	f04f 0301 	mov.w	r3, #1
     4fe:	f04f 0203 	mov.w	r2, #3
     502:	f04f 01c5 	mov.w	r1, #197	; 0xc5
     506:	4807      	ldr	r0, [pc, #28]	; (524 <l_CryptoTaOther_Random+0x3c>)
     508:	4478      	add	r0, pc
     50a:	f007 fc9f 	bl	7e4c <trace_printf>
/home/test/devel/optee/tpm/sha/ta/sha_handle.c:198
     50e:	6879      	ldr	r1, [r7, #4]
     510:	6838      	ldr	r0, [r7, #0]
     512:	f002 fdff 	bl	3114 <TEE_GenerateRandom>
/home/test/devel/optee/tpm/sha/ta/sha_handle.c:199
     516:	bf00      	nop
     518:	f107 0708 	add.w	r7, r7, #8
     51c:	46bd      	mov	sp, r7
     51e:	bd80      	pop	{r7, pc}
     520:	0000e202 	.word	0x0000e202
     524:	0000e224 	.word	0x0000e224

00000528 <g_CryptoTaHandle_Sha>:
g_CryptoTaHandle_Sha():
/home/test/devel/optee/tpm/sha/ta/sha_handle.c:208
     528:	e96d 7e02 	strd	r7, lr, [sp, #-8]!
     52c:	b08a      	sub	sp, #40	; 0x28
     52e:	af02      	add	r7, sp, #8
     530:	6078      	str	r0, [r7, #4]
     532:	6039      	str	r1, [r7, #0]
/home/test/devel/optee/tpm/sha/ta/sha_handle.c:210
     534:	f04f 0300 	mov.w	r3, #0
     538:	61fb      	str	r3, [r7, #28]
/home/test/devel/optee/tpm/sha/ta/sha_handle.c:211
     53a:	f04f 0300 	mov.w	r3, #0
     53e:	61bb      	str	r3, [r7, #24]
/home/test/devel/optee/tpm/sha/ta/sha_handle.c:212
     540:	f04f 0300 	mov.w	r3, #0
     544:	617b      	str	r3, [r7, #20]
/home/test/devel/optee/tpm/sha/ta/sha_handle.c:213
     546:	f04f 0300 	mov.w	r3, #0
     54a:	60bb      	str	r3, [r7, #8]
/home/test/devel/optee/tpm/sha/ta/sha_handle.c:215
     54c:	687b      	ldr	r3, [r7, #4]
     54e:	613b      	str	r3, [r7, #16]
/home/test/devel/optee/tpm/sha/ta/sha_handle.c:217
     550:	693b      	ldr	r3, [r7, #16]
     552:	9301      	str	r3, [sp, #4]
     554:	4b18      	ldr	r3, [pc, #96]	; (5b8 <g_CryptoTaHandle_Sha+0x90>)
     556:	447b      	add	r3, pc
     558:	9300      	str	r3, [sp, #0]
     55a:	f04f 0301 	mov.w	r3, #1
     55e:	f04f 0203 	mov.w	r2, #3
     562:	f04f 01d9 	mov.w	r1, #217	; 0xd9
     566:	4815      	ldr	r0, [pc, #84]	; (5bc <g_CryptoTaHandle_Sha+0x94>)
     568:	4478      	add	r0, pc
     56a:	f007 fc6f 	bl	7e4c <trace_printf>
/home/test/devel/optee/tpm/sha/ta/sha_handle.c:220
     56e:	683b      	ldr	r3, [r7, #0]
     570:	681b      	ldr	r3, [r3, #0]
     572:	61fb      	str	r3, [r7, #28]
/home/test/devel/optee/tpm/sha/ta/sha_handle.c:221
     574:	683b      	ldr	r3, [r7, #0]
     576:	685b      	ldr	r3, [r3, #4]
     578:	617b      	str	r3, [r7, #20]
/home/test/devel/optee/tpm/sha/ta/sha_handle.c:222
     57a:	683b      	ldr	r3, [r7, #0]
     57c:	f103 0308 	add.w	r3, r3, #8
     580:	681b      	ldr	r3, [r3, #0]
     582:	60fb      	str	r3, [r7, #12]
/home/test/devel/optee/tpm/sha/ta/sha_handle.c:223
     584:	683b      	ldr	r3, [r7, #0]
     586:	f103 0310 	add.w	r3, r3, #16
     58a:	681b      	ldr	r3, [r3, #0]
     58c:	61bb      	str	r3, [r7, #24]
/home/test/devel/optee/tpm/sha/ta/sha_handle.c:224
     58e:	683b      	ldr	r3, [r7, #0]
     590:	f103 0310 	add.w	r3, r3, #16
     594:	685b      	ldr	r3, [r3, #4]
     596:	60bb      	str	r3, [r7, #8]
/home/test/devel/optee/tpm/sha/ta/sha_handle.c:227
     598:	f107 0308 	add.w	r3, r7, #8
     59c:	9300      	str	r3, [sp, #0]
     59e:	69bb      	ldr	r3, [r7, #24]
     5a0:	697a      	ldr	r2, [r7, #20]
     5a2:	69f9      	ldr	r1, [r7, #28]
     5a4:	68f8      	ldr	r0, [r7, #12]
     5a6:	f7ff fea7 	bl	2f8 <l_CryptoTaHash_sha>
/home/test/devel/optee/tpm/sha/ta/sha_handle.c:229
     5aa:	f04f 0300 	mov.w	r3, #0
/home/test/devel/optee/tpm/sha/ta/sha_handle.c:230
     5ae:	4618      	mov	r0, r3
     5b0:	f107 0720 	add.w	r7, r7, #32
     5b4:	46bd      	mov	sp, r7
     5b6:	bd80      	pop	{r7, pc}
     5b8:	0000e1b2 	.word	0x0000e1b2
     5bc:	0000e1dc 	.word	0x0000e1dc

000005c0 <g_CryptoTaHandle_Random>:
g_CryptoTaHandle_Random():
/home/test/devel/optee/tpm/sha/ta/sha_handle.c:235
     5c0:	e96d 7e02 	strd	r7, lr, [sp, #-8]!
     5c4:	b088      	sub	sp, #32
     5c6:	af02      	add	r7, sp, #8
     5c8:	6078      	str	r0, [r7, #4]
     5ca:	6039      	str	r1, [r7, #0]
/home/test/devel/optee/tpm/sha/ta/sha_handle.c:236
     5cc:	f04f 0300 	mov.w	r3, #0
     5d0:	617b      	str	r3, [r7, #20]
/home/test/devel/optee/tpm/sha/ta/sha_handle.c:237
     5d2:	f04f 0300 	mov.w	r3, #0
     5d6:	613b      	str	r3, [r7, #16]
/home/test/devel/optee/tpm/sha/ta/sha_handle.c:239
     5d8:	687b      	ldr	r3, [r7, #4]
     5da:	60fb      	str	r3, [r7, #12]
/home/test/devel/optee/tpm/sha/ta/sha_handle.c:241
     5dc:	68fb      	ldr	r3, [r7, #12]
     5de:	9301      	str	r3, [sp, #4]
     5e0:	4b0e      	ldr	r3, [pc, #56]	; (61c <g_CryptoTaHandle_Random+0x5c>)
     5e2:	447b      	add	r3, pc
     5e4:	9300      	str	r3, [sp, #0]
     5e6:	f04f 0301 	mov.w	r3, #1
     5ea:	f04f 0203 	mov.w	r2, #3
     5ee:	f04f 01f1 	mov.w	r1, #241	; 0xf1
     5f2:	480b      	ldr	r0, [pc, #44]	; (620 <g_CryptoTaHandle_Random+0x60>)
     5f4:	4478      	add	r0, pc
     5f6:	f007 fc29 	bl	7e4c <trace_printf>
/home/test/devel/optee/tpm/sha/ta/sha_handle.c:244
     5fa:	683b      	ldr	r3, [r7, #0]
     5fc:	685b      	ldr	r3, [r3, #4]
     5fe:	617b      	str	r3, [r7, #20]
/home/test/devel/optee/tpm/sha/ta/sha_handle.c:245
     600:	683b      	ldr	r3, [r7, #0]
     602:	681b      	ldr	r3, [r3, #0]
     604:	613b      	str	r3, [r7, #16]
/home/test/devel/optee/tpm/sha/ta/sha_handle.c:247
     606:	6939      	ldr	r1, [r7, #16]
     608:	6978      	ldr	r0, [r7, #20]
     60a:	f7ff ff6d 	bl	4e8 <l_CryptoTaOther_Random>
/home/test/devel/optee/tpm/sha/ta/sha_handle.c:249
     60e:	f04f 0300 	mov.w	r3, #0
/home/test/devel/optee/tpm/sha/ta/sha_handle.c:250
     612:	4618      	mov	r0, r3
     614:	f107 0718 	add.w	r7, r7, #24
     618:	46bd      	mov	sp, r7
     61a:	bd80      	pop	{r7, pc}
     61c:	0000e126 	.word	0x0000e126
     620:	0000e168 	.word	0x0000e168

00000624 <TEE_AllocateOperation>:
TEE_AllocateOperation():
/home/test/devel/optee/optee_os/lib/libutee/tee_api_operations.c:60
     624:	e96d 7e02 	strd	r7, lr, [sp, #-8]!
     628:	b090      	sub	sp, #64	; 0x40
     62a:	af02      	add	r7, sp, #8
     62c:	60f8      	str	r0, [r7, #12]
     62e:	60b9      	str	r1, [r7, #8]
     630:	607a      	str	r2, [r7, #4]
     632:	603b      	str	r3, [r7, #0]
/home/test/devel/optee/optee_os/lib/libutee/tee_api_operations.c:62
     634:	f04f 0300 	mov.w	r3, #0
     638:	61bb      	str	r3, [r7, #24]
/home/test/devel/optee/optee_os/lib/libutee/tee_api_operations.c:63
     63a:	f04f 0300 	mov.w	r3, #0
     63e:	633b      	str	r3, [r7, #48]	; 0x30
/home/test/devel/optee/optee_os/lib/libutee/tee_api_operations.c:64
     640:	f04f 0301 	mov.w	r3, #1
     644:	62fb      	str	r3, [r7, #44]	; 0x2c
/home/test/devel/optee/optee_os/lib/libutee/tee_api_operations.c:66
     646:	f04f 0300 	mov.w	r3, #0
     64a:	f887 3027 	strb.w	r3, [r7, #39]	; 0x27
/home/test/devel/optee/optee_os/lib/libutee/tee_api_operations.c:67
     64e:	f04f 0300 	mov.w	r3, #0
     652:	f887 3026 	strb.w	r3, [r7, #38]	; 0x26
/home/test/devel/optee/optee_os/lib/libutee/tee_api_operations.c:69
     656:	68fb      	ldr	r3, [r7, #12]
     658:	2b00      	cmp	r3, #0
     65a:	d103      	bne.n	664 <TEE_AllocateOperation+0x40>
/home/test/devel/optee/optee_os/lib/libutee/tee_api_operations.c:70
     65c:	f04f 0000 	mov.w	r0, #0
     660:	f009 fa30 	bl	9ac4 <TEE_Panic>
/home/test/devel/optee/optee_os/lib/libutee/tee_api_operations.c:72
     664:	68ba      	ldr	r2, [r7, #8]
     666:	f44f 6382 	mov.w	r3, #1040	; 0x410
     66a:	f2c1 0300 	movt	r3, #4096	; 0x1000
     66e:	429a      	cmp	r2, r3
     670:	d102      	bne.n	678 <TEE_AllocateOperation+0x54>
/home/test/devel/optee/optee_os/lib/libutee/tee_api_operations.c:73
     672:	f44f 2300 	mov.w	r3, #524288	; 0x80000
     676:	633b      	str	r3, [r7, #48]	; 0x30
/home/test/devel/optee/optee_os/lib/libutee/tee_api_operations.c:76
     678:	68bb      	ldr	r3, [r7, #8]
     67a:	f244 1231 	movw	r2, #16689	; 0x4131
     67e:	f2c7 0200 	movt	r2, #28672	; 0x7000
     682:	4293      	cmp	r3, r2
     684:	f000 8084 	beq.w	790 <TEE_AllocateOperation+0x16c>
     688:	f244 1231 	movw	r2, #16689	; 0x4131
     68c:	f2c7 0200 	movt	r2, #28672	; 0x7000
     690:	4293      	cmp	r3, r2
     692:	d82b      	bhi.n	6ec <TEE_AllocateOperation+0xc8>
     694:	f242 1231 	movw	r2, #8497	; 0x2131
     698:	f2c7 0200 	movt	r2, #28672	; 0x7000
     69c:	4293      	cmp	r3, r2
     69e:	d051      	beq.n	744 <TEE_AllocateOperation+0x120>
     6a0:	f242 1231 	movw	r2, #8497	; 0x2131
     6a4:	f2c7 0200 	movt	r2, #28672	; 0x7000
     6a8:	4293      	cmp	r3, r2
     6aa:	d80c      	bhi.n	6c6 <TEE_AllocateOperation+0xa2>
     6ac:	f241 0241 	movw	r2, #4161	; 0x1041
     6b0:	f2c7 0200 	movt	r2, #28672	; 0x7000
     6b4:	4293      	cmp	r3, r2
     6b6:	d078      	beq.n	7aa <TEE_AllocateOperation+0x186>
     6b8:	f242 0241 	movw	r2, #8257	; 0x2041
     6bc:	f2c7 0200 	movt	r2, #28672	; 0x7000
     6c0:	4293      	cmp	r3, r2
     6c2:	d07a      	beq.n	7ba <TEE_AllocateOperation+0x196>
/home/test/devel/optee/optee_os/lib/libutee/tee_api_operations.c:127
     6c4:	e0ac      	b.n	820 <TEE_AllocateOperation+0x1fc>
/home/test/devel/optee/optee_os/lib/libutee/tee_api_operations.c:76
     6c6:	f243 1231 	movw	r2, #12593	; 0x3131
     6ca:	f2c7 0200 	movt	r2, #28672	; 0x7000
     6ce:	4293      	cmp	r3, r2
     6d0:	d055      	beq.n	77e <TEE_AllocateOperation+0x15a>
     6d2:	f244 0241 	movw	r2, #16449	; 0x4041
     6d6:	f2c7 0200 	movt	r2, #28672	; 0x7000
     6da:	4293      	cmp	r3, r2
     6dc:	d07e      	beq.n	7dc <TEE_AllocateOperation+0x1b8>
     6de:	f243 0241 	movw	r2, #12353	; 0x3041
     6e2:	f2c7 0200 	movt	r2, #28672	; 0x7000
     6e6:	4293      	cmp	r3, r2
     6e8:	d06f      	beq.n	7ca <TEE_AllocateOperation+0x1a6>
/home/test/devel/optee/optee_os/lib/libutee/tee_api_operations.c:127
     6ea:	e099      	b.n	820 <TEE_AllocateOperation+0x1fc>
/home/test/devel/optee/optee_os/lib/libutee/tee_api_operations.c:76
     6ec:	f242 0242 	movw	r2, #8258	; 0x2042
     6f0:	f2c8 0200 	movt	r2, #32768	; 0x8000
     6f4:	4293      	cmp	r3, r2
     6f6:	d060      	beq.n	7ba <TEE_AllocateOperation+0x196>
     6f8:	f242 0242 	movw	r2, #8258	; 0x2042
     6fc:	f2c8 0200 	movt	r2, #32768	; 0x8000
     700:	4293      	cmp	r3, r2
     702:	d80c      	bhi.n	71e <TEE_AllocateOperation+0xfa>
     704:	f245 0241 	movw	r2, #20545	; 0x5041
     708:	f2c7 0200 	movt	r2, #28672	; 0x7000
     70c:	4293      	cmp	r3, r2
     70e:	d06e      	beq.n	7ee <TEE_AllocateOperation+0x1ca>
     710:	f241 0242 	movw	r2, #4162	; 0x1042
     714:	f2c8 0200 	movt	r2, #32768	; 0x8000
     718:	4293      	cmp	r3, r2
     71a:	d046      	beq.n	7aa <TEE_AllocateOperation+0x186>
/home/test/devel/optee/optee_os/lib/libutee/tee_api_operations.c:127
     71c:	e080      	b.n	820 <TEE_AllocateOperation+0x1fc>
/home/test/devel/optee/optee_os/lib/libutee/tee_api_operations.c:76
     71e:	f244 0242 	movw	r2, #16450	; 0x4042
     722:	f2c8 0200 	movt	r2, #32768	; 0x8000
     726:	4293      	cmp	r3, r2
     728:	d058      	beq.n	7dc <TEE_AllocateOperation+0x1b8>
     72a:	f245 0242 	movw	r2, #20546	; 0x5042
     72e:	f2c8 0200 	movt	r2, #32768	; 0x8000
     732:	4293      	cmp	r3, r2
     734:	d05b      	beq.n	7ee <TEE_AllocateOperation+0x1ca>
     736:	f243 0242 	movw	r2, #12354	; 0x3042
     73a:	f2c8 0200 	movt	r2, #32768	; 0x8000
     73e:	4293      	cmp	r3, r2
     740:	d043      	beq.n	7ca <TEE_AllocateOperation+0x1a6>
/home/test/devel/optee/optee_os/lib/libutee/tee_api_operations.c:127
     742:	e06d      	b.n	820 <TEE_AllocateOperation+0x1fc>
/home/test/devel/optee/optee_os/lib/libutee/tee_api_operations.c:78
     744:	683b      	ldr	r3, [r7, #0]
     746:	f5b3 7f00 	cmp.w	r3, #512	; 0x200
     74a:	d205      	bcs.n	758 <TEE_AllocateOperation+0x134>
/home/test/devel/optee/optee_os/lib/libutee/tee_api_operations.c:79
     74c:	f04f 030a 	mov.w	r3, #10
     750:	f6cf 73ff 	movt	r3, #65535	; 0xffff
     754:	f000 bc01 	b.w	f5a <TEE_AllocateOperation+0x936>
/home/test/devel/optee/optee_os/lib/libutee/tee_api_operations.c:80
     758:	683b      	ldr	r3, [r7, #0]
     75a:	f5b3 6f80 	cmp.w	r3, #1024	; 0x400
     75e:	d904      	bls.n	76a <TEE_AllocateOperation+0x146>
/home/test/devel/optee/optee_os/lib/libutee/tee_api_operations.c:81
     760:	f04f 030a 	mov.w	r3, #10
     764:	f6cf 73ff 	movt	r3, #65535	; 0xffff
     768:	e3f7      	b.n	f5a <TEE_AllocateOperation+0x936>
/home/test/devel/optee/optee_os/lib/libutee/tee_api_operations.c:82
     76a:	683b      	ldr	r3, [r7, #0]
     76c:	f003 033f 	and.w	r3, r3, #63	; 0x3f
     770:	2b00      	cmp	r3, #0
     772:	d046      	beq.n	802 <TEE_AllocateOperation+0x1de>
/home/test/devel/optee/optee_os/lib/libutee/tee_api_operations.c:83
     774:	f04f 030a 	mov.w	r3, #10
     778:	f6cf 73ff 	movt	r3, #65535	; 0xffff
     77c:	e3ed      	b.n	f5a <TEE_AllocateOperation+0x936>
/home/test/devel/optee/optee_os/lib/libutee/tee_api_operations.c:87
     77e:	683b      	ldr	r3, [r7, #0]
     780:	f5b3 6f00 	cmp.w	r3, #2048	; 0x800
     784:	d03f      	beq.n	806 <TEE_AllocateOperation+0x1e2>
/home/test/devel/optee/optee_os/lib/libutee/tee_api_operations.c:88
     786:	f04f 030a 	mov.w	r3, #10
     78a:	f6cf 73ff 	movt	r3, #65535	; 0xffff
     78e:	e3e4      	b.n	f5a <TEE_AllocateOperation+0x936>
/home/test/devel/optee/optee_os/lib/libutee/tee_api_operations.c:92
     790:	683b      	ldr	r3, [r7, #0]
     792:	f5b3 6f00 	cmp.w	r3, #2048	; 0x800
     796:	d038      	beq.n	80a <TEE_AllocateOperation+0x1e6>
/home/test/devel/optee/optee_os/lib/libutee/tee_api_operations.c:92 (discriminator 1)
     798:	683b      	ldr	r3, [r7, #0]
     79a:	f5b3 6f40 	cmp.w	r3, #3072	; 0xc00
     79e:	d034      	beq.n	80a <TEE_AllocateOperation+0x1e6>
/home/test/devel/optee/optee_os/lib/libutee/tee_api_operations.c:93
     7a0:	f04f 030a 	mov.w	r3, #10
     7a4:	f6cf 73ff 	movt	r3, #65535	; 0xffff
     7a8:	e3d7      	b.n	f5a <TEE_AllocateOperation+0x936>
/home/test/devel/optee/optee_os/lib/libutee/tee_api_operations.c:98
     7aa:	683b      	ldr	r3, [r7, #0]
     7ac:	2bc0      	cmp	r3, #192	; 0xc0
     7ae:	d02e      	beq.n	80e <TEE_AllocateOperation+0x1ea>
/home/test/devel/optee/optee_os/lib/libutee/tee_api_operations.c:99
     7b0:	f04f 030a 	mov.w	r3, #10
     7b4:	f6cf 73ff 	movt	r3, #65535	; 0xffff
     7b8:	e3cf      	b.n	f5a <TEE_AllocateOperation+0x936>
/home/test/devel/optee/optee_os/lib/libutee/tee_api_operations.c:104
     7ba:	683b      	ldr	r3, [r7, #0]
     7bc:	2be0      	cmp	r3, #224	; 0xe0
     7be:	d028      	beq.n	812 <TEE_AllocateOperation+0x1ee>
/home/test/devel/optee/optee_os/lib/libutee/tee_api_operations.c:105
     7c0:	f04f 030a 	mov.w	r3, #10
     7c4:	f6cf 73ff 	movt	r3, #65535	; 0xffff
     7c8:	e3c7      	b.n	f5a <TEE_AllocateOperation+0x936>
/home/test/devel/optee/optee_os/lib/libutee/tee_api_operations.c:110
     7ca:	683b      	ldr	r3, [r7, #0]
     7cc:	f5b3 7f80 	cmp.w	r3, #256	; 0x100
     7d0:	d021      	beq.n	816 <TEE_AllocateOperation+0x1f2>
/home/test/devel/optee/optee_os/lib/libutee/tee_api_operations.c:111
     7d2:	f04f 030a 	mov.w	r3, #10
     7d6:	f6cf 73ff 	movt	r3, #65535	; 0xffff
     7da:	e3be      	b.n	f5a <TEE_AllocateOperation+0x936>
/home/test/devel/optee/optee_os/lib/libutee/tee_api_operations.c:116
     7dc:	683b      	ldr	r3, [r7, #0]
     7de:	f5b3 7fc0 	cmp.w	r3, #384	; 0x180
     7e2:	d01a      	beq.n	81a <TEE_AllocateOperation+0x1f6>
/home/test/devel/optee/optee_os/lib/libutee/tee_api_operations.c:117
     7e4:	f04f 030a 	mov.w	r3, #10
     7e8:	f6cf 73ff 	movt	r3, #65535	; 0xffff
     7ec:	e3b5      	b.n	f5a <TEE_AllocateOperation+0x936>
/home/test/devel/optee/optee_os/lib/libutee/tee_api_operations.c:122
     7ee:	683b      	ldr	r3, [r7, #0]
     7f0:	f240 2209 	movw	r2, #521	; 0x209
     7f4:	4293      	cmp	r3, r2
     7f6:	d012      	beq.n	81e <TEE_AllocateOperation+0x1fa>
/home/test/devel/optee/optee_os/lib/libutee/tee_api_operations.c:123
     7f8:	f04f 030a 	mov.w	r3, #10
     7fc:	f6cf 73ff 	movt	r3, #65535	; 0xffff
     800:	e3ab      	b.n	f5a <TEE_AllocateOperation+0x936>
/home/test/devel/optee/optee_os/lib/libutee/tee_api_operations.c:84
     802:	bf00      	nop
     804:	e00c      	b.n	820 <TEE_AllocateOperation+0x1fc>
/home/test/devel/optee/optee_os/lib/libutee/tee_api_operations.c:89
     806:	bf00      	nop
     808:	e00a      	b.n	820 <TEE_AllocateOperation+0x1fc>
/home/test/devel/optee/optee_os/lib/libutee/tee_api_operations.c:94
     80a:	bf00      	nop
     80c:	e008      	b.n	820 <TEE_AllocateOperation+0x1fc>
/home/test/devel/optee/optee_os/lib/libutee/tee_api_operations.c:100
     80e:	bf00      	nop
     810:	e006      	b.n	820 <TEE_AllocateOperation+0x1fc>
/home/test/devel/optee/optee_os/lib/libutee/tee_api_operations.c:106
     812:	bf00      	nop
     814:	e004      	b.n	820 <TEE_AllocateOperation+0x1fc>
/home/test/devel/optee/optee_os/lib/libutee/tee_api_operations.c:112
     816:	bf00      	nop
     818:	e002      	b.n	820 <TEE_AllocateOperation+0x1fc>
/home/test/devel/optee/optee_os/lib/libutee/tee_api_operations.c:118
     81a:	bf00      	nop
     81c:	e000      	b.n	820 <TEE_AllocateOperation+0x1fc>
/home/test/devel/optee/optee_os/lib/libutee/tee_api_operations.c:124
     81e:	bf00      	nop
/home/test/devel/optee/optee_os/lib/libutee/tee_api_operations.c:131
     820:	68bb      	ldr	r3, [r7, #8]
     822:	f242 1231 	movw	r2, #8497	; 0x2131
     826:	f2c7 0200 	movt	r2, #28672	; 0x7000
     82a:	4293      	cmp	r3, r2
     82c:	f000 822c 	beq.w	c88 <TEE_AllocateOperation+0x664>
     830:	f242 1231 	movw	r2, #8497	; 0x2131
     834:	f2c7 0200 	movt	r2, #28672	; 0x7000
     838:	4293      	cmp	r3, r2
     83a:	f200 80fe 	bhi.w	a3a <TEE_AllocateOperation+0x416>
     83e:	f240 5211 	movw	r2, #1297	; 0x511
     842:	f2c3 0200 	movt	r2, #12288	; 0x3000
     846:	4293      	cmp	r3, r2
     848:	d86d      	bhi.n	926 <TEE_AllocateOperation+0x302>
     84a:	f44f 62a2 	mov.w	r2, #1296	; 0x510
     84e:	f2c3 0200 	movt	r2, #12288	; 0x3000
     852:	4293      	cmp	r3, r2
     854:	f080 827d 	bcs.w	d52 <TEE_AllocateOperation+0x72e>
     858:	f44f 7204 	mov.w	r2, #528	; 0x210
     85c:	f2c1 0200 	movt	r2, #4096	; 0x1000
     860:	4293      	cmp	r3, r2
     862:	f000 81fe 	beq.w	c62 <TEE_AllocateOperation+0x63e>
     866:	f44f 7204 	mov.w	r2, #528	; 0x210
     86a:	f2c1 0200 	movt	r2, #4096	; 0x1000
     86e:	4293      	cmp	r3, r2
     870:	d82a      	bhi.n	8c8 <TEE_AllocateOperation+0x2a4>
     872:	f04f 0213 	mov.w	r2, #19
     876:	f2c1 0200 	movt	r2, #4096	; 0x1000
     87a:	4293      	cmp	r3, r2
     87c:	f000 81e6 	beq.w	c4c <TEE_AllocateOperation+0x628>
     880:	f04f 0213 	mov.w	r2, #19
     884:	f2c1 0200 	movt	r2, #4096	; 0x1000
     888:	4293      	cmp	r3, r2
     88a:	d807      	bhi.n	89c <TEE_AllocateOperation+0x278>
     88c:	f103 4370 	add.w	r3, r3, #4026531840	; 0xf0000000
     890:	f1a3 0310 	sub.w	r3, r3, #16
     894:	2b01      	cmp	r3, #1
     896:	f200 8268 	bhi.w	d6a <TEE_AllocateOperation+0x746>
     89a:	e1d7      	b.n	c4c <TEE_AllocateOperation+0x628>
     89c:	f44f 7288 	mov.w	r2, #272	; 0x110
     8a0:	f2c1 0200 	movt	r2, #4096	; 0x1000
     8a4:	4293      	cmp	r3, r2
     8a6:	f0c0 8260 	bcc.w	d6a <TEE_AllocateOperation+0x746>
     8aa:	f240 1211 	movw	r2, #273	; 0x111
     8ae:	f2c1 0200 	movt	r2, #4096	; 0x1000
     8b2:	4293      	cmp	r3, r2
     8b4:	f240 81ca 	bls.w	c4c <TEE_AllocateOperation+0x628>
     8b8:	f240 1213 	movw	r2, #275	; 0x113
     8bc:	f2c1 0200 	movt	r2, #4096	; 0x1000
     8c0:	4293      	cmp	r3, r2
     8c2:	f000 81c3 	beq.w	c4c <TEE_AllocateOperation+0x628>
     8c6:	e250      	b.n	d6a <TEE_AllocateOperation+0x746>
     8c8:	f04f 0206 	mov.w	r2, #6
     8cc:	f2c3 0200 	movt	r2, #12288	; 0x3000
     8d0:	4293      	cmp	r3, r2
     8d2:	d812      	bhi.n	8fa <TEE_AllocateOperation+0x2d6>
     8d4:	f1b3 5f40 	cmp.w	r3, #805306368	; 0x30000000
     8d8:	f200 823b 	bhi.w	d52 <TEE_AllocateOperation+0x72e>
     8dc:	f44f 7244 	mov.w	r2, #784	; 0x310
     8e0:	f2c1 0200 	movt	r2, #4096	; 0x1000
     8e4:	4293      	cmp	r3, r2
     8e6:	f000 81ad 	beq.w	c44 <TEE_AllocateOperation+0x620>
     8ea:	f44f 6282 	mov.w	r2, #1040	; 0x410
     8ee:	f2c1 0200 	movt	r2, #4096	; 0x1000
     8f2:	4293      	cmp	r3, r2
     8f4:	f000 81a6 	beq.w	c44 <TEE_AllocateOperation+0x620>
     8f8:	e237      	b.n	d6a <TEE_AllocateOperation+0x746>
     8fa:	f44f 7288 	mov.w	r2, #272	; 0x110
     8fe:	f2c3 0200 	movt	r2, #12288	; 0x3000
     902:	4293      	cmp	r3, r2
     904:	f0c0 8231 	bcc.w	d6a <TEE_AllocateOperation+0x746>
     908:	f240 1211 	movw	r2, #273	; 0x111
     90c:	f2c3 0200 	movt	r2, #12288	; 0x3000
     910:	4293      	cmp	r3, r2
     912:	f240 821e 	bls.w	d52 <TEE_AllocateOperation+0x72e>
     916:	f240 1213 	movw	r2, #275	; 0x113
     91a:	f2c3 0200 	movt	r2, #12288	; 0x3000
     91e:	4293      	cmp	r3, r2
     920:	f000 8217 	beq.w	d52 <TEE_AllocateOperation+0x72e>
     924:	e221      	b.n	d6a <TEE_AllocateOperation+0x746>
     926:	f44f 7298 	mov.w	r2, #304	; 0x130
     92a:	f2c6 0200 	movt	r2, #24576	; 0x6000
     92e:	4293      	cmp	r3, r2
     930:	f000 81c1 	beq.w	cb6 <TEE_AllocateOperation+0x692>
     934:	f44f 7298 	mov.w	r2, #304	; 0x130
     938:	f2c6 0200 	movt	r2, #24576	; 0x6000
     93c:	4293      	cmp	r3, r2
     93e:	d835      	bhi.n	9ac <TEE_AllocateOperation+0x388>
     940:	f44f 6201 	mov.w	r2, #2064	; 0x810
     944:	f2c4 0200 	movt	r2, #16384	; 0x4000
     948:	4293      	cmp	r3, r2
     94a:	f000 818a 	beq.w	c62 <TEE_AllocateOperation+0x63e>
     94e:	f44f 6201 	mov.w	r2, #2064	; 0x810
     952:	f2c4 0200 	movt	r2, #16384	; 0x4000
     956:	4293      	cmp	r3, r2
     958:	d815      	bhi.n	986 <TEE_AllocateOperation+0x362>
     95a:	f44f 62c2 	mov.w	r2, #1552	; 0x610
     95e:	f2c3 0200 	movt	r2, #12288	; 0x3000
     962:	4293      	cmp	r3, r2
     964:	f000 81f5 	beq.w	d52 <TEE_AllocateOperation+0x72e>
     968:	f44f 62e2 	mov.w	r2, #1808	; 0x710
     96c:	f2c4 0200 	movt	r2, #16384	; 0x4000
     970:	4293      	cmp	r3, r2
     972:	f000 816b 	beq.w	c4c <TEE_AllocateOperation+0x628>
     976:	f240 5213 	movw	r2, #1299	; 0x513
     97a:	f2c3 0200 	movt	r2, #12288	; 0x3000
     97e:	4293      	cmp	r3, r2
     980:	f000 81e7 	beq.w	d52 <TEE_AllocateOperation+0x72e>
     984:	e1f1      	b.n	d6a <TEE_AllocateOperation+0x746>
     986:	f1b3 4fa0 	cmp.w	r3, #1342177280	; 0x50000000
     98a:	f240 81ee 	bls.w	d6a <TEE_AllocateOperation+0x746>
     98e:	f04f 0206 	mov.w	r2, #6
     992:	f2c5 0200 	movt	r2, #20480	; 0x5000
     996:	4293      	cmp	r3, r2
     998:	f240 81cb 	bls.w	d32 <TEE_AllocateOperation+0x70e>
     99c:	f04f 0230 	mov.w	r2, #48	; 0x30
     9a0:	f2c6 0200 	movt	r2, #24576	; 0x6000
     9a4:	4293      	cmp	r3, r2
     9a6:	f000 819d 	beq.w	ce4 <TEE_AllocateOperation+0x6c0>
     9aa:	e1de      	b.n	d6a <TEE_AllocateOperation+0x746>
     9ac:	f44f 720c 	mov.w	r2, #560	; 0x230
     9b0:	f2c6 0251 	movt	r2, #24657	; 0x6051
     9b4:	4293      	cmp	r3, r2
     9b6:	f000 817e 	beq.w	cb6 <TEE_AllocateOperation+0x692>
     9ba:	f44f 720c 	mov.w	r2, #560	; 0x230
     9be:	f2c6 0251 	movt	r2, #24657	; 0x6051
     9c2:	4293      	cmp	r3, r2
     9c4:	d815      	bhi.n	9f2 <TEE_AllocateOperation+0x3ce>
     9c6:	f44f 720c 	mov.w	r2, #560	; 0x230
     9ca:	f2c6 0231 	movt	r2, #24625	; 0x6031
     9ce:	4293      	cmp	r3, r2
     9d0:	f000 8171 	beq.w	cb6 <TEE_AllocateOperation+0x692>
     9d4:	f44f 720c 	mov.w	r2, #560	; 0x230
     9d8:	f2c6 0241 	movt	r2, #24641	; 0x6041
     9dc:	4293      	cmp	r3, r2
     9de:	f000 816a 	beq.w	cb6 <TEE_AllocateOperation+0x692>
     9e2:	f44f 720c 	mov.w	r2, #560	; 0x230
     9e6:	f2c6 0221 	movt	r2, #24609	; 0x6021
     9ea:	4293      	cmp	r3, r2
     9ec:	f000 8163 	beq.w	cb6 <TEE_AllocateOperation+0x692>
     9f0:	e1bb      	b.n	d6a <TEE_AllocateOperation+0x746>
     9f2:	f241 0241 	movw	r2, #4161	; 0x1041
     9f6:	f2c7 0200 	movt	r2, #28672	; 0x7000
     9fa:	4293      	cmp	r3, r2
     9fc:	f000 8144 	beq.w	c88 <TEE_AllocateOperation+0x664>
     a00:	f241 0241 	movw	r2, #4161	; 0x1041
     a04:	f2c7 0200 	movt	r2, #28672	; 0x7000
     a08:	4293      	cmp	r3, r2
     a0a:	d807      	bhi.n	a1c <TEE_AllocateOperation+0x3f8>
     a0c:	f44f 720c 	mov.w	r2, #560	; 0x230
     a10:	f2c6 0261 	movt	r2, #24673	; 0x6061
     a14:	4293      	cmp	r3, r2
     a16:	f000 814e 	beq.w	cb6 <TEE_AllocateOperation+0x692>
     a1a:	e1a6      	b.n	d6a <TEE_AllocateOperation+0x746>
     a1c:	f641 0230 	movw	r2, #6192	; 0x1830
     a20:	f2c7 0200 	movt	r2, #28672	; 0x7000
     a24:	4293      	cmp	r3, r2
     a26:	f000 812f 	beq.w	c88 <TEE_AllocateOperation+0x664>
     a2a:	f242 0241 	movw	r2, #8257	; 0x2041
     a2e:	f2c7 0200 	movt	r2, #28672	; 0x7000
     a32:	4293      	cmp	r3, r2
     a34:	f000 8128 	beq.w	c88 <TEE_AllocateOperation+0x664>
     a38:	e197      	b.n	d6a <TEE_AllocateOperation+0x746>
     a3a:	f04f 0232 	mov.w	r2, #50	; 0x32
     a3e:	f2c8 0200 	movt	r2, #32768	; 0x8000
     a42:	4293      	cmp	r3, r2
     a44:	f000 8165 	beq.w	d12 <TEE_AllocateOperation+0x6ee>
     a48:	f04f 0232 	mov.w	r2, #50	; 0x32
     a4c:	f2c8 0200 	movt	r2, #32768	; 0x8000
     a50:	4293      	cmp	r3, r2
     a52:	d87e      	bhi.n	b52 <TEE_AllocateOperation+0x52e>
     a54:	f245 0241 	movw	r2, #20545	; 0x5041
     a58:	f2c7 0200 	movt	r2, #28672	; 0x7000
     a5c:	4293      	cmp	r3, r2
     a5e:	f000 8113 	beq.w	c88 <TEE_AllocateOperation+0x664>
     a62:	f245 0241 	movw	r2, #20545	; 0x5041
     a66:	f2c7 0200 	movt	r2, #28672	; 0x7000
     a6a:	4293      	cmp	r3, r2
     a6c:	d838      	bhi.n	ae0 <TEE_AllocateOperation+0x4bc>
     a6e:	f643 0230 	movw	r2, #14384	; 0x3830
     a72:	f2c7 0200 	movt	r2, #28672	; 0x7000
     a76:	4293      	cmp	r3, r2
     a78:	f000 8106 	beq.w	c88 <TEE_AllocateOperation+0x664>
     a7c:	f643 0230 	movw	r2, #14384	; 0x3830
     a80:	f2c7 0200 	movt	r2, #28672	; 0x7000
     a84:	4293      	cmp	r3, r2
     a86:	d815      	bhi.n	ab4 <TEE_AllocateOperation+0x490>
     a88:	f243 0241 	movw	r2, #12353	; 0x3041
     a8c:	f2c7 0200 	movt	r2, #28672	; 0x7000
     a90:	4293      	cmp	r3, r2
     a92:	f000 80f9 	beq.w	c88 <TEE_AllocateOperation+0x664>
     a96:	f243 1231 	movw	r2, #12593	; 0x3131
     a9a:	f2c7 0200 	movt	r2, #28672	; 0x7000
     a9e:	4293      	cmp	r3, r2
     aa0:	f000 80f2 	beq.w	c88 <TEE_AllocateOperation+0x664>
     aa4:	f642 0230 	movw	r2, #10288	; 0x2830
     aa8:	f2c7 0200 	movt	r2, #28672	; 0x7000
     aac:	4293      	cmp	r3, r2
     aae:	f000 80eb 	beq.w	c88 <TEE_AllocateOperation+0x664>
     ab2:	e15a      	b.n	d6a <TEE_AllocateOperation+0x746>
     ab4:	f244 1231 	movw	r2, #16689	; 0x4131
     ab8:	f2c7 0200 	movt	r2, #28672	; 0x7000
     abc:	4293      	cmp	r3, r2
     abe:	f000 80e3 	beq.w	c88 <TEE_AllocateOperation+0x664>
     ac2:	f644 0230 	movw	r2, #18480	; 0x4830
     ac6:	f2c7 0200 	movt	r2, #28672	; 0x7000
     aca:	4293      	cmp	r3, r2
     acc:	f000 80dc 	beq.w	c88 <TEE_AllocateOperation+0x664>
     ad0:	f244 0241 	movw	r2, #16449	; 0x4041
     ad4:	f2c7 0200 	movt	r2, #28672	; 0x7000
     ad8:	4293      	cmp	r3, r2
     ada:	f000 80d5 	beq.w	c88 <TEE_AllocateOperation+0x664>
     ade:	e144      	b.n	d6a <TEE_AllocateOperation+0x746>
     ae0:	f643 1230 	movw	r2, #14640	; 0x3930
     ae4:	f2c7 0231 	movt	r2, #28721	; 0x7031
     ae8:	4293      	cmp	r3, r2
     aea:	f000 80cd 	beq.w	c88 <TEE_AllocateOperation+0x664>
     aee:	f643 1230 	movw	r2, #14640	; 0x3930
     af2:	f2c7 0231 	movt	r2, #28721	; 0x7031
     af6:	4293      	cmp	r3, r2
     af8:	d815      	bhi.n	b26 <TEE_AllocateOperation+0x502>
     afa:	f646 0230 	movw	r2, #26672	; 0x6830
     afe:	f2c7 0200 	movt	r2, #28672	; 0x7000
     b02:	4293      	cmp	r3, r2
     b04:	f000 80c0 	beq.w	c88 <TEE_AllocateOperation+0x664>
     b08:	f642 1230 	movw	r2, #10544	; 0x2930
     b0c:	f2c7 0221 	movt	r2, #28705	; 0x7021
     b10:	4293      	cmp	r3, r2
     b12:	f000 80b9 	beq.w	c88 <TEE_AllocateOperation+0x664>
     b16:	f645 0230 	movw	r2, #22576	; 0x5830
     b1a:	f2c7 0200 	movt	r2, #28672	; 0x7000
     b1e:	4293      	cmp	r3, r2
     b20:	f000 80b2 	beq.w	c88 <TEE_AllocateOperation+0x664>
     b24:	e121      	b.n	d6a <TEE_AllocateOperation+0x746>
     b26:	f645 1230 	movw	r2, #22832	; 0x5930
     b2a:	f2c7 0251 	movt	r2, #28753	; 0x7051
     b2e:	4293      	cmp	r3, r2
     b30:	f000 80aa 	beq.w	c88 <TEE_AllocateOperation+0x664>
     b34:	f646 1230 	movw	r2, #26928	; 0x6930
     b38:	f2c7 0261 	movt	r2, #28769	; 0x7061
     b3c:	4293      	cmp	r3, r2
     b3e:	f000 80a3 	beq.w	c88 <TEE_AllocateOperation+0x664>
     b42:	f644 1230 	movw	r2, #18736	; 0x4930
     b46:	f2c7 0241 	movt	r2, #28737	; 0x7041
     b4a:	4293      	cmp	r3, r2
     b4c:	f000 809c 	beq.w	c88 <TEE_AllocateOperation+0x664>
     b50:	e10b      	b.n	d6a <TEE_AllocateOperation+0x746>
     b52:	f243 02c1 	movw	r2, #12481	; 0x30c1
     b56:	f2c8 0200 	movt	r2, #32768	; 0x8000
     b5a:	4293      	cmp	r3, r2
     b5c:	d838      	bhi.n	bd0 <TEE_AllocateOperation+0x5ac>
     b5e:	f44f 5243 	mov.w	r2, #12480	; 0x30c0
     b62:	f2c8 0200 	movt	r2, #32768	; 0x8000
     b66:	4293      	cmp	r3, r2
     b68:	f080 80d3 	bcs.w	d12 <TEE_AllocateOperation+0x6ee>
     b6c:	f242 0242 	movw	r2, #8258	; 0x2042
     b70:	f2c8 0200 	movt	r2, #32768	; 0x8000
     b74:	4293      	cmp	r3, r2
     b76:	f000 80cc 	beq.w	d12 <TEE_AllocateOperation+0x6ee>
     b7a:	f242 0242 	movw	r2, #8258	; 0x2042
     b7e:	f2c8 0200 	movt	r2, #32768	; 0x8000
     b82:	4293      	cmp	r3, r2
     b84:	d80e      	bhi.n	ba4 <TEE_AllocateOperation+0x580>
     b86:	f241 0242 	movw	r2, #4162	; 0x1042
     b8a:	f2c8 0200 	movt	r2, #32768	; 0x8000
     b8e:	4293      	cmp	r3, r2
     b90:	f000 80bf 	beq.w	d12 <TEE_AllocateOperation+0x6ee>
     b94:	f44f 5286 	mov.w	r2, #4288	; 0x10c0
     b98:	f2c8 0200 	movt	r2, #32768	; 0x8000
     b9c:	4293      	cmp	r3, r2
     b9e:	f000 80b8 	beq.w	d12 <TEE_AllocateOperation+0x6ee>
     ba2:	e0e2      	b.n	d6a <TEE_AllocateOperation+0x746>
     ba4:	f44f 5203 	mov.w	r2, #8384	; 0x20c0
     ba8:	f2c8 0200 	movt	r2, #32768	; 0x8000
     bac:	4293      	cmp	r3, r2
     bae:	f0c0 80dc 	bcc.w	d6a <TEE_AllocateOperation+0x746>
     bb2:	f242 02c2 	movw	r2, #8386	; 0x20c2
     bb6:	f2c8 0200 	movt	r2, #32768	; 0x8000
     bba:	4293      	cmp	r3, r2
     bbc:	f240 80a9 	bls.w	d12 <TEE_AllocateOperation+0x6ee>
     bc0:	f243 0242 	movw	r2, #12354	; 0x3042
     bc4:	f2c8 0200 	movt	r2, #32768	; 0x8000
     bc8:	4293      	cmp	r3, r2
     bca:	f000 80a2 	beq.w	d12 <TEE_AllocateOperation+0x6ee>
     bce:	e0cc      	b.n	d6a <TEE_AllocateOperation+0x746>
     bd0:	f245 0242 	movw	r2, #20546	; 0x5042
     bd4:	f2c8 0200 	movt	r2, #32768	; 0x8000
     bd8:	4293      	cmp	r3, r2
     bda:	f000 809a 	beq.w	d12 <TEE_AllocateOperation+0x6ee>
     bde:	f245 0242 	movw	r2, #20546	; 0x5042
     be2:	f2c8 0200 	movt	r2, #32768	; 0x8000
     be6:	4293      	cmp	r3, r2
     be8:	d816      	bhi.n	c18 <TEE_AllocateOperation+0x5f4>
     bea:	f244 0242 	movw	r2, #16450	; 0x4042
     bee:	f2c8 0200 	movt	r2, #32768	; 0x8000
     bf2:	4293      	cmp	r3, r2
     bf4:	f000 808d 	beq.w	d12 <TEE_AllocateOperation+0x6ee>
     bf8:	f244 0242 	movw	r2, #16450	; 0x4042
     bfc:	f2c8 0200 	movt	r2, #32768	; 0x8000
     c00:	4293      	cmp	r3, r2
     c02:	f0c0 80b2 	bcc.w	d6a <TEE_AllocateOperation+0x746>
     c06:	f64b 7240 	movw	r2, #48960	; 0xbf40
     c0a:	f6c7 72ff 	movt	r2, #32767	; 0x7fff
     c0e:	441a      	add	r2, r3
     c10:	2a01      	cmp	r2, #1
     c12:	f200 80aa 	bhi.w	d6a <TEE_AllocateOperation+0x746>
     c16:	e07c      	b.n	d12 <TEE_AllocateOperation+0x6ee>
     c18:	f245 02c0 	movw	r2, #20672	; 0x50c0
     c1c:	f2c8 0200 	movt	r2, #32768	; 0x8000
     c20:	4293      	cmp	r3, r2
     c22:	f0c0 80a2 	bcc.w	d6a <TEE_AllocateOperation+0x746>
     c26:	f245 02c1 	movw	r2, #20673	; 0x50c1
     c2a:	f2c8 0200 	movt	r2, #32768	; 0x8000
     c2e:	4293      	cmp	r3, r2
     c30:	d96f      	bls.n	d12 <TEE_AllocateOperation+0x6ee>
     c32:	f649 7240 	movw	r2, #40768	; 0x9f40
     c36:	f6c7 72ff 	movt	r2, #32767	; 0x7fff
     c3a:	441a      	add	r2, r3
     c3c:	2a01      	cmp	r2, #1
     c3e:	f200 8094 	bhi.w	d6a <TEE_AllocateOperation+0x746>
     c42:	e066      	b.n	d12 <TEE_AllocateOperation+0x6ee>
/home/test/devel/optee/optee_os/lib/libutee/tee_api_operations.c:134
     c44:	f04f 0301 	mov.w	r3, #1
     c48:	f887 3026 	strb.w	r3, [r7, #38]	; 0x26
/home/test/devel/optee/optee_os/lib/libutee/tee_api_operations.c:143
     c4c:	68bb      	ldr	r3, [r7, #8]
     c4e:	b2db      	uxtb	r3, r3
     c50:	2b10      	cmp	r3, #16
     c52:	d103      	bne.n	c5c <TEE_AllocateOperation+0x638>
/home/test/devel/optee/optee_os/lib/libutee/tee_api_operations.c:144
     c54:	f04f 0310 	mov.w	r3, #16
     c58:	62fb      	str	r3, [r7, #44]	; 0x2c
     c5a:	e002      	b.n	c62 <TEE_AllocateOperation+0x63e>
/home/test/devel/optee/optee_os/lib/libutee/tee_api_operations.c:146
     c5c:	f04f 0308 	mov.w	r3, #8
     c60:	62fb      	str	r3, [r7, #44]	; 0x2c
/home/test/devel/optee/optee_os/lib/libutee/tee_api_operations.c:150
     c62:	687b      	ldr	r3, [r7, #4]
     c64:	2b00      	cmp	r3, #0
     c66:	d103      	bne.n	c70 <TEE_AllocateOperation+0x64c>
/home/test/devel/optee/optee_os/lib/libutee/tee_api_operations.c:151
     c68:	f04f 0302 	mov.w	r3, #2
     c6c:	62bb      	str	r3, [r7, #40]	; 0x28
/home/test/devel/optee/optee_os/lib/libutee/tee_api_operations.c:156
     c6e:	e081      	b.n	d74 <TEE_AllocateOperation+0x750>
/home/test/devel/optee/optee_os/lib/libutee/tee_api_operations.c:152
     c70:	687b      	ldr	r3, [r7, #4]
     c72:	2b01      	cmp	r3, #1
     c74:	d103      	bne.n	c7e <TEE_AllocateOperation+0x65a>
/home/test/devel/optee/optee_os/lib/libutee/tee_api_operations.c:153
     c76:	f04f 0304 	mov.w	r3, #4
     c7a:	62bb      	str	r3, [r7, #40]	; 0x28
/home/test/devel/optee/optee_os/lib/libutee/tee_api_operations.c:156
     c7c:	e07a      	b.n	d74 <TEE_AllocateOperation+0x750>
/home/test/devel/optee/optee_os/lib/libutee/tee_api_operations.c:155
     c7e:	f04f 030a 	mov.w	r3, #10
     c82:	f6cf 73ff 	movt	r3, #65535	; 0xffff
     c86:	e168      	b.n	f5a <TEE_AllocateOperation+0x936>
/home/test/devel/optee/optee_os/lib/libutee/tee_api_operations.c:177
     c88:	687b      	ldr	r3, [r7, #4]
     c8a:	2b02      	cmp	r3, #2
     c8c:	d107      	bne.n	c9e <TEE_AllocateOperation+0x67a>
/home/test/devel/optee/optee_os/lib/libutee/tee_api_operations.c:178
     c8e:	f04f 0301 	mov.w	r3, #1
     c92:	f887 3027 	strb.w	r3, [r7, #39]	; 0x27
/home/test/devel/optee/optee_os/lib/libutee/tee_api_operations.c:179
     c96:	f04f 0310 	mov.w	r3, #16
     c9a:	62bb      	str	r3, [r7, #40]	; 0x28
/home/test/devel/optee/optee_os/lib/libutee/tee_api_operations.c:185
     c9c:	e06a      	b.n	d74 <TEE_AllocateOperation+0x750>
/home/test/devel/optee/optee_os/lib/libutee/tee_api_operations.c:180
     c9e:	687b      	ldr	r3, [r7, #4]
     ca0:	2b03      	cmp	r3, #3
     ca2:	d103      	bne.n	cac <TEE_AllocateOperation+0x688>
/home/test/devel/optee/optee_os/lib/libutee/tee_api_operations.c:181
     ca4:	f04f 0320 	mov.w	r3, #32
     ca8:	62bb      	str	r3, [r7, #40]	; 0x28
/home/test/devel/optee/optee_os/lib/libutee/tee_api_operations.c:185
     caa:	e063      	b.n	d74 <TEE_AllocateOperation+0x750>
/home/test/devel/optee/optee_os/lib/libutee/tee_api_operations.c:183
     cac:	f04f 030a 	mov.w	r3, #10
     cb0:	f6cf 73ff 	movt	r3, #65535	; 0xffff
     cb4:	e151      	b.n	f5a <TEE_AllocateOperation+0x936>
/home/test/devel/optee/optee_os/lib/libutee/tee_api_operations.c:193
     cb6:	687b      	ldr	r3, [r7, #4]
     cb8:	2b00      	cmp	r3, #0
     cba:	d103      	bne.n	cc4 <TEE_AllocateOperation+0x6a0>
/home/test/devel/optee/optee_os/lib/libutee/tee_api_operations.c:194
     cbc:	f04f 0302 	mov.w	r3, #2
     cc0:	62bb      	str	r3, [r7, #40]	; 0x28
/home/test/devel/optee/optee_os/lib/libutee/tee_api_operations.c:201
     cc2:	e057      	b.n	d74 <TEE_AllocateOperation+0x750>
/home/test/devel/optee/optee_os/lib/libutee/tee_api_operations.c:195
     cc4:	687b      	ldr	r3, [r7, #4]
     cc6:	2b01      	cmp	r3, #1
     cc8:	d107      	bne.n	cda <TEE_AllocateOperation+0x6b6>
/home/test/devel/optee/optee_os/lib/libutee/tee_api_operations.c:196
     cca:	f04f 0301 	mov.w	r3, #1
     cce:	f887 3027 	strb.w	r3, [r7, #39]	; 0x27
/home/test/devel/optee/optee_os/lib/libutee/tee_api_operations.c:197
     cd2:	f04f 0304 	mov.w	r3, #4
     cd6:	62bb      	str	r3, [r7, #40]	; 0x28
/home/test/devel/optee/optee_os/lib/libutee/tee_api_operations.c:201
     cd8:	e04c      	b.n	d74 <TEE_AllocateOperation+0x750>
/home/test/devel/optee/optee_os/lib/libutee/tee_api_operations.c:199
     cda:	f04f 030a 	mov.w	r3, #10
     cde:	f6cf 73ff 	movt	r3, #65535	; 0xffff
     ce2:	e13a      	b.n	f5a <TEE_AllocateOperation+0x936>
/home/test/devel/optee/optee_os/lib/libutee/tee_api_operations.c:204
     ce4:	687b      	ldr	r3, [r7, #4]
     ce6:	2b00      	cmp	r3, #0
     ce8:	d103      	bne.n	cf2 <TEE_AllocateOperation+0x6ce>
/home/test/devel/optee/optee_os/lib/libutee/tee_api_operations.c:205
     cea:	f04f 0322 	mov.w	r3, #34	; 0x22
     cee:	62bb      	str	r3, [r7, #40]	; 0x28
/home/test/devel/optee/optee_os/lib/libutee/tee_api_operations.c:212
     cf0:	e040      	b.n	d74 <TEE_AllocateOperation+0x750>
/home/test/devel/optee/optee_os/lib/libutee/tee_api_operations.c:206
     cf2:	687b      	ldr	r3, [r7, #4]
     cf4:	2b01      	cmp	r3, #1
     cf6:	d107      	bne.n	d08 <TEE_AllocateOperation+0x6e4>
/home/test/devel/optee/optee_os/lib/libutee/tee_api_operations.c:207
     cf8:	f04f 0301 	mov.w	r3, #1
     cfc:	f887 3027 	strb.w	r3, [r7, #39]	; 0x27
/home/test/devel/optee/optee_os/lib/libutee/tee_api_operations.c:208
     d00:	f04f 0314 	mov.w	r3, #20
     d04:	62bb      	str	r3, [r7, #40]	; 0x28
/home/test/devel/optee/optee_os/lib/libutee/tee_api_operations.c:212
     d06:	e035      	b.n	d74 <TEE_AllocateOperation+0x750>
/home/test/devel/optee/optee_os/lib/libutee/tee_api_operations.c:210
     d08:	f04f 030a 	mov.w	r3, #10
     d0c:	f6cf 73ff 	movt	r3, #65535	; 0xffff
     d10:	e123      	b.n	f5a <TEE_AllocateOperation+0x936>
/home/test/devel/optee/optee_os/lib/libutee/tee_api_operations.c:232
     d12:	687b      	ldr	r3, [r7, #4]
     d14:	2b06      	cmp	r3, #6
     d16:	d004      	beq.n	d22 <TEE_AllocateOperation+0x6fe>
/home/test/devel/optee/optee_os/lib/libutee/tee_api_operations.c:233
     d18:	f04f 030a 	mov.w	r3, #10
     d1c:	f6cf 73ff 	movt	r3, #65535	; 0xffff
     d20:	e11b      	b.n	f5a <TEE_AllocateOperation+0x936>
/home/test/devel/optee/optee_os/lib/libutee/tee_api_operations.c:234
     d22:	f04f 0301 	mov.w	r3, #1
     d26:	f887 3027 	strb.w	r3, [r7, #39]	; 0x27
/home/test/devel/optee/optee_os/lib/libutee/tee_api_operations.c:235
     d2a:	f04f 0340 	mov.w	r3, #64	; 0x40
     d2e:	62bb      	str	r3, [r7, #40]	; 0x28
/home/test/devel/optee/optee_os/lib/libutee/tee_api_operations.c:236
     d30:	e020      	b.n	d74 <TEE_AllocateOperation+0x750>
/home/test/devel/optee/optee_os/lib/libutee/tee_api_operations.c:244
     d32:	687b      	ldr	r3, [r7, #4]
     d34:	2b05      	cmp	r3, #5
     d36:	d004      	beq.n	d42 <TEE_AllocateOperation+0x71e>
/home/test/devel/optee/optee_os/lib/libutee/tee_api_operations.c:245
     d38:	f04f 030a 	mov.w	r3, #10
     d3c:	f6cf 73ff 	movt	r3, #65535	; 0xffff
     d40:	e10b      	b.n	f5a <TEE_AllocateOperation+0x936>
/home/test/devel/optee/optee_os/lib/libutee/tee_api_operations.c:247
     d42:	6b3b      	ldr	r3, [r7, #48]	; 0x30
     d44:	f443 2380 	orr.w	r3, r3, #262144	; 0x40000
     d48:	633b      	str	r3, [r7, #48]	; 0x30
/home/test/devel/optee/optee_os/lib/libutee/tee_api_operations.c:248
     d4a:	f04f 0300 	mov.w	r3, #0
     d4e:	62bb      	str	r3, [r7, #40]	; 0x28
/home/test/devel/optee/optee_os/lib/libutee/tee_api_operations.c:249
     d50:	e010      	b.n	d74 <TEE_AllocateOperation+0x750>
/home/test/devel/optee/optee_os/lib/libutee/tee_api_operations.c:264
     d52:	687b      	ldr	r3, [r7, #4]
     d54:	2b04      	cmp	r3, #4
     d56:	d004      	beq.n	d62 <TEE_AllocateOperation+0x73e>
/home/test/devel/optee/optee_os/lib/libutee/tee_api_operations.c:265
     d58:	f04f 030a 	mov.w	r3, #10
     d5c:	f6cf 73ff 	movt	r3, #65535	; 0xffff
     d60:	e0fb      	b.n	f5a <TEE_AllocateOperation+0x936>
/home/test/devel/optee/optee_os/lib/libutee/tee_api_operations.c:266
     d62:	f04f 0308 	mov.w	r3, #8
     d66:	62bb      	str	r3, [r7, #40]	; 0x28
/home/test/devel/optee/optee_os/lib/libutee/tee_api_operations.c:267
     d68:	e004      	b.n	d74 <TEE_AllocateOperation+0x750>
/home/test/devel/optee/optee_os/lib/libutee/tee_api_operations.c:270
     d6a:	f04f 030a 	mov.w	r3, #10
     d6e:	f6cf 73ff 	movt	r3, #65535	; 0xffff
     d72:	e0f2      	b.n	f5a <TEE_AllocateOperation+0x936>
/home/test/devel/optee/optee_os/lib/libutee/tee_api_operations.c:273
     d74:	f04f 0100 	mov.w	r1, #0
     d78:	f04f 0044 	mov.w	r0, #68	; 0x44
     d7c:	f003 ff1a 	bl	4bb4 <TEE_Malloc>
     d80:	61b8      	str	r0, [r7, #24]
/home/test/devel/optee/optee_os/lib/libutee/tee_api_operations.c:274
     d82:	69bb      	ldr	r3, [r7, #24]
     d84:	2b00      	cmp	r3, #0
     d86:	d104      	bne.n	d92 <TEE_AllocateOperation+0x76e>
/home/test/devel/optee/optee_os/lib/libutee/tee_api_operations.c:275
     d88:	f04f 030c 	mov.w	r3, #12
     d8c:	f6cf 73ff 	movt	r3, #65535	; 0xffff
     d90:	e0e3      	b.n	f5a <TEE_AllocateOperation+0x936>
/home/test/devel/optee/optee_os/lib/libutee/tee_api_operations.c:277
     d92:	69bb      	ldr	r3, [r7, #24]
     d94:	68ba      	ldr	r2, [r7, #8]
     d96:	601a      	str	r2, [r3, #0]
/home/test/devel/optee/optee_os/lib/libutee/tee_api_operations.c:278
     d98:	68bb      	ldr	r3, [r7, #8]
     d9a:	ea4f 7213 	mov.w	r2, r3, lsr #28
     d9e:	69bb      	ldr	r3, [r7, #24]
     da0:	605a      	str	r2, [r3, #4]
/home/test/devel/optee/optee_os/lib/libutee/tee_api_operations.c:279
     da2:	69bb      	ldr	r3, [r7, #24]
     da4:	687a      	ldr	r2, [r7, #4]
     da6:	609a      	str	r2, [r3, #8]
/home/test/devel/optee/optee_os/lib/libutee/tee_api_operations.c:280
     da8:	69bb      	ldr	r3, [r7, #24]
     daa:	683a      	ldr	r2, [r7, #0]
     dac:	611a      	str	r2, [r3, #16]
/home/test/devel/optee/optee_os/lib/libutee/tee_api_operations.c:281
     dae:	69bb      	ldr	r3, [r7, #24]
     db0:	6aba      	ldr	r2, [r7, #40]	; 0x28
     db2:	619a      	str	r2, [r3, #24]
/home/test/devel/optee/optee_os/lib/libutee/tee_api_operations.c:282
     db4:	69bb      	ldr	r3, [r7, #24]
     db6:	6b3a      	ldr	r2, [r7, #48]	; 0x30
     db8:	61da      	str	r2, [r3, #28]
/home/test/devel/optee/optee_os/lib/libutee/tee_api_operations.c:284
     dba:	6afb      	ldr	r3, [r7, #44]	; 0x2c
     dbc:	2b01      	cmp	r3, #1
     dbe:	d91b      	bls.n	df8 <TEE_AllocateOperation+0x7d4>
/home/test/devel/optee/optee_os/lib/libutee/tee_api_operations.c:285
     dc0:	6afb      	ldr	r3, [r7, #44]	; 0x2c
     dc2:	623b      	str	r3, [r7, #32]
/home/test/devel/optee/optee_os/lib/libutee/tee_api_operations.c:287
     dc4:	f897 3026 	ldrb.w	r3, [r7, #38]	; 0x26
     dc8:	2b00      	cmp	r3, #0
     dca:	d003      	beq.n	dd4 <TEE_AllocateOperation+0x7b0>
/home/test/devel/optee/optee_os/lib/libutee/tee_api_operations.c:288
     dcc:	6a3b      	ldr	r3, [r7, #32]
     dce:	ea4f 0343 	mov.w	r3, r3, lsl #1
     dd2:	623b      	str	r3, [r7, #32]
/home/test/devel/optee/optee_os/lib/libutee/tee_api_operations.c:290
     dd4:	f04f 4100 	mov.w	r1, #2147483648	; 0x80000000
     dd8:	6a38      	ldr	r0, [r7, #32]
     dda:	f003 feeb 	bl	4bb4 <TEE_Malloc>
     dde:	4602      	mov	r2, r0
     de0:	69bb      	ldr	r3, [r7, #24]
     de2:	62da      	str	r2, [r3, #44]	; 0x2c
/home/test/devel/optee/optee_os/lib/libutee/tee_api_operations.c:292
     de4:	69bb      	ldr	r3, [r7, #24]
     de6:	6adb      	ldr	r3, [r3, #44]	; 0x2c
     de8:	2b00      	cmp	r3, #0
     dea:	d105      	bne.n	df8 <TEE_AllocateOperation+0x7d4>
/home/test/devel/optee/optee_os/lib/libutee/tee_api_operations.c:293
     dec:	f04f 030c 	mov.w	r3, #12
     df0:	f6cf 73ff 	movt	r3, #65535	; 0xffff
     df4:	637b      	str	r3, [r7, #52]	; 0x34
/home/test/devel/optee/optee_os/lib/libutee/tee_api_operations.c:294
     df6:	e07e      	b.n	ef6 <TEE_AllocateOperation+0x8d2>
/home/test/devel/optee/optee_os/lib/libutee/tee_api_operations.c:297
     df8:	69bb      	ldr	r3, [r7, #24]
     dfa:	6afa      	ldr	r2, [r7, #44]	; 0x2c
     dfc:	635a      	str	r2, [r3, #52]	; 0x34
/home/test/devel/optee/optee_os/lib/libutee/tee_api_operations.c:298
     dfe:	69bb      	ldr	r3, [r7, #24]
     e00:	f897 2026 	ldrb.w	r2, [r7, #38]	; 0x26
     e04:	f883 2030 	strb.w	r2, [r3, #48]	; 0x30
/home/test/devel/optee/optee_os/lib/libutee/tee_api_operations.c:300
     e08:	68bb      	ldr	r3, [r7, #8]
     e0a:	ea4f 7313 	mov.w	r3, r3, lsr #28
     e0e:	2b05      	cmp	r3, #5
     e10:	d037      	beq.n	e82 <TEE_AllocateOperation+0x85e>
/home/test/devel/optee/optee_os/lib/libutee/tee_api_operations.c:301
     e12:	683b      	ldr	r3, [r7, #0]
     e14:	61fb      	str	r3, [r7, #28]
/home/test/devel/optee/optee_os/lib/libutee/tee_api_operations.c:302
     e16:	68bb      	ldr	r3, [r7, #8]
     e18:	b2da      	uxtb	r2, r3
     e1a:	f897 3027 	ldrb.w	r3, [r7, #39]	; 0x27
     e1e:	2b00      	cmp	r3, #0
     e20:	d002      	beq.n	e28 <TEE_AllocateOperation+0x804>
/home/test/devel/optee/optee_os/lib/libutee/tee_api_operations.c:302 (discriminator 1)
     e22:	f04f 4321 	mov.w	r3, #2701131776	; 0xa1000000
     e26:	e001      	b.n	e2c <TEE_AllocateOperation+0x808>
/home/test/devel/optee/optee_os/lib/libutee/tee_api_operations.c:302 (discriminator 2)
     e28:	f04f 4320 	mov.w	r3, #2684354560	; 0xa0000000
/home/test/devel/optee/optee_os/lib/libutee/tee_api_operations.c:302 (discriminator 4)
     e2c:	ea43 0302 	orr.w	r3, r3, r2
     e30:	617b      	str	r3, [r7, #20]
/home/test/devel/optee/optee_os/lib/libutee/tee_api_operations.c:309 (discriminator 4)
     e32:	69bb      	ldr	r3, [r7, #24]
     e34:	69db      	ldr	r3, [r3, #28]
     e36:	f403 2300 	and.w	r3, r3, #524288	; 0x80000
     e3a:	2b00      	cmp	r3, #0
     e3c:	d003      	beq.n	e46 <TEE_AllocateOperation+0x822>
/home/test/devel/optee/optee_os/lib/libutee/tee_api_operations.c:310
     e3e:	69fb      	ldr	r3, [r7, #28]
     e40:	ea4f 0353 	mov.w	r3, r3, lsr #1
     e44:	61fb      	str	r3, [r7, #28]
/home/test/devel/optee/optee_os/lib/libutee/tee_api_operations.c:312
     e46:	69bb      	ldr	r3, [r7, #24]
     e48:	f103 0320 	add.w	r3, r3, #32
     e4c:	461a      	mov	r2, r3
     e4e:	69f9      	ldr	r1, [r7, #28]
     e50:	6978      	ldr	r0, [r7, #20]
     e52:	f009 f881 	bl	9f58 <TEE_AllocateTransientObject>
     e56:	6378      	str	r0, [r7, #52]	; 0x34
/home/test/devel/optee/optee_os/lib/libutee/tee_api_operations.c:313
     e58:	6b7b      	ldr	r3, [r7, #52]	; 0x34
     e5a:	2b00      	cmp	r3, #0
     e5c:	d144      	bne.n	ee8 <TEE_AllocateOperation+0x8c4>
/home/test/devel/optee/optee_os/lib/libutee/tee_api_operations.c:316
     e5e:	69bb      	ldr	r3, [r7, #24]
     e60:	69db      	ldr	r3, [r3, #28]
     e62:	f403 2300 	and.w	r3, r3, #524288	; 0x80000
     e66:	2b00      	cmp	r3, #0
     e68:	d00b      	beq.n	e82 <TEE_AllocateOperation+0x85e>
/home/test/devel/optee/optee_os/lib/libutee/tee_api_operations.c:317
     e6a:	69bb      	ldr	r3, [r7, #24]
     e6c:	f103 0324 	add.w	r3, r3, #36	; 0x24
     e70:	461a      	mov	r2, r3
     e72:	69f9      	ldr	r1, [r7, #28]
     e74:	6978      	ldr	r0, [r7, #20]
     e76:	f009 f86f 	bl	9f58 <TEE_AllocateTransientObject>
     e7a:	6378      	str	r0, [r7, #52]	; 0x34
/home/test/devel/optee/optee_os/lib/libutee/tee_api_operations.c:319
     e7c:	6b7b      	ldr	r3, [r7, #52]	; 0x34
     e7e:	2b00      	cmp	r3, #0
     e80:	d134      	bne.n	eec <TEE_AllocateOperation+0x8c8>
/home/test/devel/optee/optee_os/lib/libutee/tee_api_operations.c:324
     e82:	69bb      	ldr	r3, [r7, #24]
     e84:	6a1b      	ldr	r3, [r3, #32]
     e86:	461a      	mov	r2, r3
/home/test/devel/optee/optee_os/lib/libutee/tee_api_operations.c:325
     e88:	69bb      	ldr	r3, [r7, #24]
     e8a:	6a5b      	ldr	r3, [r3, #36]	; 0x24
/home/test/devel/optee/optee_os/lib/libutee/tee_api_operations.c:324
     e8c:	4619      	mov	r1, r3
     e8e:	69bb      	ldr	r3, [r7, #24]
     e90:	f103 033c 	add.w	r3, r3, #60	; 0x3c
     e94:	9300      	str	r3, [sp, #0]
     e96:	460b      	mov	r3, r1
     e98:	6879      	ldr	r1, [r7, #4]
     e9a:	68b8      	ldr	r0, [r7, #8]
     e9c:	f002 ec0e 	blx	36bc <utee_cryp_state_alloc>
     ea0:	6378      	str	r0, [r7, #52]	; 0x34
/home/test/devel/optee/optee_os/lib/libutee/tee_api_operations.c:326
     ea2:	6b7b      	ldr	r3, [r7, #52]	; 0x34
     ea4:	2b00      	cmp	r3, #0
     ea6:	d123      	bne.n	ef0 <TEE_AllocateOperation+0x8cc>
/home/test/devel/optee/optee_os/lib/libutee/tee_api_operations.c:334
     ea8:	68bb      	ldr	r3, [r7, #8]
     eaa:	ea4f 7313 	mov.w	r3, r3, lsr #28
     eae:	2b05      	cmp	r3, #5
     eb0:	d112      	bne.n	ed8 <TEE_AllocateOperation+0x8b4>
/home/test/devel/optee/optee_os/lib/libutee/tee_api_operations.c:335
     eb2:	69bb      	ldr	r3, [r7, #24]
     eb4:	6bdb      	ldr	r3, [r3, #60]	; 0x3c
     eb6:	f04f 0200 	mov.w	r2, #0
     eba:	f04f 0100 	mov.w	r1, #0
     ebe:	4618      	mov	r0, r3
     ec0:	f002 ec1c 	blx	36fc <utee_hash_init>
     ec4:	6378      	str	r0, [r7, #52]	; 0x34
/home/test/devel/optee/optee_os/lib/libutee/tee_api_operations.c:336
     ec6:	6b7b      	ldr	r3, [r7, #52]	; 0x34
     ec8:	2b00      	cmp	r3, #0
     eca:	d113      	bne.n	ef4 <TEE_AllocateOperation+0x8d0>
/home/test/devel/optee/optee_os/lib/libutee/tee_api_operations.c:339
     ecc:	69bb      	ldr	r3, [r7, #24]
     ece:	69db      	ldr	r3, [r3, #28]
     ed0:	f443 3200 	orr.w	r2, r3, #131072	; 0x20000
     ed4:	69bb      	ldr	r3, [r7, #24]
     ed6:	61da      	str	r2, [r3, #28]
/home/test/devel/optee/optee_os/lib/libutee/tee_api_operations.c:342
     ed8:	69bb      	ldr	r3, [r7, #24]
     eda:	f04f 0200 	mov.w	r2, #0
     ede:	629a      	str	r2, [r3, #40]	; 0x28
/home/test/devel/optee/optee_os/lib/libutee/tee_api_operations.c:344
     ee0:	68fb      	ldr	r3, [r7, #12]
     ee2:	69ba      	ldr	r2, [r7, #24]
     ee4:	601a      	str	r2, [r3, #0]
     ee6:	e006      	b.n	ef6 <TEE_AllocateOperation+0x8d2>
/home/test/devel/optee/optee_os/lib/libutee/tee_api_operations.c:314
     ee8:	bf00      	nop
     eea:	e004      	b.n	ef6 <TEE_AllocateOperation+0x8d2>
/home/test/devel/optee/optee_os/lib/libutee/tee_api_operations.c:320
     eec:	bf00      	nop
     eee:	e002      	b.n	ef6 <TEE_AllocateOperation+0x8d2>
/home/test/devel/optee/optee_os/lib/libutee/tee_api_operations.c:327
     ef0:	bf00      	nop
     ef2:	e000      	b.n	ef6 <TEE_AllocateOperation+0x8d2>
/home/test/devel/optee/optee_os/lib/libutee/tee_api_operations.c:337
     ef4:	bf00      	nop
/home/test/devel/optee/optee_os/lib/libutee/tee_api_operations.c:347
     ef6:	6b7b      	ldr	r3, [r7, #52]	; 0x34
     ef8:	2b00      	cmp	r3, #0
     efa:	d02d      	beq.n	f58 <TEE_AllocateOperation+0x934>
/home/test/devel/optee/optee_os/lib/libutee/tee_api_operations.c:348
     efc:	6b7a      	ldr	r2, [r7, #52]	; 0x34
     efe:	f04f 030c 	mov.w	r3, #12
     f02:	f6cf 73ff 	movt	r3, #65535	; 0xffff
     f06:	429a      	cmp	r2, r3
     f08:	d009      	beq.n	f1e <TEE_AllocateOperation+0x8fa>
/home/test/devel/optee/optee_os/lib/libutee/tee_api_operations.c:348 (discriminator 1)
     f0a:	6b7a      	ldr	r2, [r7, #52]	; 0x34
     f0c:	f04f 030a 	mov.w	r3, #10
     f10:	f6cf 73ff 	movt	r3, #65535	; 0xffff
     f14:	429a      	cmp	r2, r3
     f16:	d002      	beq.n	f1e <TEE_AllocateOperation+0x8fa>
/home/test/devel/optee/optee_os/lib/libutee/tee_api_operations.c:350
     f18:	6b78      	ldr	r0, [r7, #52]	; 0x34
     f1a:	f008 fdd3 	bl	9ac4 <TEE_Panic>
/home/test/devel/optee/optee_os/lib/libutee/tee_api_operations.c:351
     f1e:	69bb      	ldr	r3, [r7, #24]
     f20:	2b00      	cmp	r3, #0
     f22:	d019      	beq.n	f58 <TEE_AllocateOperation+0x934>
/home/test/devel/optee/optee_os/lib/libutee/tee_api_operations.c:352
     f24:	69bb      	ldr	r3, [r7, #24]
     f26:	6bdb      	ldr	r3, [r3, #60]	; 0x3c
     f28:	2b00      	cmp	r3, #0
     f2a:	d003      	beq.n	f34 <TEE_AllocateOperation+0x910>
/home/test/devel/optee/optee_os/lib/libutee/tee_api_operations.c:353
     f2c:	69b8      	ldr	r0, [r7, #24]
     f2e:	f000 f819 	bl	f64 <TEE_FreeOperation>
     f32:	e011      	b.n	f58 <TEE_AllocateOperation+0x934>
/home/test/devel/optee/optee_os/lib/libutee/tee_api_operations.c:355
     f34:	69bb      	ldr	r3, [r7, #24]
     f36:	6adb      	ldr	r3, [r3, #44]	; 0x2c
     f38:	4618      	mov	r0, r3
     f3a:	f003 fe5b 	bl	4bf4 <TEE_Free>
/home/test/devel/optee/optee_os/lib/libutee/tee_api_operations.c:356
     f3e:	69bb      	ldr	r3, [r7, #24]
     f40:	6a1b      	ldr	r3, [r3, #32]
     f42:	4618      	mov	r0, r3
     f44:	f009 f838 	bl	9fb8 <TEE_FreeTransientObject>
/home/test/devel/optee/optee_os/lib/libutee/tee_api_operations.c:357
     f48:	69bb      	ldr	r3, [r7, #24]
     f4a:	6a5b      	ldr	r3, [r3, #36]	; 0x24
     f4c:	4618      	mov	r0, r3
     f4e:	f009 f833 	bl	9fb8 <TEE_FreeTransientObject>
/home/test/devel/optee/optee_os/lib/libutee/tee_api_operations.c:358
     f52:	69b8      	ldr	r0, [r7, #24]
     f54:	f003 fe4e 	bl	4bf4 <TEE_Free>
/home/test/devel/optee/optee_os/lib/libutee/tee_api_operations.c:363
     f58:	6b7b      	ldr	r3, [r7, #52]	; 0x34
/home/test/devel/optee/optee_os/lib/libutee/tee_api_operations.c:364
     f5a:	4618      	mov	r0, r3
     f5c:	f107 0738 	add.w	r7, r7, #56	; 0x38
     f60:	46bd      	mov	sp, r7
     f62:	bd80      	pop	{r7, pc}

00000f64 <TEE_FreeOperation>:
TEE_FreeOperation():
/home/test/devel/optee/optee_os/lib/libutee/tee_api_operations.c:367
     f64:	e96d 7e02 	strd	r7, lr, [sp, #-8]!
     f68:	b084      	sub	sp, #16
     f6a:	af00      	add	r7, sp, #0
     f6c:	6078      	str	r0, [r7, #4]
/home/test/devel/optee/optee_os/lib/libutee/tee_api_operations.c:370
     f6e:	687b      	ldr	r3, [r7, #4]
     f70:	2b00      	cmp	r3, #0
     f72:	d103      	bne.n	f7c <TEE_FreeOperation+0x18>
/home/test/devel/optee/optee_os/lib/libutee/tee_api_operations.c:371
     f74:	f04f 0000 	mov.w	r0, #0
     f78:	f008 fda4 	bl	9ac4 <TEE_Panic>
/home/test/devel/optee/optee_os/lib/libutee/tee_api_operations.c:378
     f7c:	687b      	ldr	r3, [r7, #4]
     f7e:	6bdb      	ldr	r3, [r3, #60]	; 0x3c
     f80:	4618      	mov	r0, r3
     f82:	f002 ebb2 	blx	36e8 <utee_cryp_state_free>
     f86:	60f8      	str	r0, [r7, #12]
/home/test/devel/optee/optee_os/lib/libutee/tee_api_operations.c:379
     f88:	68fb      	ldr	r3, [r7, #12]
     f8a:	2b00      	cmp	r3, #0
     f8c:	d002      	beq.n	f94 <TEE_FreeOperation+0x30>
/home/test/devel/optee/optee_os/lib/libutee/tee_api_operations.c:380
     f8e:	68f8      	ldr	r0, [r7, #12]
     f90:	f008 fd98 	bl	9ac4 <TEE_Panic>
/home/test/devel/optee/optee_os/lib/libutee/tee_api_operations.c:382
     f94:	687b      	ldr	r3, [r7, #4]
     f96:	6adb      	ldr	r3, [r3, #44]	; 0x2c
     f98:	4618      	mov	r0, r3
     f9a:	f003 fe2b 	bl	4bf4 <TEE_Free>
/home/test/devel/optee/optee_os/lib/libutee/tee_api_operations.c:383
     f9e:	6878      	ldr	r0, [r7, #4]
     fa0:	f003 fe28 	bl	4bf4 <TEE_Free>
/home/test/devel/optee/optee_os/lib/libutee/tee_api_operations.c:384
     fa4:	bf00      	nop
     fa6:	f107 0710 	add.w	r7, r7, #16
     faa:	46bd      	mov	sp, r7
     fac:	bd80      	pop	{r7, pc}

00000fae <TEE_GetOperationInfo>:
TEE_GetOperationInfo():
/home/test/devel/optee/optee_os/lib/libutee/tee_api_operations.c:388
     fae:	e96d 7e02 	strd	r7, lr, [sp, #-8]!
     fb2:	b082      	sub	sp, #8
     fb4:	af00      	add	r7, sp, #0
     fb6:	6078      	str	r0, [r7, #4]
     fb8:	6039      	str	r1, [r7, #0]
/home/test/devel/optee/optee_os/lib/libutee/tee_api_operations.c:389
     fba:	687b      	ldr	r3, [r7, #4]
     fbc:	2b00      	cmp	r3, #0
     fbe:	d103      	bne.n	fc8 <TEE_GetOperationInfo+0x1a>
/home/test/devel/optee/optee_os/lib/libutee/tee_api_operations.c:390
     fc0:	f04f 0000 	mov.w	r0, #0
     fc4:	f008 fd7e 	bl	9ac4 <TEE_Panic>
/home/test/devel/optee/optee_os/lib/libutee/tee_api_operations.c:392
     fc8:	683b      	ldr	r3, [r7, #0]
     fca:	2b00      	cmp	r3, #0
     fcc:	d103      	bne.n	fd6 <TEE_GetOperationInfo+0x28>
/home/test/devel/optee/optee_os/lib/libutee/tee_api_operations.c:393
     fce:	f04f 0000 	mov.w	r0, #0
     fd2:	f008 fd77 	bl	9ac4 <TEE_Panic>
/home/test/devel/optee/optee_os/lib/libutee/tee_api_operations.c:395
     fd6:	683b      	ldr	r3, [r7, #0]
     fd8:	687a      	ldr	r2, [r7, #4]
     fda:	e9d2 0100 	ldrd	r0, r1, [r2]
     fde:	e9c3 0100 	strd	r0, r1, [r3]
     fe2:	e9d2 0102 	ldrd	r0, r1, [r2, #8]
     fe6:	e9c3 0102 	strd	r0, r1, [r3, #8]
     fea:	e9d2 0104 	ldrd	r0, r1, [r2, #16]
     fee:	e9c3 0104 	strd	r0, r1, [r3, #16]
     ff2:	e9d2 1206 	ldrd	r1, r2, [r2, #24]
     ff6:	e9c3 1206 	strd	r1, r2, [r3, #24]
/home/test/devel/optee/optee_os/lib/libutee/tee_api_operations.c:396
     ffa:	bf00      	nop
     ffc:	f107 0708 	add.w	r7, r7, #8
    1000:	46bd      	mov	sp, r7
    1002:	bd80      	pop	{r7, pc}

00001004 <TEE_GetOperationInfoMultiple>:
TEE_GetOperationInfoMultiple():
/home/test/devel/optee/optee_os/lib/libutee/tee_api_operations.c:401
    1004:	e96d 7e02 	strd	r7, lr, [sp, #-8]!
    1008:	b096      	sub	sp, #88	; 0x58
    100a:	af00      	add	r7, sp, #0
    100c:	60f8      	str	r0, [r7, #12]
    100e:	60b9      	str	r1, [r7, #8]
    1010:	607a      	str	r2, [r7, #4]
/home/test/devel/optee/optee_os/lib/libutee/tee_api_operations.c:402
    1012:	f04f 0300 	mov.w	r3, #0
    1016:	657b      	str	r3, [r7, #84]	; 0x54
/home/test/devel/optee/optee_os/lib/libutee/tee_api_operations.c:408
    1018:	68fb      	ldr	r3, [r7, #12]
    101a:	2b00      	cmp	r3, #0
    101c:	d105      	bne.n	102a <TEE_GetOperationInfoMultiple+0x26>
/home/test/devel/optee/optee_os/lib/libutee/tee_api_operations.c:409
    101e:	f04f 0306 	mov.w	r3, #6
    1022:	f6cf 73ff 	movt	r3, #65535	; 0xffff
    1026:	657b      	str	r3, [r7, #84]	; 0x54
/home/test/devel/optee/optee_os/lib/libutee/tee_api_operations.c:410
    1028:	e0a9      	b.n	117e <TEE_GetOperationInfoMultiple+0x17a>
/home/test/devel/optee/optee_os/lib/libutee/tee_api_operations.c:413
    102a:	68bb      	ldr	r3, [r7, #8]
    102c:	2b00      	cmp	r3, #0
    102e:	d105      	bne.n	103c <TEE_GetOperationInfoMultiple+0x38>
/home/test/devel/optee/optee_os/lib/libutee/tee_api_operations.c:414
    1030:	f04f 0306 	mov.w	r3, #6
    1034:	f6cf 73ff 	movt	r3, #65535	; 0xffff
    1038:	657b      	str	r3, [r7, #84]	; 0x54
/home/test/devel/optee/optee_os/lib/libutee/tee_api_operations.c:415
    103a:	e0a0      	b.n	117e <TEE_GetOperationInfoMultiple+0x17a>
/home/test/devel/optee/optee_os/lib/libutee/tee_api_operations.c:418
    103c:	687b      	ldr	r3, [r7, #4]
    103e:	2b00      	cmp	r3, #0
    1040:	d105      	bne.n	104e <TEE_GetOperationInfoMultiple+0x4a>
/home/test/devel/optee/optee_os/lib/libutee/tee_api_operations.c:419
    1042:	f04f 0306 	mov.w	r3, #6
    1046:	f6cf 73ff 	movt	r3, #65535	; 0xffff
    104a:	657b      	str	r3, [r7, #84]	; 0x54
/home/test/devel/optee/optee_os/lib/libutee/tee_api_operations.c:420
    104c:	e097      	b.n	117e <TEE_GetOperationInfoMultiple+0x17a>
/home/test/devel/optee/optee_os/lib/libutee/tee_api_operations.c:423
    104e:	687b      	ldr	r3, [r7, #4]
    1050:	681b      	ldr	r3, [r3, #0]
    1052:	f1a3 0320 	sub.w	r3, r3, #32
    1056:	ea4f 03d3 	mov.w	r3, r3, lsr #3
    105a:	64fb      	str	r3, [r7, #76]	; 0x4c
/home/test/devel/optee/optee_os/lib/libutee/tee_api_operations.c:426
    105c:	6cfb      	ldr	r3, [r7, #76]	; 0x4c
    105e:	2b02      	cmp	r3, #2
    1060:	d905      	bls.n	106e <TEE_GetOperationInfoMultiple+0x6a>
/home/test/devel/optee/optee_os/lib/libutee/tee_api_operations.c:427
    1062:	f04f 0306 	mov.w	r3, #6
    1066:	f6cf 73ff 	movt	r3, #65535	; 0xffff
    106a:	657b      	str	r3, [r7, #84]	; 0x54
/home/test/devel/optee/optee_os/lib/libutee/tee_api_operations.c:428
    106c:	e087      	b.n	117e <TEE_GetOperationInfoMultiple+0x17a>
/home/test/devel/optee/optee_os/lib/libutee/tee_api_operations.c:432
    106e:	68fb      	ldr	r3, [r7, #12]
    1070:	69db      	ldr	r3, [r3, #28]
    1072:	f403 2300 	and.w	r3, r3, #524288	; 0x80000
    1076:	2b00      	cmp	r3, #0
    1078:	d008      	beq.n	108c <TEE_GetOperationInfoMultiple+0x88>
/home/test/devel/optee/optee_os/lib/libutee/tee_api_operations.c:433
    107a:	6cfb      	ldr	r3, [r7, #76]	; 0x4c
    107c:	2b02      	cmp	r3, #2
    107e:	d005      	beq.n	108c <TEE_GetOperationInfoMultiple+0x88>
/home/test/devel/optee/optee_os/lib/libutee/tee_api_operations.c:435
    1080:	f04f 0310 	mov.w	r3, #16
    1084:	f6cf 73ff 	movt	r3, #65535	; 0xffff
    1088:	657b      	str	r3, [r7, #84]	; 0x54
/home/test/devel/optee/optee_os/lib/libutee/tee_api_operations.c:436
    108a:	e078      	b.n	117e <TEE_GetOperationInfoMultiple+0x17a>
/home/test/devel/optee/optee_os/lib/libutee/tee_api_operations.c:440
    108c:	f04f 0300 	mov.w	r3, #0
    1090:	653b      	str	r3, [r7, #80]	; 0x50
    1092:	e015      	b.n	10c0 <TEE_GetOperationInfoMultiple+0xbc>
/home/test/devel/optee/optee_os/lib/libutee/tee_api_operations.c:441 (discriminator 3)
    1094:	68bb      	ldr	r3, [r7, #8]
    1096:	6d3a      	ldr	r2, [r7, #80]	; 0x50
    1098:	f102 0204 	add.w	r2, r2, #4
    109c:	f04f 0100 	mov.w	r1, #0
    10a0:	f843 1032 	str.w	r1, [r3, r2, lsl #3]
/home/test/devel/optee/optee_os/lib/libutee/tee_api_operations.c:442 (discriminator 3)
    10a4:	68ba      	ldr	r2, [r7, #8]
    10a6:	6d3b      	ldr	r3, [r7, #80]	; 0x50
    10a8:	f103 0304 	add.w	r3, r3, #4
    10ac:	ea4f 03c3 	mov.w	r3, r3, lsl #3
    10b0:	4413      	add	r3, r2
    10b2:	f04f 0200 	mov.w	r2, #0
    10b6:	605a      	str	r2, [r3, #4]
/home/test/devel/optee/optee_os/lib/libutee/tee_api_operations.c:440 (discriminator 3)
    10b8:	6d3b      	ldr	r3, [r7, #80]	; 0x50
    10ba:	f103 0301 	add.w	r3, r3, #1
    10be:	653b      	str	r3, [r7, #80]	; 0x50
/home/test/devel/optee/optee_os/lib/libutee/tee_api_operations.c:440 (discriminator 1)
    10c0:	6d3a      	ldr	r2, [r7, #80]	; 0x50
    10c2:	6cfb      	ldr	r3, [r7, #76]	; 0x4c
    10c4:	429a      	cmp	r2, r3
    10c6:	d3e5      	bcc.n	1094 <TEE_GetOperationInfoMultiple+0x90>
/home/test/devel/optee/optee_os/lib/libutee/tee_api_operations.c:445
    10c8:	6cfb      	ldr	r3, [r7, #76]	; 0x4c
    10ca:	2b02      	cmp	r3, #2
    10cc:	d112      	bne.n	10f4 <TEE_GetOperationInfoMultiple+0xf0>
/home/test/devel/optee/optee_os/lib/libutee/tee_api_operations.c:446
    10ce:	68fb      	ldr	r3, [r7, #12]
    10d0:	6a5b      	ldr	r3, [r3, #36]	; 0x24
    10d2:	f107 0214 	add.w	r2, r7, #20
    10d6:	4611      	mov	r1, r2
    10d8:	4618      	mov	r0, r3
    10da:	f008 fde2 	bl	9ca2 <TEE_GetObjectInfo1>
    10de:	6578      	str	r0, [r7, #84]	; 0x54
/home/test/devel/optee/optee_os/lib/libutee/tee_api_operations.c:448
    10e0:	6d7b      	ldr	r3, [r7, #84]	; 0x54
    10e2:	2b00      	cmp	r3, #0
    10e4:	d148      	bne.n	1178 <TEE_GetOperationInfoMultiple+0x174>
/home/test/devel/optee/optee_os/lib/libutee/tee_api_operations.c:452
    10e6:	69ba      	ldr	r2, [r7, #24]
/home/test/devel/optee/optee_os/lib/libutee/tee_api_operations.c:451
    10e8:	68bb      	ldr	r3, [r7, #8]
    10ea:	629a      	str	r2, [r3, #40]	; 0x28
/home/test/devel/optee/optee_os/lib/libutee/tee_api_operations.c:454
    10ec:	68fb      	ldr	r3, [r7, #12]
    10ee:	699a      	ldr	r2, [r3, #24]
/home/test/devel/optee/optee_os/lib/libutee/tee_api_operations.c:453
    10f0:	68bb      	ldr	r3, [r7, #8]
    10f2:	62da      	str	r2, [r3, #44]	; 0x2c
/home/test/devel/optee/optee_os/lib/libutee/tee_api_operations.c:457
    10f4:	6cfb      	ldr	r3, [r7, #76]	; 0x4c
    10f6:	2b00      	cmp	r3, #0
    10f8:	d01e      	beq.n	1138 <TEE_GetOperationInfoMultiple+0x134>
/home/test/devel/optee/optee_os/lib/libutee/tee_api_operations.c:458
    10fa:	68fb      	ldr	r3, [r7, #12]
    10fc:	6a1b      	ldr	r3, [r3, #32]
    10fe:	f107 0230 	add.w	r2, r7, #48	; 0x30
    1102:	4611      	mov	r1, r2
    1104:	4618      	mov	r0, r3
    1106:	f008 fdcc 	bl	9ca2 <TEE_GetObjectInfo1>
    110a:	6578      	str	r0, [r7, #84]	; 0x54
/home/test/devel/optee/optee_os/lib/libutee/tee_api_operations.c:460
    110c:	6d7b      	ldr	r3, [r7, #84]	; 0x54
    110e:	2b00      	cmp	r3, #0
    1110:	d00b      	beq.n	112a <TEE_GetOperationInfoMultiple+0x126>
/home/test/devel/optee/optee_os/lib/libutee/tee_api_operations.c:461
    1112:	6cfb      	ldr	r3, [r7, #76]	; 0x4c
    1114:	2b02      	cmp	r3, #2
    1116:	d131      	bne.n	117c <TEE_GetOperationInfoMultiple+0x178>
/home/test/devel/optee/optee_os/lib/libutee/tee_api_operations.c:463
    1118:	68bb      	ldr	r3, [r7, #8]
    111a:	f04f 0200 	mov.w	r2, #0
    111e:	629a      	str	r2, [r3, #40]	; 0x28
/home/test/devel/optee/optee_os/lib/libutee/tee_api_operations.c:465
    1120:	68bb      	ldr	r3, [r7, #8]
    1122:	f04f 0200 	mov.w	r2, #0
    1126:	62da      	str	r2, [r3, #44]	; 0x2c
/home/test/devel/optee/optee_os/lib/libutee/tee_api_operations.c:467
    1128:	e028      	b.n	117c <TEE_GetOperationInfoMultiple+0x178>
/home/test/devel/optee/optee_os/lib/libutee/tee_api_operations.c:471
    112a:	6b7a      	ldr	r2, [r7, #52]	; 0x34
/home/test/devel/optee/optee_os/lib/libutee/tee_api_operations.c:470
    112c:	68bb      	ldr	r3, [r7, #8]
    112e:	621a      	str	r2, [r3, #32]
/home/test/devel/optee/optee_os/lib/libutee/tee_api_operations.c:473
    1130:	68fb      	ldr	r3, [r7, #12]
    1132:	699a      	ldr	r2, [r3, #24]
/home/test/devel/optee/optee_os/lib/libutee/tee_api_operations.c:472
    1134:	68bb      	ldr	r3, [r7, #8]
    1136:	625a      	str	r2, [r3, #36]	; 0x24
/home/test/devel/optee/optee_os/lib/libutee/tee_api_operations.c:477
    1138:	68fb      	ldr	r3, [r7, #12]
    113a:	681a      	ldr	r2, [r3, #0]
    113c:	68bb      	ldr	r3, [r7, #8]
    113e:	601a      	str	r2, [r3, #0]
/home/test/devel/optee/optee_os/lib/libutee/tee_api_operations.c:478
    1140:	68fb      	ldr	r3, [r7, #12]
    1142:	685a      	ldr	r2, [r3, #4]
    1144:	68bb      	ldr	r3, [r7, #8]
    1146:	605a      	str	r2, [r3, #4]
/home/test/devel/optee/optee_os/lib/libutee/tee_api_operations.c:479
    1148:	68fb      	ldr	r3, [r7, #12]
    114a:	689a      	ldr	r2, [r3, #8]
    114c:	68bb      	ldr	r3, [r7, #8]
    114e:	609a      	str	r2, [r3, #8]
/home/test/devel/optee/optee_os/lib/libutee/tee_api_operations.c:480
    1150:	68fb      	ldr	r3, [r7, #12]
    1152:	68da      	ldr	r2, [r3, #12]
    1154:	68bb      	ldr	r3, [r7, #8]
    1156:	60da      	str	r2, [r3, #12]
/home/test/devel/optee/optee_os/lib/libutee/tee_api_operations.c:481
    1158:	68fb      	ldr	r3, [r7, #12]
    115a:	691a      	ldr	r2, [r3, #16]
    115c:	68bb      	ldr	r3, [r7, #8]
    115e:	611a      	str	r2, [r3, #16]
/home/test/devel/optee/optee_os/lib/libutee/tee_api_operations.c:482
    1160:	68fb      	ldr	r3, [r7, #12]
    1162:	69da      	ldr	r2, [r3, #28]
    1164:	68bb      	ldr	r3, [r7, #8]
    1166:	615a      	str	r2, [r3, #20]
/home/test/devel/optee/optee_os/lib/libutee/tee_api_operations.c:483
    1168:	68fb      	ldr	r3, [r7, #12]
    116a:	6a9a      	ldr	r2, [r3, #40]	; 0x28
    116c:	68bb      	ldr	r3, [r7, #8]
    116e:	619a      	str	r2, [r3, #24]
/home/test/devel/optee/optee_os/lib/libutee/tee_api_operations.c:484
    1170:	68bb      	ldr	r3, [r7, #8]
    1172:	6cfa      	ldr	r2, [r7, #76]	; 0x4c
    1174:	61da      	str	r2, [r3, #28]
    1176:	e002      	b.n	117e <TEE_GetOperationInfoMultiple+0x17a>
/home/test/devel/optee/optee_os/lib/libutee/tee_api_operations.c:449
    1178:	bf00      	nop
    117a:	e000      	b.n	117e <TEE_GetOperationInfoMultiple+0x17a>
/home/test/devel/optee/optee_os/lib/libutee/tee_api_operations.c:467
    117c:	bf00      	nop
/home/test/devel/optee/optee_os/lib/libutee/tee_api_operations.c:487
    117e:	6d7b      	ldr	r3, [r7, #84]	; 0x54
    1180:	2b00      	cmp	r3, #0
    1182:	d009      	beq.n	1198 <TEE_GetOperationInfoMultiple+0x194>
/home/test/devel/optee/optee_os/lib/libutee/tee_api_operations.c:487 (discriminator 1)
    1184:	6d7a      	ldr	r2, [r7, #84]	; 0x54
    1186:	f04f 0310 	mov.w	r3, #16
    118a:	f6cf 73ff 	movt	r3, #65535	; 0xffff
    118e:	429a      	cmp	r2, r3
    1190:	d002      	beq.n	1198 <TEE_GetOperationInfoMultiple+0x194>
/home/test/devel/optee/optee_os/lib/libutee/tee_api_operations.c:489
    1192:	6d78      	ldr	r0, [r7, #84]	; 0x54
    1194:	f008 fc96 	bl	9ac4 <TEE_Panic>
/home/test/devel/optee/optee_os/lib/libutee/tee_api_operations.c:491
    1198:	6d7b      	ldr	r3, [r7, #84]	; 0x54
/home/test/devel/optee/optee_os/lib/libutee/tee_api_operations.c:492
    119a:	4618      	mov	r0, r3
    119c:	f107 0758 	add.w	r7, r7, #88	; 0x58
    11a0:	46bd      	mov	sp, r7
    11a2:	bd80      	pop	{r7, pc}

000011a4 <TEE_ResetOperation>:
TEE_ResetOperation():
/home/test/devel/optee/optee_os/lib/libutee/tee_api_operations.c:495
    11a4:	e96d 7e02 	strd	r7, lr, [sp, #-8]!
    11a8:	b084      	sub	sp, #16
    11aa:	af00      	add	r7, sp, #0
    11ac:	6078      	str	r0, [r7, #4]
/home/test/devel/optee/optee_os/lib/libutee/tee_api_operations.c:498
    11ae:	687b      	ldr	r3, [r7, #4]
    11b0:	2b00      	cmp	r3, #0
    11b2:	d103      	bne.n	11bc <TEE_ResetOperation+0x18>
/home/test/devel/optee/optee_os/lib/libutee/tee_api_operations.c:499
    11b4:	f04f 0000 	mov.w	r0, #0
    11b8:	f008 fc84 	bl	9ac4 <TEE_Panic>
/home/test/devel/optee/optee_os/lib/libutee/tee_api_operations.c:501
    11bc:	687b      	ldr	r3, [r7, #4]
    11be:	69db      	ldr	r3, [r3, #28]
    11c0:	f403 2380 	and.w	r3, r3, #262144	; 0x40000
    11c4:	2b00      	cmp	r3, #0
    11c6:	d103      	bne.n	11d0 <TEE_ResetOperation+0x2c>
/home/test/devel/optee/optee_os/lib/libutee/tee_api_operations.c:502
    11c8:	f04f 0000 	mov.w	r0, #0
    11cc:	f008 fc7a 	bl	9ac4 <TEE_Panic>
/home/test/devel/optee/optee_os/lib/libutee/tee_api_operations.c:504
    11d0:	687b      	ldr	r3, [r7, #4]
    11d2:	f04f 0200 	mov.w	r2, #0
    11d6:	629a      	str	r2, [r3, #40]	; 0x28
/home/test/devel/optee/optee_os/lib/libutee/tee_api_operations.c:506
    11d8:	687b      	ldr	r3, [r7, #4]
    11da:	685b      	ldr	r3, [r3, #4]
    11dc:	2b05      	cmp	r3, #5
    11de:	d116      	bne.n	120e <TEE_ResetOperation+0x6a>
/home/test/devel/optee/optee_os/lib/libutee/tee_api_operations.c:507
    11e0:	687b      	ldr	r3, [r7, #4]
    11e2:	6bdb      	ldr	r3, [r3, #60]	; 0x3c
    11e4:	f04f 0200 	mov.w	r2, #0
    11e8:	f04f 0100 	mov.w	r1, #0
    11ec:	4618      	mov	r0, r3
    11ee:	f002 ea86 	blx	36fc <utee_hash_init>
    11f2:	60f8      	str	r0, [r7, #12]
/home/test/devel/optee/optee_os/lib/libutee/tee_api_operations.c:508
    11f4:	68fb      	ldr	r3, [r7, #12]
    11f6:	2b00      	cmp	r3, #0
    11f8:	d002      	beq.n	1200 <TEE_ResetOperation+0x5c>
/home/test/devel/optee/optee_os/lib/libutee/tee_api_operations.c:509
    11fa:	68f8      	ldr	r0, [r7, #12]
    11fc:	f008 fc62 	bl	9ac4 <TEE_Panic>
/home/test/devel/optee/optee_os/lib/libutee/tee_api_operations.c:510
    1200:	687b      	ldr	r3, [r7, #4]
    1202:	69db      	ldr	r3, [r3, #28]
    1204:	f443 3200 	orr.w	r2, r3, #131072	; 0x20000
    1208:	687b      	ldr	r3, [r7, #4]
    120a:	61da      	str	r2, [r3, #28]
/home/test/devel/optee/optee_os/lib/libutee/tee_api_operations.c:514
    120c:	e005      	b.n	121a <TEE_ResetOperation+0x76>
/home/test/devel/optee/optee_os/lib/libutee/tee_api_operations.c:512
    120e:	687b      	ldr	r3, [r7, #4]
    1210:	69db      	ldr	r3, [r3, #28]
    1212:	f423 3200 	bic.w	r2, r3, #131072	; 0x20000
    1216:	687b      	ldr	r3, [r7, #4]
    1218:	61da      	str	r2, [r3, #28]
/home/test/devel/optee/optee_os/lib/libutee/tee_api_operations.c:514
    121a:	bf00      	nop
    121c:	f107 0710 	add.w	r7, r7, #16
    1220:	46bd      	mov	sp, r7
    1222:	bd80      	pop	{r7, pc}

00001224 <TEE_SetOperationKey>:
TEE_SetOperationKey():
/home/test/devel/optee/optee_os/lib/libutee/tee_api_operations.c:518
    1224:	e96d 7e02 	strd	r7, lr, [sp, #-8]!
    1228:	b08c      	sub	sp, #48	; 0x30
    122a:	af00      	add	r7, sp, #0
    122c:	6078      	str	r0, [r7, #4]
    122e:	6039      	str	r1, [r7, #0]
/home/test/devel/optee/optee_os/lib/libutee/tee_api_operations.c:520
    1230:	f04f 0300 	mov.w	r3, #0
    1234:	62bb      	str	r3, [r7, #40]	; 0x28
/home/test/devel/optee/optee_os/lib/libutee/tee_api_operations.c:523
    1236:	687b      	ldr	r3, [r7, #4]
    1238:	2b00      	cmp	r3, #0
    123a:	d105      	bne.n	1248 <TEE_SetOperationKey+0x24>
/home/test/devel/optee/optee_os/lib/libutee/tee_api_operations.c:524
    123c:	f04f 0306 	mov.w	r3, #6
    1240:	f6cf 73ff 	movt	r3, #65535	; 0xffff
    1244:	62fb      	str	r3, [r7, #44]	; 0x2c
/home/test/devel/optee/optee_os/lib/libutee/tee_api_operations.c:525
    1246:	e075      	b.n	1334 <TEE_SetOperationKey+0x110>
/home/test/devel/optee/optee_os/lib/libutee/tee_api_operations.c:528
    1248:	687b      	ldr	r3, [r7, #4]
    124a:	6a9b      	ldr	r3, [r3, #40]	; 0x28
    124c:	2b00      	cmp	r3, #0
    124e:	d005      	beq.n	125c <TEE_SetOperationKey+0x38>
/home/test/devel/optee/optee_os/lib/libutee/tee_api_operations.c:529
    1250:	f04f 0306 	mov.w	r3, #6
    1254:	f6cf 73ff 	movt	r3, #65535	; 0xffff
    1258:	62fb      	str	r3, [r7, #44]	; 0x2c
/home/test/devel/optee/optee_os/lib/libutee/tee_api_operations.c:530
    125a:	e06b      	b.n	1334 <TEE_SetOperationKey+0x110>
/home/test/devel/optee/optee_os/lib/libutee/tee_api_operations.c:533
    125c:	683b      	ldr	r3, [r7, #0]
    125e:	2b00      	cmp	r3, #0
    1260:	d10a      	bne.n	1278 <TEE_SetOperationKey+0x54>
/home/test/devel/optee/optee_os/lib/libutee/tee_api_operations.c:535
    1262:	687b      	ldr	r3, [r7, #4]
    1264:	6a1b      	ldr	r3, [r3, #32]
    1266:	4618      	mov	r0, r3
    1268:	f008 fed6 	bl	a018 <TEE_ResetTransientObject>
/home/test/devel/optee/optee_os/lib/libutee/tee_api_operations.c:536
    126c:	f04f 0306 	mov.w	r3, #6
    1270:	f6cf 73ff 	movt	r3, #65535	; 0xffff
    1274:	62fb      	str	r3, [r7, #44]	; 0x2c
/home/test/devel/optee/optee_os/lib/libutee/tee_api_operations.c:537
    1276:	e05d      	b.n	1334 <TEE_SetOperationKey+0x110>
/home/test/devel/optee/optee_os/lib/libutee/tee_api_operations.c:541
    1278:	687b      	ldr	r3, [r7, #4]
    127a:	685b      	ldr	r3, [r3, #4]
    127c:	2b05      	cmp	r3, #5
    127e:	d105      	bne.n	128c <TEE_SetOperationKey+0x68>
/home/test/devel/optee/optee_os/lib/libutee/tee_api_operations.c:542
    1280:	f04f 0306 	mov.w	r3, #6
    1284:	f6cf 73ff 	movt	r3, #65535	; 0xffff
    1288:	62fb      	str	r3, [r7, #44]	; 0x2c
/home/test/devel/optee/optee_os/lib/libutee/tee_api_operations.c:543
    128a:	e053      	b.n	1334 <TEE_SetOperationKey+0x110>
/home/test/devel/optee/optee_os/lib/libutee/tee_api_operations.c:547
    128c:	687b      	ldr	r3, [r7, #4]
    128e:	69db      	ldr	r3, [r3, #28]
    1290:	f403 2300 	and.w	r3, r3, #524288	; 0x80000
    1294:	2b00      	cmp	r3, #0
    1296:	d005      	beq.n	12a4 <TEE_SetOperationKey+0x80>
/home/test/devel/optee/optee_os/lib/libutee/tee_api_operations.c:549
    1298:	f04f 0306 	mov.w	r3, #6
    129c:	f6cf 73ff 	movt	r3, #65535	; 0xffff
    12a0:	62fb      	str	r3, [r7, #44]	; 0x2c
/home/test/devel/optee/optee_os/lib/libutee/tee_api_operations.c:550
    12a2:	e047      	b.n	1334 <TEE_SetOperationKey+0x110>
/home/test/devel/optee/optee_os/lib/libutee/tee_api_operations.c:553
    12a4:	f107 030c 	add.w	r3, r7, #12
    12a8:	4619      	mov	r1, r3
    12aa:	6838      	ldr	r0, [r7, #0]
    12ac:	f008 fcf9 	bl	9ca2 <TEE_GetObjectInfo1>
    12b0:	62f8      	str	r0, [r7, #44]	; 0x2c
/home/test/devel/optee/optee_os/lib/libutee/tee_api_operations.c:555
    12b2:	6afb      	ldr	r3, [r7, #44]	; 0x2c
    12b4:	2b00      	cmp	r3, #0
    12b6:	d13a      	bne.n	132e <TEE_SetOperationKey+0x10a>
/home/test/devel/optee/optee_os/lib/libutee/tee_api_operations.c:559
    12b8:	69ba      	ldr	r2, [r7, #24]
    12ba:	687b      	ldr	r3, [r7, #4]
    12bc:	699b      	ldr	r3, [r3, #24]
    12be:	ea02 0203 	and.w	r2, r2, r3
/home/test/devel/optee/optee_os/lib/libutee/tee_api_operations.c:560
    12c2:	687b      	ldr	r3, [r7, #4]
    12c4:	699b      	ldr	r3, [r3, #24]
/home/test/devel/optee/optee_os/lib/libutee/tee_api_operations.c:559
    12c6:	429a      	cmp	r2, r3
    12c8:	d005      	beq.n	12d6 <TEE_SetOperationKey+0xb2>
/home/test/devel/optee/optee_os/lib/libutee/tee_api_operations.c:561
    12ca:	f04f 0306 	mov.w	r3, #6
    12ce:	f6cf 73ff 	movt	r3, #65535	; 0xffff
    12d2:	62fb      	str	r3, [r7, #44]	; 0x2c
/home/test/devel/optee/optee_os/lib/libutee/tee_api_operations.c:562
    12d4:	e02e      	b.n	1334 <TEE_SetOperationKey+0x110>
/home/test/devel/optee/optee_os/lib/libutee/tee_api_operations.c:565
    12d6:	687b      	ldr	r3, [r7, #4]
    12d8:	691a      	ldr	r2, [r3, #16]
    12da:	693b      	ldr	r3, [r7, #16]
    12dc:	429a      	cmp	r2, r3
    12de:	d205      	bcs.n	12ec <TEE_SetOperationKey+0xc8>
/home/test/devel/optee/optee_os/lib/libutee/tee_api_operations.c:566
    12e0:	f04f 0306 	mov.w	r3, #6
    12e4:	f6cf 73ff 	movt	r3, #65535	; 0xffff
    12e8:	62fb      	str	r3, [r7, #44]	; 0x2c
/home/test/devel/optee/optee_os/lib/libutee/tee_api_operations.c:567
    12ea:	e023      	b.n	1334 <TEE_SetOperationKey+0x110>
/home/test/devel/optee/optee_os/lib/libutee/tee_api_operations.c:570
    12ec:	693b      	ldr	r3, [r7, #16]
    12ee:	62bb      	str	r3, [r7, #40]	; 0x28
/home/test/devel/optee/optee_os/lib/libutee/tee_api_operations.c:572
    12f0:	687b      	ldr	r3, [r7, #4]
    12f2:	6a1b      	ldr	r3, [r3, #32]
    12f4:	4618      	mov	r0, r3
    12f6:	f008 fe8f 	bl	a018 <TEE_ResetTransientObject>
/home/test/devel/optee/optee_os/lib/libutee/tee_api_operations.c:573
    12fa:	687b      	ldr	r3, [r7, #4]
    12fc:	69db      	ldr	r3, [r3, #28]
    12fe:	f423 2280 	bic.w	r2, r3, #262144	; 0x40000
    1302:	687b      	ldr	r3, [r7, #4]
    1304:	61da      	str	r2, [r3, #28]
/home/test/devel/optee/optee_os/lib/libutee/tee_api_operations.c:575
    1306:	687b      	ldr	r3, [r7, #4]
    1308:	6a1b      	ldr	r3, [r3, #32]
    130a:	6839      	ldr	r1, [r7, #0]
    130c:	4618      	mov	r0, r3
    130e:	f008 ffbc 	bl	a28a <TEE_CopyObjectAttributes1>
    1312:	62f8      	str	r0, [r7, #44]	; 0x2c
/home/test/devel/optee/optee_os/lib/libutee/tee_api_operations.c:576
    1314:	6afb      	ldr	r3, [r7, #44]	; 0x2c
    1316:	2b00      	cmp	r3, #0
    1318:	d10b      	bne.n	1332 <TEE_SetOperationKey+0x10e>
/home/test/devel/optee/optee_os/lib/libutee/tee_api_operations.c:579
    131a:	687b      	ldr	r3, [r7, #4]
    131c:	69db      	ldr	r3, [r3, #28]
    131e:	f443 2280 	orr.w	r2, r3, #262144	; 0x40000
    1322:	687b      	ldr	r3, [r7, #4]
    1324:	61da      	str	r2, [r3, #28]
/home/test/devel/optee/optee_os/lib/libutee/tee_api_operations.c:581
    1326:	687b      	ldr	r3, [r7, #4]
    1328:	6aba      	ldr	r2, [r7, #40]	; 0x28
    132a:	615a      	str	r2, [r3, #20]
    132c:	e002      	b.n	1334 <TEE_SetOperationKey+0x110>
/home/test/devel/optee/optee_os/lib/libutee/tee_api_operations.c:556
    132e:	bf00      	nop
    1330:	e000      	b.n	1334 <TEE_SetOperationKey+0x110>
/home/test/devel/optee/optee_os/lib/libutee/tee_api_operations.c:577
    1332:	bf00      	nop
/home/test/devel/optee/optee_os/lib/libutee/tee_api_operations.c:584
    1334:	6afb      	ldr	r3, [r7, #44]	; 0x2c
    1336:	2b00      	cmp	r3, #0
    1338:	d010      	beq.n	135c <TEE_SetOperationKey+0x138>
/home/test/devel/optee/optee_os/lib/libutee/tee_api_operations.c:584 (discriminator 1)
    133a:	6afa      	ldr	r2, [r7, #44]	; 0x2c
    133c:	f04f 0301 	mov.w	r3, #1
    1340:	f2cf 0310 	movt	r3, #61456	; 0xf010
    1344:	429a      	cmp	r2, r3
    1346:	d009      	beq.n	135c <TEE_SetOperationKey+0x138>
/home/test/devel/optee/optee_os/lib/libutee/tee_api_operations.c:585
    1348:	6afa      	ldr	r2, [r7, #44]	; 0x2c
    134a:	f04f 0303 	mov.w	r3, #3
    134e:	f2cf 0310 	movt	r3, #61456	; 0xf010
    1352:	429a      	cmp	r2, r3
    1354:	d002      	beq.n	135c <TEE_SetOperationKey+0x138>
/home/test/devel/optee/optee_os/lib/libutee/tee_api_operations.c:587
    1356:	6af8      	ldr	r0, [r7, #44]	; 0x2c
    1358:	f008 fbb4 	bl	9ac4 <TEE_Panic>
/home/test/devel/optee/optee_os/lib/libutee/tee_api_operations.c:589
    135c:	6afb      	ldr	r3, [r7, #44]	; 0x2c
/home/test/devel/optee/optee_os/lib/libutee/tee_api_operations.c:590
    135e:	4618      	mov	r0, r3
    1360:	f107 0730 	add.w	r7, r7, #48	; 0x30
    1364:	46bd      	mov	sp, r7
    1366:	bd80      	pop	{r7, pc}

00001368 <TEE_SetOperationKey2>:
TEE_SetOperationKey2():
/home/test/devel/optee/optee_os/lib/libutee/tee_api_operations.c:594
    1368:	e96d 7e02 	strd	r7, lr, [sp, #-8]!
    136c:	b094      	sub	sp, #80	; 0x50
    136e:	af00      	add	r7, sp, #0
    1370:	60f8      	str	r0, [r7, #12]
    1372:	60b9      	str	r1, [r7, #8]
    1374:	607a      	str	r2, [r7, #4]
/home/test/devel/optee/optee_os/lib/libutee/tee_api_operations.c:596
    1376:	f04f 0300 	mov.w	r3, #0
    137a:	64bb      	str	r3, [r7, #72]	; 0x48
/home/test/devel/optee/optee_os/lib/libutee/tee_api_operations.c:600
    137c:	68fb      	ldr	r3, [r7, #12]
    137e:	2b00      	cmp	r3, #0
    1380:	d105      	bne.n	138e <TEE_SetOperationKey2+0x26>
/home/test/devel/optee/optee_os/lib/libutee/tee_api_operations.c:601
    1382:	f04f 0306 	mov.w	r3, #6
    1386:	f6cf 73ff 	movt	r3, #65535	; 0xffff
    138a:	64fb      	str	r3, [r7, #76]	; 0x4c
/home/test/devel/optee/optee_os/lib/libutee/tee_api_operations.c:602
    138c:	e0dc      	b.n	1548 <TEE_SetOperationKey2+0x1e0>
/home/test/devel/optee/optee_os/lib/libutee/tee_api_operations.c:605
    138e:	68fb      	ldr	r3, [r7, #12]
    1390:	6a9b      	ldr	r3, [r3, #40]	; 0x28
    1392:	2b00      	cmp	r3, #0
    1394:	d005      	beq.n	13a2 <TEE_SetOperationKey2+0x3a>
/home/test/devel/optee/optee_os/lib/libutee/tee_api_operations.c:606
    1396:	f04f 0306 	mov.w	r3, #6
    139a:	f6cf 73ff 	movt	r3, #65535	; 0xffff
    139e:	64fb      	str	r3, [r7, #76]	; 0x4c
/home/test/devel/optee/optee_os/lib/libutee/tee_api_operations.c:607
    13a0:	e0d2      	b.n	1548 <TEE_SetOperationKey2+0x1e0>
/home/test/devel/optee/optee_os/lib/libutee/tee_api_operations.c:614
    13a2:	68bb      	ldr	r3, [r7, #8]
    13a4:	2b00      	cmp	r3, #0
    13a6:	d002      	beq.n	13ae <TEE_SetOperationKey2+0x46>
/home/test/devel/optee/optee_os/lib/libutee/tee_api_operations.c:614 (discriminator 1)
    13a8:	687b      	ldr	r3, [r7, #4]
    13aa:	2b00      	cmp	r3, #0
    13ac:	d115      	bne.n	13da <TEE_SetOperationKey2+0x72>
/home/test/devel/optee/optee_os/lib/libutee/tee_api_operations.c:616
    13ae:	68bb      	ldr	r3, [r7, #8]
    13b0:	2b00      	cmp	r3, #0
    13b2:	d104      	bne.n	13be <TEE_SetOperationKey2+0x56>
/home/test/devel/optee/optee_os/lib/libutee/tee_api_operations.c:617
    13b4:	68fb      	ldr	r3, [r7, #12]
    13b6:	6a1b      	ldr	r3, [r3, #32]
    13b8:	4618      	mov	r0, r3
    13ba:	f008 fe2d 	bl	a018 <TEE_ResetTransientObject>
/home/test/devel/optee/optee_os/lib/libutee/tee_api_operations.c:619
    13be:	687b      	ldr	r3, [r7, #4]
    13c0:	2b00      	cmp	r3, #0
    13c2:	d104      	bne.n	13ce <TEE_SetOperationKey2+0x66>
/home/test/devel/optee/optee_os/lib/libutee/tee_api_operations.c:620
    13c4:	68fb      	ldr	r3, [r7, #12]
    13c6:	6a5b      	ldr	r3, [r3, #36]	; 0x24
    13c8:	4618      	mov	r0, r3
    13ca:	f008 fe25 	bl	a018 <TEE_ResetTransientObject>
/home/test/devel/optee/optee_os/lib/libutee/tee_api_operations.c:621
    13ce:	f04f 0306 	mov.w	r3, #6
    13d2:	f6cf 73ff 	movt	r3, #65535	; 0xffff
    13d6:	64fb      	str	r3, [r7, #76]	; 0x4c
/home/test/devel/optee/optee_os/lib/libutee/tee_api_operations.c:622
    13d8:	e0b6      	b.n	1548 <TEE_SetOperationKey2+0x1e0>
/home/test/devel/optee/optee_os/lib/libutee/tee_api_operations.c:626
    13da:	68fb      	ldr	r3, [r7, #12]
    13dc:	685b      	ldr	r3, [r3, #4]
    13de:	2b05      	cmp	r3, #5
    13e0:	d105      	bne.n	13ee <TEE_SetOperationKey2+0x86>
/home/test/devel/optee/optee_os/lib/libutee/tee_api_operations.c:627
    13e2:	f04f 0306 	mov.w	r3, #6
    13e6:	f6cf 73ff 	movt	r3, #65535	; 0xffff
    13ea:	64fb      	str	r3, [r7, #76]	; 0x4c
/home/test/devel/optee/optee_os/lib/libutee/tee_api_operations.c:628
    13ec:	e0ac      	b.n	1548 <TEE_SetOperationKey2+0x1e0>
/home/test/devel/optee/optee_os/lib/libutee/tee_api_operations.c:632
    13ee:	68fb      	ldr	r3, [r7, #12]
    13f0:	69db      	ldr	r3, [r3, #28]
    13f2:	f403 2300 	and.w	r3, r3, #524288	; 0x80000
    13f6:	2b00      	cmp	r3, #0
    13f8:	d105      	bne.n	1406 <TEE_SetOperationKey2+0x9e>
/home/test/devel/optee/optee_os/lib/libutee/tee_api_operations.c:634
    13fa:	f04f 0306 	mov.w	r3, #6
    13fe:	f6cf 73ff 	movt	r3, #65535	; 0xffff
    1402:	64fb      	str	r3, [r7, #76]	; 0x4c
/home/test/devel/optee/optee_os/lib/libutee/tee_api_operations.c:635
    1404:	e0a0      	b.n	1548 <TEE_SetOperationKey2+0x1e0>
/home/test/devel/optee/optee_os/lib/libutee/tee_api_operations.c:638
    1406:	f107 032c 	add.w	r3, r7, #44	; 0x2c
    140a:	4619      	mov	r1, r3
    140c:	68b8      	ldr	r0, [r7, #8]
    140e:	f008 fc48 	bl	9ca2 <TEE_GetObjectInfo1>
    1412:	64f8      	str	r0, [r7, #76]	; 0x4c
/home/test/devel/optee/optee_os/lib/libutee/tee_api_operations.c:640
    1414:	6cfb      	ldr	r3, [r7, #76]	; 0x4c
    1416:	2b00      	cmp	r3, #0
    1418:	f040 808f 	bne.w	153a <TEE_SetOperationKey2+0x1d2>
/home/test/devel/optee/optee_os/lib/libutee/tee_api_operations.c:644
    141c:	6bba      	ldr	r2, [r7, #56]	; 0x38
    141e:	68fb      	ldr	r3, [r7, #12]
    1420:	699b      	ldr	r3, [r3, #24]
    1422:	ea02 0203 	and.w	r2, r2, r3
/home/test/devel/optee/optee_os/lib/libutee/tee_api_operations.c:645
    1426:	68fb      	ldr	r3, [r7, #12]
    1428:	699b      	ldr	r3, [r3, #24]
/home/test/devel/optee/optee_os/lib/libutee/tee_api_operations.c:644
    142a:	429a      	cmp	r2, r3
    142c:	d005      	beq.n	143a <TEE_SetOperationKey2+0xd2>
/home/test/devel/optee/optee_os/lib/libutee/tee_api_operations.c:646
    142e:	f04f 0306 	mov.w	r3, #6
    1432:	f6cf 73ff 	movt	r3, #65535	; 0xffff
    1436:	64fb      	str	r3, [r7, #76]	; 0x4c
/home/test/devel/optee/optee_os/lib/libutee/tee_api_operations.c:647
    1438:	e086      	b.n	1548 <TEE_SetOperationKey2+0x1e0>
/home/test/devel/optee/optee_os/lib/libutee/tee_api_operations.c:650
    143a:	f107 0310 	add.w	r3, r7, #16
    143e:	4619      	mov	r1, r3
    1440:	6878      	ldr	r0, [r7, #4]
    1442:	f008 fc2e 	bl	9ca2 <TEE_GetObjectInfo1>
    1446:	64f8      	str	r0, [r7, #76]	; 0x4c
/home/test/devel/optee/optee_os/lib/libutee/tee_api_operations.c:652
    1448:	6cfb      	ldr	r3, [r7, #76]	; 0x4c
    144a:	2b00      	cmp	r3, #0
    144c:	d00c      	beq.n	1468 <TEE_SetOperationKey2+0x100>
/home/test/devel/optee/optee_os/lib/libutee/tee_api_operations.c:653
    144e:	6cfa      	ldr	r2, [r7, #76]	; 0x4c
    1450:	f04f 0301 	mov.w	r3, #1
    1454:	f2cf 0310 	movt	r3, #61456	; 0xf010
    1458:	429a      	cmp	r2, r3
    145a:	d170      	bne.n	153e <TEE_SetOperationKey2+0x1d6>
/home/test/devel/optee/optee_os/lib/libutee/tee_api_operations.c:654
    145c:	f04f 0302 	mov.w	r3, #2
    1460:	f2cf 0310 	movt	r3, #61456	; 0xf010
    1464:	64fb      	str	r3, [r7, #76]	; 0x4c
/home/test/devel/optee/optee_os/lib/libutee/tee_api_operations.c:655
    1466:	e06a      	b.n	153e <TEE_SetOperationKey2+0x1d6>
/home/test/devel/optee/optee_os/lib/libutee/tee_api_operations.c:659
    1468:	69fa      	ldr	r2, [r7, #28]
    146a:	68fb      	ldr	r3, [r7, #12]
    146c:	699b      	ldr	r3, [r3, #24]
    146e:	ea02 0203 	and.w	r2, r2, r3
/home/test/devel/optee/optee_os/lib/libutee/tee_api_operations.c:660
    1472:	68fb      	ldr	r3, [r7, #12]
    1474:	699b      	ldr	r3, [r3, #24]
/home/test/devel/optee/optee_os/lib/libutee/tee_api_operations.c:659
    1476:	429a      	cmp	r2, r3
    1478:	d005      	beq.n	1486 <TEE_SetOperationKey2+0x11e>
/home/test/devel/optee/optee_os/lib/libutee/tee_api_operations.c:661
    147a:	f04f 0306 	mov.w	r3, #6
    147e:	f6cf 73ff 	movt	r3, #65535	; 0xffff
    1482:	64fb      	str	r3, [r7, #76]	; 0x4c
/home/test/devel/optee/optee_os/lib/libutee/tee_api_operations.c:662
    1484:	e060      	b.n	1548 <TEE_SetOperationKey2+0x1e0>
/home/test/devel/optee/optee_os/lib/libutee/tee_api_operations.c:669
    1486:	68fb      	ldr	r3, [r7, #12]
    1488:	681a      	ldr	r2, [r3, #0]
    148a:	f44f 6382 	mov.w	r3, #1040	; 0x410
    148e:	f2c1 0300 	movt	r3, #4096	; 0x1000
    1492:	429a      	cmp	r2, r3
    1494:	d109      	bne.n	14aa <TEE_SetOperationKey2+0x142>
/home/test/devel/optee/optee_os/lib/libutee/tee_api_operations.c:670 (discriminator 1)
    1496:	6b3a      	ldr	r2, [r7, #48]	; 0x30
    1498:	697b      	ldr	r3, [r7, #20]
/home/test/devel/optee/optee_os/lib/libutee/tee_api_operations.c:669 (discriminator 1)
    149a:	429a      	cmp	r2, r3
    149c:	d005      	beq.n	14aa <TEE_SetOperationKey2+0x142>
/home/test/devel/optee/optee_os/lib/libutee/tee_api_operations.c:671
    149e:	f04f 0306 	mov.w	r3, #6
    14a2:	f6cf 73ff 	movt	r3, #65535	; 0xffff
    14a6:	64fb      	str	r3, [r7, #76]	; 0x4c
/home/test/devel/optee/optee_os/lib/libutee/tee_api_operations.c:672
    14a8:	e04e      	b.n	1548 <TEE_SetOperationKey2+0x1e0>
/home/test/devel/optee/optee_os/lib/libutee/tee_api_operations.c:676
    14aa:	68fb      	ldr	r3, [r7, #12]
    14ac:	691a      	ldr	r2, [r3, #16]
    14ae:	6b3b      	ldr	r3, [r7, #48]	; 0x30
    14b0:	429a      	cmp	r2, r3
    14b2:	d205      	bcs.n	14c0 <TEE_SetOperationKey2+0x158>
/home/test/devel/optee/optee_os/lib/libutee/tee_api_operations.c:677
    14b4:	f04f 0306 	mov.w	r3, #6
    14b8:	f6cf 73ff 	movt	r3, #65535	; 0xffff
    14bc:	64fb      	str	r3, [r7, #76]	; 0x4c
/home/test/devel/optee/optee_os/lib/libutee/tee_api_operations.c:678
    14be:	e043      	b.n	1548 <TEE_SetOperationKey2+0x1e0>
/home/test/devel/optee/optee_os/lib/libutee/tee_api_operations.c:685
    14c0:	6b3b      	ldr	r3, [r7, #48]	; 0x30
    14c2:	64bb      	str	r3, [r7, #72]	; 0x48
/home/test/devel/optee/optee_os/lib/libutee/tee_api_operations.c:687
    14c4:	68fb      	ldr	r3, [r7, #12]
    14c6:	6a1b      	ldr	r3, [r3, #32]
    14c8:	4618      	mov	r0, r3
    14ca:	f008 fda5 	bl	a018 <TEE_ResetTransientObject>
/home/test/devel/optee/optee_os/lib/libutee/tee_api_operations.c:688
    14ce:	68fb      	ldr	r3, [r7, #12]
    14d0:	6a5b      	ldr	r3, [r3, #36]	; 0x24
    14d2:	4618      	mov	r0, r3
    14d4:	f008 fda0 	bl	a018 <TEE_ResetTransientObject>
/home/test/devel/optee/optee_os/lib/libutee/tee_api_operations.c:689
    14d8:	68fb      	ldr	r3, [r7, #12]
    14da:	69db      	ldr	r3, [r3, #28]
    14dc:	f423 2280 	bic.w	r2, r3, #262144	; 0x40000
    14e0:	68fb      	ldr	r3, [r7, #12]
    14e2:	61da      	str	r2, [r3, #28]
/home/test/devel/optee/optee_os/lib/libutee/tee_api_operations.c:691
    14e4:	68fb      	ldr	r3, [r7, #12]
    14e6:	6a1b      	ldr	r3, [r3, #32]
    14e8:	68b9      	ldr	r1, [r7, #8]
    14ea:	4618      	mov	r0, r3
    14ec:	f008 fecd 	bl	a28a <TEE_CopyObjectAttributes1>
    14f0:	64f8      	str	r0, [r7, #76]	; 0x4c
/home/test/devel/optee/optee_os/lib/libutee/tee_api_operations.c:692
    14f2:	6cfb      	ldr	r3, [r7, #76]	; 0x4c
    14f4:	2b00      	cmp	r3, #0
    14f6:	d124      	bne.n	1542 <TEE_SetOperationKey2+0x1da>
/home/test/devel/optee/optee_os/lib/libutee/tee_api_operations.c:695
    14f8:	68fb      	ldr	r3, [r7, #12]
    14fa:	6a5b      	ldr	r3, [r3, #36]	; 0x24
    14fc:	6879      	ldr	r1, [r7, #4]
    14fe:	4618      	mov	r0, r3
    1500:	f008 fec3 	bl	a28a <TEE_CopyObjectAttributes1>
    1504:	64f8      	str	r0, [r7, #76]	; 0x4c
/home/test/devel/optee/optee_os/lib/libutee/tee_api_operations.c:696
    1506:	6cfb      	ldr	r3, [r7, #76]	; 0x4c
    1508:	2b00      	cmp	r3, #0
    150a:	d00c      	beq.n	1526 <TEE_SetOperationKey2+0x1be>
/home/test/devel/optee/optee_os/lib/libutee/tee_api_operations.c:697
    150c:	6cfa      	ldr	r2, [r7, #76]	; 0x4c
    150e:	f04f 0301 	mov.w	r3, #1
    1512:	f2cf 0310 	movt	r3, #61456	; 0xf010
    1516:	429a      	cmp	r2, r3
    1518:	d115      	bne.n	1546 <TEE_SetOperationKey2+0x1de>
/home/test/devel/optee/optee_os/lib/libutee/tee_api_operations.c:698
    151a:	f04f 0302 	mov.w	r3, #2
    151e:	f2cf 0310 	movt	r3, #61456	; 0xf010
    1522:	64fb      	str	r3, [r7, #76]	; 0x4c
/home/test/devel/optee/optee_os/lib/libutee/tee_api_operations.c:699
    1524:	e00f      	b.n	1546 <TEE_SetOperationKey2+0x1de>
/home/test/devel/optee/optee_os/lib/libutee/tee_api_operations.c:702
    1526:	68fb      	ldr	r3, [r7, #12]
    1528:	69db      	ldr	r3, [r3, #28]
    152a:	f443 2280 	orr.w	r2, r3, #262144	; 0x40000
    152e:	68fb      	ldr	r3, [r7, #12]
    1530:	61da      	str	r2, [r3, #28]
/home/test/devel/optee/optee_os/lib/libutee/tee_api_operations.c:704
    1532:	68fb      	ldr	r3, [r7, #12]
    1534:	6cba      	ldr	r2, [r7, #72]	; 0x48
    1536:	615a      	str	r2, [r3, #20]
    1538:	e006      	b.n	1548 <TEE_SetOperationKey2+0x1e0>
/home/test/devel/optee/optee_os/lib/libutee/tee_api_operations.c:641
    153a:	bf00      	nop
    153c:	e004      	b.n	1548 <TEE_SetOperationKey2+0x1e0>
/home/test/devel/optee/optee_os/lib/libutee/tee_api_operations.c:655
    153e:	bf00      	nop
    1540:	e002      	b.n	1548 <TEE_SetOperationKey2+0x1e0>
/home/test/devel/optee/optee_os/lib/libutee/tee_api_operations.c:693
    1542:	bf00      	nop
    1544:	e000      	b.n	1548 <TEE_SetOperationKey2+0x1e0>
/home/test/devel/optee/optee_os/lib/libutee/tee_api_operations.c:699
    1546:	bf00      	nop
/home/test/devel/optee/optee_os/lib/libutee/tee_api_operations.c:707
    1548:	6cfb      	ldr	r3, [r7, #76]	; 0x4c
    154a:	2b00      	cmp	r3, #0
    154c:	d01e      	beq.n	158c <TEE_SetOperationKey2+0x224>
/home/test/devel/optee/optee_os/lib/libutee/tee_api_operations.c:707 (discriminator 1)
    154e:	6cfa      	ldr	r2, [r7, #76]	; 0x4c
    1550:	f04f 0301 	mov.w	r3, #1
    1554:	f2cf 0310 	movt	r3, #61456	; 0xf010
    1558:	429a      	cmp	r2, r3
    155a:	d017      	beq.n	158c <TEE_SetOperationKey2+0x224>
/home/test/devel/optee/optee_os/lib/libutee/tee_api_operations.c:708
    155c:	6cfa      	ldr	r2, [r7, #76]	; 0x4c
    155e:	f04f 0302 	mov.w	r3, #2
    1562:	f2cf 0310 	movt	r3, #61456	; 0xf010
    1566:	429a      	cmp	r2, r3
    1568:	d010      	beq.n	158c <TEE_SetOperationKey2+0x224>
/home/test/devel/optee/optee_os/lib/libutee/tee_api_operations.c:709
    156a:	6cfa      	ldr	r2, [r7, #76]	; 0x4c
    156c:	f04f 0303 	mov.w	r3, #3
    1570:	f2cf 0310 	movt	r3, #61456	; 0xf010
    1574:	429a      	cmp	r2, r3
    1576:	d009      	beq.n	158c <TEE_SetOperationKey2+0x224>
/home/test/devel/optee/optee_os/lib/libutee/tee_api_operations.c:710
    1578:	6cfa      	ldr	r2, [r7, #76]	; 0x4c
    157a:	f04f 0304 	mov.w	r3, #4
    157e:	f2cf 0310 	movt	r3, #61456	; 0xf010
    1582:	429a      	cmp	r2, r3
    1584:	d002      	beq.n	158c <TEE_SetOperationKey2+0x224>
/home/test/devel/optee/optee_os/lib/libutee/tee_api_operations.c:712
    1586:	6cf8      	ldr	r0, [r7, #76]	; 0x4c
    1588:	f008 fa9c 	bl	9ac4 <TEE_Panic>
/home/test/devel/optee/optee_os/lib/libutee/tee_api_operations.c:714
    158c:	6cfb      	ldr	r3, [r7, #76]	; 0x4c
/home/test/devel/optee/optee_os/lib/libutee/tee_api_operations.c:715
    158e:	4618      	mov	r0, r3
    1590:	f107 0750 	add.w	r7, r7, #80	; 0x50
    1594:	46bd      	mov	sp, r7
    1596:	bd80      	pop	{r7, pc}

00001598 <TEE_CopyOperation>:
TEE_CopyOperation():
/home/test/devel/optee/optee_os/lib/libutee/tee_api_operations.c:718
    1598:	e96d 7e02 	strd	r7, lr, [sp, #-8]!
    159c:	b086      	sub	sp, #24
    159e:	af00      	add	r7, sp, #0
    15a0:	6078      	str	r0, [r7, #4]
    15a2:	6039      	str	r1, [r7, #0]
/home/test/devel/optee/optee_os/lib/libutee/tee_api_operations.c:721
    15a4:	687b      	ldr	r3, [r7, #4]
    15a6:	2b00      	cmp	r3, #0
    15a8:	d002      	beq.n	15b0 <TEE_CopyOperation+0x18>
/home/test/devel/optee/optee_os/lib/libutee/tee_api_operations.c:721 (discriminator 1)
    15aa:	683b      	ldr	r3, [r7, #0]
    15ac:	2b00      	cmp	r3, #0
    15ae:	d103      	bne.n	15b8 <TEE_CopyOperation+0x20>
/home/test/devel/optee/optee_os/lib/libutee/tee_api_operations.c:722
    15b0:	f04f 0000 	mov.w	r0, #0
    15b4:	f008 fa86 	bl	9ac4 <TEE_Panic>
/home/test/devel/optee/optee_os/lib/libutee/tee_api_operations.c:723
    15b8:	687b      	ldr	r3, [r7, #4]
    15ba:	681a      	ldr	r2, [r3, #0]
    15bc:	683b      	ldr	r3, [r7, #0]
    15be:	681b      	ldr	r3, [r3, #0]
    15c0:	429a      	cmp	r2, r3
    15c2:	d003      	beq.n	15cc <TEE_CopyOperation+0x34>
/home/test/devel/optee/optee_os/lib/libutee/tee_api_operations.c:724
    15c4:	f04f 0000 	mov.w	r0, #0
    15c8:	f008 fa7c 	bl	9ac4 <TEE_Panic>
/home/test/devel/optee/optee_os/lib/libutee/tee_api_operations.c:725
    15cc:	683b      	ldr	r3, [r7, #0]
    15ce:	685b      	ldr	r3, [r3, #4]
    15d0:	2b05      	cmp	r3, #5
    15d2:	d021      	beq.n	1618 <TEE_CopyOperation+0x80>
/home/test/devel/optee/optee_os/lib/libutee/tee_api_operations.c:726
    15d4:	f04f 0300 	mov.w	r3, #0
    15d8:	617b      	str	r3, [r7, #20]
/home/test/devel/optee/optee_os/lib/libutee/tee_api_operations.c:727
    15da:	f04f 0300 	mov.w	r3, #0
    15de:	613b      	str	r3, [r7, #16]
/home/test/devel/optee/optee_os/lib/libutee/tee_api_operations.c:729
    15e0:	683b      	ldr	r3, [r7, #0]
    15e2:	69db      	ldr	r3, [r3, #28]
    15e4:	f403 2380 	and.w	r3, r3, #262144	; 0x40000
    15e8:	2b00      	cmp	r3, #0
    15ea:	d005      	beq.n	15f8 <TEE_CopyOperation+0x60>
/home/test/devel/optee/optee_os/lib/libutee/tee_api_operations.c:730
    15ec:	683b      	ldr	r3, [r7, #0]
    15ee:	6a1b      	ldr	r3, [r3, #32]
    15f0:	617b      	str	r3, [r7, #20]
/home/test/devel/optee/optee_os/lib/libutee/tee_api_operations.c:731
    15f2:	683b      	ldr	r3, [r7, #0]
    15f4:	6a5b      	ldr	r3, [r3, #36]	; 0x24
    15f6:	613b      	str	r3, [r7, #16]
/home/test/devel/optee/optee_os/lib/libutee/tee_api_operations.c:734
    15f8:	683b      	ldr	r3, [r7, #0]
    15fa:	69db      	ldr	r3, [r3, #28]
    15fc:	f403 2300 	and.w	r3, r3, #524288	; 0x80000
    1600:	2b00      	cmp	r3, #0
    1602:	d104      	bne.n	160e <TEE_CopyOperation+0x76>
/home/test/devel/optee/optee_os/lib/libutee/tee_api_operations.c:736
    1604:	6979      	ldr	r1, [r7, #20]
    1606:	6878      	ldr	r0, [r7, #4]
    1608:	f7ff fe0c 	bl	1224 <TEE_SetOperationKey>
    160c:	e004      	b.n	1618 <TEE_CopyOperation+0x80>
/home/test/devel/optee/optee_os/lib/libutee/tee_api_operations.c:738
    160e:	693a      	ldr	r2, [r7, #16]
    1610:	6979      	ldr	r1, [r7, #20]
    1612:	6878      	ldr	r0, [r7, #4]
    1614:	f7ff fea8 	bl	1368 <TEE_SetOperationKey2>
/home/test/devel/optee/optee_os/lib/libutee/tee_api_operations.c:741
    1618:	683b      	ldr	r3, [r7, #0]
    161a:	69da      	ldr	r2, [r3, #28]
    161c:	687b      	ldr	r3, [r7, #4]
    161e:	61da      	str	r2, [r3, #28]
/home/test/devel/optee/optee_os/lib/libutee/tee_api_operations.c:742
    1620:	683b      	ldr	r3, [r7, #0]
    1622:	695a      	ldr	r2, [r3, #20]
    1624:	687b      	ldr	r3, [r7, #4]
    1626:	615a      	str	r2, [r3, #20]
/home/test/devel/optee/optee_os/lib/libutee/tee_api_operations.c:743
    1628:	683b      	ldr	r3, [r7, #0]
    162a:	6a9a      	ldr	r2, [r3, #40]	; 0x28
    162c:	687b      	ldr	r3, [r7, #4]
    162e:	629a      	str	r2, [r3, #40]	; 0x28
/home/test/devel/optee/optee_os/lib/libutee/tee_api_operations.c:745
    1630:	687b      	ldr	r3, [r7, #4]
    1632:	f893 2030 	ldrb.w	r2, [r3, #48]	; 0x30
    1636:	683b      	ldr	r3, [r7, #0]
    1638:	f893 3030 	ldrb.w	r3, [r3, #48]	; 0x30
    163c:	429a      	cmp	r2, r3
    163e:	d105      	bne.n	164c <TEE_CopyOperation+0xb4>
/home/test/devel/optee/optee_os/lib/libutee/tee_api_operations.c:746 (discriminator 1)
    1640:	687b      	ldr	r3, [r7, #4]
    1642:	6b5a      	ldr	r2, [r3, #52]	; 0x34
    1644:	683b      	ldr	r3, [r7, #0]
    1646:	6b5b      	ldr	r3, [r3, #52]	; 0x34
/home/test/devel/optee/optee_os/lib/libutee/tee_api_operations.c:745 (discriminator 1)
    1648:	429a      	cmp	r2, r3
    164a:	d003      	beq.n	1654 <TEE_CopyOperation+0xbc>
/home/test/devel/optee/optee_os/lib/libutee/tee_api_operations.c:747
    164c:	f04f 0000 	mov.w	r0, #0
    1650:	f008 fa38 	bl	9ac4 <TEE_Panic>
/home/test/devel/optee/optee_os/lib/libutee/tee_api_operations.c:749
    1654:	687b      	ldr	r3, [r7, #4]
    1656:	6adb      	ldr	r3, [r3, #44]	; 0x2c
    1658:	2b00      	cmp	r3, #0
    165a:	d015      	beq.n	1688 <TEE_CopyOperation+0xf0>
/home/test/devel/optee/optee_os/lib/libutee/tee_api_operations.c:750
    165c:	683b      	ldr	r3, [r7, #0]
    165e:	6adb      	ldr	r3, [r3, #44]	; 0x2c
    1660:	2b00      	cmp	r3, #0
    1662:	d103      	bne.n	166c <TEE_CopyOperation+0xd4>
/home/test/devel/optee/optee_os/lib/libutee/tee_api_operations.c:751
    1664:	f04f 0000 	mov.w	r0, #0
    1668:	f008 fa2c 	bl	9ac4 <TEE_Panic>
/home/test/devel/optee/optee_os/lib/libutee/tee_api_operations.c:753
    166c:	687b      	ldr	r3, [r7, #4]
    166e:	6ad8      	ldr	r0, [r3, #44]	; 0x2c
    1670:	683b      	ldr	r3, [r7, #0]
    1672:	6ad9      	ldr	r1, [r3, #44]	; 0x2c
    1674:	683b      	ldr	r3, [r7, #0]
    1676:	6b9b      	ldr	r3, [r3, #56]	; 0x38
    1678:	461a      	mov	r2, r3
    167a:	f009 fb42 	bl	ad02 <memcpy>
/home/test/devel/optee/optee_os/lib/libutee/tee_api_operations.c:754
    167e:	683b      	ldr	r3, [r7, #0]
    1680:	6b9a      	ldr	r2, [r3, #56]	; 0x38
    1682:	687b      	ldr	r3, [r7, #4]
    1684:	639a      	str	r2, [r3, #56]	; 0x38
    1686:	e007      	b.n	1698 <TEE_CopyOperation+0x100>
/home/test/devel/optee/optee_os/lib/libutee/tee_api_operations.c:755
    1688:	683b      	ldr	r3, [r7, #0]
    168a:	6adb      	ldr	r3, [r3, #44]	; 0x2c
    168c:	2b00      	cmp	r3, #0
    168e:	d003      	beq.n	1698 <TEE_CopyOperation+0x100>
/home/test/devel/optee/optee_os/lib/libutee/tee_api_operations.c:756
    1690:	f04f 0000 	mov.w	r0, #0
    1694:	f008 fa16 	bl	9ac4 <TEE_Panic>
/home/test/devel/optee/optee_os/lib/libutee/tee_api_operations.c:759
    1698:	687b      	ldr	r3, [r7, #4]
    169a:	6bda      	ldr	r2, [r3, #60]	; 0x3c
    169c:	683b      	ldr	r3, [r7, #0]
    169e:	6bdb      	ldr	r3, [r3, #60]	; 0x3c
    16a0:	4619      	mov	r1, r3
    16a2:	4610      	mov	r0, r2
    16a4:	f002 e816 	blx	36d4 <utee_cryp_state_copy>
    16a8:	60f8      	str	r0, [r7, #12]
/home/test/devel/optee/optee_os/lib/libutee/tee_api_operations.c:760
    16aa:	68fb      	ldr	r3, [r7, #12]
    16ac:	2b00      	cmp	r3, #0
    16ae:	d002      	beq.n	16b6 <TEE_CopyOperation+0x11e>
/home/test/devel/optee/optee_os/lib/libutee/tee_api_operations.c:761
    16b0:	68f8      	ldr	r0, [r7, #12]
    16b2:	f008 fa07 	bl	9ac4 <TEE_Panic>
/home/test/devel/optee/optee_os/lib/libutee/tee_api_operations.c:762
    16b6:	bf00      	nop
    16b8:	f107 0718 	add.w	r7, r7, #24
    16bc:	46bd      	mov	sp, r7
    16be:	bd80      	pop	{r7, pc}

000016c0 <init_hash_operation>:
init_hash_operation():
/home/test/devel/optee/optee_os/lib/libutee/tee_api_operations.c:768
    16c0:	e96d 7e02 	strd	r7, lr, [sp, #-8]!
    16c4:	b086      	sub	sp, #24
    16c6:	af00      	add	r7, sp, #0
    16c8:	60f8      	str	r0, [r7, #12]
    16ca:	60b9      	str	r1, [r7, #8]
    16cc:	607a      	str	r2, [r7, #4]
/home/test/devel/optee/optee_os/lib/libutee/tee_api_operations.c:775
    16ce:	68fb      	ldr	r3, [r7, #12]
    16d0:	6bdb      	ldr	r3, [r3, #60]	; 0x3c
    16d2:	687a      	ldr	r2, [r7, #4]
    16d4:	68b9      	ldr	r1, [r7, #8]
    16d6:	4618      	mov	r0, r3
    16d8:	f002 e810 	blx	36fc <utee_hash_init>
    16dc:	6178      	str	r0, [r7, #20]
/home/test/devel/optee/optee_os/lib/libutee/tee_api_operations.c:776
    16de:	697b      	ldr	r3, [r7, #20]
    16e0:	2b00      	cmp	r3, #0
    16e2:	d002      	beq.n	16ea <init_hash_operation+0x2a>
/home/test/devel/optee/optee_os/lib/libutee/tee_api_operations.c:777
    16e4:	6978      	ldr	r0, [r7, #20]
    16e6:	f008 f9ed 	bl	9ac4 <TEE_Panic>
/home/test/devel/optee/optee_os/lib/libutee/tee_api_operations.c:778
    16ea:	68fb      	ldr	r3, [r7, #12]
    16ec:	f04f 0200 	mov.w	r2, #0
    16f0:	639a      	str	r2, [r3, #56]	; 0x38
/home/test/devel/optee/optee_os/lib/libutee/tee_api_operations.c:779
    16f2:	68fb      	ldr	r3, [r7, #12]
    16f4:	69db      	ldr	r3, [r3, #28]
    16f6:	f443 3200 	orr.w	r2, r3, #131072	; 0x20000
    16fa:	68fb      	ldr	r3, [r7, #12]
    16fc:	61da      	str	r2, [r3, #28]
/home/test/devel/optee/optee_os/lib/libutee/tee_api_operations.c:780
    16fe:	bf00      	nop
    1700:	f107 0718 	add.w	r7, r7, #24
    1704:	46bd      	mov	sp, r7
    1706:	bd80      	pop	{r7, pc}

00001708 <TEE_DigestUpdate>:
TEE_DigestUpdate():
/home/test/devel/optee/optee_os/lib/libutee/tee_api_operations.c:784
    1708:	e96d 7e02 	strd	r7, lr, [sp, #-8]!
    170c:	b086      	sub	sp, #24
    170e:	af00      	add	r7, sp, #0
    1710:	60f8      	str	r0, [r7, #12]
    1712:	60b9      	str	r1, [r7, #8]
    1714:	607a      	str	r2, [r7, #4]
/home/test/devel/optee/optee_os/lib/libutee/tee_api_operations.c:785
    1716:	f04f 0300 	mov.w	r3, #0
    171a:	f6cf 73ff 	movt	r3, #65535	; 0xffff
    171e:	617b      	str	r3, [r7, #20]
/home/test/devel/optee/optee_os/lib/libutee/tee_api_operations.c:787
    1720:	68fb      	ldr	r3, [r7, #12]
    1722:	2b00      	cmp	r3, #0
    1724:	d003      	beq.n	172e <TEE_DigestUpdate+0x26>
/home/test/devel/optee/optee_os/lib/libutee/tee_api_operations.c:788 (discriminator 1)
    1726:	68fb      	ldr	r3, [r7, #12]
    1728:	685b      	ldr	r3, [r3, #4]
/home/test/devel/optee/optee_os/lib/libutee/tee_api_operations.c:787 (discriminator 1)
    172a:	2b05      	cmp	r3, #5
    172c:	d003      	beq.n	1736 <TEE_DigestUpdate+0x2e>
/home/test/devel/optee/optee_os/lib/libutee/tee_api_operations.c:789
    172e:	f04f 0000 	mov.w	r0, #0
    1732:	f008 f9c7 	bl	9ac4 <TEE_Panic>
/home/test/devel/optee/optee_os/lib/libutee/tee_api_operations.c:791
    1736:	68fb      	ldr	r3, [r7, #12]
    1738:	f04f 0201 	mov.w	r2, #1
    173c:	629a      	str	r2, [r3, #40]	; 0x28
/home/test/devel/optee/optee_os/lib/libutee/tee_api_operations.c:793
    173e:	68fb      	ldr	r3, [r7, #12]
    1740:	6bdb      	ldr	r3, [r3, #60]	; 0x3c
    1742:	687a      	ldr	r2, [r7, #4]
    1744:	68b9      	ldr	r1, [r7, #8]
    1746:	4618      	mov	r0, r3
    1748:	f001 efe2 	blx	3710 <utee_hash_update>
    174c:	6178      	str	r0, [r7, #20]
/home/test/devel/optee/optee_os/lib/libutee/tee_api_operations.c:794
    174e:	697b      	ldr	r3, [r7, #20]
    1750:	2b00      	cmp	r3, #0
    1752:	d002      	beq.n	175a <TEE_DigestUpdate+0x52>
/home/test/devel/optee/optee_os/lib/libutee/tee_api_operations.c:795
    1754:	6978      	ldr	r0, [r7, #20]
    1756:	f008 f9b5 	bl	9ac4 <TEE_Panic>
/home/test/devel/optee/optee_os/lib/libutee/tee_api_operations.c:796
    175a:	bf00      	nop
    175c:	f107 0718 	add.w	r7, r7, #24
    1760:	46bd      	mov	sp, r7
    1762:	bd80      	pop	{r7, pc}

00001764 <TEE_DigestDoFinal>:
TEE_DigestDoFinal():
/home/test/devel/optee/optee_os/lib/libutee/tee_api_operations.c:800
    1764:	f84d 4d0c 	str.w	r4, [sp, #-12]!
    1768:	e9cd 7e01 	strd	r7, lr, [sp, #4]
    176c:	b08b      	sub	sp, #44	; 0x2c
    176e:	af02      	add	r7, sp, #8
    1770:	60f8      	str	r0, [r7, #12]
    1772:	60b9      	str	r1, [r7, #8]
    1774:	607a      	str	r2, [r7, #4]
    1776:	603b      	str	r3, [r7, #0]
/home/test/devel/optee/optee_os/lib/libutee/tee_api_operations.c:804
    1778:	68fb      	ldr	r3, [r7, #12]
    177a:	2b00      	cmp	r3, #0
    177c:	d00f      	beq.n	179e <TEE_DigestDoFinal+0x3a>
/home/test/devel/optee/optee_os/lib/libutee/tee_api_operations.c:804 (discriminator 1)
    177e:	68bb      	ldr	r3, [r7, #8]
    1780:	2b00      	cmp	r3, #0
    1782:	d102      	bne.n	178a <TEE_DigestDoFinal+0x26>
/home/test/devel/optee/optee_os/lib/libutee/tee_api_operations.c:805
    1784:	687b      	ldr	r3, [r7, #4]
    1786:	2b00      	cmp	r3, #0
    1788:	d109      	bne.n	179e <TEE_DigestDoFinal+0x3a>
/home/test/devel/optee/optee_os/lib/libutee/tee_api_operations.c:805 (discriminator 1)
    178a:	683b      	ldr	r3, [r7, #0]
    178c:	2b00      	cmp	r3, #0
    178e:	d006      	beq.n	179e <TEE_DigestDoFinal+0x3a>
/home/test/devel/optee/optee_os/lib/libutee/tee_api_operations.c:806
    1790:	6b3b      	ldr	r3, [r7, #48]	; 0x30
    1792:	2b00      	cmp	r3, #0
    1794:	d003      	beq.n	179e <TEE_DigestDoFinal+0x3a>
/home/test/devel/optee/optee_os/lib/libutee/tee_api_operations.c:808
    1796:	68fb      	ldr	r3, [r7, #12]
    1798:	685b      	ldr	r3, [r3, #4]
/home/test/devel/optee/optee_os/lib/libutee/tee_api_operations.c:807
    179a:	2b05      	cmp	r3, #5
    179c:	d005      	beq.n	17aa <TEE_DigestDoFinal+0x46>
/home/test/devel/optee/optee_os/lib/libutee/tee_api_operations.c:809
    179e:	f04f 0306 	mov.w	r3, #6
    17a2:	f6cf 73ff 	movt	r3, #65535	; 0xffff
    17a6:	61fb      	str	r3, [r7, #28]
/home/test/devel/optee/optee_os/lib/libutee/tee_api_operations.c:810
    17a8:	e025      	b.n	17f6 <TEE_DigestDoFinal+0x92>
/home/test/devel/optee/optee_os/lib/libutee/tee_api_operations.c:813
    17aa:	6b3b      	ldr	r3, [r7, #48]	; 0x30
    17ac:	681b      	ldr	r3, [r3, #0]
    17ae:	f04f 0400 	mov.w	r4, #0
    17b2:	e9c7 3404 	strd	r3, r4, [r7, #16]
/home/test/devel/optee/optee_os/lib/libutee/tee_api_operations.c:814
    17b6:	68fb      	ldr	r3, [r7, #12]
    17b8:	6bd8      	ldr	r0, [r3, #60]	; 0x3c
    17ba:	f107 0310 	add.w	r3, r7, #16
    17be:	9300      	str	r3, [sp, #0]
    17c0:	683b      	ldr	r3, [r7, #0]
    17c2:	687a      	ldr	r2, [r7, #4]
    17c4:	68b9      	ldr	r1, [r7, #8]
    17c6:	f001 efae 	blx	3724 <utee_hash_final>
    17ca:	61f8      	str	r0, [r7, #28]
/home/test/devel/optee/optee_os/lib/libutee/tee_api_operations.c:815
    17cc:	e9d7 3404 	ldrd	r3, r4, [r7, #16]
    17d0:	461a      	mov	r2, r3
    17d2:	6b3b      	ldr	r3, [r7, #48]	; 0x30
    17d4:	601a      	str	r2, [r3, #0]
/home/test/devel/optee/optee_os/lib/libutee/tee_api_operations.c:816
    17d6:	69fb      	ldr	r3, [r7, #28]
    17d8:	2b00      	cmp	r3, #0
    17da:	d10b      	bne.n	17f4 <TEE_DigestDoFinal+0x90>
/home/test/devel/optee/optee_os/lib/libutee/tee_api_operations.c:820
    17dc:	f04f 0200 	mov.w	r2, #0
    17e0:	f04f 0100 	mov.w	r1, #0
    17e4:	68f8      	ldr	r0, [r7, #12]
    17e6:	f7ff ff6b 	bl	16c0 <init_hash_operation>
/home/test/devel/optee/optee_os/lib/libutee/tee_api_operations.c:822
    17ea:	68fb      	ldr	r3, [r7, #12]
    17ec:	f04f 0200 	mov.w	r2, #0
    17f0:	629a      	str	r2, [r3, #40]	; 0x28
    17f2:	e000      	b.n	17f6 <TEE_DigestDoFinal+0x92>
/home/test/devel/optee/optee_os/lib/libutee/tee_api_operations.c:817
    17f4:	bf00      	nop
/home/test/devel/optee/optee_os/lib/libutee/tee_api_operations.c:825
    17f6:	69fb      	ldr	r3, [r7, #28]
    17f8:	2b00      	cmp	r3, #0
    17fa:	d009      	beq.n	1810 <TEE_DigestDoFinal+0xac>
/home/test/devel/optee/optee_os/lib/libutee/tee_api_operations.c:825 (discriminator 1)
    17fc:	69fa      	ldr	r2, [r7, #28]
    17fe:	f04f 0310 	mov.w	r3, #16
    1802:	f6cf 73ff 	movt	r3, #65535	; 0xffff
    1806:	429a      	cmp	r2, r3
    1808:	d002      	beq.n	1810 <TEE_DigestDoFinal+0xac>
/home/test/devel/optee/optee_os/lib/libutee/tee_api_operations.c:827
    180a:	69f8      	ldr	r0, [r7, #28]
    180c:	f008 f95a 	bl	9ac4 <TEE_Panic>
/home/test/devel/optee/optee_os/lib/libutee/tee_api_operations.c:829
    1810:	69fb      	ldr	r3, [r7, #28]
/home/test/devel/optee/optee_os/lib/libutee/tee_api_operations.c:830
    1812:	4618      	mov	r0, r3
    1814:	f107 0724 	add.w	r7, r7, #36	; 0x24
    1818:	46bd      	mov	sp, r7
    181a:	e9dd 4700 	ldrd	r4, r7, [sp]
    181e:	b002      	add	sp, #8
    1820:	f85d fb04 	ldr.w	pc, [sp], #4

00001824 <TEE_CipherInit>:
TEE_CipherInit():
/home/test/devel/optee/optee_os/lib/libutee/tee_api_operations.c:836
    1824:	e96d 7e02 	strd	r7, lr, [sp, #-8]!
    1828:	b086      	sub	sp, #24
    182a:	af00      	add	r7, sp, #0
    182c:	60f8      	str	r0, [r7, #12]
    182e:	60b9      	str	r1, [r7, #8]
    1830:	607a      	str	r2, [r7, #4]
/home/test/devel/optee/optee_os/lib/libutee/tee_api_operations.c:839
    1832:	68fb      	ldr	r3, [r7, #12]
    1834:	2b00      	cmp	r3, #0
    1836:	d103      	bne.n	1840 <TEE_CipherInit+0x1c>
/home/test/devel/optee/optee_os/lib/libutee/tee_api_operations.c:840
    1838:	f04f 0000 	mov.w	r0, #0
    183c:	f008 f942 	bl	9ac4 <TEE_Panic>
/home/test/devel/optee/optee_os/lib/libutee/tee_api_operations.c:842
    1840:	68fb      	ldr	r3, [r7, #12]
    1842:	685b      	ldr	r3, [r3, #4]
    1844:	2b01      	cmp	r3, #1
    1846:	d003      	beq.n	1850 <TEE_CipherInit+0x2c>
/home/test/devel/optee/optee_os/lib/libutee/tee_api_operations.c:843
    1848:	f04f 0000 	mov.w	r0, #0
    184c:	f008 f93a 	bl	9ac4 <TEE_Panic>
/home/test/devel/optee/optee_os/lib/libutee/tee_api_operations.c:845
    1850:	68fb      	ldr	r3, [r7, #12]
    1852:	69db      	ldr	r3, [r3, #28]
    1854:	f403 2380 	and.w	r3, r3, #262144	; 0x40000
    1858:	2b00      	cmp	r3, #0
    185a:	d003      	beq.n	1864 <TEE_CipherInit+0x40>
/home/test/devel/optee/optee_os/lib/libutee/tee_api_operations.c:846 (discriminator 1)
    185c:	68fb      	ldr	r3, [r7, #12]
    185e:	6a1b      	ldr	r3, [r3, #32]
/home/test/devel/optee/optee_os/lib/libutee/tee_api_operations.c:845 (discriminator 1)
    1860:	2b00      	cmp	r3, #0
    1862:	d103      	bne.n	186c <TEE_CipherInit+0x48>
/home/test/devel/optee/optee_os/lib/libutee/tee_api_operations.c:847
    1864:	f04f 0000 	mov.w	r0, #0
    1868:	f008 f92c 	bl	9ac4 <TEE_Panic>
/home/test/devel/optee/optee_os/lib/libutee/tee_api_operations.c:849
    186c:	68fb      	ldr	r3, [r7, #12]
    186e:	6a9b      	ldr	r3, [r3, #40]	; 0x28
    1870:	2b00      	cmp	r3, #0
    1872:	d002      	beq.n	187a <TEE_CipherInit+0x56>
/home/test/devel/optee/optee_os/lib/libutee/tee_api_operations.c:850
    1874:	68f8      	ldr	r0, [r7, #12]
    1876:	f7ff fc95 	bl	11a4 <TEE_ResetOperation>
/home/test/devel/optee/optee_os/lib/libutee/tee_api_operations.c:852
    187a:	68fb      	ldr	r3, [r7, #12]
    187c:	f04f 0201 	mov.w	r2, #1
    1880:	629a      	str	r2, [r3, #40]	; 0x28
/home/test/devel/optee/optee_os/lib/libutee/tee_api_operations.c:854
    1882:	68fb      	ldr	r3, [r7, #12]
    1884:	6bdb      	ldr	r3, [r3, #60]	; 0x3c
    1886:	687a      	ldr	r2, [r7, #4]
    1888:	68b9      	ldr	r1, [r7, #8]
    188a:	4618      	mov	r0, r3
    188c:	f001 ef56 	blx	373c <utee_cipher_init>
    1890:	6178      	str	r0, [r7, #20]
/home/test/devel/optee/optee_os/lib/libutee/tee_api_operations.c:855
    1892:	697b      	ldr	r3, [r7, #20]
    1894:	2b00      	cmp	r3, #0
    1896:	d002      	beq.n	189e <TEE_CipherInit+0x7a>
/home/test/devel/optee/optee_os/lib/libutee/tee_api_operations.c:856
    1898:	6978      	ldr	r0, [r7, #20]
    189a:	f008 f913 	bl	9ac4 <TEE_Panic>
/home/test/devel/optee/optee_os/lib/libutee/tee_api_operations.c:858
    189e:	68fb      	ldr	r3, [r7, #12]
    18a0:	f04f 0200 	mov.w	r2, #0
    18a4:	639a      	str	r2, [r3, #56]	; 0x38
/home/test/devel/optee/optee_os/lib/libutee/tee_api_operations.c:859
    18a6:	68fb      	ldr	r3, [r7, #12]
    18a8:	69db      	ldr	r3, [r3, #28]
    18aa:	f443 3200 	orr.w	r2, r3, #131072	; 0x20000
    18ae:	68fb      	ldr	r3, [r7, #12]
    18b0:	61da      	str	r2, [r3, #28]
/home/test/devel/optee/optee_os/lib/libutee/tee_api_operations.c:860
    18b2:	bf00      	nop
    18b4:	f107 0718 	add.w	r7, r7, #24
    18b8:	46bd      	mov	sp, r7
    18ba:	bd80      	pop	{r7, pc}

000018bc <tee_buffer_update>:
tee_buffer_update():
/home/test/devel/optee/optee_os/lib/libutee/tee_api_operations.c:868
    18bc:	f84d 4d0c 	str.w	r4, [sp, #-12]!
    18c0:	e9cd 7e01 	strd	r7, lr, [sp, #4]
    18c4:	b099      	sub	sp, #100	; 0x64
    18c6:	af02      	add	r7, sp, #8
    18c8:	60f8      	str	r0, [r7, #12]
    18ca:	60b9      	str	r1, [r7, #8]
    18cc:	607a      	str	r2, [r7, #4]
    18ce:	603b      	str	r3, [r7, #0]
/home/test/devel/optee/optee_os/lib/libutee/tee_api_operations.c:870
    18d0:	687b      	ldr	r3, [r7, #4]
    18d2:	657b      	str	r3, [r7, #84]	; 0x54
/home/test/devel/optee/optee_os/lib/libutee/tee_api_operations.c:871
    18d4:	683b      	ldr	r3, [r7, #0]
    18d6:	653b      	str	r3, [r7, #80]	; 0x50
/home/test/devel/optee/optee_os/lib/libutee/tee_api_operations.c:872
    18d8:	6ebb      	ldr	r3, [r7, #104]	; 0x68
    18da:	64fb      	str	r3, [r7, #76]	; 0x4c
/home/test/devel/optee/optee_os/lib/libutee/tee_api_operations.c:873
    18dc:	6efb      	ldr	r3, [r7, #108]	; 0x6c
    18de:	e9d3 3400 	ldrd	r3, r4, [r3]
    18e2:	64bb      	str	r3, [r7, #72]	; 0x48
/home/test/devel/optee/optee_os/lib/libutee/tee_api_operations.c:874
    18e4:	f04f 0300 	mov.w	r3, #0
    18e8:	647b      	str	r3, [r7, #68]	; 0x44
/home/test/devel/optee/optee_os/lib/libutee/tee_api_operations.c:880
    18ea:	6d7b      	ldr	r3, [r7, #84]	; 0x54
    18ec:	2b00      	cmp	r3, #0
    18ee:	d108      	bne.n	1902 <tee_buffer_update+0x46>
/home/test/devel/optee/optee_os/lib/libutee/tee_api_operations.c:881
    18f0:	6d3b      	ldr	r3, [r7, #80]	; 0x50
    18f2:	2b00      	cmp	r3, #0
    18f4:	f000 8156 	beq.w	1ba4 <tee_buffer_update+0x2e8>
/home/test/devel/optee/optee_os/lib/libutee/tee_api_operations.c:882
    18f8:	f04f 0000 	mov.w	r0, #0
    18fc:	f008 f8e2 	bl	9ac4 <TEE_Panic>
/home/test/devel/optee/optee_os/lib/libutee/tee_api_operations.c:883
    1900:	e150      	b.n	1ba4 <tee_buffer_update+0x2e8>
/home/test/devel/optee/optee_os/lib/libutee/tee_api_operations.c:886
    1902:	68fb      	ldr	r3, [r7, #12]
    1904:	f893 3030 	ldrb.w	r3, [r3, #48]	; 0x30
    1908:	2b00      	cmp	r3, #0
    190a:	d008      	beq.n	191e <tee_buffer_update+0x62>
/home/test/devel/optee/optee_os/lib/libutee/tee_api_operations.c:887
    190c:	68fb      	ldr	r3, [r7, #12]
    190e:	6b5b      	ldr	r3, [r3, #52]	; 0x34
    1910:	ea4f 0343 	mov.w	r3, r3, lsl #1
    1914:	63fb      	str	r3, [r7, #60]	; 0x3c
/home/test/devel/optee/optee_os/lib/libutee/tee_api_operations.c:888
    1916:	f04f 0301 	mov.w	r3, #1
    191a:	63bb      	str	r3, [r7, #56]	; 0x38
    191c:	e005      	b.n	192a <tee_buffer_update+0x6e>
/home/test/devel/optee/optee_os/lib/libutee/tee_api_operations.c:890
    191e:	68fb      	ldr	r3, [r7, #12]
    1920:	6b5b      	ldr	r3, [r3, #52]	; 0x34
    1922:	63fb      	str	r3, [r7, #60]	; 0x3c
/home/test/devel/optee/optee_os/lib/libutee/tee_api_operations.c:891
    1924:	f04f 0300 	mov.w	r3, #0
    1928:	63bb      	str	r3, [r7, #56]	; 0x38
/home/test/devel/optee/optee_os/lib/libutee/tee_api_operations.c:894
    192a:	68fb      	ldr	r3, [r7, #12]
    192c:	6b9b      	ldr	r3, [r3, #56]	; 0x38
    192e:	2b00      	cmp	r3, #0
    1930:	d049      	beq.n	19c6 <tee_buffer_update+0x10a>
/home/test/devel/optee/optee_os/lib/libutee/tee_api_operations.c:896
    1932:	68fb      	ldr	r3, [r7, #12]
    1934:	6b9a      	ldr	r2, [r3, #56]	; 0x38
    1936:	68fb      	ldr	r3, [r7, #12]
    1938:	6b5b      	ldr	r3, [r3, #52]	; 0x34
    193a:	429a      	cmp	r2, r3
    193c:	d20f      	bcs.n	195e <tee_buffer_update+0xa2>
/home/test/devel/optee/optee_os/lib/libutee/tee_api_operations.c:897
    193e:	6d3b      	ldr	r3, [r7, #80]	; 0x50
    1940:	637b      	str	r3, [r7, #52]	; 0x34
    1942:	68fb      	ldr	r3, [r7, #12]
    1944:	6b5a      	ldr	r2, [r3, #52]	; 0x34
    1946:	68fb      	ldr	r3, [r7, #12]
    1948:	6b9b      	ldr	r3, [r3, #56]	; 0x38
    194a:	eba2 0303 	sub.w	r3, r2, r3
    194e:	633b      	str	r3, [r7, #48]	; 0x30
    1950:	6b3a      	ldr	r2, [r7, #48]	; 0x30
    1952:	6b7b      	ldr	r3, [r7, #52]	; 0x34
    1954:	4293      	cmp	r3, r2
    1956:	bf28      	it	cs
    1958:	4613      	movcs	r3, r2
    195a:	643b      	str	r3, [r7, #64]	; 0x40
    195c:	e00d      	b.n	197a <tee_buffer_update+0xbe>
/home/test/devel/optee/optee_os/lib/libutee/tee_api_operations.c:899
    195e:	6d3b      	ldr	r3, [r7, #80]	; 0x50
    1960:	62fb      	str	r3, [r7, #44]	; 0x2c
    1962:	68fb      	ldr	r3, [r7, #12]
    1964:	6b9b      	ldr	r3, [r3, #56]	; 0x38
    1966:	6bfa      	ldr	r2, [r7, #60]	; 0x3c
    1968:	eba2 0303 	sub.w	r3, r2, r3
    196c:	62bb      	str	r3, [r7, #40]	; 0x28
    196e:	6aba      	ldr	r2, [r7, #40]	; 0x28
    1970:	6afb      	ldr	r3, [r7, #44]	; 0x2c
    1972:	4293      	cmp	r3, r2
    1974:	bf28      	it	cs
    1976:	4613      	movcs	r3, r2
    1978:	643b      	str	r3, [r7, #64]	; 0x40
/home/test/devel/optee/optee_os/lib/libutee/tee_api_operations.c:900
    197a:	68fb      	ldr	r3, [r7, #12]
    197c:	6ada      	ldr	r2, [r3, #44]	; 0x2c
    197e:	68fb      	ldr	r3, [r7, #12]
    1980:	6b9b      	ldr	r3, [r3, #56]	; 0x38
    1982:	4413      	add	r3, r2
    1984:	6c3a      	ldr	r2, [r7, #64]	; 0x40
    1986:	6d79      	ldr	r1, [r7, #84]	; 0x54
    1988:	4618      	mov	r0, r3
    198a:	f009 f9ba 	bl	ad02 <memcpy>
/home/test/devel/optee/optee_os/lib/libutee/tee_api_operations.c:901
    198e:	68fb      	ldr	r3, [r7, #12]
    1990:	6b9a      	ldr	r2, [r3, #56]	; 0x38
    1992:	6c3b      	ldr	r3, [r7, #64]	; 0x40
    1994:	441a      	add	r2, r3
    1996:	68fb      	ldr	r3, [r7, #12]
    1998:	639a      	str	r2, [r3, #56]	; 0x38
/home/test/devel/optee/optee_os/lib/libutee/tee_api_operations.c:902
    199a:	6d7a      	ldr	r2, [r7, #84]	; 0x54
    199c:	6c3b      	ldr	r3, [r7, #64]	; 0x40
    199e:	4413      	add	r3, r2
    19a0:	657b      	str	r3, [r7, #84]	; 0x54
/home/test/devel/optee/optee_os/lib/libutee/tee_api_operations.c:903
    19a2:	6d3a      	ldr	r2, [r7, #80]	; 0x50
    19a4:	6c3b      	ldr	r3, [r7, #64]	; 0x40
    19a6:	eba2 0303 	sub.w	r3, r2, r3
    19aa:	653b      	str	r3, [r7, #80]	; 0x50
/home/test/devel/optee/optee_os/lib/libutee/tee_api_operations.c:904
    19ac:	68fb      	ldr	r3, [r7, #12]
    19ae:	6b9b      	ldr	r3, [r3, #56]	; 0x38
    19b0:	68fa      	ldr	r2, [r7, #12]
    19b2:	6b52      	ldr	r2, [r2, #52]	; 0x34
    19b4:	fbb3 f1f2 	udiv	r1, r3, r2
    19b8:	fb02 f201 	mul.w	r2, r2, r1
    19bc:	eba3 0302 	sub.w	r3, r3, r2
    19c0:	2b00      	cmp	r3, #0
    19c2:	f040 80f1 	bne.w	1ba8 <tee_buffer_update+0x2ec>
/home/test/devel/optee/optee_os/lib/libutee/tee_api_operations.c:909
    19c6:	68fb      	ldr	r3, [r7, #12]
    19c8:	6b9b      	ldr	r3, [r3, #56]	; 0x38
    19ca:	2b00      	cmp	r3, #0
    19cc:	d07a      	beq.n	1ac4 <tee_buffer_update+0x208>
/home/test/devel/optee/optee_os/lib/libutee/tee_api_operations.c:910 (discriminator 1)
    19ce:	68fb      	ldr	r3, [r7, #12]
    19d0:	6b9a      	ldr	r2, [r3, #56]	; 0x38
    19d2:	6d3b      	ldr	r3, [r7, #80]	; 0x50
    19d4:	441a      	add	r2, r3
    19d6:	6bf9      	ldr	r1, [r7, #60]	; 0x3c
    19d8:	6bbb      	ldr	r3, [r7, #56]	; 0x38
    19da:	440b      	add	r3, r1
/home/test/devel/optee/optee_os/lib/libutee/tee_api_operations.c:909 (discriminator 1)
    19dc:	429a      	cmp	r2, r3
    19de:	d371      	bcc.n	1ac4 <tee_buffer_update+0x208>
/home/test/devel/optee/optee_os/lib/libutee/tee_api_operations.c:911
    19e0:	68fb      	ldr	r3, [r7, #12]
    19e2:	6b9a      	ldr	r2, [r3, #56]	; 0x38
    19e4:	6d3b      	ldr	r3, [r7, #80]	; 0x50
    19e6:	441a      	add	r2, r3
    19e8:	6bfb      	ldr	r3, [r7, #60]	; 0x3c
    19ea:	eba2 0203 	sub.w	r2, r2, r3
    19ee:	68fb      	ldr	r3, [r7, #12]
    19f0:	6b5b      	ldr	r3, [r3, #52]	; 0x34
    19f2:	4413      	add	r3, r2
    19f4:	f103 32ff 	add.w	r2, r3, #4294967295	; 0xffffffff
    19f8:	68fb      	ldr	r3, [r7, #12]
    19fa:	6b5b      	ldr	r3, [r3, #52]	; 0x34
    19fc:	f1c3 0300 	rsb	r3, r3, #0
    1a00:	ea03 0302 	and.w	r3, r3, r2
    1a04:	643b      	str	r3, [r7, #64]	; 0x40
/home/test/devel/optee/optee_os/lib/libutee/tee_api_operations.c:913
    1a06:	68fb      	ldr	r3, [r7, #12]
    1a08:	6b9b      	ldr	r3, [r3, #56]	; 0x38
    1a0a:	627b      	str	r3, [r7, #36]	; 0x24
    1a0c:	6c3b      	ldr	r3, [r7, #64]	; 0x40
    1a0e:	623b      	str	r3, [r7, #32]
    1a10:	6a3a      	ldr	r2, [r7, #32]
    1a12:	6a7b      	ldr	r3, [r7, #36]	; 0x24
    1a14:	4293      	cmp	r3, r2
    1a16:	bf28      	it	cs
    1a18:	4613      	movcs	r3, r2
    1a1a:	643b      	str	r3, [r7, #64]	; 0x40
/home/test/devel/optee/optee_os/lib/libutee/tee_api_operations.c:914
    1a1c:	6cbb      	ldr	r3, [r7, #72]	; 0x48
    1a1e:	f04f 0400 	mov.w	r4, #0
    1a22:	e9c7 3404 	strd	r3, r4, [r7, #16]
/home/test/devel/optee/optee_os/lib/libutee/tee_api_operations.c:915
    1a26:	68fb      	ldr	r3, [r7, #12]
    1a28:	6bd8      	ldr	r0, [r3, #60]	; 0x3c
    1a2a:	68fb      	ldr	r3, [r7, #12]
    1a2c:	6ad9      	ldr	r1, [r3, #44]	; 0x2c
    1a2e:	f107 0310 	add.w	r3, r7, #16
    1a32:	9300      	str	r3, [sp, #0]
    1a34:	68bc      	ldr	r4, [r7, #8]
    1a36:	6cfb      	ldr	r3, [r7, #76]	; 0x4c
    1a38:	6c3a      	ldr	r2, [r7, #64]	; 0x40
    1a3a:	47a0      	blx	r4
    1a3c:	61f8      	str	r0, [r7, #28]
/home/test/devel/optee/optee_os/lib/libutee/tee_api_operations.c:916
    1a3e:	69fb      	ldr	r3, [r7, #28]
    1a40:	2b00      	cmp	r3, #0
    1a42:	d002      	beq.n	1a4a <tee_buffer_update+0x18e>
/home/test/devel/optee/optee_os/lib/libutee/tee_api_operations.c:917
    1a44:	69f8      	ldr	r0, [r7, #28]
    1a46:	f008 f83d 	bl	9ac4 <TEE_Panic>
/home/test/devel/optee/optee_os/lib/libutee/tee_api_operations.c:918
    1a4a:	e9d7 3404 	ldrd	r3, r4, [r7, #16]
    1a4e:	461a      	mov	r2, r3
    1a50:	6cfb      	ldr	r3, [r7, #76]	; 0x4c
    1a52:	4413      	add	r3, r2
    1a54:	64fb      	str	r3, [r7, #76]	; 0x4c
/home/test/devel/optee/optee_os/lib/libutee/tee_api_operations.c:919
    1a56:	e9d7 3404 	ldrd	r3, r4, [r7, #16]
    1a5a:	461a      	mov	r2, r3
    1a5c:	6cbb      	ldr	r3, [r7, #72]	; 0x48
    1a5e:	eba3 0302 	sub.w	r3, r3, r2
    1a62:	64bb      	str	r3, [r7, #72]	; 0x48
/home/test/devel/optee/optee_os/lib/libutee/tee_api_operations.c:920
    1a64:	e9d7 3404 	ldrd	r3, r4, [r7, #16]
    1a68:	461a      	mov	r2, r3
    1a6a:	6c7b      	ldr	r3, [r7, #68]	; 0x44
    1a6c:	4413      	add	r3, r2
    1a6e:	647b      	str	r3, [r7, #68]	; 0x44
/home/test/devel/optee/optee_os/lib/libutee/tee_api_operations.c:921
    1a70:	68fb      	ldr	r3, [r7, #12]
    1a72:	6b9a      	ldr	r2, [r3, #56]	; 0x38
    1a74:	6c3b      	ldr	r3, [r7, #64]	; 0x40
    1a76:	eba2 0203 	sub.w	r2, r2, r3
    1a7a:	68fb      	ldr	r3, [r7, #12]
    1a7c:	639a      	str	r2, [r3, #56]	; 0x38
/home/test/devel/optee/optee_os/lib/libutee/tee_api_operations.c:922
    1a7e:	68fb      	ldr	r3, [r7, #12]
    1a80:	6b9b      	ldr	r3, [r3, #56]	; 0x38
    1a82:	2b00      	cmp	r3, #0
    1a84:	d01e      	beq.n	1ac4 <tee_buffer_update+0x208>
/home/test/devel/optee/optee_os/lib/libutee/tee_api_operations.c:926
    1a86:	68fb      	ldr	r3, [r7, #12]
    1a88:	6ad8      	ldr	r0, [r3, #44]	; 0x2c
    1a8a:	68fb      	ldr	r3, [r7, #12]
    1a8c:	6ada      	ldr	r2, [r3, #44]	; 0x2c
    1a8e:	6c3b      	ldr	r3, [r7, #64]	; 0x40
    1a90:	eb02 0103 	add.w	r1, r2, r3
    1a94:	6bfa      	ldr	r2, [r7, #60]	; 0x3c
    1a96:	6c3b      	ldr	r3, [r7, #64]	; 0x40
    1a98:	eba2 0303 	sub.w	r3, r2, r3
    1a9c:	461a      	mov	r2, r3
    1a9e:	f009 f930 	bl	ad02 <memcpy>
/home/test/devel/optee/optee_os/lib/libutee/tee_api_operations.c:927
    1aa2:	68fb      	ldr	r3, [r7, #12]
    1aa4:	6ada      	ldr	r2, [r3, #44]	; 0x2c
    1aa6:	68fb      	ldr	r3, [r7, #12]
    1aa8:	6b9b      	ldr	r3, [r3, #56]	; 0x38
    1aaa:	4413      	add	r3, r2
    1aac:	6d3a      	ldr	r2, [r7, #80]	; 0x50
    1aae:	6d79      	ldr	r1, [r7, #84]	; 0x54
    1ab0:	4618      	mov	r0, r3
    1ab2:	f009 f926 	bl	ad02 <memcpy>
/home/test/devel/optee/optee_os/lib/libutee/tee_api_operations.c:928
    1ab6:	68fb      	ldr	r3, [r7, #12]
    1ab8:	6b9a      	ldr	r2, [r3, #56]	; 0x38
    1aba:	6d3b      	ldr	r3, [r7, #80]	; 0x50
    1abc:	441a      	add	r2, r3
    1abe:	68fb      	ldr	r3, [r7, #12]
    1ac0:	639a      	str	r2, [r3, #56]	; 0x38
/home/test/devel/optee/optee_os/lib/libutee/tee_api_operations.c:929
    1ac2:	e072      	b.n	1baa <tee_buffer_update+0x2ee>
/home/test/devel/optee/optee_os/lib/libutee/tee_api_operations.c:933
    1ac4:	6bfa      	ldr	r2, [r7, #60]	; 0x3c
    1ac6:	6bbb      	ldr	r3, [r7, #56]	; 0x38
    1ac8:	441a      	add	r2, r3
    1aca:	6d3b      	ldr	r3, [r7, #80]	; 0x50
    1acc:	429a      	cmp	r2, r3
    1ace:	d858      	bhi.n	1b82 <tee_buffer_update+0x2c6>
/home/test/devel/optee/optee_os/lib/libutee/tee_api_operations.c:935
    1ad0:	68fb      	ldr	r3, [r7, #12]
    1ad2:	681a      	ldr	r2, [r3, #0]
    1ad4:	f44f 7344 	mov.w	r3, #784	; 0x310
    1ad8:	f2c1 0300 	movt	r3, #4096	; 0x1000
    1adc:	429a      	cmp	r2, r3
    1ade:	d110      	bne.n	1b02 <tee_buffer_update+0x246>
/home/test/devel/optee/optee_os/lib/libutee/tee_api_operations.c:936
    1ae0:	6d3a      	ldr	r2, [r7, #80]	; 0x50
    1ae2:	6bfb      	ldr	r3, [r7, #60]	; 0x3c
    1ae4:	eba2 0203 	sub.w	r2, r2, r3
    1ae8:	68fb      	ldr	r3, [r7, #12]
    1aea:	6b5b      	ldr	r3, [r3, #52]	; 0x34
    1aec:	4413      	add	r3, r2
    1aee:	f103 32ff 	add.w	r2, r3, #4294967295	; 0xffffffff
    1af2:	68fb      	ldr	r3, [r7, #12]
    1af4:	6b5b      	ldr	r3, [r3, #52]	; 0x34
    1af6:	f1c3 0300 	rsb	r3, r3, #0
    1afa:	ea03 0302 	and.w	r3, r3, r2
    1afe:	643b      	str	r3, [r7, #64]	; 0x40
    1b00:	e00d      	b.n	1b1e <tee_buffer_update+0x262>
/home/test/devel/optee/optee_os/lib/libutee/tee_api_operations.c:938
    1b02:	6d3a      	ldr	r2, [r7, #80]	; 0x50
    1b04:	6bfb      	ldr	r3, [r7, #60]	; 0x3c
    1b06:	eba2 0203 	sub.w	r2, r2, r3
    1b0a:	68fb      	ldr	r3, [r7, #12]
    1b0c:	6b5b      	ldr	r3, [r3, #52]	; 0x34
    1b0e:	441a      	add	r2, r3
    1b10:	68fb      	ldr	r3, [r7, #12]
    1b12:	6b5b      	ldr	r3, [r3, #52]	; 0x34
    1b14:	f1c3 0300 	rsb	r3, r3, #0
    1b18:	ea03 0302 	and.w	r3, r3, r2
    1b1c:	643b      	str	r3, [r7, #64]	; 0x40
/home/test/devel/optee/optee_os/lib/libutee/tee_api_operations.c:940
    1b1e:	6cbb      	ldr	r3, [r7, #72]	; 0x48
    1b20:	f04f 0400 	mov.w	r4, #0
    1b24:	e9c7 3404 	strd	r3, r4, [r7, #16]
/home/test/devel/optee/optee_os/lib/libutee/tee_api_operations.c:941
    1b28:	68fb      	ldr	r3, [r7, #12]
    1b2a:	6bd8      	ldr	r0, [r3, #60]	; 0x3c
    1b2c:	f107 0310 	add.w	r3, r7, #16
    1b30:	9300      	str	r3, [sp, #0]
    1b32:	68bc      	ldr	r4, [r7, #8]
    1b34:	6cfb      	ldr	r3, [r7, #76]	; 0x4c
    1b36:	6c3a      	ldr	r2, [r7, #64]	; 0x40
    1b38:	6d79      	ldr	r1, [r7, #84]	; 0x54
    1b3a:	47a0      	blx	r4
    1b3c:	61f8      	str	r0, [r7, #28]
/home/test/devel/optee/optee_os/lib/libutee/tee_api_operations.c:942
    1b3e:	69fb      	ldr	r3, [r7, #28]
    1b40:	2b00      	cmp	r3, #0
    1b42:	d002      	beq.n	1b4a <tee_buffer_update+0x28e>
/home/test/devel/optee/optee_os/lib/libutee/tee_api_operations.c:943
    1b44:	69f8      	ldr	r0, [r7, #28]
    1b46:	f007 ffbd 	bl	9ac4 <TEE_Panic>
/home/test/devel/optee/optee_os/lib/libutee/tee_api_operations.c:944
    1b4a:	6d7a      	ldr	r2, [r7, #84]	; 0x54
    1b4c:	6c3b      	ldr	r3, [r7, #64]	; 0x40
    1b4e:	4413      	add	r3, r2
    1b50:	657b      	str	r3, [r7, #84]	; 0x54
/home/test/devel/optee/optee_os/lib/libutee/tee_api_operations.c:945
    1b52:	6d3a      	ldr	r2, [r7, #80]	; 0x50
    1b54:	6c3b      	ldr	r3, [r7, #64]	; 0x40
    1b56:	eba2 0303 	sub.w	r3, r2, r3
    1b5a:	653b      	str	r3, [r7, #80]	; 0x50
/home/test/devel/optee/optee_os/lib/libutee/tee_api_operations.c:946
    1b5c:	e9d7 3404 	ldrd	r3, r4, [r7, #16]
    1b60:	461a      	mov	r2, r3
    1b62:	6cfb      	ldr	r3, [r7, #76]	; 0x4c
    1b64:	4413      	add	r3, r2
    1b66:	64fb      	str	r3, [r7, #76]	; 0x4c
/home/test/devel/optee/optee_os/lib/libutee/tee_api_operations.c:947
    1b68:	e9d7 3404 	ldrd	r3, r4, [r7, #16]
    1b6c:	461a      	mov	r2, r3
    1b6e:	6cbb      	ldr	r3, [r7, #72]	; 0x48
    1b70:	eba3 0302 	sub.w	r3, r3, r2
    1b74:	64bb      	str	r3, [r7, #72]	; 0x48
/home/test/devel/optee/optee_os/lib/libutee/tee_api_operations.c:948
    1b76:	e9d7 3404 	ldrd	r3, r4, [r7, #16]
    1b7a:	461a      	mov	r2, r3
    1b7c:	6c7b      	ldr	r3, [r7, #68]	; 0x44
    1b7e:	4413      	add	r3, r2
    1b80:	647b      	str	r3, [r7, #68]	; 0x44
/home/test/devel/optee/optee_os/lib/libutee/tee_api_operations.c:952
    1b82:	68fb      	ldr	r3, [r7, #12]
    1b84:	6ada      	ldr	r2, [r3, #44]	; 0x2c
    1b86:	68fb      	ldr	r3, [r7, #12]
    1b88:	6b9b      	ldr	r3, [r3, #56]	; 0x38
    1b8a:	4413      	add	r3, r2
    1b8c:	6d3a      	ldr	r2, [r7, #80]	; 0x50
    1b8e:	6d79      	ldr	r1, [r7, #84]	; 0x54
    1b90:	4618      	mov	r0, r3
    1b92:	f009 f8b6 	bl	ad02 <memcpy>
/home/test/devel/optee/optee_os/lib/libutee/tee_api_operations.c:953
    1b96:	68fb      	ldr	r3, [r7, #12]
    1b98:	6b9a      	ldr	r2, [r3, #56]	; 0x38
    1b9a:	6d3b      	ldr	r3, [r7, #80]	; 0x50
    1b9c:	441a      	add	r2, r3
    1b9e:	68fb      	ldr	r3, [r7, #12]
    1ba0:	639a      	str	r2, [r3, #56]	; 0x38
    1ba2:	e002      	b.n	1baa <tee_buffer_update+0x2ee>
/home/test/devel/optee/optee_os/lib/libutee/tee_api_operations.c:883
    1ba4:	bf00      	nop
    1ba6:	e000      	b.n	1baa <tee_buffer_update+0x2ee>
/home/test/devel/optee/optee_os/lib/libutee/tee_api_operations.c:905
    1ba8:	bf00      	nop
/home/test/devel/optee/optee_os/lib/libutee/tee_api_operations.c:956
    1baa:	6c7b      	ldr	r3, [r7, #68]	; 0x44
    1bac:	f04f 0400 	mov.w	r4, #0
    1bb0:	6efa      	ldr	r2, [r7, #108]	; 0x6c
    1bb2:	e9c2 3400 	strd	r3, r4, [r2]
/home/test/devel/optee/optee_os/lib/libutee/tee_api_operations.c:957
    1bb6:	f04f 0300 	mov.w	r3, #0
/home/test/devel/optee/optee_os/lib/libutee/tee_api_operations.c:958
    1bba:	4618      	mov	r0, r3
    1bbc:	f107 075c 	add.w	r7, r7, #92	; 0x5c
    1bc0:	46bd      	mov	sp, r7
    1bc2:	e9dd 4700 	ldrd	r4, r7, [sp]
    1bc6:	b002      	add	sp, #8
    1bc8:	f85d fb04 	ldr.w	pc, [sp], #4

00001bcc <TEE_CipherUpdate>:
TEE_CipherUpdate():
/home/test/devel/optee/optee_os/lib/libutee/tee_api_operations.c:962
    1bcc:	f84d 4d0c 	str.w	r4, [sp, #-12]!
    1bd0:	e9cd 7e01 	strd	r7, lr, [sp, #4]
    1bd4:	b08b      	sub	sp, #44	; 0x2c
    1bd6:	af02      	add	r7, sp, #8
    1bd8:	60f8      	str	r0, [r7, #12]
    1bda:	60b9      	str	r1, [r7, #8]
    1bdc:	607a      	str	r2, [r7, #4]
    1bde:	603b      	str	r3, [r7, #0]
    1be0:	4867      	ldr	r0, [pc, #412]	; (1d80 <TEE_CipherUpdate+0x1b4>)
    1be2:	4478      	add	r0, pc
/home/test/devel/optee/optee_os/lib/libutee/tee_api_operations.c:967
    1be4:	68fb      	ldr	r3, [r7, #12]
    1be6:	2b00      	cmp	r3, #0
    1be8:	d00f      	beq.n	1c0a <TEE_CipherUpdate+0x3e>
/home/test/devel/optee/optee_os/lib/libutee/tee_api_operations.c:967 (discriminator 1)
    1bea:	68bb      	ldr	r3, [r7, #8]
    1bec:	2b00      	cmp	r3, #0
    1bee:	d102      	bne.n	1bf6 <TEE_CipherUpdate+0x2a>
/home/test/devel/optee/optee_os/lib/libutee/tee_api_operations.c:968
    1bf0:	687b      	ldr	r3, [r7, #4]
    1bf2:	2b00      	cmp	r3, #0
    1bf4:	d109      	bne.n	1c0a <TEE_CipherUpdate+0x3e>
/home/test/devel/optee/optee_os/lib/libutee/tee_api_operations.c:968 (discriminator 1)
    1bf6:	6b3b      	ldr	r3, [r7, #48]	; 0x30
    1bf8:	2b00      	cmp	r3, #0
    1bfa:	d006      	beq.n	1c0a <TEE_CipherUpdate+0x3e>
/home/test/devel/optee/optee_os/lib/libutee/tee_api_operations.c:969
    1bfc:	683b      	ldr	r3, [r7, #0]
    1bfe:	2b00      	cmp	r3, #0
    1c00:	d109      	bne.n	1c16 <TEE_CipherUpdate+0x4a>
/home/test/devel/optee/optee_os/lib/libutee/tee_api_operations.c:970
    1c02:	6b3b      	ldr	r3, [r7, #48]	; 0x30
    1c04:	681b      	ldr	r3, [r3, #0]
    1c06:	2b00      	cmp	r3, #0
    1c08:	d005      	beq.n	1c16 <TEE_CipherUpdate+0x4a>
/home/test/devel/optee/optee_os/lib/libutee/tee_api_operations.c:971
    1c0a:	f04f 0306 	mov.w	r3, #6
    1c0e:	f6cf 73ff 	movt	r3, #65535	; 0xffff
    1c12:	61fb      	str	r3, [r7, #28]
/home/test/devel/optee/optee_os/lib/libutee/tee_api_operations.c:972
    1c14:	e09c      	b.n	1d50 <TEE_CipherUpdate+0x184>
/home/test/devel/optee/optee_os/lib/libutee/tee_api_operations.c:975
    1c16:	68fb      	ldr	r3, [r7, #12]
    1c18:	685b      	ldr	r3, [r3, #4]
    1c1a:	2b01      	cmp	r3, #1
    1c1c:	d005      	beq.n	1c2a <TEE_CipherUpdate+0x5e>
/home/test/devel/optee/optee_os/lib/libutee/tee_api_operations.c:976
    1c1e:	f04f 0306 	mov.w	r3, #6
    1c22:	f6cf 73ff 	movt	r3, #65535	; 0xffff
    1c26:	61fb      	str	r3, [r7, #28]
/home/test/devel/optee/optee_os/lib/libutee/tee_api_operations.c:977
    1c28:	e092      	b.n	1d50 <TEE_CipherUpdate+0x184>
/home/test/devel/optee/optee_os/lib/libutee/tee_api_operations.c:980
    1c2a:	68fb      	ldr	r3, [r7, #12]
    1c2c:	69db      	ldr	r3, [r3, #28]
    1c2e:	f403 3300 	and.w	r3, r3, #131072	; 0x20000
    1c32:	2b00      	cmp	r3, #0
    1c34:	d105      	bne.n	1c42 <TEE_CipherUpdate+0x76>
/home/test/devel/optee/optee_os/lib/libutee/tee_api_operations.c:981
    1c36:	f04f 0306 	mov.w	r3, #6
    1c3a:	f6cf 73ff 	movt	r3, #65535	; 0xffff
    1c3e:	61fb      	str	r3, [r7, #28]
/home/test/devel/optee/optee_os/lib/libutee/tee_api_operations.c:982
    1c40:	e086      	b.n	1d50 <TEE_CipherUpdate+0x184>
/home/test/devel/optee/optee_os/lib/libutee/tee_api_operations.c:985
    1c42:	68fb      	ldr	r3, [r7, #12]
    1c44:	6a9b      	ldr	r3, [r3, #40]	; 0x28
    1c46:	2b01      	cmp	r3, #1
    1c48:	d005      	beq.n	1c56 <TEE_CipherUpdate+0x8a>
/home/test/devel/optee/optee_os/lib/libutee/tee_api_operations.c:986
    1c4a:	f04f 0306 	mov.w	r3, #6
    1c4e:	f6cf 73ff 	movt	r3, #65535	; 0xffff
    1c52:	61fb      	str	r3, [r7, #28]
/home/test/devel/optee/optee_os/lib/libutee/tee_api_operations.c:987
    1c54:	e07c      	b.n	1d50 <TEE_CipherUpdate+0x184>
/home/test/devel/optee/optee_os/lib/libutee/tee_api_operations.c:990
    1c56:	68bb      	ldr	r3, [r7, #8]
    1c58:	2b00      	cmp	r3, #0
    1c5a:	d10a      	bne.n	1c72 <TEE_CipherUpdate+0xa6>
/home/test/devel/optee/optee_os/lib/libutee/tee_api_operations.c:990 (discriminator 1)
    1c5c:	687b      	ldr	r3, [r7, #4]
    1c5e:	2b00      	cmp	r3, #0
    1c60:	d107      	bne.n	1c72 <TEE_CipherUpdate+0xa6>
/home/test/devel/optee/optee_os/lib/libutee/tee_api_operations.c:991
    1c62:	6b3b      	ldr	r3, [r7, #48]	; 0x30
    1c64:	f04f 0200 	mov.w	r2, #0
    1c68:	601a      	str	r2, [r3, #0]
/home/test/devel/optee/optee_os/lib/libutee/tee_api_operations.c:992
    1c6a:	f04f 0300 	mov.w	r3, #0
    1c6e:	61fb      	str	r3, [r7, #28]
/home/test/devel/optee/optee_os/lib/libutee/tee_api_operations.c:993
    1c70:	e06e      	b.n	1d50 <TEE_CipherUpdate+0x184>
/home/test/devel/optee/optee_os/lib/libutee/tee_api_operations.c:997
    1c72:	68fb      	ldr	r3, [r7, #12]
    1c74:	6b5b      	ldr	r3, [r3, #52]	; 0x34
    1c76:	2b01      	cmp	r3, #1
    1c78:	d90d      	bls.n	1c96 <TEE_CipherUpdate+0xca>
/home/test/devel/optee/optee_os/lib/libutee/tee_api_operations.c:998
    1c7a:	68fb      	ldr	r3, [r7, #12]
    1c7c:	6b9a      	ldr	r2, [r3, #56]	; 0x38
    1c7e:	687b      	ldr	r3, [r7, #4]
    1c80:	441a      	add	r2, r3
/home/test/devel/optee/optee_os/lib/libutee/tee_api_operations.c:999
    1c82:	68fb      	ldr	r3, [r7, #12]
    1c84:	6b5b      	ldr	r3, [r3, #52]	; 0x34
/home/test/devel/optee/optee_os/lib/libutee/tee_api_operations.c:998
    1c86:	fbb2 f3f3 	udiv	r3, r2, r3
/home/test/devel/optee/optee_os/lib/libutee/tee_api_operations.c:999
    1c8a:	68fa      	ldr	r2, [r7, #12]
    1c8c:	6b52      	ldr	r2, [r2, #52]	; 0x34
/home/test/devel/optee/optee_os/lib/libutee/tee_api_operations.c:998
    1c8e:	fb02 f303 	mul.w	r3, r2, r3
    1c92:	61bb      	str	r3, [r7, #24]
    1c94:	e001      	b.n	1c9a <TEE_CipherUpdate+0xce>
/home/test/devel/optee/optee_os/lib/libutee/tee_api_operations.c:1001
    1c96:	687b      	ldr	r3, [r7, #4]
    1c98:	61bb      	str	r3, [r7, #24]
/home/test/devel/optee/optee_os/lib/libutee/tee_api_operations.c:1003
    1c9a:	68fb      	ldr	r3, [r7, #12]
    1c9c:	f893 3030 	ldrb.w	r3, [r3, #48]	; 0x30
    1ca0:	2b00      	cmp	r3, #0
    1ca2:	d012      	beq.n	1cca <TEE_CipherUpdate+0xfe>
/home/test/devel/optee/optee_os/lib/libutee/tee_api_operations.c:1004
    1ca4:	68fb      	ldr	r3, [r7, #12]
    1ca6:	6b5b      	ldr	r3, [r3, #52]	; 0x34
    1ca8:	ea4f 0243 	mov.w	r2, r3, lsl #1
    1cac:	69bb      	ldr	r3, [r7, #24]
    1cae:	429a      	cmp	r2, r3
    1cb0:	d208      	bcs.n	1cc4 <TEE_CipherUpdate+0xf8>
/home/test/devel/optee/optee_os/lib/libutee/tee_api_operations.c:1005
    1cb2:	68fb      	ldr	r3, [r7, #12]
    1cb4:	6b5b      	ldr	r3, [r3, #52]	; 0x34
    1cb6:	ea4f 0343 	mov.w	r3, r3, lsl #1
    1cba:	69ba      	ldr	r2, [r7, #24]
    1cbc:	eba2 0303 	sub.w	r3, r2, r3
    1cc0:	61bb      	str	r3, [r7, #24]
    1cc2:	e002      	b.n	1cca <TEE_CipherUpdate+0xfe>
/home/test/devel/optee/optee_os/lib/libutee/tee_api_operations.c:1007
    1cc4:	f04f 0300 	mov.w	r3, #0
    1cc8:	61bb      	str	r3, [r7, #24]
/home/test/devel/optee/optee_os/lib/libutee/tee_api_operations.c:1014
    1cca:	6b3b      	ldr	r3, [r7, #48]	; 0x30
    1ccc:	681a      	ldr	r2, [r3, #0]
    1cce:	69bb      	ldr	r3, [r7, #24]
    1cd0:	429a      	cmp	r2, r3
    1cd2:	d208      	bcs.n	1ce6 <TEE_CipherUpdate+0x11a>
/home/test/devel/optee/optee_os/lib/libutee/tee_api_operations.c:1015
    1cd4:	6b3b      	ldr	r3, [r7, #48]	; 0x30
    1cd6:	69ba      	ldr	r2, [r7, #24]
    1cd8:	601a      	str	r2, [r3, #0]
/home/test/devel/optee/optee_os/lib/libutee/tee_api_operations.c:1016
    1cda:	f04f 0310 	mov.w	r3, #16
    1cde:	f6cf 73ff 	movt	r3, #65535	; 0xffff
    1ce2:	61fb      	str	r3, [r7, #28]
/home/test/devel/optee/optee_os/lib/libutee/tee_api_operations.c:1017
    1ce4:	e034      	b.n	1d50 <TEE_CipherUpdate+0x184>
/home/test/devel/optee/optee_os/lib/libutee/tee_api_operations.c:1020
    1ce6:	6b3b      	ldr	r3, [r7, #48]	; 0x30
    1ce8:	681b      	ldr	r3, [r3, #0]
    1cea:	f04f 0400 	mov.w	r4, #0
    1cee:	e9c7 3404 	strd	r3, r4, [r7, #16]
/home/test/devel/optee/optee_os/lib/libutee/tee_api_operations.c:1021
    1cf2:	68fb      	ldr	r3, [r7, #12]
    1cf4:	6b5b      	ldr	r3, [r3, #52]	; 0x34
    1cf6:	2b01      	cmp	r3, #1
    1cf8:	d90d      	bls.n	1d16 <TEE_CipherUpdate+0x14a>
/home/test/devel/optee/optee_os/lib/libutee/tee_api_operations.c:1022
    1cfa:	f107 0310 	add.w	r3, r7, #16
    1cfe:	9301      	str	r3, [sp, #4]
    1d00:	683b      	ldr	r3, [r7, #0]
    1d02:	9300      	str	r3, [sp, #0]
    1d04:	687b      	ldr	r3, [r7, #4]
    1d06:	68ba      	ldr	r2, [r7, #8]
    1d08:	491e      	ldr	r1, [pc, #120]	; (1d84 <TEE_CipherUpdate+0x1b8>)
    1d0a:	5841      	ldr	r1, [r0, r1]
    1d0c:	68f8      	ldr	r0, [r7, #12]
    1d0e:	f7ff fdd5 	bl	18bc <tee_buffer_update>
    1d12:	61f8      	str	r0, [r7, #28]
    1d14:	e017      	b.n	1d46 <TEE_CipherUpdate+0x17a>
/home/test/devel/optee/optee_os/lib/libutee/tee_api_operations.c:1025
    1d16:	687b      	ldr	r3, [r7, #4]
    1d18:	2b00      	cmp	r3, #0
    1d1a:	d00b      	beq.n	1d34 <TEE_CipherUpdate+0x168>
/home/test/devel/optee/optee_os/lib/libutee/tee_api_operations.c:1026
    1d1c:	68fb      	ldr	r3, [r7, #12]
    1d1e:	6bd8      	ldr	r0, [r3, #60]	; 0x3c
    1d20:	f107 0310 	add.w	r3, r7, #16
    1d24:	9300      	str	r3, [sp, #0]
    1d26:	683b      	ldr	r3, [r7, #0]
    1d28:	687a      	ldr	r2, [r7, #4]
    1d2a:	68b9      	ldr	r1, [r7, #8]
    1d2c:	f001 ed10 	blx	3750 <utee_cipher_update>
    1d30:	61f8      	str	r0, [r7, #28]
    1d32:	e008      	b.n	1d46 <TEE_CipherUpdate+0x17a>
/home/test/devel/optee/optee_os/lib/libutee/tee_api_operations.c:1029
    1d34:	f04f 0300 	mov.w	r3, #0
    1d38:	61fb      	str	r3, [r7, #28]
/home/test/devel/optee/optee_os/lib/libutee/tee_api_operations.c:1030
    1d3a:	f04f 0300 	mov.w	r3, #0
    1d3e:	f04f 0400 	mov.w	r4, #0
    1d42:	e9c7 3404 	strd	r3, r4, [r7, #16]
/home/test/devel/optee/optee_os/lib/libutee/tee_api_operations.c:1033
    1d46:	e9d7 3404 	ldrd	r3, r4, [r7, #16]
    1d4a:	461a      	mov	r2, r3
    1d4c:	6b3b      	ldr	r3, [r7, #48]	; 0x30
    1d4e:	601a      	str	r2, [r3, #0]
/home/test/devel/optee/optee_os/lib/libutee/tee_api_operations.c:1036
    1d50:	69fb      	ldr	r3, [r7, #28]
    1d52:	2b00      	cmp	r3, #0
    1d54:	d009      	beq.n	1d6a <TEE_CipherUpdate+0x19e>
/home/test/devel/optee/optee_os/lib/libutee/tee_api_operations.c:1036 (discriminator 1)
    1d56:	69fa      	ldr	r2, [r7, #28]
    1d58:	f04f 0310 	mov.w	r3, #16
    1d5c:	f6cf 73ff 	movt	r3, #65535	; 0xffff
    1d60:	429a      	cmp	r2, r3
    1d62:	d002      	beq.n	1d6a <TEE_CipherUpdate+0x19e>
/home/test/devel/optee/optee_os/lib/libutee/tee_api_operations.c:1038
    1d64:	69f8      	ldr	r0, [r7, #28]
    1d66:	f007 fead 	bl	9ac4 <TEE_Panic>
/home/test/devel/optee/optee_os/lib/libutee/tee_api_operations.c:1040
    1d6a:	69fb      	ldr	r3, [r7, #28]
/home/test/devel/optee/optee_os/lib/libutee/tee_api_operations.c:1041
    1d6c:	4618      	mov	r0, r3
    1d6e:	f107 0724 	add.w	r7, r7, #36	; 0x24
    1d72:	46bd      	mov	sp, r7
    1d74:	e9dd 4700 	ldrd	r4, r7, [sp]
    1d78:	b002      	add	sp, #8
    1d7a:	f85d fb04 	ldr.w	pc, [sp], #4
    1d7e:	bf00      	nop
    1d80:	0000fa06 	.word	0x0000fa06
    1d84:	00000028 	.word	0x00000028

00001d88 <TEE_CipherDoFinal>:
TEE_CipherDoFinal():
/home/test/devel/optee/optee_os/lib/libutee/tee_api_operations.c:1046
    1d88:	f84d 4d0c 	str.w	r4, [sp, #-12]!
    1d8c:	e9cd 7e01 	strd	r7, lr, [sp, #4]
    1d90:	b08d      	sub	sp, #52	; 0x34
    1d92:	af02      	add	r7, sp, #8
    1d94:	60f8      	str	r0, [r7, #12]
    1d96:	60b9      	str	r1, [r7, #8]
    1d98:	607a      	str	r2, [r7, #4]
    1d9a:	603b      	str	r3, [r7, #0]
    1d9c:	488c      	ldr	r0, [pc, #560]	; (1fd0 <TEE_CipherDoFinal+0x248>)
    1d9e:	4478      	add	r0, pc
/home/test/devel/optee/optee_os/lib/libutee/tee_api_operations.c:1048
    1da0:	683b      	ldr	r3, [r7, #0]
    1da2:	61bb      	str	r3, [r7, #24]
/home/test/devel/optee/optee_os/lib/libutee/tee_api_operations.c:1049
    1da4:	f04f 0300 	mov.w	r3, #0
    1da8:	623b      	str	r3, [r7, #32]
/home/test/devel/optee/optee_os/lib/libutee/tee_api_operations.c:1053
    1daa:	68fb      	ldr	r3, [r7, #12]
    1dac:	2b00      	cmp	r3, #0
    1dae:	d00f      	beq.n	1dd0 <TEE_CipherDoFinal+0x48>
/home/test/devel/optee/optee_os/lib/libutee/tee_api_operations.c:1053 (discriminator 1)
    1db0:	68bb      	ldr	r3, [r7, #8]
    1db2:	2b00      	cmp	r3, #0
    1db4:	d102      	bne.n	1dbc <TEE_CipherDoFinal+0x34>
/home/test/devel/optee/optee_os/lib/libutee/tee_api_operations.c:1054
    1db6:	687b      	ldr	r3, [r7, #4]
    1db8:	2b00      	cmp	r3, #0
    1dba:	d109      	bne.n	1dd0 <TEE_CipherDoFinal+0x48>
/home/test/devel/optee/optee_os/lib/libutee/tee_api_operations.c:1054 (discriminator 1)
    1dbc:	6bbb      	ldr	r3, [r7, #56]	; 0x38
    1dbe:	2b00      	cmp	r3, #0
    1dc0:	d006      	beq.n	1dd0 <TEE_CipherDoFinal+0x48>
/home/test/devel/optee/optee_os/lib/libutee/tee_api_operations.c:1055
    1dc2:	683b      	ldr	r3, [r7, #0]
    1dc4:	2b00      	cmp	r3, #0
    1dc6:	d109      	bne.n	1ddc <TEE_CipherDoFinal+0x54>
/home/test/devel/optee/optee_os/lib/libutee/tee_api_operations.c:1056
    1dc8:	6bbb      	ldr	r3, [r7, #56]	; 0x38
    1dca:	681b      	ldr	r3, [r3, #0]
    1dcc:	2b00      	cmp	r3, #0
    1dce:	d005      	beq.n	1ddc <TEE_CipherDoFinal+0x54>
/home/test/devel/optee/optee_os/lib/libutee/tee_api_operations.c:1057
    1dd0:	f04f 0306 	mov.w	r3, #6
    1dd4:	f6cf 73ff 	movt	r3, #65535	; 0xffff
    1dd8:	627b      	str	r3, [r7, #36]	; 0x24
/home/test/devel/optee/optee_os/lib/libutee/tee_api_operations.c:1058
    1dda:	e0e2      	b.n	1fa2 <TEE_CipherDoFinal+0x21a>
/home/test/devel/optee/optee_os/lib/libutee/tee_api_operations.c:1061
    1ddc:	68fb      	ldr	r3, [r7, #12]
    1dde:	685b      	ldr	r3, [r3, #4]
    1de0:	2b01      	cmp	r3, #1
    1de2:	d005      	beq.n	1df0 <TEE_CipherDoFinal+0x68>
/home/test/devel/optee/optee_os/lib/libutee/tee_api_operations.c:1062
    1de4:	f04f 0306 	mov.w	r3, #6
    1de8:	f6cf 73ff 	movt	r3, #65535	; 0xffff
    1dec:	627b      	str	r3, [r7, #36]	; 0x24
/home/test/devel/optee/optee_os/lib/libutee/tee_api_operations.c:1063
    1dee:	e0d8      	b.n	1fa2 <TEE_CipherDoFinal+0x21a>
/home/test/devel/optee/optee_os/lib/libutee/tee_api_operations.c:1066
    1df0:	68fb      	ldr	r3, [r7, #12]
    1df2:	69db      	ldr	r3, [r3, #28]
    1df4:	f403 3300 	and.w	r3, r3, #131072	; 0x20000
    1df8:	2b00      	cmp	r3, #0
    1dfa:	d105      	bne.n	1e08 <TEE_CipherDoFinal+0x80>
/home/test/devel/optee/optee_os/lib/libutee/tee_api_operations.c:1067
    1dfc:	f04f 0306 	mov.w	r3, #6
    1e00:	f6cf 73ff 	movt	r3, #65535	; 0xffff
    1e04:	627b      	str	r3, [r7, #36]	; 0x24
/home/test/devel/optee/optee_os/lib/libutee/tee_api_operations.c:1068
    1e06:	e0cc      	b.n	1fa2 <TEE_CipherDoFinal+0x21a>
/home/test/devel/optee/optee_os/lib/libutee/tee_api_operations.c:1071
    1e08:	68fb      	ldr	r3, [r7, #12]
    1e0a:	6a9b      	ldr	r3, [r3, #40]	; 0x28
    1e0c:	2b01      	cmp	r3, #1
    1e0e:	d005      	beq.n	1e1c <TEE_CipherDoFinal+0x94>
/home/test/devel/optee/optee_os/lib/libutee/tee_api_operations.c:1072
    1e10:	f04f 0306 	mov.w	r3, #6
    1e14:	f6cf 73ff 	movt	r3, #65535	; 0xffff
    1e18:	627b      	str	r3, [r7, #36]	; 0x24
/home/test/devel/optee/optee_os/lib/libutee/tee_api_operations.c:1073
    1e1a:	e0c2      	b.n	1fa2 <TEE_CipherDoFinal+0x21a>
/home/test/devel/optee/optee_os/lib/libutee/tee_api_operations.c:1080
    1e1c:	68fb      	ldr	r3, [r7, #12]
    1e1e:	681a      	ldr	r2, [r3, #0]
    1e20:	f04f 0310 	mov.w	r3, #16
    1e24:	f2c1 0300 	movt	r3, #4096	; 0x1000
    1e28:	429a      	cmp	r2, r3
    1e2a:	d027      	beq.n	1e7c <TEE_CipherDoFinal+0xf4>
/home/test/devel/optee/optee_os/lib/libutee/tee_api_operations.c:1081 (discriminator 1)
    1e2c:	68fb      	ldr	r3, [r7, #12]
    1e2e:	681a      	ldr	r2, [r3, #0]
/home/test/devel/optee/optee_os/lib/libutee/tee_api_operations.c:1080 (discriminator 1)
    1e30:	f44f 7388 	mov.w	r3, #272	; 0x110
    1e34:	f2c1 0300 	movt	r3, #4096	; 0x1000
    1e38:	429a      	cmp	r2, r3
    1e3a:	d01f      	beq.n	1e7c <TEE_CipherDoFinal+0xf4>
/home/test/devel/optee/optee_os/lib/libutee/tee_api_operations.c:1082
    1e3c:	68fb      	ldr	r3, [r7, #12]
    1e3e:	681a      	ldr	r2, [r3, #0]
/home/test/devel/optee/optee_os/lib/libutee/tee_api_operations.c:1081
    1e40:	f04f 0311 	mov.w	r3, #17
    1e44:	f2c1 0300 	movt	r3, #4096	; 0x1000
    1e48:	429a      	cmp	r2, r3
    1e4a:	d017      	beq.n	1e7c <TEE_CipherDoFinal+0xf4>
/home/test/devel/optee/optee_os/lib/libutee/tee_api_operations.c:1083
    1e4c:	68fb      	ldr	r3, [r7, #12]
    1e4e:	681a      	ldr	r2, [r3, #0]
/home/test/devel/optee/optee_os/lib/libutee/tee_api_operations.c:1082
    1e50:	f240 1311 	movw	r3, #273	; 0x111
    1e54:	f2c1 0300 	movt	r3, #4096	; 0x1000
    1e58:	429a      	cmp	r2, r3
    1e5a:	d00f      	beq.n	1e7c <TEE_CipherDoFinal+0xf4>
/home/test/devel/optee/optee_os/lib/libutee/tee_api_operations.c:1084
    1e5c:	68fb      	ldr	r3, [r7, #12]
    1e5e:	681a      	ldr	r2, [r3, #0]
/home/test/devel/optee/optee_os/lib/libutee/tee_api_operations.c:1083
    1e60:	f04f 0313 	mov.w	r3, #19
    1e64:	f2c1 0300 	movt	r3, #4096	; 0x1000
    1e68:	429a      	cmp	r2, r3
    1e6a:	d007      	beq.n	1e7c <TEE_CipherDoFinal+0xf4>
/home/test/devel/optee/optee_os/lib/libutee/tee_api_operations.c:1085
    1e6c:	68fb      	ldr	r3, [r7, #12]
    1e6e:	681a      	ldr	r2, [r3, #0]
/home/test/devel/optee/optee_os/lib/libutee/tee_api_operations.c:1084
    1e70:	f240 1313 	movw	r3, #275	; 0x113
    1e74:	f2c1 0300 	movt	r3, #4096	; 0x1000
    1e78:	429a      	cmp	r2, r3
    1e7a:	d113      	bne.n	1ea4 <TEE_CipherDoFinal+0x11c>
/home/test/devel/optee/optee_os/lib/libutee/tee_api_operations.c:1086
    1e7c:	68fb      	ldr	r3, [r7, #12]
    1e7e:	6b9a      	ldr	r2, [r3, #56]	; 0x38
    1e80:	687b      	ldr	r3, [r7, #4]
    1e82:	4413      	add	r3, r2
    1e84:	68fa      	ldr	r2, [r7, #12]
    1e86:	6b52      	ldr	r2, [r2, #52]	; 0x34
    1e88:	fbb3 f1f2 	udiv	r1, r3, r2
    1e8c:	fb02 f201 	mul.w	r2, r2, r1
    1e90:	eba3 0302 	sub.w	r3, r3, r2
    1e94:	2b00      	cmp	r3, #0
    1e96:	d005      	beq.n	1ea4 <TEE_CipherDoFinal+0x11c>
/home/test/devel/optee/optee_os/lib/libutee/tee_api_operations.c:1088
    1e98:	f04f 0306 	mov.w	r3, #6
    1e9c:	f6cf 73ff 	movt	r3, #65535	; 0xffff
    1ea0:	627b      	str	r3, [r7, #36]	; 0x24
/home/test/devel/optee/optee_os/lib/libutee/tee_api_operations.c:1089
    1ea2:	e07e      	b.n	1fa2 <TEE_CipherDoFinal+0x21a>
/home/test/devel/optee/optee_os/lib/libutee/tee_api_operations.c:1098
    1ea4:	68fb      	ldr	r3, [r7, #12]
    1ea6:	6b5b      	ldr	r3, [r3, #52]	; 0x34
    1ea8:	2b01      	cmp	r3, #1
    1eaa:	d905      	bls.n	1eb8 <TEE_CipherDoFinal+0x130>
/home/test/devel/optee/optee_os/lib/libutee/tee_api_operations.c:1099
    1eac:	68fb      	ldr	r3, [r7, #12]
    1eae:	6b9a      	ldr	r2, [r3, #56]	; 0x38
    1eb0:	687b      	ldr	r3, [r7, #4]
    1eb2:	4413      	add	r3, r2
    1eb4:	61fb      	str	r3, [r7, #28]
    1eb6:	e001      	b.n	1ebc <TEE_CipherDoFinal+0x134>
/home/test/devel/optee/optee_os/lib/libutee/tee_api_operations.c:1101
    1eb8:	687b      	ldr	r3, [r7, #4]
    1eba:	61fb      	str	r3, [r7, #28]
/home/test/devel/optee/optee_os/lib/libutee/tee_api_operations.c:1103
    1ebc:	6bbb      	ldr	r3, [r7, #56]	; 0x38
    1ebe:	681a      	ldr	r2, [r3, #0]
    1ec0:	69fb      	ldr	r3, [r7, #28]
    1ec2:	429a      	cmp	r2, r3
    1ec4:	d208      	bcs.n	1ed8 <TEE_CipherDoFinal+0x150>
/home/test/devel/optee/optee_os/lib/libutee/tee_api_operations.c:1104
    1ec6:	6bbb      	ldr	r3, [r7, #56]	; 0x38
    1ec8:	69fa      	ldr	r2, [r7, #28]
    1eca:	601a      	str	r2, [r3, #0]
/home/test/devel/optee/optee_os/lib/libutee/tee_api_operations.c:1105
    1ecc:	f04f 0310 	mov.w	r3, #16
    1ed0:	f6cf 73ff 	movt	r3, #65535	; 0xffff
    1ed4:	627b      	str	r3, [r7, #36]	; 0x24
/home/test/devel/optee/optee_os/lib/libutee/tee_api_operations.c:1106
    1ed6:	e064      	b.n	1fa2 <TEE_CipherDoFinal+0x21a>
/home/test/devel/optee/optee_os/lib/libutee/tee_api_operations.c:1109
    1ed8:	6bbb      	ldr	r3, [r7, #56]	; 0x38
    1eda:	681a      	ldr	r2, [r3, #0]
    1edc:	6a3b      	ldr	r3, [r7, #32]
    1ede:	eba2 0303 	sub.w	r3, r2, r3
    1ee2:	f04f 0400 	mov.w	r4, #0
    1ee6:	e9c7 3404 	strd	r3, r4, [r7, #16]
/home/test/devel/optee/optee_os/lib/libutee/tee_api_operations.c:1110
    1eea:	68fb      	ldr	r3, [r7, #12]
    1eec:	6b5b      	ldr	r3, [r3, #52]	; 0x34
    1eee:	2b01      	cmp	r3, #1
    1ef0:	d932      	bls.n	1f58 <TEE_CipherDoFinal+0x1d0>
/home/test/devel/optee/optee_os/lib/libutee/tee_api_operations.c:1111
    1ef2:	f107 0310 	add.w	r3, r7, #16
    1ef6:	9301      	str	r3, [sp, #4]
    1ef8:	69bb      	ldr	r3, [r7, #24]
    1efa:	9300      	str	r3, [sp, #0]
    1efc:	687b      	ldr	r3, [r7, #4]
    1efe:	68ba      	ldr	r2, [r7, #8]
    1f00:	4934      	ldr	r1, [pc, #208]	; (1fd4 <TEE_CipherDoFinal+0x24c>)
    1f02:	5841      	ldr	r1, [r0, r1]
    1f04:	68f8      	ldr	r0, [r7, #12]
    1f06:	f7ff fcd9 	bl	18bc <tee_buffer_update>
    1f0a:	6278      	str	r0, [r7, #36]	; 0x24
/home/test/devel/optee/optee_os/lib/libutee/tee_api_operations.c:1113
    1f0c:	6a7b      	ldr	r3, [r7, #36]	; 0x24
    1f0e:	2b00      	cmp	r3, #0
    1f10:	d144      	bne.n	1f9c <TEE_CipherDoFinal+0x214>
/home/test/devel/optee/optee_os/lib/libutee/tee_api_operations.c:1116
    1f12:	e9d7 3404 	ldrd	r3, r4, [r7, #16]
    1f16:	461a      	mov	r2, r3
    1f18:	69bb      	ldr	r3, [r7, #24]
    1f1a:	4413      	add	r3, r2
    1f1c:	61bb      	str	r3, [r7, #24]
/home/test/devel/optee/optee_os/lib/libutee/tee_api_operations.c:1117
    1f1e:	e9d7 3404 	ldrd	r3, r4, [r7, #16]
    1f22:	461a      	mov	r2, r3
    1f24:	6a3b      	ldr	r3, [r7, #32]
    1f26:	4413      	add	r3, r2
    1f28:	623b      	str	r3, [r7, #32]
/home/test/devel/optee/optee_os/lib/libutee/tee_api_operations.c:1119
    1f2a:	6bbb      	ldr	r3, [r7, #56]	; 0x38
    1f2c:	681a      	ldr	r2, [r3, #0]
    1f2e:	6a3b      	ldr	r3, [r7, #32]
    1f30:	eba2 0303 	sub.w	r3, r2, r3
    1f34:	f04f 0400 	mov.w	r4, #0
    1f38:	e9c7 3404 	strd	r3, r4, [r7, #16]
/home/test/devel/optee/optee_os/lib/libutee/tee_api_operations.c:1120
    1f3c:	68fb      	ldr	r3, [r7, #12]
    1f3e:	6bd8      	ldr	r0, [r3, #60]	; 0x3c
    1f40:	68fb      	ldr	r3, [r7, #12]
    1f42:	6ad9      	ldr	r1, [r3, #44]	; 0x2c
    1f44:	68fb      	ldr	r3, [r7, #12]
    1f46:	6b9a      	ldr	r2, [r3, #56]	; 0x38
    1f48:	f107 0310 	add.w	r3, r7, #16
    1f4c:	9300      	str	r3, [sp, #0]
    1f4e:	69bb      	ldr	r3, [r7, #24]
    1f50:	f001 ec0a 	blx	3768 <utee_cipher_final>
    1f54:	6278      	str	r0, [r7, #36]	; 0x24
    1f56:	e00a      	b.n	1f6e <TEE_CipherDoFinal+0x1e6>
/home/test/devel/optee/optee_os/lib/libutee/tee_api_operations.c:1123
    1f58:	68fb      	ldr	r3, [r7, #12]
    1f5a:	6bd8      	ldr	r0, [r3, #60]	; 0x3c
    1f5c:	f107 0310 	add.w	r3, r7, #16
    1f60:	9300      	str	r3, [sp, #0]
    1f62:	69bb      	ldr	r3, [r7, #24]
    1f64:	687a      	ldr	r2, [r7, #4]
    1f66:	68b9      	ldr	r1, [r7, #8]
    1f68:	f001 ebfe 	blx	3768 <utee_cipher_final>
    1f6c:	6278      	str	r0, [r7, #36]	; 0x24
/home/test/devel/optee/optee_os/lib/libutee/tee_api_operations.c:1126
    1f6e:	6a7b      	ldr	r3, [r7, #36]	; 0x24
    1f70:	2b00      	cmp	r3, #0
    1f72:	d115      	bne.n	1fa0 <TEE_CipherDoFinal+0x218>
/home/test/devel/optee/optee_os/lib/libutee/tee_api_operations.c:1129
    1f74:	e9d7 3404 	ldrd	r3, r4, [r7, #16]
    1f78:	461a      	mov	r2, r3
    1f7a:	6a3b      	ldr	r3, [r7, #32]
    1f7c:	4413      	add	r3, r2
    1f7e:	623b      	str	r3, [r7, #32]
/home/test/devel/optee/optee_os/lib/libutee/tee_api_operations.c:1130
    1f80:	6bbb      	ldr	r3, [r7, #56]	; 0x38
    1f82:	6a3a      	ldr	r2, [r7, #32]
    1f84:	601a      	str	r2, [r3, #0]
/home/test/devel/optee/optee_os/lib/libutee/tee_api_operations.c:1132
    1f86:	68fb      	ldr	r3, [r7, #12]
    1f88:	69db      	ldr	r3, [r3, #28]
    1f8a:	f423 3200 	bic.w	r2, r3, #131072	; 0x20000
    1f8e:	68fb      	ldr	r3, [r7, #12]
    1f90:	61da      	str	r2, [r3, #28]
/home/test/devel/optee/optee_os/lib/libutee/tee_api_operations.c:1134
    1f92:	68fb      	ldr	r3, [r7, #12]
    1f94:	f04f 0200 	mov.w	r2, #0
    1f98:	629a      	str	r2, [r3, #40]	; 0x28
    1f9a:	e002      	b.n	1fa2 <TEE_CipherDoFinal+0x21a>
/home/test/devel/optee/optee_os/lib/libutee/tee_api_operations.c:1114
    1f9c:	bf00      	nop
    1f9e:	e000      	b.n	1fa2 <TEE_CipherDoFinal+0x21a>
/home/test/devel/optee/optee_os/lib/libutee/tee_api_operations.c:1127
    1fa0:	bf00      	nop
/home/test/devel/optee/optee_os/lib/libutee/tee_api_operations.c:1137
    1fa2:	6a7b      	ldr	r3, [r7, #36]	; 0x24
    1fa4:	2b00      	cmp	r3, #0
    1fa6:	d009      	beq.n	1fbc <TEE_CipherDoFinal+0x234>
/home/test/devel/optee/optee_os/lib/libutee/tee_api_operations.c:1137 (discriminator 1)
    1fa8:	6a7a      	ldr	r2, [r7, #36]	; 0x24
    1faa:	f04f 0310 	mov.w	r3, #16
    1fae:	f6cf 73ff 	movt	r3, #65535	; 0xffff
    1fb2:	429a      	cmp	r2, r3
    1fb4:	d002      	beq.n	1fbc <TEE_CipherDoFinal+0x234>
/home/test/devel/optee/optee_os/lib/libutee/tee_api_operations.c:1139
    1fb6:	6a78      	ldr	r0, [r7, #36]	; 0x24
    1fb8:	f007 fd84 	bl	9ac4 <TEE_Panic>
/home/test/devel/optee/optee_os/lib/libutee/tee_api_operations.c:1141
    1fbc:	6a7b      	ldr	r3, [r7, #36]	; 0x24
/home/test/devel/optee/optee_os/lib/libutee/tee_api_operations.c:1142
    1fbe:	4618      	mov	r0, r3
    1fc0:	f107 072c 	add.w	r7, r7, #44	; 0x2c
    1fc4:	46bd      	mov	sp, r7
    1fc6:	e9dd 4700 	ldrd	r4, r7, [sp]
    1fca:	b002      	add	sp, #8
    1fcc:	f85d fb04 	ldr.w	pc, [sp], #4
    1fd0:	0000f84a 	.word	0x0000f84a
    1fd4:	00000028 	.word	0x00000028

00001fd8 <TEE_MACInit>:
TEE_MACInit():
/home/test/devel/optee/optee_os/lib/libutee/tee_api_operations.c:1147
    1fd8:	e96d 7e02 	strd	r7, lr, [sp, #-8]!
    1fdc:	b084      	sub	sp, #16
    1fde:	af00      	add	r7, sp, #0
    1fe0:	60f8      	str	r0, [r7, #12]
    1fe2:	60b9      	str	r1, [r7, #8]
    1fe4:	607a      	str	r2, [r7, #4]
/home/test/devel/optee/optee_os/lib/libutee/tee_api_operations.c:1148
    1fe6:	68fb      	ldr	r3, [r7, #12]
    1fe8:	2b00      	cmp	r3, #0
    1fea:	d103      	bne.n	1ff4 <TEE_MACInit+0x1c>
/home/test/devel/optee/optee_os/lib/libutee/tee_api_operations.c:1149
    1fec:	f04f 0000 	mov.w	r0, #0
    1ff0:	f007 fd68 	bl	9ac4 <TEE_Panic>
/home/test/devel/optee/optee_os/lib/libutee/tee_api_operations.c:1151
    1ff4:	68fb      	ldr	r3, [r7, #12]
    1ff6:	685b      	ldr	r3, [r3, #4]
    1ff8:	2b03      	cmp	r3, #3
    1ffa:	d003      	beq.n	2004 <TEE_MACInit+0x2c>
/home/test/devel/optee/optee_os/lib/libutee/tee_api_operations.c:1152
    1ffc:	f04f 0000 	mov.w	r0, #0
    2000:	f007 fd60 	bl	9ac4 <TEE_Panic>
/home/test/devel/optee/optee_os/lib/libutee/tee_api_operations.c:1154
    2004:	68fb      	ldr	r3, [r7, #12]
    2006:	69db      	ldr	r3, [r3, #28]
    2008:	f403 2380 	and.w	r3, r3, #262144	; 0x40000
    200c:	2b00      	cmp	r3, #0
    200e:	d003      	beq.n	2018 <TEE_MACInit+0x40>
/home/test/devel/optee/optee_os/lib/libutee/tee_api_operations.c:1155 (discriminator 1)
    2010:	68fb      	ldr	r3, [r7, #12]
    2012:	6a1b      	ldr	r3, [r3, #32]
/home/test/devel/optee/optee_os/lib/libutee/tee_api_operations.c:1154 (discriminator 1)
    2014:	2b00      	cmp	r3, #0
    2016:	d103      	bne.n	2020 <TEE_MACInit+0x48>
/home/test/devel/optee/optee_os/lib/libutee/tee_api_operations.c:1156
    2018:	f04f 0000 	mov.w	r0, #0
    201c:	f007 fd52 	bl	9ac4 <TEE_Panic>
/home/test/devel/optee/optee_os/lib/libutee/tee_api_operations.c:1158
    2020:	68fb      	ldr	r3, [r7, #12]
    2022:	6a9b      	ldr	r3, [r3, #40]	; 0x28
    2024:	2b00      	cmp	r3, #0
    2026:	d002      	beq.n	202e <TEE_MACInit+0x56>
/home/test/devel/optee/optee_os/lib/libutee/tee_api_operations.c:1159
    2028:	68f8      	ldr	r0, [r7, #12]
    202a:	f7ff f8bb 	bl	11a4 <TEE_ResetOperation>
/home/test/devel/optee/optee_os/lib/libutee/tee_api_operations.c:1161
    202e:	68fb      	ldr	r3, [r7, #12]
    2030:	f04f 0201 	mov.w	r2, #1
    2034:	629a      	str	r2, [r3, #40]	; 0x28
/home/test/devel/optee/optee_os/lib/libutee/tee_api_operations.c:1163
    2036:	687a      	ldr	r2, [r7, #4]
    2038:	68b9      	ldr	r1, [r7, #8]
    203a:	68f8      	ldr	r0, [r7, #12]
    203c:	f7ff fb40 	bl	16c0 <init_hash_operation>
/home/test/devel/optee/optee_os/lib/libutee/tee_api_operations.c:1164
    2040:	bf00      	nop
    2042:	f107 0710 	add.w	r7, r7, #16
    2046:	46bd      	mov	sp, r7
    2048:	bd80      	pop	{r7, pc}

0000204a <TEE_MACUpdate>:
TEE_MACUpdate():
/home/test/devel/optee/optee_os/lib/libutee/tee_api_operations.c:1168
    204a:	e96d 7e02 	strd	r7, lr, [sp, #-8]!
    204e:	b086      	sub	sp, #24
    2050:	af00      	add	r7, sp, #0
    2052:	60f8      	str	r0, [r7, #12]
    2054:	60b9      	str	r1, [r7, #8]
    2056:	607a      	str	r2, [r7, #4]
/home/test/devel/optee/optee_os/lib/libutee/tee_api_operations.c:1171
    2058:	68fb      	ldr	r3, [r7, #12]
    205a:	2b00      	cmp	r3, #0
    205c:	d005      	beq.n	206a <TEE_MACUpdate+0x20>
/home/test/devel/optee/optee_os/lib/libutee/tee_api_operations.c:1171 (discriminator 1)
    205e:	68bb      	ldr	r3, [r7, #8]
    2060:	2b00      	cmp	r3, #0
    2062:	d106      	bne.n	2072 <TEE_MACUpdate+0x28>
/home/test/devel/optee/optee_os/lib/libutee/tee_api_operations.c:1171 (discriminator 2)
    2064:	687b      	ldr	r3, [r7, #4]
    2066:	2b00      	cmp	r3, #0
    2068:	d003      	beq.n	2072 <TEE_MACUpdate+0x28>
/home/test/devel/optee/optee_os/lib/libutee/tee_api_operations.c:1172
    206a:	f04f 0000 	mov.w	r0, #0
    206e:	f007 fd29 	bl	9ac4 <TEE_Panic>
/home/test/devel/optee/optee_os/lib/libutee/tee_api_operations.c:1174
    2072:	68fb      	ldr	r3, [r7, #12]
    2074:	685b      	ldr	r3, [r3, #4]
    2076:	2b03      	cmp	r3, #3
    2078:	d003      	beq.n	2082 <TEE_MACUpdate+0x38>
/home/test/devel/optee/optee_os/lib/libutee/tee_api_operations.c:1175
    207a:	f04f 0000 	mov.w	r0, #0
    207e:	f007 fd21 	bl	9ac4 <TEE_Panic>
/home/test/devel/optee/optee_os/lib/libutee/tee_api_operations.c:1177
    2082:	68fb      	ldr	r3, [r7, #12]
    2084:	69db      	ldr	r3, [r3, #28]
    2086:	f403 3300 	and.w	r3, r3, #131072	; 0x20000
    208a:	2b00      	cmp	r3, #0
    208c:	d103      	bne.n	2096 <TEE_MACUpdate+0x4c>
/home/test/devel/optee/optee_os/lib/libutee/tee_api_operations.c:1178
    208e:	f04f 0000 	mov.w	r0, #0
    2092:	f007 fd17 	bl	9ac4 <TEE_Panic>
/home/test/devel/optee/optee_os/lib/libutee/tee_api_operations.c:1180
    2096:	68fb      	ldr	r3, [r7, #12]
    2098:	6a9b      	ldr	r3, [r3, #40]	; 0x28
    209a:	2b01      	cmp	r3, #1
    209c:	d003      	beq.n	20a6 <TEE_MACUpdate+0x5c>
/home/test/devel/optee/optee_os/lib/libutee/tee_api_operations.c:1181
    209e:	f04f 0000 	mov.w	r0, #0
    20a2:	f007 fd0f 	bl	9ac4 <TEE_Panic>
/home/test/devel/optee/optee_os/lib/libutee/tee_api_operations.c:1183
    20a6:	68fb      	ldr	r3, [r7, #12]
    20a8:	6bdb      	ldr	r3, [r3, #60]	; 0x3c
    20aa:	687a      	ldr	r2, [r7, #4]
    20ac:	68b9      	ldr	r1, [r7, #8]
    20ae:	4618      	mov	r0, r3
    20b0:	f001 eb2e 	blx	3710 <utee_hash_update>
    20b4:	6178      	str	r0, [r7, #20]
/home/test/devel/optee/optee_os/lib/libutee/tee_api_operations.c:1184
    20b6:	697b      	ldr	r3, [r7, #20]
    20b8:	2b00      	cmp	r3, #0
    20ba:	d002      	beq.n	20c2 <TEE_MACUpdate+0x78>
/home/test/devel/optee/optee_os/lib/libutee/tee_api_operations.c:1185
    20bc:	6978      	ldr	r0, [r7, #20]
    20be:	f007 fd01 	bl	9ac4 <TEE_Panic>
/home/test/devel/optee/optee_os/lib/libutee/tee_api_operations.c:1186
    20c2:	bf00      	nop
    20c4:	f107 0718 	add.w	r7, r7, #24
    20c8:	46bd      	mov	sp, r7
    20ca:	bd80      	pop	{r7, pc}

000020cc <TEE_MACComputeFinal>:
TEE_MACComputeFinal():
/home/test/devel/optee/optee_os/lib/libutee/tee_api_operations.c:1191
    20cc:	f84d 4d0c 	str.w	r4, [sp, #-12]!
    20d0:	e9cd 7e01 	strd	r7, lr, [sp, #4]
    20d4:	b08b      	sub	sp, #44	; 0x2c
    20d6:	af02      	add	r7, sp, #8
    20d8:	60f8      	str	r0, [r7, #12]
    20da:	60b9      	str	r1, [r7, #8]
    20dc:	607a      	str	r2, [r7, #4]
    20de:	603b      	str	r3, [r7, #0]
/home/test/devel/optee/optee_os/lib/libutee/tee_api_operations.c:1195
    20e0:	68fb      	ldr	r3, [r7, #12]
    20e2:	2b00      	cmp	r3, #0
    20e4:	d00b      	beq.n	20fe <TEE_MACComputeFinal+0x32>
/home/test/devel/optee/optee_os/lib/libutee/tee_api_operations.c:1195 (discriminator 1)
    20e6:	68bb      	ldr	r3, [r7, #8]
    20e8:	2b00      	cmp	r3, #0
    20ea:	d102      	bne.n	20f2 <TEE_MACComputeFinal+0x26>
/home/test/devel/optee/optee_os/lib/libutee/tee_api_operations.c:1196
    20ec:	687b      	ldr	r3, [r7, #4]
    20ee:	2b00      	cmp	r3, #0
    20f0:	d105      	bne.n	20fe <TEE_MACComputeFinal+0x32>
/home/test/devel/optee/optee_os/lib/libutee/tee_api_operations.c:1196 (discriminator 1)
    20f2:	683b      	ldr	r3, [r7, #0]
    20f4:	2b00      	cmp	r3, #0
    20f6:	d002      	beq.n	20fe <TEE_MACComputeFinal+0x32>
/home/test/devel/optee/optee_os/lib/libutee/tee_api_operations.c:1197
    20f8:	6b3b      	ldr	r3, [r7, #48]	; 0x30
    20fa:	2b00      	cmp	r3, #0
    20fc:	d105      	bne.n	210a <TEE_MACComputeFinal+0x3e>
/home/test/devel/optee/optee_os/lib/libutee/tee_api_operations.c:1199
    20fe:	f04f 0306 	mov.w	r3, #6
    2102:	f6cf 73ff 	movt	r3, #65535	; 0xffff
    2106:	61fb      	str	r3, [r7, #28]
/home/test/devel/optee/optee_os/lib/libutee/tee_api_operations.c:1200
    2108:	e044      	b.n	2194 <TEE_MACComputeFinal+0xc8>
/home/test/devel/optee/optee_os/lib/libutee/tee_api_operations.c:1203
    210a:	68fb      	ldr	r3, [r7, #12]
    210c:	685b      	ldr	r3, [r3, #4]
    210e:	2b03      	cmp	r3, #3
    2110:	d005      	beq.n	211e <TEE_MACComputeFinal+0x52>
/home/test/devel/optee/optee_os/lib/libutee/tee_api_operations.c:1204
    2112:	f04f 0306 	mov.w	r3, #6
    2116:	f6cf 73ff 	movt	r3, #65535	; 0xffff
    211a:	61fb      	str	r3, [r7, #28]
/home/test/devel/optee/optee_os/lib/libutee/tee_api_operations.c:1205
    211c:	e03a      	b.n	2194 <TEE_MACComputeFinal+0xc8>
/home/test/devel/optee/optee_os/lib/libutee/tee_api_operations.c:1208
    211e:	68fb      	ldr	r3, [r7, #12]
    2120:	69db      	ldr	r3, [r3, #28]
    2122:	f403 3300 	and.w	r3, r3, #131072	; 0x20000
    2126:	2b00      	cmp	r3, #0
    2128:	d105      	bne.n	2136 <TEE_MACComputeFinal+0x6a>
/home/test/devel/optee/optee_os/lib/libutee/tee_api_operations.c:1209
    212a:	f04f 0306 	mov.w	r3, #6
    212e:	f6cf 73ff 	movt	r3, #65535	; 0xffff
    2132:	61fb      	str	r3, [r7, #28]
/home/test/devel/optee/optee_os/lib/libutee/tee_api_operations.c:1210
    2134:	e02e      	b.n	2194 <TEE_MACComputeFinal+0xc8>
/home/test/devel/optee/optee_os/lib/libutee/tee_api_operations.c:1213
    2136:	68fb      	ldr	r3, [r7, #12]
    2138:	6a9b      	ldr	r3, [r3, #40]	; 0x28
    213a:	2b01      	cmp	r3, #1
    213c:	d005      	beq.n	214a <TEE_MACComputeFinal+0x7e>
/home/test/devel/optee/optee_os/lib/libutee/tee_api_operations.c:1214
    213e:	f04f 0306 	mov.w	r3, #6
    2142:	f6cf 73ff 	movt	r3, #65535	; 0xffff
    2146:	61fb      	str	r3, [r7, #28]
/home/test/devel/optee/optee_os/lib/libutee/tee_api_operations.c:1215
    2148:	e024      	b.n	2194 <TEE_MACComputeFinal+0xc8>
/home/test/devel/optee/optee_os/lib/libutee/tee_api_operations.c:1218
    214a:	6b3b      	ldr	r3, [r7, #48]	; 0x30
    214c:	681b      	ldr	r3, [r3, #0]
    214e:	f04f 0400 	mov.w	r4, #0
    2152:	e9c7 3404 	strd	r3, r4, [r7, #16]
/home/test/devel/optee/optee_os/lib/libutee/tee_api_operations.c:1219
    2156:	68fb      	ldr	r3, [r7, #12]
    2158:	6bd8      	ldr	r0, [r3, #60]	; 0x3c
    215a:	f107 0310 	add.w	r3, r7, #16
    215e:	9300      	str	r3, [sp, #0]
    2160:	683b      	ldr	r3, [r7, #0]
    2162:	687a      	ldr	r2, [r7, #4]
    2164:	68b9      	ldr	r1, [r7, #8]
    2166:	f001 eade 	blx	3724 <utee_hash_final>
    216a:	61f8      	str	r0, [r7, #28]
/home/test/devel/optee/optee_os/lib/libutee/tee_api_operations.c:1220
    216c:	e9d7 3404 	ldrd	r3, r4, [r7, #16]
    2170:	461a      	mov	r2, r3
    2172:	6b3b      	ldr	r3, [r7, #48]	; 0x30
    2174:	601a      	str	r2, [r3, #0]
/home/test/devel/optee/optee_os/lib/libutee/tee_api_operations.c:1221
    2176:	69fb      	ldr	r3, [r7, #28]
    2178:	2b00      	cmp	r3, #0
    217a:	d10a      	bne.n	2192 <TEE_MACComputeFinal+0xc6>
/home/test/devel/optee/optee_os/lib/libutee/tee_api_operations.c:1224
    217c:	68fb      	ldr	r3, [r7, #12]
    217e:	69db      	ldr	r3, [r3, #28]
    2180:	f423 3200 	bic.w	r2, r3, #131072	; 0x20000
    2184:	68fb      	ldr	r3, [r7, #12]
    2186:	61da      	str	r2, [r3, #28]
/home/test/devel/optee/optee_os/lib/libutee/tee_api_operations.c:1226
    2188:	68fb      	ldr	r3, [r7, #12]
    218a:	f04f 0200 	mov.w	r2, #0
    218e:	629a      	str	r2, [r3, #40]	; 0x28
    2190:	e000      	b.n	2194 <TEE_MACComputeFinal+0xc8>
/home/test/devel/optee/optee_os/lib/libutee/tee_api_operations.c:1222
    2192:	bf00      	nop
/home/test/devel/optee/optee_os/lib/libutee/tee_api_operations.c:1229
    2194:	69fb      	ldr	r3, [r7, #28]
    2196:	2b00      	cmp	r3, #0
    2198:	d009      	beq.n	21ae <TEE_MACComputeFinal+0xe2>
/home/test/devel/optee/optee_os/lib/libutee/tee_api_operations.c:1229 (discriminator 1)
    219a:	69fa      	ldr	r2, [r7, #28]
    219c:	f04f 0310 	mov.w	r3, #16
    21a0:	f6cf 73ff 	movt	r3, #65535	; 0xffff
    21a4:	429a      	cmp	r2, r3
    21a6:	d002      	beq.n	21ae <TEE_MACComputeFinal+0xe2>
/home/test/devel/optee/optee_os/lib/libutee/tee_api_operations.c:1231
    21a8:	69f8      	ldr	r0, [r7, #28]
    21aa:	f007 fc8b 	bl	9ac4 <TEE_Panic>
/home/test/devel/optee/optee_os/lib/libutee/tee_api_operations.c:1233
    21ae:	69fb      	ldr	r3, [r7, #28]
/home/test/devel/optee/optee_os/lib/libutee/tee_api_operations.c:1234
    21b0:	4618      	mov	r0, r3
    21b2:	f107 0724 	add.w	r7, r7, #36	; 0x24
    21b6:	46bd      	mov	sp, r7
    21b8:	e9dd 4700 	ldrd	r4, r7, [sp]
    21bc:	b002      	add	sp, #8
    21be:	f85d fb04 	ldr.w	pc, [sp], #4

000021c2 <TEE_MACCompareFinal>:
TEE_MACCompareFinal():
/home/test/devel/optee/optee_os/lib/libutee/tee_api_operations.c:1239
    21c2:	e96d 7e02 	strd	r7, lr, [sp, #-8]!
    21c6:	b098      	sub	sp, #96	; 0x60
    21c8:	af02      	add	r7, sp, #8
    21ca:	60f8      	str	r0, [r7, #12]
    21cc:	60b9      	str	r1, [r7, #8]
    21ce:	607a      	str	r2, [r7, #4]
    21d0:	603b      	str	r3, [r7, #0]
/home/test/devel/optee/optee_os/lib/libutee/tee_api_operations.c:1242
    21d2:	f04f 0340 	mov.w	r3, #64	; 0x40
    21d6:	613b      	str	r3, [r7, #16]
/home/test/devel/optee/optee_os/lib/libutee/tee_api_operations.c:1244
    21d8:	68fb      	ldr	r3, [r7, #12]
    21da:	685b      	ldr	r3, [r3, #4]
    21dc:	2b03      	cmp	r3, #3
    21de:	d005      	beq.n	21ec <TEE_MACCompareFinal+0x2a>
/home/test/devel/optee/optee_os/lib/libutee/tee_api_operations.c:1245
    21e0:	f04f 0306 	mov.w	r3, #6
    21e4:	f6cf 73ff 	movt	r3, #65535	; 0xffff
    21e8:	657b      	str	r3, [r7, #84]	; 0x54
/home/test/devel/optee/optee_os/lib/libutee/tee_api_operations.c:1246
    21ea:	e044      	b.n	2276 <TEE_MACCompareFinal+0xb4>
/home/test/devel/optee/optee_os/lib/libutee/tee_api_operations.c:1249
    21ec:	68fb      	ldr	r3, [r7, #12]
    21ee:	69db      	ldr	r3, [r3, #28]
    21f0:	f403 3300 	and.w	r3, r3, #131072	; 0x20000
    21f4:	2b00      	cmp	r3, #0
    21f6:	d105      	bne.n	2204 <TEE_MACCompareFinal+0x42>
/home/test/devel/optee/optee_os/lib/libutee/tee_api_operations.c:1250
    21f8:	f04f 0306 	mov.w	r3, #6
    21fc:	f6cf 73ff 	movt	r3, #65535	; 0xffff
    2200:	657b      	str	r3, [r7, #84]	; 0x54
/home/test/devel/optee/optee_os/lib/libutee/tee_api_operations.c:1251
    2202:	e038      	b.n	2276 <TEE_MACCompareFinal+0xb4>
/home/test/devel/optee/optee_os/lib/libutee/tee_api_operations.c:1254
    2204:	68fb      	ldr	r3, [r7, #12]
    2206:	6a9b      	ldr	r3, [r3, #40]	; 0x28
    2208:	2b01      	cmp	r3, #1
    220a:	d005      	beq.n	2218 <TEE_MACCompareFinal+0x56>
/home/test/devel/optee/optee_os/lib/libutee/tee_api_operations.c:1255
    220c:	f04f 0306 	mov.w	r3, #6
    2210:	f6cf 73ff 	movt	r3, #65535	; 0xffff
    2214:	657b      	str	r3, [r7, #84]	; 0x54
/home/test/devel/optee/optee_os/lib/libutee/tee_api_operations.c:1256
    2216:	e02e      	b.n	2276 <TEE_MACCompareFinal+0xb4>
/home/test/devel/optee/optee_os/lib/libutee/tee_api_operations.c:1259
    2218:	f107 0214 	add.w	r2, r7, #20
    221c:	f107 0310 	add.w	r3, r7, #16
    2220:	9300      	str	r3, [sp, #0]
    2222:	4613      	mov	r3, r2
    2224:	687a      	ldr	r2, [r7, #4]
    2226:	68b9      	ldr	r1, [r7, #8]
    2228:	68f8      	ldr	r0, [r7, #12]
    222a:	f7ff ff4f 	bl	20cc <TEE_MACComputeFinal>
    222e:	6578      	str	r0, [r7, #84]	; 0x54
/home/test/devel/optee/optee_os/lib/libutee/tee_api_operations.c:1261
    2230:	6d7b      	ldr	r3, [r7, #84]	; 0x54
    2232:	2b00      	cmp	r3, #0
    2234:	d11e      	bne.n	2274 <TEE_MACCompareFinal+0xb2>
/home/test/devel/optee/optee_os/lib/libutee/tee_api_operations.c:1264
    2236:	693a      	ldr	r2, [r7, #16]
    2238:	6e3b      	ldr	r3, [r7, #96]	; 0x60
    223a:	429a      	cmp	r2, r3
    223c:	d005      	beq.n	224a <TEE_MACCompareFinal+0x88>
/home/test/devel/optee/optee_os/lib/libutee/tee_api_operations.c:1265
    223e:	f243 0371 	movw	r3, #12401	; 0x3071
    2242:	f6cf 73ff 	movt	r3, #65535	; 0xffff
    2246:	657b      	str	r3, [r7, #84]	; 0x54
/home/test/devel/optee/optee_os/lib/libutee/tee_api_operations.c:1266
    2248:	e015      	b.n	2276 <TEE_MACCompareFinal+0xb4>
/home/test/devel/optee/optee_os/lib/libutee/tee_api_operations.c:1269
    224a:	693a      	ldr	r2, [r7, #16]
    224c:	f107 0314 	add.w	r3, r7, #20
    2250:	4619      	mov	r1, r3
    2252:	6838      	ldr	r0, [r7, #0]
    2254:	f008 ff40 	bl	b0d8 <buf_compare_ct>
    2258:	4603      	mov	r3, r0
    225a:	2b00      	cmp	r3, #0
    225c:	d005      	beq.n	226a <TEE_MACCompareFinal+0xa8>
/home/test/devel/optee/optee_os/lib/libutee/tee_api_operations.c:1270
    225e:	f243 0371 	movw	r3, #12401	; 0x3071
    2262:	f6cf 73ff 	movt	r3, #65535	; 0xffff
    2266:	657b      	str	r3, [r7, #84]	; 0x54
/home/test/devel/optee/optee_os/lib/libutee/tee_api_operations.c:1271
    2268:	e005      	b.n	2276 <TEE_MACCompareFinal+0xb4>
/home/test/devel/optee/optee_os/lib/libutee/tee_api_operations.c:1274
    226a:	68fb      	ldr	r3, [r7, #12]
    226c:	f04f 0200 	mov.w	r2, #0
    2270:	629a      	str	r2, [r3, #40]	; 0x28
    2272:	e000      	b.n	2276 <TEE_MACCompareFinal+0xb4>
/home/test/devel/optee/optee_os/lib/libutee/tee_api_operations.c:1262
    2274:	bf00      	nop
/home/test/devel/optee/optee_os/lib/libutee/tee_api_operations.c:1277
    2276:	6d7b      	ldr	r3, [r7, #84]	; 0x54
    2278:	2b00      	cmp	r3, #0
    227a:	d009      	beq.n	2290 <TEE_MACCompareFinal+0xce>
/home/test/devel/optee/optee_os/lib/libutee/tee_api_operations.c:1277 (discriminator 1)
    227c:	6d7a      	ldr	r2, [r7, #84]	; 0x54
    227e:	f243 0371 	movw	r3, #12401	; 0x3071
    2282:	f6cf 73ff 	movt	r3, #65535	; 0xffff
    2286:	429a      	cmp	r2, r3
    2288:	d002      	beq.n	2290 <TEE_MACCompareFinal+0xce>
/home/test/devel/optee/optee_os/lib/libutee/tee_api_operations.c:1279
    228a:	6d78      	ldr	r0, [r7, #84]	; 0x54
    228c:	f007 fc1a 	bl	9ac4 <TEE_Panic>
/home/test/devel/optee/optee_os/lib/libutee/tee_api_operations.c:1281
    2290:	6d7b      	ldr	r3, [r7, #84]	; 0x54
/home/test/devel/optee/optee_os/lib/libutee/tee_api_operations.c:1282
    2292:	4618      	mov	r0, r3
    2294:	f107 0758 	add.w	r7, r7, #88	; 0x58
    2298:	46bd      	mov	sp, r7
    229a:	bd80      	pop	{r7, pc}

0000229c <TEE_AEInit>:
TEE_AEInit():
/home/test/devel/optee/optee_os/lib/libutee/tee_api_operations.c:1289
    229c:	e96d 7e02 	strd	r7, lr, [sp, #-8]!
    22a0:	b088      	sub	sp, #32
    22a2:	af02      	add	r7, sp, #8
    22a4:	60f8      	str	r0, [r7, #12]
    22a6:	60b9      	str	r1, [r7, #8]
    22a8:	607a      	str	r2, [r7, #4]
    22aa:	603b      	str	r3, [r7, #0]
/home/test/devel/optee/optee_os/lib/libutee/tee_api_operations.c:1292
    22ac:	68fb      	ldr	r3, [r7, #12]
    22ae:	2b00      	cmp	r3, #0
    22b0:	d002      	beq.n	22b8 <TEE_AEInit+0x1c>
/home/test/devel/optee/optee_os/lib/libutee/tee_api_operations.c:1292 (discriminator 1)
    22b2:	68bb      	ldr	r3, [r7, #8]
    22b4:	2b00      	cmp	r3, #0
    22b6:	d105      	bne.n	22c4 <TEE_AEInit+0x28>
/home/test/devel/optee/optee_os/lib/libutee/tee_api_operations.c:1293
    22b8:	f04f 0306 	mov.w	r3, #6
    22bc:	f6cf 73ff 	movt	r3, #65535	; 0xffff
    22c0:	617b      	str	r3, [r7, #20]
/home/test/devel/optee/optee_os/lib/libutee/tee_api_operations.c:1294
    22c2:	e04b      	b.n	235c <TEE_AEInit+0xc0>
/home/test/devel/optee/optee_os/lib/libutee/tee_api_operations.c:1297
    22c4:	68fb      	ldr	r3, [r7, #12]
    22c6:	685b      	ldr	r3, [r3, #4]
    22c8:	2b04      	cmp	r3, #4
    22ca:	d005      	beq.n	22d8 <TEE_AEInit+0x3c>
/home/test/devel/optee/optee_os/lib/libutee/tee_api_operations.c:1298
    22cc:	f04f 0306 	mov.w	r3, #6
    22d0:	f6cf 73ff 	movt	r3, #65535	; 0xffff
    22d4:	617b      	str	r3, [r7, #20]
/home/test/devel/optee/optee_os/lib/libutee/tee_api_operations.c:1299
    22d6:	e041      	b.n	235c <TEE_AEInit+0xc0>
/home/test/devel/optee/optee_os/lib/libutee/tee_api_operations.c:1302
    22d8:	68fb      	ldr	r3, [r7, #12]
    22da:	6a9b      	ldr	r3, [r3, #40]	; 0x28
    22dc:	2b00      	cmp	r3, #0
    22de:	d005      	beq.n	22ec <TEE_AEInit+0x50>
/home/test/devel/optee/optee_os/lib/libutee/tee_api_operations.c:1303
    22e0:	f04f 0306 	mov.w	r3, #6
    22e4:	f6cf 73ff 	movt	r3, #65535	; 0xffff
    22e8:	617b      	str	r3, [r7, #20]
/home/test/devel/optee/optee_os/lib/libutee/tee_api_operations.c:1304
    22ea:	e037      	b.n	235c <TEE_AEInit+0xc0>
/home/test/devel/optee/optee_os/lib/libutee/tee_api_operations.c:1313
    22ec:	68fb      	ldr	r3, [r7, #12]
    22ee:	681a      	ldr	r2, [r3, #0]
    22f0:	f44f 6301 	mov.w	r3, #2064	; 0x810
    22f4:	f2c4 0300 	movt	r3, #16384	; 0x4000
    22f8:	429a      	cmp	r2, r3
    22fa:	d110      	bne.n	231e <TEE_AEInit+0x82>
/home/test/devel/optee/optee_os/lib/libutee/tee_api_operations.c:1317
    22fc:	683b      	ldr	r3, [r7, #0]
    22fe:	2b5f      	cmp	r3, #95	; 0x5f
    2300:	d907      	bls.n	2312 <TEE_AEInit+0x76>
/home/test/devel/optee/optee_os/lib/libutee/tee_api_operations.c:1317 (discriminator 1)
    2302:	683b      	ldr	r3, [r7, #0]
    2304:	2b80      	cmp	r3, #128	; 0x80
    2306:	d804      	bhi.n	2312 <TEE_AEInit+0x76>
/home/test/devel/optee/optee_os/lib/libutee/tee_api_operations.c:1317 (discriminator 2)
    2308:	683b      	ldr	r3, [r7, #0]
    230a:	f003 0307 	and.w	r3, r3, #7
    230e:	2b00      	cmp	r3, #0
    2310:	d005      	beq.n	231e <TEE_AEInit+0x82>
/home/test/devel/optee/optee_os/lib/libutee/tee_api_operations.c:1318
    2312:	f04f 030a 	mov.w	r3, #10
    2316:	f6cf 73ff 	movt	r3, #65535	; 0xffff
    231a:	617b      	str	r3, [r7, #20]
/home/test/devel/optee/optee_os/lib/libutee/tee_api_operations.c:1319
    231c:	e01e      	b.n	235c <TEE_AEInit+0xc0>
/home/test/devel/optee/optee_os/lib/libutee/tee_api_operations.c:1323
    231e:	68fb      	ldr	r3, [r7, #12]
    2320:	6bd8      	ldr	r0, [r3, #60]	; 0x3c
    2322:	683b      	ldr	r3, [r7, #0]
    2324:	ea4f 02d3 	mov.w	r2, r3, lsr #3
    2328:	6a7b      	ldr	r3, [r7, #36]	; 0x24
    232a:	9301      	str	r3, [sp, #4]
    232c:	6a3b      	ldr	r3, [r7, #32]
    232e:	9300      	str	r3, [sp, #0]
    2330:	4613      	mov	r3, r2
    2332:	687a      	ldr	r2, [r7, #4]
    2334:	68b9      	ldr	r1, [r7, #8]
    2336:	f001 ea88 	blx	3848 <utee_authenc_init>
    233a:	6178      	str	r0, [r7, #20]
/home/test/devel/optee/optee_os/lib/libutee/tee_api_operations.c:1325
    233c:	697b      	ldr	r3, [r7, #20]
    233e:	2b00      	cmp	r3, #0
    2340:	d10b      	bne.n	235a <TEE_AEInit+0xbe>
/home/test/devel/optee/optee_os/lib/libutee/tee_api_operations.c:1328
    2342:	683b      	ldr	r3, [r7, #0]
    2344:	ea4f 02d3 	mov.w	r2, r3, lsr #3
    2348:	68fb      	ldr	r3, [r7, #12]
    234a:	641a      	str	r2, [r3, #64]	; 0x40
/home/test/devel/optee/optee_os/lib/libutee/tee_api_operations.c:1329
    234c:	68fb      	ldr	r3, [r7, #12]
    234e:	69db      	ldr	r3, [r3, #28]
    2350:	f443 3200 	orr.w	r2, r3, #131072	; 0x20000
    2354:	68fb      	ldr	r3, [r7, #12]
    2356:	61da      	str	r2, [r3, #28]
    2358:	e000      	b.n	235c <TEE_AEInit+0xc0>
/home/test/devel/optee/optee_os/lib/libutee/tee_api_operations.c:1326
    235a:	bf00      	nop
/home/test/devel/optee/optee_os/lib/libutee/tee_api_operations.c:1332
    235c:	697b      	ldr	r3, [r7, #20]
    235e:	2b00      	cmp	r3, #0
    2360:	d009      	beq.n	2376 <TEE_AEInit+0xda>
/home/test/devel/optee/optee_os/lib/libutee/tee_api_operations.c:1332 (discriminator 1)
    2362:	697a      	ldr	r2, [r7, #20]
    2364:	f04f 030a 	mov.w	r3, #10
    2368:	f6cf 73ff 	movt	r3, #65535	; 0xffff
    236c:	429a      	cmp	r2, r3
    236e:	d002      	beq.n	2376 <TEE_AEInit+0xda>
/home/test/devel/optee/optee_os/lib/libutee/tee_api_operations.c:1334
    2370:	6978      	ldr	r0, [r7, #20]
    2372:	f007 fba7 	bl	9ac4 <TEE_Panic>
/home/test/devel/optee/optee_os/lib/libutee/tee_api_operations.c:1336
    2376:	697b      	ldr	r3, [r7, #20]
/home/test/devel/optee/optee_os/lib/libutee/tee_api_operations.c:1337
    2378:	4618      	mov	r0, r3
    237a:	f107 0718 	add.w	r7, r7, #24
    237e:	46bd      	mov	sp, r7
    2380:	bd80      	pop	{r7, pc}

00002382 <TEE_AEUpdateAAD>:
TEE_AEUpdateAAD():
/home/test/devel/optee/optee_os/lib/libutee/tee_api_operations.c:1341
    2382:	e96d 7e02 	strd	r7, lr, [sp, #-8]!
    2386:	b086      	sub	sp, #24
    2388:	af00      	add	r7, sp, #0
    238a:	60f8      	str	r0, [r7, #12]
    238c:	60b9      	str	r1, [r7, #8]
    238e:	607a      	str	r2, [r7, #4]
/home/test/devel/optee/optee_os/lib/libutee/tee_api_operations.c:1344
    2390:	68fb      	ldr	r3, [r7, #12]
    2392:	2b00      	cmp	r3, #0
    2394:	d005      	beq.n	23a2 <TEE_AEUpdateAAD+0x20>
/home/test/devel/optee/optee_os/lib/libutee/tee_api_operations.c:1344 (discriminator 1)
    2396:	68bb      	ldr	r3, [r7, #8]
    2398:	2b00      	cmp	r3, #0
    239a:	d106      	bne.n	23aa <TEE_AEUpdateAAD+0x28>
/home/test/devel/optee/optee_os/lib/libutee/tee_api_operations.c:1345
    239c:	687b      	ldr	r3, [r7, #4]
    239e:	2b00      	cmp	r3, #0
    23a0:	d003      	beq.n	23aa <TEE_AEUpdateAAD+0x28>
/home/test/devel/optee/optee_os/lib/libutee/tee_api_operations.c:1346
    23a2:	f04f 0000 	mov.w	r0, #0
    23a6:	f007 fb8d 	bl	9ac4 <TEE_Panic>
/home/test/devel/optee/optee_os/lib/libutee/tee_api_operations.c:1348
    23aa:	68fb      	ldr	r3, [r7, #12]
    23ac:	685b      	ldr	r3, [r3, #4]
    23ae:	2b04      	cmp	r3, #4
    23b0:	d003      	beq.n	23ba <TEE_AEUpdateAAD+0x38>
/home/test/devel/optee/optee_os/lib/libutee/tee_api_operations.c:1349
    23b2:	f04f 0000 	mov.w	r0, #0
    23b6:	f007 fb85 	bl	9ac4 <TEE_Panic>
/home/test/devel/optee/optee_os/lib/libutee/tee_api_operations.c:1351
    23ba:	68fb      	ldr	r3, [r7, #12]
    23bc:	69db      	ldr	r3, [r3, #28]
    23be:	f403 3300 	and.w	r3, r3, #131072	; 0x20000
    23c2:	2b00      	cmp	r3, #0
    23c4:	d103      	bne.n	23ce <TEE_AEUpdateAAD+0x4c>
/home/test/devel/optee/optee_os/lib/libutee/tee_api_operations.c:1352
    23c6:	f04f 0000 	mov.w	r0, #0
    23ca:	f007 fb7b 	bl	9ac4 <TEE_Panic>
/home/test/devel/optee/optee_os/lib/libutee/tee_api_operations.c:1354
    23ce:	68fb      	ldr	r3, [r7, #12]
    23d0:	6bdb      	ldr	r3, [r3, #60]	; 0x3c
    23d2:	687a      	ldr	r2, [r7, #4]
    23d4:	68b9      	ldr	r1, [r7, #8]
    23d6:	4618      	mov	r0, r3
    23d8:	f001 ea42 	blx	3860 <utee_authenc_update_aad>
    23dc:	6178      	str	r0, [r7, #20]
/home/test/devel/optee/optee_os/lib/libutee/tee_api_operations.c:1356
    23de:	68fb      	ldr	r3, [r7, #12]
    23e0:	f04f 0201 	mov.w	r2, #1
    23e4:	629a      	str	r2, [r3, #40]	; 0x28
/home/test/devel/optee/optee_os/lib/libutee/tee_api_operations.c:1358
    23e6:	697b      	ldr	r3, [r7, #20]
    23e8:	2b00      	cmp	r3, #0
    23ea:	d002      	beq.n	23f2 <TEE_AEUpdateAAD+0x70>
/home/test/devel/optee/optee_os/lib/libutee/tee_api_operations.c:1359
    23ec:	6978      	ldr	r0, [r7, #20]
    23ee:	f007 fb69 	bl	9ac4 <TEE_Panic>
/home/test/devel/optee/optee_os/lib/libutee/tee_api_operations.c:1360
    23f2:	bf00      	nop
    23f4:	f107 0718 	add.w	r7, r7, #24
    23f8:	46bd      	mov	sp, r7
    23fa:	bd80      	pop	{r7, pc}

000023fc <TEE_AEUpdate>:
TEE_AEUpdate():
/home/test/devel/optee/optee_os/lib/libutee/tee_api_operations.c:1364
    23fc:	f84d 4d0c 	str.w	r4, [sp, #-12]!
    2400:	e9cd 7e01 	strd	r7, lr, [sp, #4]
    2404:	b08b      	sub	sp, #44	; 0x2c
    2406:	af02      	add	r7, sp, #8
    2408:	60f8      	str	r0, [r7, #12]
    240a:	60b9      	str	r1, [r7, #8]
    240c:	607a      	str	r2, [r7, #4]
    240e:	603b      	str	r3, [r7, #0]
    2410:	4859      	ldr	r0, [pc, #356]	; (2578 <TEE_AEUpdate+0x17c>)
    2412:	4478      	add	r0, pc
/home/test/devel/optee/optee_os/lib/libutee/tee_api_operations.c:1369
    2414:	68fb      	ldr	r3, [r7, #12]
    2416:	2b00      	cmp	r3, #0
    2418:	d00f      	beq.n	243a <TEE_AEUpdate+0x3e>
/home/test/devel/optee/optee_os/lib/libutee/tee_api_operations.c:1369 (discriminator 1)
    241a:	68bb      	ldr	r3, [r7, #8]
    241c:	2b00      	cmp	r3, #0
    241e:	d102      	bne.n	2426 <TEE_AEUpdate+0x2a>
/home/test/devel/optee/optee_os/lib/libutee/tee_api_operations.c:1370
    2420:	687b      	ldr	r3, [r7, #4]
    2422:	2b00      	cmp	r3, #0
    2424:	d109      	bne.n	243a <TEE_AEUpdate+0x3e>
/home/test/devel/optee/optee_os/lib/libutee/tee_api_operations.c:1370 (discriminator 1)
    2426:	6b3b      	ldr	r3, [r7, #48]	; 0x30
    2428:	2b00      	cmp	r3, #0
    242a:	d006      	beq.n	243a <TEE_AEUpdate+0x3e>
/home/test/devel/optee/optee_os/lib/libutee/tee_api_operations.c:1371
    242c:	683b      	ldr	r3, [r7, #0]
    242e:	2b00      	cmp	r3, #0
    2430:	d109      	bne.n	2446 <TEE_AEUpdate+0x4a>
/home/test/devel/optee/optee_os/lib/libutee/tee_api_operations.c:1372
    2432:	6b3b      	ldr	r3, [r7, #48]	; 0x30
    2434:	681b      	ldr	r3, [r3, #0]
    2436:	2b00      	cmp	r3, #0
    2438:	d005      	beq.n	2446 <TEE_AEUpdate+0x4a>
/home/test/devel/optee/optee_os/lib/libutee/tee_api_operations.c:1373
    243a:	f04f 0306 	mov.w	r3, #6
    243e:	f6cf 73ff 	movt	r3, #65535	; 0xffff
    2442:	61fb      	str	r3, [r7, #28]
/home/test/devel/optee/optee_os/lib/libutee/tee_api_operations.c:1374
    2444:	e081      	b.n	254a <TEE_AEUpdate+0x14e>
/home/test/devel/optee/optee_os/lib/libutee/tee_api_operations.c:1377
    2446:	68fb      	ldr	r3, [r7, #12]
    2448:	685b      	ldr	r3, [r3, #4]
    244a:	2b04      	cmp	r3, #4
    244c:	d005      	beq.n	245a <TEE_AEUpdate+0x5e>
/home/test/devel/optee/optee_os/lib/libutee/tee_api_operations.c:1378
    244e:	f04f 0306 	mov.w	r3, #6
    2452:	f6cf 73ff 	movt	r3, #65535	; 0xffff
    2456:	61fb      	str	r3, [r7, #28]
/home/test/devel/optee/optee_os/lib/libutee/tee_api_operations.c:1379
    2458:	e077      	b.n	254a <TEE_AEUpdate+0x14e>
/home/test/devel/optee/optee_os/lib/libutee/tee_api_operations.c:1382
    245a:	68fb      	ldr	r3, [r7, #12]
    245c:	69db      	ldr	r3, [r3, #28]
    245e:	f403 3300 	and.w	r3, r3, #131072	; 0x20000
    2462:	2b00      	cmp	r3, #0
    2464:	d105      	bne.n	2472 <TEE_AEUpdate+0x76>
/home/test/devel/optee/optee_os/lib/libutee/tee_api_operations.c:1383
    2466:	f04f 0306 	mov.w	r3, #6
    246a:	f6cf 73ff 	movt	r3, #65535	; 0xffff
    246e:	61fb      	str	r3, [r7, #28]
/home/test/devel/optee/optee_os/lib/libutee/tee_api_operations.c:1384
    2470:	e06b      	b.n	254a <TEE_AEUpdate+0x14e>
/home/test/devel/optee/optee_os/lib/libutee/tee_api_operations.c:1387
    2472:	68bb      	ldr	r3, [r7, #8]
    2474:	2b00      	cmp	r3, #0
    2476:	d10a      	bne.n	248e <TEE_AEUpdate+0x92>
/home/test/devel/optee/optee_os/lib/libutee/tee_api_operations.c:1387 (discriminator 1)
    2478:	687b      	ldr	r3, [r7, #4]
    247a:	2b00      	cmp	r3, #0
    247c:	d107      	bne.n	248e <TEE_AEUpdate+0x92>
/home/test/devel/optee/optee_os/lib/libutee/tee_api_operations.c:1388
    247e:	6b3b      	ldr	r3, [r7, #48]	; 0x30
    2480:	f04f 0200 	mov.w	r2, #0
    2484:	601a      	str	r2, [r3, #0]
/home/test/devel/optee/optee_os/lib/libutee/tee_api_operations.c:1389
    2486:	f04f 0300 	mov.w	r3, #0
    248a:	61fb      	str	r3, [r7, #28]
/home/test/devel/optee/optee_os/lib/libutee/tee_api_operations.c:1390
    248c:	e05d      	b.n	254a <TEE_AEUpdate+0x14e>
/home/test/devel/optee/optee_os/lib/libutee/tee_api_operations.c:1398
    248e:	68fb      	ldr	r3, [r7, #12]
    2490:	6b5b      	ldr	r3, [r3, #52]	; 0x34
    2492:	2b01      	cmp	r3, #1
    2494:	d90b      	bls.n	24ae <TEE_AEUpdate+0xb2>
/home/test/devel/optee/optee_os/lib/libutee/tee_api_operations.c:1399
    2496:	68fb      	ldr	r3, [r7, #12]
    2498:	6b9a      	ldr	r2, [r3, #56]	; 0x38
    249a:	687b      	ldr	r3, [r7, #4]
    249c:	441a      	add	r2, r3
    249e:	68fb      	ldr	r3, [r7, #12]
    24a0:	6b5b      	ldr	r3, [r3, #52]	; 0x34
    24a2:	f1c3 0300 	rsb	r3, r3, #0
    24a6:	ea03 0302 	and.w	r3, r3, r2
    24aa:	61bb      	str	r3, [r7, #24]
    24ac:	e001      	b.n	24b2 <TEE_AEUpdate+0xb6>
/home/test/devel/optee/optee_os/lib/libutee/tee_api_operations.c:1402
    24ae:	687b      	ldr	r3, [r7, #4]
    24b0:	61bb      	str	r3, [r7, #24]
/home/test/devel/optee/optee_os/lib/libutee/tee_api_operations.c:1405
    24b2:	6b3b      	ldr	r3, [r7, #48]	; 0x30
    24b4:	681a      	ldr	r2, [r3, #0]
    24b6:	69bb      	ldr	r3, [r7, #24]
    24b8:	429a      	cmp	r2, r3
    24ba:	d208      	bcs.n	24ce <TEE_AEUpdate+0xd2>
/home/test/devel/optee/optee_os/lib/libutee/tee_api_operations.c:1406
    24bc:	6b3b      	ldr	r3, [r7, #48]	; 0x30
    24be:	69ba      	ldr	r2, [r7, #24]
    24c0:	601a      	str	r2, [r3, #0]
/home/test/devel/optee/optee_os/lib/libutee/tee_api_operations.c:1407
    24c2:	f04f 0310 	mov.w	r3, #16
    24c6:	f6cf 73ff 	movt	r3, #65535	; 0xffff
    24ca:	61fb      	str	r3, [r7, #28]
/home/test/devel/optee/optee_os/lib/libutee/tee_api_operations.c:1408
    24cc:	e03d      	b.n	254a <TEE_AEUpdate+0x14e>
/home/test/devel/optee/optee_os/lib/libutee/tee_api_operations.c:1411
    24ce:	6b3b      	ldr	r3, [r7, #48]	; 0x30
    24d0:	681b      	ldr	r3, [r3, #0]
    24d2:	f04f 0400 	mov.w	r4, #0
    24d6:	e9c7 3404 	strd	r3, r4, [r7, #16]
/home/test/devel/optee/optee_os/lib/libutee/tee_api_operations.c:1412
    24da:	68fb      	ldr	r3, [r7, #12]
    24dc:	6b5b      	ldr	r3, [r3, #52]	; 0x34
    24de:	2b01      	cmp	r3, #1
    24e0:	d90d      	bls.n	24fe <TEE_AEUpdate+0x102>
/home/test/devel/optee/optee_os/lib/libutee/tee_api_operations.c:1413
    24e2:	f107 0310 	add.w	r3, r7, #16
    24e6:	9301      	str	r3, [sp, #4]
    24e8:	683b      	ldr	r3, [r7, #0]
    24ea:	9300      	str	r3, [sp, #0]
    24ec:	687b      	ldr	r3, [r7, #4]
    24ee:	68ba      	ldr	r2, [r7, #8]
    24f0:	4922      	ldr	r1, [pc, #136]	; (257c <TEE_AEUpdate+0x180>)
    24f2:	5841      	ldr	r1, [r0, r1]
    24f4:	68f8      	ldr	r0, [r7, #12]
    24f6:	f7ff f9e1 	bl	18bc <tee_buffer_update>
    24fa:	61f8      	str	r0, [r7, #28]
    24fc:	e017      	b.n	252e <TEE_AEUpdate+0x132>
/home/test/devel/optee/optee_os/lib/libutee/tee_api_operations.c:1416
    24fe:	687b      	ldr	r3, [r7, #4]
    2500:	2b00      	cmp	r3, #0
    2502:	d00b      	beq.n	251c <TEE_AEUpdate+0x120>
/home/test/devel/optee/optee_os/lib/libutee/tee_api_operations.c:1417
    2504:	68fb      	ldr	r3, [r7, #12]
    2506:	6bd8      	ldr	r0, [r3, #60]	; 0x3c
    2508:	f107 0310 	add.w	r3, r7, #16
    250c:	9300      	str	r3, [sp, #0]
    250e:	683b      	ldr	r3, [r7, #0]
    2510:	687a      	ldr	r2, [r7, #4]
    2512:	68b9      	ldr	r1, [r7, #8]
    2514:	f001 e9ae 	blx	3874 <utee_authenc_update_payload>
    2518:	61f8      	str	r0, [r7, #28]
    251a:	e008      	b.n	252e <TEE_AEUpdate+0x132>
/home/test/devel/optee/optee_os/lib/libutee/tee_api_operations.c:1421
    251c:	f04f 0300 	mov.w	r3, #0
    2520:	f04f 0400 	mov.w	r4, #0
    2524:	e9c7 3404 	strd	r3, r4, [r7, #16]
/home/test/devel/optee/optee_os/lib/libutee/tee_api_operations.c:1422
    2528:	f04f 0300 	mov.w	r3, #0
    252c:	61fb      	str	r3, [r7, #28]
/home/test/devel/optee/optee_os/lib/libutee/tee_api_operations.c:1425
    252e:	69fb      	ldr	r3, [r7, #28]
    2530:	2b00      	cmp	r3, #0
    2532:	d109      	bne.n	2548 <TEE_AEUpdate+0x14c>
